Archive member included because of file (symbol)

/local/mnt/workspace/CRMBuilds/TZ.BF.4.0.3.c1-00005-M8996AAAAANAZT-1_20170110_230814/b/HK11/trustzone_images/core/kernel/libstd/build/fidosui/scorpion/IADAANAA/libstd.lib(memscpy.o)
                              /local/mnt/workspace/CRMBuilds/TZ.BF.4.0.3.c1-00005-M8996AAAAANAZT-1_20170110_230814/b/HK11/trustzone_images/apps/securemsm/trustzone/qsapps/fidosui/ipc/build/fidosui/scorpion/IADAANAA/src/CFidoSuiToken.o (memscpy)
/local/mnt/workspace/CRMBuilds/TZ.BF.4.0.3.c1-00005-M8996AAAAANAZT-1_20170110_230814/b/HK11/trustzone_images/core/securemsm/trustzone/qsapps/libs/applib/common_applib/build/fidosui/scorpion/IADAANAA/tzapp_entrylib.lib(common_applib.o)
                              /local/mnt/workspace/CRMBuilds/TZ.BF.4.0.3.c1-00005-M8996AAAAANAZT-1_20170110_230814/b/HK11/trustzone_images/apps/securemsm/trustzone/qsapps/fidosui/ipc/build/fidosui/scorpion/IADAANAA/src/CFidoSuiToken.o (__stack_chk_fail)
/local/mnt/workspace/CRMBuilds/TZ.BF.4.0.3.c1-00005-M8996AAAAANAZT-1_20170110_230814/b/HK11/trustzone_images/core/securemsm/trustzone/qsapps/libs/applib/proxy/build/fidosui/scorpion/IADAANAA/tzlib_proxy.lib(prxy_services.o)
                              /local/mnt/workspace/CRMBuilds/TZ.BF.4.0.3.c1-00005-M8996AAAAANAZT-1_20170110_230814/b/HK11/trustzone_images/apps/securemsm/trustzone/qsapps/fidosui/ipc/build/fidosui/scorpion/IADAANAA/src/CFidoSuiToken.o (qsee_log)
/local/mnt/workspace/CRMBuilds/TZ.BF.4.0.3.c1-00005-M8996AAAAANAZT-1_20170110_230814/b/HK11/trustzone_images/core/securemsm/trustzone/qsapps/libs/applib/qsee/build/fidosui/scorpion/IADAANAA/tzapp_entrylib.lib(mink_shared_code.o)
                              /local/mnt/workspace/CRMBuilds/TZ.BF.4.0.3.c1-00005-M8996AAAAANAZT-1_20170110_230814/b/HK11/trustzone_images/core/securemsm/trustzone/qsapps/libs/applib/common_applib/build/fidosui/scorpion/IADAANAA/tzapp_entrylib.lib(common_applib.o) (minkIPC)
/local/mnt/workspace/CRMBuilds/TZ.BF.4.0.3.c1-00005-M8996AAAAANAZT-1_20170110_230814/b/HK11/trustzone_images/core/securemsm/trustzone/qsapps/libs/applib/qsee/build/fidosui/scorpion/IADAANAA/tzapp_entrylib.lib(qsee_env.o)
                              /local/mnt/workspace/CRMBuilds/TZ.BF.4.0.3.c1-00005-M8996AAAAANAZT-1_20170110_230814/b/HK11/trustzone_images/core/securemsm/trustzone/qsapps/libs/applib/common_applib/build/fidosui/scorpion/IADAANAA/tzapp_entrylib.lib(common_applib.o) (qsee_open)
/local/mnt/workspace/CRMBuilds/TZ.BF.4.0.3.c1-00005-M8996AAAAANAZT-1_20170110_230814/b/HK11/trustzone_images/core/securemsm/trustzone/qsapps/libs/applib/qsee/build/fidosui/scorpion/IADAANAA/tzapp_entrylib.lib(qsee_prng.o)
                              /local/mnt/workspace/CRMBuilds/TZ.BF.4.0.3.c1-00005-M8996AAAAANAZT-1_20170110_230814/b/HK11/trustzone_images/core/securemsm/trustzone/qsapps/libs/applib/common_applib/build/fidosui/scorpion/IADAANAA/tzapp_entrylib.lib(common_applib.o) (qsee_prng_getdata)
/local/mnt/workspace/CRMBuilds/TZ.BF.4.0.3.c1-00005-M8996AAAAANAZT-1_20170110_230814/b/HK11/trustzone_images/core/securemsm/trustzone/qsapps/libs/applib/qsee/build/fidosui/scorpion/IADAANAA/tzapp_entrylib.lib(tzapp_syscall.o)
                              /local/mnt/workspace/CRMBuilds/TZ.BF.4.0.3.c1-00005-M8996AAAAANAZT-1_20170110_230814/b/HK11/trustzone_images/core/securemsm/trustzone/qsapps/libs/applib/qsee/build/fidosui/scorpion/IADAANAA/src/tzapp_entry.o (app_export_init_info_to_qsee)
/local/mnt/workspace/CRMBuilds/TZ.BF.4.0.3.c1-00005-M8996AAAAANAZT-1_20170110_230814/b/HK11/trustzone_images/core/securemsm/trustzone/qsapps/libs/applib/qsee/build/fidosui/scorpion/IADAANAA/tzapp_entrylib.lib(tzapp_lib_main.o)
                              /local/mnt/workspace/CRMBuilds/TZ.BF.4.0.3.c1-00005-M8996AAAAANAZT-1_20170110_230814/b/HK11/trustzone_images/core/securemsm/trustzone/qsapps/libs/applib/common_applib/build/fidosui/scorpion/IADAANAA/tzapp_entrylib.lib(common_applib.o) (CApp_invoke)
/local/mnt/workspace/CRMBuilds/TZ.BF.4.0.3.c1-00005-M8996AAAAANAZT-1_20170110_230814/b/HK11/trustzone_images/core/securemsm/trustzone/qsapps/libs/applib/qsee/build/fidosui/scorpion/IADAANAA/tzapp_entrylib.lib(kthread_shared.o)
                              /local/mnt/workspace/CRMBuilds/TZ.BF.4.0.3.c1-00005-M8996AAAAANAZT-1_20170110_230814/b/HK11/trustzone_images/core/securemsm/trustzone/qsapps/libs/applib/qsee/build/fidosui/scorpion/IADAANAA/tzapp_entrylib.lib(mink_shared_code.o) (mink_generic_syscall)
/afs/localcell/cm/gv2.6/sysname/pkg.@sys/qct/software/llvm/release/arm/3.5.2.4/tools/lib32/lib/libc.a(vsnprintf.o)
                              /local/mnt/workspace/CRMBuilds/TZ.BF.4.0.3.c1-00005-M8996AAAAANAZT-1_20170110_230814/b/HK11/trustzone_images/core/securemsm/trustzone/qsapps/libs/applib/proxy/build/fidosui/scorpion/IADAANAA/tzlib_proxy.lib(prxy_services.o) (vsnprintf)
/afs/localcell/cm/gv2.6/sysname/pkg.@sys/qct/software/llvm/release/arm/3.5.2.4/tools/lib32/lib/libc.a(memcpy.o)
                              /afs/localcell/cm/gv2.6/sysname/pkg.@sys/qct/software/llvm/release/arm/3.5.2.4/tools/lib32/lib/libc.a(vsnprintf.o) (memcpy)
/afs/localcell/cm/gv2.6/sysname/pkg.@sys/qct/software/llvm/release/arm/3.5.2.4/tools/lib32/lib/libc.a(strlen.o)
                              /local/mnt/workspace/CRMBuilds/TZ.BF.4.0.3.c1-00005-M8996AAAAANAZT-1_20170110_230814/b/HK11/trustzone_images/core/securemsm/trustzone/qsapps/libs/applib/common_applib/build/fidosui/scorpion/IADAANAA/tzapp_entrylib.lib(common_applib.o) (strlen)
/afs/localcell/cm/gv2.6/sysname/pkg.@sys/qct/software/llvm/release/arm/3.5.2.4/tools/lib32/lib/libc.a(__errno_location.o)
                              /afs/localcell/cm/gv2.6/sysname/pkg.@sys/qct/software/llvm/release/arm/3.5.2.4/tools/lib32/lib/libc.a(vsnprintf.o) (__errno_location)
/afs/localcell/cm/gv2.6/sysname/pkg.@sys/qct/software/llvm/release/arm/3.5.2.4/tools/lib32/lib/libc.a(libc.o)
                              /afs/localcell/cm/gv2.6/sysname/pkg.@sys/qct/software/llvm/release/arm/3.5.2.4/tools/lib32/lib/libc.a(__errno_location.o) (__libc)
/afs/localcell/cm/gv2.6/sysname/pkg.@sys/qct/software/llvm/release/arm/3.5.2.4/tools/lib32/lib/libc.a(vfprintf.o)
                              /afs/localcell/cm/gv2.6/sysname/pkg.@sys/qct/software/llvm/release/arm/3.5.2.4/tools/lib32/lib/libc.a(vsnprintf.o) (vfprintf)
/afs/localcell/cm/gv2.6/sysname/pkg.@sys/qct/software/llvm/release/arm/3.5.2.4/tools/lib32/lib/libc.a(memchr.o)
                              /afs/localcell/cm/gv2.6/sysname/pkg.@sys/qct/software/llvm/release/arm/3.5.2.4/tools/lib32/lib/libc.a(vfprintf.o) (memchr)
/afs/localcell/cm/gv2.6/sysname/pkg.@sys/qct/software/llvm/release/arm/3.5.2.4/tools/lib32/lib/libc.a(memset.o)
                              /afs/localcell/cm/gv2.6/sysname/pkg.@sys/qct/software/llvm/release/arm/3.5.2.4/tools/lib32/lib/libc.a(vfprintf.o) (memset)
/afs/localcell/cm/gv2.6/sysname/pkg.@sys/qct/software/llvm/release/arm/3.5.2.4/tools/lib32/lib/libc.a(strerror.o)
                              /afs/localcell/cm/gv2.6/sysname/pkg.@sys/qct/software/llvm/release/arm/3.5.2.4/tools/lib32/lib/libc.a(vfprintf.o) (strerror)
/afs/localcell/cm/gv2.6/sysname/pkg.@sys/qct/software/llvm/release/arm/3.5.2.4/tools/lib32/lib/libc.a(__lctrans.o)
                              /afs/localcell/cm/gv2.6/sysname/pkg.@sys/qct/software/llvm/release/arm/3.5.2.4/tools/lib32/lib/libc.a(strerror.o) (__lctrans)
/afs/localcell/cm/gv2.6/sysname/pkg.@sys/qct/software/llvm/release/arm/3.5.2.4/tools/lib32/lib/libc.a(frexpl.o)
                              /afs/localcell/cm/gv2.6/sysname/pkg.@sys/qct/software/llvm/release/arm/3.5.2.4/tools/lib32/lib/libc.a(vfprintf.o) (frexpl)
/afs/localcell/cm/gv2.6/sysname/pkg.@sys/qct/software/llvm/release/arm/3.5.2.4/tools/lib32/lib/libc.a(wctomb.o)
                              /afs/localcell/cm/gv2.6/sysname/pkg.@sys/qct/software/llvm/release/arm/3.5.2.4/tools/lib32/lib/libc.a(vfprintf.o) (wctomb)
/afs/localcell/cm/gv2.6/sysname/pkg.@sys/qct/software/llvm/release/arm/3.5.2.4/tools/lib32/lib/libc.a(__lockfile.o)
                              /afs/localcell/cm/gv2.6/sysname/pkg.@sys/qct/software/llvm/release/arm/3.5.2.4/tools/lib32/lib/libc.a(vfprintf.o) (__lockfile)
/afs/localcell/cm/gv2.6/sysname/pkg.@sys/qct/software/llvm/release/arm/3.5.2.4/tools/lib32/lib/libc.a(fwrite.o)
                              /afs/localcell/cm/gv2.6/sysname/pkg.@sys/qct/software/llvm/release/arm/3.5.2.4/tools/lib32/lib/libc.a(vfprintf.o) (__fwritex)
/afs/localcell/cm/gv2.6/sysname/pkg.@sys/qct/software/llvm/release/arm/3.5.2.4/tools/lib32/lib/libc.a(__wait.o)
                              /afs/localcell/cm/gv2.6/sysname/pkg.@sys/qct/software/llvm/release/arm/3.5.2.4/tools/lib32/lib/libc.a(__lockfile.o) (__wait)
/afs/localcell/cm/gv2.6/sysname/pkg.@sys/qct/software/llvm/release/arm/3.5.2.4/tools/lib32/lib/libc.a(syscall.o)
                              /afs/localcell/cm/gv2.6/sysname/pkg.@sys/qct/software/llvm/release/arm/3.5.2.4/tools/lib32/lib/libc.a(__lockfile.o) (__syscall)
/afs/localcell/cm/gv2.6/sysname/pkg.@sys/qct/software/llvm/release/arm/3.5.2.4/tools/lib32/lib/libc.a(frexp.o)
                              /afs/localcell/cm/gv2.6/sysname/pkg.@sys/qct/software/llvm/release/arm/3.5.2.4/tools/lib32/lib/libc.a(frexpl.o) (frexp)
/afs/localcell/cm/gv2.6/sysname/pkg.@sys/qct/software/llvm/release/arm/3.5.2.4/tools/lib32/lib/libc.a(wcrtomb.o)
                              /afs/localcell/cm/gv2.6/sysname/pkg.@sys/qct/software/llvm/release/arm/3.5.2.4/tools/lib32/lib/libc.a(wctomb.o) (wcrtomb)
/afs/localcell/cm/gv2.6/sysname/pkg.@sys/qct/software/llvm/release/arm/3.5.2.4/tools/lib32/lib/libc.a(__towrite.o)
                              /afs/localcell/cm/gv2.6/sysname/pkg.@sys/qct/software/llvm/release/arm/3.5.2.4/tools/lib32/lib/libc.a(fwrite.o) (__towrite)
/afs/localcell/cm/gv2.6/sysname/pkg.@sys/qct/software/llvm/release/arm/3.5.2.4/tools/lib32/lib/libc.a(__stdio_exit.o)
                              /afs/localcell/cm/gv2.6/sysname/pkg.@sys/qct/software/llvm/release/arm/3.5.2.4/tools/lib32/lib/libc.a(__towrite.o) (__stdio_exit_needed)
/afs/localcell/cm/gv2.6/sysname/pkg.@sys/qct/software/llvm/release/arm/3.5.2.4/tools/lib32/lib/libc.a(__lock.o)
                              /afs/localcell/cm/gv2.6/sysname/pkg.@sys/qct/software/llvm/release/arm/3.5.2.4/tools/lib32/lib/libc.a(__stdio_exit.o) (__lock)
/afs/localcell/cm/gv2.6/sysname/pkg.@sys/qct/software/llvm/release/arm/3.5.2.4/lib/clang/3.5.2/lib/linux/libclang_rt.builtins-arm.a(aeabi_memcpy.S.o)
                              /local/mnt/workspace/CRMBuilds/TZ.BF.4.0.3.c1-00005-M8996AAAAANAZT-1_20170110_230814/b/HK11/trustzone_images/core/kernel/libstd/build/fidosui/scorpion/IADAANAA/libstd.lib(memscpy.o) (__aeabi_memcpy)
/afs/localcell/cm/gv2.6/sysname/pkg.@sys/qct/software/llvm/release/arm/3.5.2.4/lib/clang/3.5.2/lib/linux/libclang_rt.builtins-arm.a(aeabi_memset.S.o)
                              /local/mnt/workspace/CRMBuilds/TZ.BF.4.0.3.c1-00005-M8996AAAAANAZT-1_20170110_230814/b/HK11/trustzone_images/core/securemsm/trustzone/qsapps/libs/applib/proxy/build/fidosui/scorpion/IADAANAA/tzlib_proxy.lib(prxy_services.o) (__aeabi_memset)
/afs/localcell/cm/gv2.6/sysname/pkg.@sys/qct/software/llvm/release/arm/3.5.2.4/lib/clang/3.5.2/lib/linux/libclang_rt.builtins-arm.a(aeabi_uldivmod.S.o)
                              /afs/localcell/cm/gv2.6/sysname/pkg.@sys/qct/software/llvm/release/arm/3.5.2.4/tools/lib32/lib/libc.a(vfprintf.o) (__aeabi_uldivmod)
/afs/localcell/cm/gv2.6/sysname/pkg.@sys/qct/software/llvm/release/arm/3.5.2.4/lib/clang/3.5.2/lib/linux/libclang_rt.builtins-arm.a(udivmoddi4.c.o)
                              /afs/localcell/cm/gv2.6/sysname/pkg.@sys/qct/software/llvm/release/arm/3.5.2.4/lib/clang/3.5.2/lib/linux/libclang_rt.builtins-arm.a(aeabi_uldivmod.S.o) (__udivmoddi4)
/afs/localcell/cm/gv2.6/sysname/pkg.@sys/qct/software/llvm/release/arm/3.5.2.4/lib/clang/3.5.2/lib/linux/libclang_rt.builtins-arm.a(udivsi3.c.o)
                              /afs/localcell/cm/gv2.6/sysname/pkg.@sys/qct/software/llvm/release/arm/3.5.2.4/lib/clang/3.5.2/lib/linux/libclang_rt.builtins-arm.a(udivmoddi4.c.o) (__aeabi_uidiv)
/afs/localcell/cm/gv2.6/sysname/pkg.@sys/qct/software/llvm/release/arm/3.5.2.4/lib/clang/3.5.2/lib/linux/libclang_rt.builtins-arm.a(umoddi3.c.o)
                              /afs/localcell/cm/gv2.6/sysname/pkg.@sys/qct/software/llvm/release/arm/3.5.2.4/tools/lib32/lib/libc.a(vfprintf.o) (__umoddi3)
/afs/localcell/cm/gv2.6/sysname/pkg.@sys/qct/software/llvm/release/arm/3.5.2.4/lib/clang/3.5.2/lib/linux/libclang_rt.builtins-arm.a(umodsi3.c.o)
                              /afs/localcell/cm/gv2.6/sysname/pkg.@sys/qct/software/llvm/release/arm/3.5.2.4/lib/clang/3.5.2/lib/linux/libclang_rt.builtins-arm.a(udivmoddi4.c.o) (__umodsi3)
/local/mnt/workspace/CRMBuilds/TZ.BF.4.0.3.c1-00005-M8996AAAAANAZT-1_20170110_230814/b/HK11/trustzone_images/apps/securemsm/trustzone/qsapps/fidosui/app/build/fidosui/scorpion/IADAANAA/fidosui_app.lib(app_main.o)
                              /local/mnt/workspace/CRMBuilds/TZ.BF.4.0.3.c1-00005-M8996AAAAANAZT-1_20170110_230814/b/HK11/trustzone_images/core/securemsm/trustzone/qsapps/libs/applib/qsee/build/fidosui/scorpion/IADAANAA/tzapp_entrylib.lib(tzapp_lib_main.o) (tz_app_cmd_handler)
/local/mnt/workspace/CRMBuilds/TZ.BF.4.0.3.c1-00005-M8996AAAAANAZT-1_20170110_230814/b/HK11/trustzone_images/apps/securemsm/trustzone/qsapps/fidosui/app/build/fidosui/scorpion/IADAANAA/fidosui_app.lib(01_Initialize.o)
                              /local/mnt/workspace/CRMBuilds/TZ.BF.4.0.3.c1-00005-M8996AAAAANAZT-1_20170110_230814/b/HK11/trustzone_images/apps/securemsm/trustzone/qsapps/fidosui/app/build/fidosui/scorpion/IADAANAA/fidosui_app.lib(app_main.o) (processCmdInitialize)
/local/mnt/workspace/CRMBuilds/TZ.BF.4.0.3.c1-00005-M8996AAAAANAZT-1_20170110_230814/b/HK11/trustzone_images/apps/securemsm/trustzone/qsapps/fidosui/app/build/fidosui/scorpion/IADAANAA/fidosui_app.lib(08_ShowMessageSui.o)
                              /local/mnt/workspace/CRMBuilds/TZ.BF.4.0.3.c1-00005-M8996AAAAANAZT-1_20170110_230814/b/HK11/trustzone_images/apps/securemsm/trustzone/qsapps/fidosui/ipc/build/fidosui/scorpion/IADAANAA/src/CFidoSuiToken.o (g_token)
/local/mnt/workspace/CRMBuilds/TZ.BF.4.0.3.c1-00005-M8996AAAAANAZT-1_20170110_230814/b/HK11/trustzone_images/apps/securemsm/trustzone/qsapps/fidosui/app/build/fidosui/scorpion/IADAANAA/fidosui_app.lib(fsSecureUI.o)
                              /local/mnt/workspace/CRMBuilds/TZ.BF.4.0.3.c1-00005-M8996AAAAANAZT-1_20170110_230814/b/HK11/trustzone_images/apps/securemsm/trustzone/qsapps/fidosui/app/build/fidosui/scorpion/IADAANAA/fidosui_app.lib(08_ShowMessageSui.o) (clear_tui)
/local/mnt/workspace/CRMBuilds/TZ.BF.4.0.3.c1-00005-M8996AAAAANAZT-1_20170110_230814/b/HK11/trustzone_images/apps/securemsm/trustzone/qsapps/fidosui/app/build/fidosui/scorpion/IADAANAA/fidosui_app.lib(fsLocale.o)
                              /local/mnt/workspace/CRMBuilds/TZ.BF.4.0.3.c1-00005-M8996AAAAANAZT-1_20170110_230814/b/HK11/trustzone_images/apps/securemsm/trustzone/qsapps/fidosui/app/build/fidosui/scorpion/IADAANAA/fidosui_app.lib(fsSecureUI.o) (getLocaleData)
/local/mnt/workspace/CRMBuilds/TZ.BF.4.0.3.c1-00005-M8996AAAAANAZT-1_20170110_230814/b/HK11/trustzone_images/apps/securemsm/trustzone/qsapps/fidosui/config/build/fidosui/scorpion/IADAANAA/fidosui_config.lib(config.o)
                              /local/mnt/workspace/CRMBuilds/TZ.BF.4.0.3.c1-00005-M8996AAAAANAZT-1_20170110_230814/b/HK11/trustzone_images/apps/securemsm/trustzone/qsapps/fidosui/app/build/fidosui/scorpion/IADAANAA/fidosui_app.lib(01_Initialize.o) (g_config)
/local/mnt/workspace/CRMBuilds/TZ.BF.4.0.3.c1-00005-M8996AAAAANAZT-1_20170110_230814/b/HK11/trustzone_images/apps/securemsm/trustzone/qsapps/fidosui/locale/build/fidosui/scorpion/IADAANAA/fidosui_locale.lib(locale.o)
                              /local/mnt/workspace/CRMBuilds/TZ.BF.4.0.3.c1-00005-M8996AAAAANAZT-1_20170110_230814/b/HK11/trustzone_images/apps/securemsm/trustzone/qsapps/fidosui/app/build/fidosui/scorpion/IADAANAA/fidosui_app.lib(fsLocale.o) (layout_data)
/local/mnt/workspace/CRMBuilds/TZ.BF.4.0.3.c1-00005-M8996AAAAANAZT-1_20170110_230814/b/HK11/trustzone_images/core/kernel/libstd/build/fidosui/scorpion/IADAANAA/libstd.lib(secure_memset.o)
                              /local/mnt/workspace/CRMBuilds/TZ.BF.4.0.3.c1-00005-M8996AAAAANAZT-1_20170110_230814/b/HK11/trustzone_images/core/securemsm/trustzone/qsapps/libs/applib/common_applib/build/fidosui/scorpion/IADAANAA/tzapp_entrylib.lib(common_applib.o) (secure_memset)
/local/mnt/workspace/CRMBuilds/TZ.BF.4.0.3.c1-00005-M8996AAAAANAZT-1_20170110_230814/b/HK11/trustzone_images/core/securemsm/sse/log/build/fidosui/scorpion/IADAANAA/sselog.lib(sselog.o)
                              /local/mnt/workspace/CRMBuilds/TZ.BF.4.0.3.c1-00005-M8996AAAAANAZT-1_20170110_230814/b/HK11/trustzone_images/apps/securemsm/trustzone/qsapps/fidosui/app/build/fidosui/scorpion/IADAANAA/fidosui_app.lib(08_ShowMessageSui.o) (dumpHex)
/local/mnt/workspace/CRMBuilds/TZ.BF.4.0.3.c1-00005-M8996AAAAANAZT-1_20170110_230814/b/HK11/trustzone_images/core/securemsm/sse/qsee/SecureUI/build/fidosui/scorpion/IADAANAA/secure_ui.lib(SecureUI.o)
                              /local/mnt/workspace/CRMBuilds/TZ.BF.4.0.3.c1-00005-M8996AAAAANAZT-1_20170110_230814/b/HK11/trustzone_images/apps/securemsm/trustzone/qsapps/fidosui/app/build/fidosui/scorpion/IADAANAA/fidosui_app.lib(app_main.o) (sec_ui_hlos_release)
/local/mnt/workspace/CRMBuilds/TZ.BF.4.0.3.c1-00005-M8996AAAAANAZT-1_20170110_230814/b/HK11/trustzone_images/core/securemsm/sse/qsee/SecureUI/build/fidosui/scorpion/IADAANAA/secure_ui_tui.lib(qsee_tui_dialogs.o)
                              /local/mnt/workspace/CRMBuilds/TZ.BF.4.0.3.c1-00005-M8996AAAAANAZT-1_20170110_230814/b/HK11/trustzone_images/apps/securemsm/trustzone/qsapps/fidosui/app/build/fidosui/scorpion/IADAANAA/fidosui_app.lib(fsSecureUI.o) (qsee_tui_dialog)
/local/mnt/workspace/CRMBuilds/TZ.BF.4.0.3.c1-00005-M8996AAAAANAZT-1_20170110_230814/b/HK11/trustzone_images/core/securemsm/sse/qsee/SecureUI/build/fidosui/scorpion/IADAANAA/secure_ui_tui.lib(layout_manager.o)
                              /local/mnt/workspace/CRMBuilds/TZ.BF.4.0.3.c1-00005-M8996AAAAANAZT-1_20170110_230814/b/HK11/trustzone_images/core/securemsm/sse/qsee/SecureUI/build/fidosui/scorpion/IADAANAA/secure_ui_tui.lib(qsee_tui_dialogs.o) (layout_mgr_clear_input_buffer)
/local/mnt/workspace/CRMBuilds/TZ.BF.4.0.3.c1-00005-M8996AAAAANAZT-1_20170110_230814/b/HK11/trustzone_images/core/securemsm/sse/qsee/SecureUI/build/fidosui/scorpion/IADAANAA/secure_ui_tui.lib(secure_display_renderer.o)
                              /local/mnt/workspace/CRMBuilds/TZ.BF.4.0.3.c1-00005-M8996AAAAANAZT-1_20170110_230814/b/HK11/trustzone_images/core/securemsm/sse/qsee/SecureUI/build/fidosui/scorpion/IADAANAA/secure_ui_tui.lib(layout_manager.o) (get_utf8_len)
/local/mnt/workspace/CRMBuilds/TZ.BF.4.0.3.c1-00005-M8996AAAAANAZT-1_20170110_230814/b/HK11/trustzone_images/core/securemsm/sse/qsee/SecureUI/build/fidosui/scorpion/IADAANAA/secure_ui_tui.lib(font_manager.o)
                              /local/mnt/workspace/CRMBuilds/TZ.BF.4.0.3.c1-00005-M8996AAAAANAZT-1_20170110_230814/b/HK11/trustzone_images/core/securemsm/sse/qsee/SecureUI/build/fidosui/scorpion/IADAANAA/secure_ui_tui.lib(secure_display_renderer.o) (font_mgr_prepare_gdfont)
/local/mnt/workspace/CRMBuilds/TZ.BF.4.0.3.c1-00005-M8996AAAAANAZT-1_20170110_230814/b/HK11/trustzone_images/core/securemsm/sse/qsee/SecureUILib/lib/build/fidosui/scorpion/IADAANAA/secure_ui_lib.lib(SecureUILib.o)
                              /local/mnt/workspace/CRMBuilds/TZ.BF.4.0.3.c1-00005-M8996AAAAANAZT-1_20170110_230814/b/HK11/trustzone_images/apps/securemsm/trustzone/qsapps/fidosui/app/build/fidosui/scorpion/IADAANAA/fidosui_app.lib(app_main.o) (secUiProcessCmd)
/local/mnt/workspace/CRMBuilds/TZ.BF.4.0.3.c1-00005-M8996AAAAANAZT-1_20170110_230814/b/HK11/trustzone_images/core/securemsm/sse/qsee/SecureUILib/lib/build/fidosui/scorpion/IADAANAA/secure_ui_lib.lib(01_startTouch.o)
                              /local/mnt/workspace/CRMBuilds/TZ.BF.4.0.3.c1-00005-M8996AAAAANAZT-1_20170110_230814/b/HK11/trustzone_images/core/securemsm/sse/qsee/SecureUILib/lib/build/fidosui/scorpion/IADAANAA/secure_ui_lib.lib(SecureUILib.o) (processCmdStartTouch)
/local/mnt/workspace/CRMBuilds/TZ.BF.4.0.3.c1-00005-M8996AAAAANAZT-1_20170110_230814/b/HK11/trustzone_images/core/securemsm/sse/qsee/SecureUILib/lib/build/fidosui/scorpion/IADAANAA/secure_ui_lib.lib(02_processTouch.o)
                              /local/mnt/workspace/CRMBuilds/TZ.BF.4.0.3.c1-00005-M8996AAAAANAZT-1_20170110_230814/b/HK11/trustzone_images/core/securemsm/sse/qsee/SecureUILib/lib/build/fidosui/scorpion/IADAANAA/secure_ui_lib.lib(SecureUILib.o) (processCmdProcessTouch)
/local/mnt/workspace/CRMBuilds/TZ.BF.4.0.3.c1-00005-M8996AAAAANAZT-1_20170110_230814/b/HK11/trustzone_images/core/securemsm/sse/qsee/SecureUILib/lib/build/fidosui/scorpion/IADAANAA/secure_ui_lib.lib(03_stopTouch.o)
                              /local/mnt/workspace/CRMBuilds/TZ.BF.4.0.3.c1-00005-M8996AAAAANAZT-1_20170110_230814/b/HK11/trustzone_images/core/securemsm/sse/qsee/SecureUILib/lib/build/fidosui/scorpion/IADAANAA/secure_ui_lib.lib(SecureUILib.o) (processCmdStopTouch)
/local/mnt/workspace/CRMBuilds/TZ.BF.4.0.3.c1-00005-M8996AAAAANAZT-1_20170110_230814/b/HK11/trustzone_images/core/securemsm/sse/qsee/SecureUILib/lib/build/fidosui/scorpion/IADAANAA/secure_ui_lib.lib(04_prepareRequest.o)
                              /local/mnt/workspace/CRMBuilds/TZ.BF.4.0.3.c1-00005-M8996AAAAANAZT-1_20170110_230814/b/HK11/trustzone_images/core/securemsm/sse/qsee/SecureUILib/lib/build/fidosui/scorpion/IADAANAA/secure_ui_lib.lib(SecureUILib.o) (processCmdPrepareRequest)
/local/mnt/workspace/CRMBuilds/TZ.BF.4.0.3.c1-00005-M8996AAAAANAZT-1_20170110_230814/b/HK11/trustzone_images/core/securemsm/sse/qsee/SecureUILib/lib/build/fidosui/scorpion/IADAANAA/secure_ui_lib.lib(05_storeIndicator.o)
                              /local/mnt/workspace/CRMBuilds/TZ.BF.4.0.3.c1-00005-M8996AAAAANAZT-1_20170110_230814/b/HK11/trustzone_images/core/securemsm/sse/qsee/SecureUILib/lib/build/fidosui/scorpion/IADAANAA/secure_ui_lib.lib(SecureUILib.o) (processCmdStoreIndicator)
/local/mnt/workspace/CRMBuilds/TZ.BF.4.0.3.c1-00005-M8996AAAAANAZT-1_20170110_230814/b/HK11/trustzone_images/core/securemsm/trustzone/qsapps/libs/applib/proxy/build/fidosui/scorpion/IADAANAA/tzlib_proxy.lib(prxy_qsee_shim.o)
                              /local/mnt/workspace/CRMBuilds/TZ.BF.4.0.3.c1-00005-M8996AAAAANAZT-1_20170110_230814/b/HK11/trustzone_images/core/securemsm/sse/qsee/SecureUI/build/fidosui/scorpion/IADAANAA/secure_ui_tui.lib(font_manager.o) (qsee_BIGINT_read_unsigned_bin)
/local/mnt/workspace/CRMBuilds/TZ.BF.4.0.3.c1-00005-M8996AAAAANAZT-1_20170110_230814/b/HK11/trustzone_images/core/securemsm/trustzone/qsapps/libs/applib/proxy/build/fidosui/scorpion/IADAANAA/tzlib_proxy.lib(prxy_ufdes.o)
                              /local/mnt/workspace/CRMBuilds/TZ.BF.4.0.3.c1-00005-M8996AAAAANAZT-1_20170110_230814/b/HK11/trustzone_images/core/securemsm/trustzone/qsapps/libs/applib/proxy/build/fidosui/scorpion/IADAANAA/tzlib_proxy.lib(prxy_qsee_shim.o) (SW_CipherDESData)
/local/mnt/workspace/CRMBuilds/TZ.BF.4.0.3.c1-00005-M8996AAAAANAZT-1_20170110_230814/b/HK11/trustzone_images/core/securemsm/trustzone/qsapps/libs/applib/proxy/build/fidosui/scorpion/IADAANAA/tzlib_proxy.lib(prxy_secmath.o)
                              /local/mnt/workspace/CRMBuilds/TZ.BF.4.0.3.c1-00005-M8996AAAAANAZT-1_20170110_230814/b/HK11/trustzone_images/core/securemsm/trustzone/qsapps/libs/applib/proxy/build/fidosui/scorpion/IADAANAA/tzlib_proxy.lib(prxy_qsee_shim.o) (secmath_BIGINT_read_radix)
/local/mnt/workspace/CRMBuilds/TZ.BF.4.0.3.c1-00005-M8996AAAAANAZT-1_20170110_230814/b/HK11/trustzone_images/core/securemsm/trustzone/qsapps/libs/applib/proxy/build/fidosui/scorpion/IADAANAA/tzlib_proxy.lib(prxy_secrsa.o)
                              /local/mnt/workspace/CRMBuilds/TZ.BF.4.0.3.c1-00005-M8996AAAAANAZT-1_20170110_230814/b/HK11/trustzone_images/core/securemsm/trustzone/qsapps/libs/applib/proxy/build/fidosui/scorpion/IADAANAA/tzlib_proxy.lib(prxy_qsee_shim.o) (ce_rsa_decrypt)
/local/mnt/workspace/CRMBuilds/TZ.BF.4.0.3.c1-00005-M8996AAAAANAZT-1_20170110_230814/b/HK11/trustzone_images/core/securemsm/trustzone/qsapps/libs/applib/proxy/build/fidosui/scorpion/IADAANAA/tzlib_proxy.lib(prxy_ecc.o)
                              /local/mnt/workspace/CRMBuilds/TZ.BF.4.0.3.c1-00005-M8996AAAAANAZT-1_20170110_230814/b/HK11/trustzone_images/core/securemsm/trustzone/qsapps/libs/applib/proxy/build/fidosui/scorpion/IADAANAA/tzlib_proxy.lib(prxy_qsee_shim.o) (ECC_hash_to_bigval)
/local/mnt/workspace/CRMBuilds/TZ.BF.4.0.3.c1-00005-M8996AAAAANAZT-1_20170110_230814/b/HK11/trustzone_images/core/securemsm/trustzone/qsapps/libs/applib/qsee/build/fidosui/scorpion/IADAANAA/tzapp_entrylib.lib(qsee_secdisp.o)
                              /local/mnt/workspace/CRMBuilds/TZ.BF.4.0.3.c1-00005-M8996AAAAANAZT-1_20170110_230814/b/HK11/trustzone_images/core/securemsm/sse/qsee/SecureUI/build/fidosui/scorpion/IADAANAA/secure_ui.lib(SecureUI.o) (qsee_sd_get_session)
/local/mnt/workspace/CRMBuilds/TZ.BF.4.0.3.c1-00005-M8996AAAAANAZT-1_20170110_230814/b/HK11/trustzone_images/core/securemsm/trustzone/qsapps/libs/applib/qsee/build/fidosui/scorpion/IADAANAA/tzapp_entrylib.lib(qsee_nsmem.o)
                              /local/mnt/workspace/CRMBuilds/TZ.BF.4.0.3.c1-00005-M8996AAAAANAZT-1_20170110_230814/b/HK11/trustzone_images/core/securemsm/sse/qsee/SecureUI/build/fidosui/scorpion/IADAANAA/secure_ui_tui.lib(font_manager.o) (qsee_is_ns_range)
/local/mnt/workspace/CRMBuilds/TZ.BF.4.0.3.c1-00005-M8996AAAAANAZT-1_20170110_230814/b/HK11/trustzone_images/core/securemsm/trustzone/qsapps/libs/applib/qsee/build/fidosui/scorpion/IADAANAA/tzapp_entrylib.lib(qsee_timer_shim.o)
                              /local/mnt/workspace/CRMBuilds/TZ.BF.4.0.3.c1-00005-M8996AAAAANAZT-1_20170110_230814/b/HK11/trustzone_images/apps/securemsm/trustzone/qsapps/fidosui/app/build/fidosui/scorpion/IADAANAA/fidosui_app.lib(app_main.o) (qsee_get_uptime)
/local/mnt/workspace/CRMBuilds/TZ.BF.4.0.3.c1-00005-M8996AAAAANAZT-1_20170110_230814/b/HK11/trustzone_images/core/securemsm/trustzone/qsapps/libs/applib/qsee/build/fidosui/scorpion/IADAANAA/tzapp_entrylib.lib(qsee_hash.o)
                              /local/mnt/workspace/CRMBuilds/TZ.BF.4.0.3.c1-00005-M8996AAAAANAZT-1_20170110_230814/b/HK11/trustzone_images/apps/securemsm/trustzone/qsapps/fidosui/app/build/fidosui/scorpion/IADAANAA/fidosui_app.lib(app_main.o) (qsee_hash)
/local/mnt/workspace/CRMBuilds/TZ.BF.4.0.3.c1-00005-M8996AAAAANAZT-1_20170110_230814/b/HK11/trustzone_images/core/securemsm/trustzone/qsapps/libs/applib/qsee/build/fidosui/scorpion/IADAANAA/tzapp_entrylib.lib(qsee_shared_buffer.o)
                              /local/mnt/workspace/CRMBuilds/TZ.BF.4.0.3.c1-00005-M8996AAAAANAZT-1_20170110_230814/b/HK11/trustzone_images/apps/securemsm/trustzone/qsapps/fidosui/app/build/fidosui/scorpion/IADAANAA/fidosui_app.lib(08_ShowMessageSui.o) (qsee_deregister_shared_buffer)
/local/mnt/workspace/CRMBuilds/TZ.BF.4.0.3.c1-00005-M8996AAAAANAZT-1_20170110_230814/b/HK11/trustzone_images/core/securemsm/trustzone/qsapps/libs/applib/qsee/build/fidosui/scorpion/IADAANAA/tzapp_entrylib.lib(qsee_appmessage.o)
                              /local/mnt/workspace/CRMBuilds/TZ.BF.4.0.3.c1-00005-M8996AAAAANAZT-1_20170110_230814/b/HK11/trustzone_images/core/securemsm/sse/qsee/SecureUILib/lib/build/fidosui/scorpion/IADAANAA/secure_ui_lib.lib(05_storeIndicator.o) (qsee_decapsulate_inter_app_message)
/local/mnt/workspace/CRMBuilds/TZ.BF.4.0.3.c1-00005-M8996AAAAANAZT-1_20170110_230814/b/HK11/trustzone_images/core/securemsm/trustzone/qsapps/libs/applib/qsee/build/fidosui/scorpion/IADAANAA/tzapp_entrylib.lib(sfs_api.o)
                              /local/mnt/workspace/CRMBuilds/TZ.BF.4.0.3.c1-00005-M8996AAAAANAZT-1_20170110_230814/b/HK11/trustzone_images/core/securemsm/sse/qsee/SecureUI/build/fidosui/scorpion/IADAANAA/secure_ui.lib(SecureUI.o) (qsee_sfs_read)
/afs/localcell/cm/gv2.6/sysname/pkg.@sys/qct/software/llvm/release/arm/3.5.2.4/tools/lib32/lib/libc.a(snprintf.o)
                              /local/mnt/workspace/CRMBuilds/TZ.BF.4.0.3.c1-00005-M8996AAAAANAZT-1_20170110_230814/b/HK11/trustzone_images/apps/securemsm/trustzone/qsapps/fidosui/app/build/fidosui/scorpion/IADAANAA/fidosui_app.lib(fsSecureUI.o) (snprintf)
/afs/localcell/cm/gv2.6/sysname/pkg.@sys/qct/software/llvm/release/arm/3.5.2.4/tools/lib32/lib/libc.a(strcmp.o)
                              /local/mnt/workspace/CRMBuilds/TZ.BF.4.0.3.c1-00005-M8996AAAAANAZT-1_20170110_230814/b/HK11/trustzone_images/apps/securemsm/trustzone/qsapps/fidosui/app/build/fidosui/scorpion/IADAANAA/fidosui_app.lib(08_ShowMessageSui.o) (strcmp)
/afs/localcell/cm/gv2.6/sysname/pkg.@sys/qct/software/llvm/release/arm/3.5.2.4/tools/lib32/lib/libc.a(strlcpy.o)
                              /local/mnt/workspace/CRMBuilds/TZ.BF.4.0.3.c1-00005-M8996AAAAANAZT-1_20170110_230814/b/HK11/trustzone_images/core/securemsm/sse/qsee/SecureUI/build/fidosui/scorpion/IADAANAA/secure_ui_tui.lib(font_manager.o) (strlcpy)
/afs/localcell/cm/gv2.6/sysname/pkg.@sys/qct/software/llvm/release/arm/3.5.2.4/tools/lib32/lib/libc.a(strncmp.o)
                              /local/mnt/workspace/CRMBuilds/TZ.BF.4.0.3.c1-00005-M8996AAAAANAZT-1_20170110_230814/b/HK11/trustzone_images/core/securemsm/sse/qsee/SecureUI/build/fidosui/scorpion/IADAANAA/secure_ui_tui.lib(layout_manager.o) (strncmp)
/afs/localcell/cm/gv2.6/sysname/pkg.@sys/qct/software/llvm/release/arm/3.5.2.4/lib/clang/3.5.2/lib/linux/libclang_rt.builtins-arm.a(aeabi_dcmp.S.o)
                              /local/mnt/workspace/CRMBuilds/TZ.BF.4.0.3.c1-00005-M8996AAAAANAZT-1_20170110_230814/b/HK11/trustzone_images/core/securemsm/sse/qsee/SecureUI/build/fidosui/scorpion/IADAANAA/secure_ui_tui.lib(secure_display_renderer.o) (__aeabi_dcmplt)
/afs/localcell/cm/gv2.6/sysname/pkg.@sys/qct/software/llvm/release/arm/3.5.2.4/lib/clang/3.5.2/lib/linux/libclang_rt.builtins-arm.a(comparedf2.c.o)
                              /afs/localcell/cm/gv2.6/sysname/pkg.@sys/qct/software/llvm/release/arm/3.5.2.4/lib/clang/3.5.2/lib/linux/libclang_rt.builtins-arm.a(aeabi_dcmp.S.o) (__eqdf2)
/afs/localcell/cm/gv2.6/sysname/pkg.@sys/qct/software/llvm/release/arm/3.5.2.4/lib/clang/3.5.2/lib/linux/libclang_rt.builtins-arm.a(divdf3.c.o)
                              /local/mnt/workspace/CRMBuilds/TZ.BF.4.0.3.c1-00005-M8996AAAAANAZT-1_20170110_230814/b/HK11/trustzone_images/core/securemsm/sse/qsee/SecureUI/build/fidosui/scorpion/IADAANAA/secure_ui_tui.lib(secure_display_renderer.o) (__aeabi_ddiv)
/afs/localcell/cm/gv2.6/sysname/pkg.@sys/qct/software/llvm/release/arm/3.5.2.4/lib/clang/3.5.2/lib/linux/libclang_rt.builtins-arm.a(fixunsdfsi.c.o)
                              /local/mnt/workspace/CRMBuilds/TZ.BF.4.0.3.c1-00005-M8996AAAAANAZT-1_20170110_230814/b/HK11/trustzone_images/core/securemsm/sse/qsee/SecureUI/build/fidosui/scorpion/IADAANAA/secure_ui_tui.lib(secure_display_renderer.o) (__aeabi_d2uiz)
/afs/localcell/cm/gv2.6/sysname/pkg.@sys/qct/software/llvm/release/arm/3.5.2.4/lib/clang/3.5.2/lib/linux/libclang_rt.builtins-arm.a(floatunsidf.c.o)
                              /local/mnt/workspace/CRMBuilds/TZ.BF.4.0.3.c1-00005-M8996AAAAANAZT-1_20170110_230814/b/HK11/trustzone_images/core/securemsm/sse/qsee/SecureUI/build/fidosui/scorpion/IADAANAA/secure_ui_tui.lib(secure_display_renderer.o) (__aeabi_ui2d)
/afs/localcell/cm/gv2.6/sysname/pkg.@sys/qct/software/llvm/release/arm/3.5.2.4/lib/clang/3.5.2/lib/linux/libclang_rt.builtins-arm.a(muldf3.c.o)
                              /local/mnt/workspace/CRMBuilds/TZ.BF.4.0.3.c1-00005-M8996AAAAANAZT-1_20170110_230814/b/HK11/trustzone_images/core/securemsm/sse/qsee/SecureUI/build/fidosui/scorpion/IADAANAA/secure_ui_tui.lib(secure_display_renderer.o) (__aeabi_dmul)
/local/mnt/workspace/CRMBuilds/TZ.BF.4.0.3.c1-00005-M8996AAAAANAZT-1_20170110_230814/b/HK11/trustzone_images/apps/securemsm/trustzone/qsapps/fidosui/layouts/build/fidosui/scorpion/IADAANAA/secure_ui_layout.lib(layout_8996_fluid.o)
                              /local/mnt/workspace/CRMBuilds/TZ.BF.4.0.3.c1-00005-M8996AAAAANAZT-1_20170110_230814/b/HK11/trustzone_images/core/securemsm/sse/qsee/SecureUI/build/fidosui/scorpion/IADAANAA/secure_ui_tui.lib(qsee_tui_dialogs.o) (create_layout)
/local/mnt/workspace/CRMBuilds/TZ.BF.4.0.3.c1-00005-M8996AAAAANAZT-1_20170110_230814/b/HK11/trustzone_images/core/securemsm/sse/SecureTouch/layout/build/fidosui/scorpion/IADAANAA/sklayout.lib(layoutUtils.o)
                              /local/mnt/workspace/CRMBuilds/TZ.BF.4.0.3.c1-00005-M8996AAAAANAZT-1_20170110_230814/b/HK11/trustzone_images/core/securemsm/sse/qsee/SecureUI/build/fidosui/scorpion/IADAANAA/secure_ui_tui.lib(layout_manager.o) (findObject)
/local/mnt/workspace/CRMBuilds/TZ.BF.4.0.3.c1-00005-M8996AAAAANAZT-1_20170110_230814/b/HK11/trustzone_images/core/securemsm/sse/qsee/SecureDisplay/libgd/build/fidosui/scorpion/IADAANAA/libgd.lib(gd.o)
                              /local/mnt/workspace/CRMBuilds/TZ.BF.4.0.3.c1-00005-M8996AAAAANAZT-1_20170110_230814/b/HK11/trustzone_images/core/securemsm/sse/qsee/SecureUI/build/fidosui/scorpion/IADAANAA/secure_ui_tui.lib(font_manager.o) (gdFontFindIndex)
/local/mnt/workspace/CRMBuilds/TZ.BF.4.0.3.c1-00005-M8996AAAAANAZT-1_20170110_230814/b/HK11/trustzone_images/core/securemsm/sse/qsee/SecureDisplay/libgd/build/fidosui/scorpion/IADAANAA/libgd.lib(gd_color.o)
                              /local/mnt/workspace/CRMBuilds/TZ.BF.4.0.3.c1-00005-M8996AAAAANAZT-1_20170110_230814/b/HK11/trustzone_images/core/securemsm/sse/qsee/SecureDisplay/libgd/build/fidosui/scorpion/IADAANAA/libgd.lib(gd.o) (gdColorMatch)
/local/mnt/workspace/CRMBuilds/TZ.BF.4.0.3.c1-00005-M8996AAAAANAZT-1_20170110_230814/b/HK11/trustzone_images/core/securemsm/sse/qsee/SecureDisplay/libgd/build/fidosui/scorpion/IADAANAA/libgd.lib(gd_security.o)
                              /local/mnt/workspace/CRMBuilds/TZ.BF.4.0.3.c1-00005-M8996AAAAANAZT-1_20170110_230814/b/HK11/trustzone_images/core/securemsm/sse/qsee/SecureDisplay/libgd/build/fidosui/scorpion/IADAANAA/libgd.lib(gd.o) (overflow2)
/local/mnt/workspace/CRMBuilds/TZ.BF.4.0.3.c1-00005-M8996AAAAANAZT-1_20170110_230814/b/HK11/trustzone_images/core/securemsm/sse/qsee/SecureDisplay/libgd/build/fidosui/scorpion/IADAANAA/libgd.lib(gdtables.o)
                              /local/mnt/workspace/CRMBuilds/TZ.BF.4.0.3.c1-00005-M8996AAAAANAZT-1_20170110_230814/b/HK11/trustzone_images/core/securemsm/sse/qsee/SecureDisplay/libgd/build/fidosui/scorpion/IADAANAA/libgd.lib(gd.o) (gdCosT)
/local/mnt/workspace/CRMBuilds/TZ.BF.4.0.3.c1-00005-M8996AAAAANAZT-1_20170110_230814/b/HK11/trustzone_images/core/securemsm/sse/qsee/SecureDisplay/libpng/build/fidosui/scorpion/IADAANAA/libpng.lib(png.o)
                              /local/mnt/workspace/CRMBuilds/TZ.BF.4.0.3.c1-00005-M8996AAAAANAZT-1_20170110_230814/b/HK11/trustzone_images/core/securemsm/sse/qsee/SecureUI/build/fidosui/scorpion/IADAANAA/secure_ui_tui.lib(secure_display_renderer.o) (png_create_info_struct)
/local/mnt/workspace/CRMBuilds/TZ.BF.4.0.3.c1-00005-M8996AAAAANAZT-1_20170110_230814/b/HK11/trustzone_images/core/securemsm/sse/qsee/SecureDisplay/libpng/build/fidosui/scorpion/IADAANAA/libpng.lib(pngerror.o)
                              /local/mnt/workspace/CRMBuilds/TZ.BF.4.0.3.c1-00005-M8996AAAAANAZT-1_20170110_230814/b/HK11/trustzone_images/core/securemsm/sse/qsee/SecureDisplay/libpng/build/fidosui/scorpion/IADAANAA/libpng.lib(png.o) (png_err)
/local/mnt/workspace/CRMBuilds/TZ.BF.4.0.3.c1-00005-M8996AAAAANAZT-1_20170110_230814/b/HK11/trustzone_images/core/securemsm/sse/qsee/SecureDisplay/libpng/build/fidosui/scorpion/IADAANAA/libpng.lib(pngget.o)
                              /local/mnt/workspace/CRMBuilds/TZ.BF.4.0.3.c1-00005-M8996AAAAANAZT-1_20170110_230814/b/HK11/trustzone_images/core/securemsm/sse/qsee/SecureUI/build/fidosui/scorpion/IADAANAA/secure_ui_tui.lib(secure_display_renderer.o) (png_get_IHDR)
/local/mnt/workspace/CRMBuilds/TZ.BF.4.0.3.c1-00005-M8996AAAAANAZT-1_20170110_230814/b/HK11/trustzone_images/core/securemsm/sse/qsee/SecureDisplay/libpng/build/fidosui/scorpion/IADAANAA/libpng.lib(pngmem.o)
                              /local/mnt/workspace/CRMBuilds/TZ.BF.4.0.3.c1-00005-M8996AAAAANAZT-1_20170110_230814/b/HK11/trustzone_images/core/securemsm/sse/qsee/SecureDisplay/libpng/build/fidosui/scorpion/IADAANAA/libpng.lib(png.o) (png_free)
/local/mnt/workspace/CRMBuilds/TZ.BF.4.0.3.c1-00005-M8996AAAAANAZT-1_20170110_230814/b/HK11/trustzone_images/core/securemsm/sse/qsee/SecureDisplay/libpng/build/fidosui/scorpion/IADAANAA/libpng.lib(pngread.o)
                              /local/mnt/workspace/CRMBuilds/TZ.BF.4.0.3.c1-00005-M8996AAAAANAZT-1_20170110_230814/b/HK11/trustzone_images/core/securemsm/sse/qsee/SecureUI/build/fidosui/scorpion/IADAANAA/secure_ui_tui.lib(secure_display_renderer.o) (png_create_read_struct)
/local/mnt/workspace/CRMBuilds/TZ.BF.4.0.3.c1-00005-M8996AAAAANAZT-1_20170110_230814/b/HK11/trustzone_images/core/securemsm/sse/qsee/SecureDisplay/libpng/build/fidosui/scorpion/IADAANAA/libpng.lib(pngrio.o)
                              /local/mnt/workspace/CRMBuilds/TZ.BF.4.0.3.c1-00005-M8996AAAAANAZT-1_20170110_230814/b/HK11/trustzone_images/core/securemsm/sse/qsee/SecureUI/build/fidosui/scorpion/IADAANAA/secure_ui_tui.lib(secure_display_renderer.o) (png_set_read_fn)
/local/mnt/workspace/CRMBuilds/TZ.BF.4.0.3.c1-00005-M8996AAAAANAZT-1_20170110_230814/b/HK11/trustzone_images/core/securemsm/sse/qsee/SecureDisplay/libpng/build/fidosui/scorpion/IADAANAA/libpng.lib(pngrutil.o)
                              /local/mnt/workspace/CRMBuilds/TZ.BF.4.0.3.c1-00005-M8996AAAAANAZT-1_20170110_230814/b/HK11/trustzone_images/core/securemsm/sse/qsee/SecureDisplay/libpng/build/fidosui/scorpion/IADAANAA/libpng.lib(pngread.o) (png_combine_row)
/local/mnt/workspace/CRMBuilds/TZ.BF.4.0.3.c1-00005-M8996AAAAANAZT-1_20170110_230814/b/HK11/trustzone_images/core/securemsm/sse/qsee/SecureDisplay/libpng/build/fidosui/scorpion/IADAANAA/libpng.lib(pngset.o)
                              /local/mnt/workspace/CRMBuilds/TZ.BF.4.0.3.c1-00005-M8996AAAAANAZT-1_20170110_230814/b/HK11/trustzone_images/core/securemsm/sse/qsee/SecureDisplay/libpng/build/fidosui/scorpion/IADAANAA/libpng.lib(pngrutil.o) (png_set_IHDR)
/local/mnt/workspace/CRMBuilds/TZ.BF.4.0.3.c1-00005-M8996AAAAANAZT-1_20170110_230814/b/HK11/trustzone_images/core/securemsm/sse/qsee/SecureDisplay/zlib/build/fidosui/scorpion/IADAANAA/zlib.lib(crc32.o)
                              /local/mnt/workspace/CRMBuilds/TZ.BF.4.0.3.c1-00005-M8996AAAAANAZT-1_20170110_230814/b/HK11/trustzone_images/core/securemsm/sse/qsee/SecureDisplay/libpng/build/fidosui/scorpion/IADAANAA/libpng.lib(png.o) (crc32)
/local/mnt/workspace/CRMBuilds/TZ.BF.4.0.3.c1-00005-M8996AAAAANAZT-1_20170110_230814/b/HK11/trustzone_images/core/securemsm/sse/qsee/SecureDisplay/zlib/build/fidosui/scorpion/IADAANAA/zlib.lib(inflate.o)
                              /local/mnt/workspace/CRMBuilds/TZ.BF.4.0.3.c1-00005-M8996AAAAANAZT-1_20170110_230814/b/HK11/trustzone_images/core/securemsm/sse/qsee/SecureDisplay/libpng/build/fidosui/scorpion/IADAANAA/libpng.lib(pngrutil.o) (inflate)
/local/mnt/workspace/CRMBuilds/TZ.BF.4.0.3.c1-00005-M8996AAAAANAZT-1_20170110_230814/b/HK11/trustzone_images/core/securemsm/sse/qsee/SecureDisplay/zlib/build/fidosui/scorpion/IADAANAA/zlib.lib(inftrees.o)
                              /local/mnt/workspace/CRMBuilds/TZ.BF.4.0.3.c1-00005-M8996AAAAANAZT-1_20170110_230814/b/HK11/trustzone_images/core/securemsm/sse/qsee/SecureDisplay/zlib/build/fidosui/scorpion/IADAANAA/zlib.lib(inflate.o) (inflate_table)
/local/mnt/workspace/CRMBuilds/TZ.BF.4.0.3.c1-00005-M8996AAAAANAZT-1_20170110_230814/b/HK11/trustzone_images/core/securemsm/sse/qsee/SecureDisplay/zlib/build/fidosui/scorpion/IADAANAA/zlib.lib(zutil.o)
                              /local/mnt/workspace/CRMBuilds/TZ.BF.4.0.3.c1-00005-M8996AAAAANAZT-1_20170110_230814/b/HK11/trustzone_images/core/securemsm/sse/qsee/SecureDisplay/zlib/build/fidosui/scorpion/IADAANAA/zlib.lib(inflate.o) (zcalloc)
/local/mnt/workspace/CRMBuilds/TZ.BF.4.0.3.c1-00005-M8996AAAAANAZT-1_20170110_230814/b/HK11/trustzone_images/core/securemsm/sse/qsee/SecureDisplay/zlib/build/fidosui/scorpion/IADAANAA/zlib.lib(adler32.o)
                              /local/mnt/workspace/CRMBuilds/TZ.BF.4.0.3.c1-00005-M8996AAAAANAZT-1_20170110_230814/b/HK11/trustzone_images/core/securemsm/sse/qsee/SecureDisplay/zlib/build/fidosui/scorpion/IADAANAA/zlib.lib(inflate.o) (adler32)
/local/mnt/workspace/CRMBuilds/TZ.BF.4.0.3.c1-00005-M8996AAAAANAZT-1_20170110_230814/b/HK11/trustzone_images/core/securemsm/sse/qsee/SecureDisplay/zlib/build/fidosui/scorpion/IADAANAA/zlib.lib(inffast.o)
                              /local/mnt/workspace/CRMBuilds/TZ.BF.4.0.3.c1-00005-M8996AAAAANAZT-1_20170110_230814/b/HK11/trustzone_images/core/securemsm/sse/qsee/SecureDisplay/zlib/build/fidosui/scorpion/IADAANAA/zlib.lib(inflate.o) (inflate_fast)
/local/mnt/workspace/CRMBuilds/TZ.BF.4.0.3.c1-00005-M8996AAAAANAZT-1_20170110_230814/b/HK11/trustzone_images/core/securemsm/sse/qsee/SecureTouch/drTs/lib/build/fidosui/scorpion/IADAANAA/touch_lib.lib(01_open.o)
                              /local/mnt/workspace/CRMBuilds/TZ.BF.4.0.3.c1-00005-M8996AAAAANAZT-1_20170110_230814/b/HK11/trustzone_images/core/securemsm/sse/qsee/SecureUILib/lib/build/fidosui/scorpion/IADAANAA/secure_ui_lib.lib(01_startTouch.o) (touchOpen)
/local/mnt/workspace/CRMBuilds/TZ.BF.4.0.3.c1-00005-M8996AAAAANAZT-1_20170110_230814/b/HK11/trustzone_images/core/securemsm/sse/qsee/SecureTouch/drTs/lib/build/fidosui/scorpion/IADAANAA/touch_lib.lib(02_close.o)
                              /local/mnt/workspace/CRMBuilds/TZ.BF.4.0.3.c1-00005-M8996AAAAANAZT-1_20170110_230814/b/HK11/trustzone_images/core/securemsm/sse/qsee/SecureUILib/lib/build/fidosui/scorpion/IADAANAA/secure_ui_lib.lib(03_stopTouch.o) (touchClose)
/local/mnt/workspace/CRMBuilds/TZ.BF.4.0.3.c1-00005-M8996AAAAANAZT-1_20170110_230814/b/HK11/trustzone_images/core/securemsm/sse/qsee/SecureTouch/drTs/lib/build/fidosui/scorpion/IADAANAA/touch_lib.lib(03_getData.o)
                              /local/mnt/workspace/CRMBuilds/TZ.BF.4.0.3.c1-00005-M8996AAAAANAZT-1_20170110_230814/b/HK11/trustzone_images/core/securemsm/sse/qsee/SecureUILib/lib/build/fidosui/scorpion/IADAANAA/secure_ui_lib.lib(02_processTouch.o) (touchGetData)
/local/mnt/workspace/CRMBuilds/TZ.BF.4.0.3.c1-00005-M8996AAAAANAZT-1_20170110_230814/b/HK11/trustzone_images/core/securemsm/trustzone/qsapps/libs/applib/common_applib/build/fidosui/scorpion/IADAANAA/tzapp_entrylib.lib(gpPersistObjCommon.o)
                              /local/mnt/workspace/CRMBuilds/TZ.BF.4.0.3.c1-00005-M8996AAAAANAZT-1_20170110_230814/b/HK11/trustzone_images/core/securemsm/trustzone/qsapps/libs/applib/qsee/build/fidosui/scorpion/IADAANAA/tzapp_entrylib.lib(sfs_api.o) (gpCommon_Close_Object)
/local/mnt/workspace/CRMBuilds/TZ.BF.4.0.3.c1-00005-M8996AAAAANAZT-1_20170110_230814/b/HK11/trustzone_images/core/securemsm/trustzone/qsapps/libs/applib/common_applib/build/fidosui/scorpion/IADAANAA/tzapp_entrylib.lib(gpPersistentObjects.o)
                              /local/mnt/workspace/CRMBuilds/TZ.BF.4.0.3.c1-00005-M8996AAAAANAZT-1_20170110_230814/b/HK11/trustzone_images/core/securemsm/trustzone/qsapps/libs/applib/qsee/build/fidosui/scorpion/IADAANAA/tzapp_entrylib.lib(sfs_api.o) (TEE_AllocatePersistentObjectEnumerator)
/local/mnt/workspace/CRMBuilds/TZ.BF.4.0.3.c1-00005-M8996AAAAANAZT-1_20170110_230814/b/HK11/trustzone_images/core/securemsm/trustzone/qsapps/libs/applib/common_applib/build/fidosui/scorpion/IADAANAA/tzapp_entrylib.lib(gpPersistObjData.o)
                              /local/mnt/workspace/CRMBuilds/TZ.BF.4.0.3.c1-00005-M8996AAAAANAZT-1_20170110_230814/b/HK11/trustzone_images/core/securemsm/trustzone/qsapps/libs/applib/common_applib/build/fidosui/scorpion/IADAANAA/tzapp_entrylib.lib(gpPersistObjCommon.o) (gpData_Close_Object)
/local/mnt/workspace/CRMBuilds/TZ.BF.4.0.3.c1-00005-M8996AAAAANAZT-1_20170110_230814/b/HK11/trustzone_images/core/securemsm/trustzone/qsapps/libs/applib/common_applib/build/fidosui/scorpion/IADAANAA/tzapp_entrylib.lib(gpPersistObjHandler.o)
                              /local/mnt/workspace/CRMBuilds/TZ.BF.4.0.3.c1-00005-M8996AAAAANAZT-1_20170110_230814/b/HK11/trustzone_images/core/securemsm/trustzone/qsapps/libs/applib/common_applib/build/fidosui/scorpion/IADAANAA/tzapp_entrylib.lib(gpPersistObjCommon.o) (gpHandler_Close_Handle)
/local/mnt/workspace/CRMBuilds/TZ.BF.4.0.3.c1-00005-M8996AAAAANAZT-1_20170110_230814/b/HK11/trustzone_images/core/securemsm/trustzone/qsapps/libs/applib/common_applib/build/fidosui/scorpion/IADAANAA/tzapp_entrylib.lib(gpPersistObjIndex.o)
                              /local/mnt/workspace/CRMBuilds/TZ.BF.4.0.3.c1-00005-M8996AAAAANAZT-1_20170110_230814/b/HK11/trustzone_images/core/securemsm/trustzone/qsapps/libs/applib/common_applib/build/fidosui/scorpion/IADAANAA/tzapp_entrylib.lib(gpPersistObjHandler.o) (gpIndex_Create_Entry)
/local/mnt/workspace/CRMBuilds/TZ.BF.4.0.3.c1-00005-M8996AAAAANAZT-1_20170110_230814/b/HK11/trustzone_images/core/securemsm/trustzone/qsapps/libs/applib/common_applib/build/fidosui/scorpion/IADAANAA/tzapp_entrylib.lib(gpPersistObjVersion.o)
                              /local/mnt/workspace/CRMBuilds/TZ.BF.4.0.3.c1-00005-M8996AAAAANAZT-1_20170110_230814/b/HK11/trustzone_images/core/securemsm/trustzone/qsapps/libs/applib/common_applib/build/fidosui/scorpion/IADAANAA/tzapp_entrylib.lib(gpPersistObjIndex.o) (gpVersion_Delete_Version)
/local/mnt/workspace/CRMBuilds/TZ.BF.4.0.3.c1-00005-M8996AAAAANAZT-1_20170110_230814/b/HK11/trustzone_images/core/securemsm/trustzone/qsapps/libs/applib/common_applib/build/fidosui/scorpion/IADAANAA/tzapp_entrylib.lib(gpPersistObjCrypto.o)
                              /local/mnt/workspace/CRMBuilds/TZ.BF.4.0.3.c1-00005-M8996AAAAANAZT-1_20170110_230814/b/HK11/trustzone_images/core/securemsm/trustzone/qsapps/libs/applib/common_applib/build/fidosui/scorpion/IADAANAA/tzapp_entrylib.lib(gpPersistObjData.o) (gpCrypto_Decrypt)
/local/mnt/workspace/CRMBuilds/TZ.BF.4.0.3.c1-00005-M8996AAAAANAZT-1_20170110_230814/b/HK11/trustzone_images/core/securemsm/trustzone/qsapps/libs/applib/common_applib/build/fidosui/scorpion/IADAANAA/tzapp_entrylib.lib(gpPersistObjFileIO.o)
                              /local/mnt/workspace/CRMBuilds/TZ.BF.4.0.3.c1-00005-M8996AAAAANAZT-1_20170110_230814/b/HK11/trustzone_images/core/securemsm/trustzone/qsapps/libs/applib/common_applib/build/fidosui/scorpion/IADAANAA/tzapp_entrylib.lib(gpPersistObjData.o) (gpFileIO_Read_File)
/local/mnt/workspace/CRMBuilds/TZ.BF.4.0.3.c1-00005-M8996AAAAANAZT-1_20170110_230814/b/HK11/trustzone_images/core/securemsm/trustzone/qsapps/libs/applib/common_applib/build/fidosui/scorpion/IADAANAA/tzapp_entrylib.lib(gpFileService.o)
                              /local/mnt/workspace/CRMBuilds/TZ.BF.4.0.3.c1-00005-M8996AAAAANAZT-1_20170110_230814/b/HK11/trustzone_images/core/securemsm/trustzone/qsapps/libs/applib/common_applib/build/fidosui/scorpion/IADAANAA/tzapp_entrylib.lib(gpPersistObjFileIO.o) (gpFileRead)
/local/mnt/workspace/CRMBuilds/TZ.BF.4.0.3.c1-00005-M8996AAAAANAZT-1_20170110_230814/b/HK11/trustzone_images/core/securemsm/trustzone/qsapps/libs/applib/qsee/build/fidosui/scorpion/IADAANAA/tzapp_entrylib.lib(qsee_core_shim.o)
                              /local/mnt/workspace/CRMBuilds/TZ.BF.4.0.3.c1-00005-M8996AAAAANAZT-1_20170110_230814/b/HK11/trustzone_images/core/securemsm/trustzone/qsapps/libs/applib/common_applib/build/fidosui/scorpion/IADAANAA/tzapp_entrylib.lib(gpPersistObjCommon.o) (qsee_get_tz_app_id)
/local/mnt/workspace/CRMBuilds/TZ.BF.4.0.3.c1-00005-M8996AAAAANAZT-1_20170110_230814/b/HK11/trustzone_images/core/securemsm/trustzone/qsapps/libs/applib/qsee/build/fidosui/scorpion/IADAANAA/tzapp_entrylib.lib(stor.o)
                              /local/mnt/workspace/CRMBuilds/TZ.BF.4.0.3.c1-00005-M8996AAAAANAZT-1_20170110_230814/b/HK11/trustzone_images/core/securemsm/trustzone/qsapps/libs/applib/common_applib/build/fidosui/scorpion/IADAANAA/tzapp_entrylib.lib(gpPersistObjVersion.o) (qsee_stor_add_partition)
/local/mnt/workspace/CRMBuilds/TZ.BF.4.0.3.c1-00005-M8996AAAAANAZT-1_20170110_230814/b/HK11/trustzone_images/core/securemsm/trustzone/qsapps/libs/applib/qsee/build/fidosui/scorpion/IADAANAA/tzapp_entrylib.lib(stor_gpt.o)
                              /local/mnt/workspace/CRMBuilds/TZ.BF.4.0.3.c1-00005-M8996AAAAANAZT-1_20170110_230814/b/HK11/trustzone_images/core/securemsm/trustzone/qsapps/libs/applib/qsee/build/fidosui/scorpion/IADAANAA/tzapp_entrylib.lib(stor.o) (gpt_add_partition)
/local/mnt/workspace/CRMBuilds/TZ.BF.4.0.3.c1-00005-M8996AAAAANAZT-1_20170110_230814/b/HK11/trustzone_images/core/securemsm/trustzone/qsapps/libs/applib/qsee/build/fidosui/scorpion/IADAANAA/tzapp_entrylib.lib(stor_rpmbw.o)
                              /local/mnt/workspace/CRMBuilds/TZ.BF.4.0.3.c1-00005-M8996AAAAANAZT-1_20170110_230814/b/HK11/trustzone_images/core/securemsm/trustzone/qsapps/libs/applib/qsee/build/fidosui/scorpion/IADAANAA/tzapp_entrylib.lib(stor.o) (rpmbw_add_partition)
/local/mnt/workspace/CRMBuilds/TZ.BF.4.0.3.c1-00005-M8996AAAAANAZT-1_20170110_230814/b/HK11/trustzone_images/core/securemsm/trustzone/qsapps/libs/applib/qsee/build/fidosui/scorpion/IADAANAA/tzapp_entrylib.lib(qsee_cfg_prop_shim.o)
                              /local/mnt/workspace/CRMBuilds/TZ.BF.4.0.3.c1-00005-M8996AAAAANAZT-1_20170110_230814/b/HK11/trustzone_images/core/securemsm/trustzone/qsapps/libs/applib/common_applib/build/fidosui/scorpion/IADAANAA/tzapp_entrylib.lib(gpPersistObjCommon.o) (qsee_cfg_getpropval)
/local/mnt/workspace/CRMBuilds/TZ.BF.4.0.3.c1-00005-M8996AAAAANAZT-1_20170110_230814/b/HK11/trustzone_images/core/securemsm/trustzone/qsapps/libs/applib/qsee/build/fidosui/scorpion/IADAANAA/tzapp_entrylib.lib(qsee_cipher.o)
                              /local/mnt/workspace/CRMBuilds/TZ.BF.4.0.3.c1-00005-M8996AAAAANAZT-1_20170110_230814/b/HK11/trustzone_images/core/securemsm/trustzone/qsapps/libs/applib/common_applib/build/fidosui/scorpion/IADAANAA/tzapp_entrylib.lib(gpPersistObjCrypto.o) (qsee_cipher_decrypt)
/local/mnt/workspace/CRMBuilds/TZ.BF.4.0.3.c1-00005-M8996AAAAANAZT-1_20170110_230814/b/HK11/trustzone_images/core/securemsm/trustzone/qsapps/libs/applib/qsee/build/fidosui/scorpion/IADAANAA/tzapp_entrylib.lib(qsee_hmac.o)
                              /local/mnt/workspace/CRMBuilds/TZ.BF.4.0.3.c1-00005-M8996AAAAANAZT-1_20170110_230814/b/HK11/trustzone_images/core/securemsm/trustzone/qsapps/libs/applib/common_applib/build/fidosui/scorpion/IADAANAA/tzapp_entrylib.lib(gpPersistObjCrypto.o) (qsee_hmac)
/local/mnt/workspace/CRMBuilds/TZ.BF.4.0.3.c1-00005-M8996AAAAANAZT-1_20170110_230814/b/HK11/trustzone_images/core/securemsm/trustzone/qsapps/libs/applib/qsee/build/fidosui/scorpion/IADAANAA/tzapp_entrylib.lib(gpPersistObjPanic.o)
                              /local/mnt/workspace/CRMBuilds/TZ.BF.4.0.3.c1-00005-M8996AAAAANAZT-1_20170110_230814/b/HK11/trustzone_images/core/securemsm/trustzone/qsapps/libs/applib/common_applib/build/fidosui/scorpion/IADAANAA/tzapp_entrylib.lib(gpPersistentObjects.o) (GPMemoryMgmt_verifyHandle)
/afs/localcell/cm/gv2.6/sysname/pkg.@sys/qct/software/llvm/release/arm/3.5.2.4/tools/lib32/lib/libc.a(abort.o)
                              /local/mnt/workspace/CRMBuilds/TZ.BF.4.0.3.c1-00005-M8996AAAAANAZT-1_20170110_230814/b/HK11/trustzone_images/core/securemsm/sse/qsee/SecureDisplay/libpng/build/fidosui/scorpion/IADAANAA/libpng.lib(pngerror.o) (abort)
/afs/localcell/cm/gv2.6/sysname/pkg.@sys/qct/software/llvm/release/arm/3.5.2.4/tools/lib32/lib/libc.a(atan2.o)
                              /local/mnt/workspace/CRMBuilds/TZ.BF.4.0.3.c1-00005-M8996AAAAANAZT-1_20170110_230814/b/HK11/trustzone_images/core/securemsm/sse/qsee/SecureDisplay/libgd/build/fidosui/scorpion/IADAANAA/libgd.lib(gd.o) (atan2)
/afs/localcell/cm/gv2.6/sysname/pkg.@sys/qct/software/llvm/release/arm/3.5.2.4/tools/lib32/lib/libc.a(cos.o)
                              /local/mnt/workspace/CRMBuilds/TZ.BF.4.0.3.c1-00005-M8996AAAAANAZT-1_20170110_230814/b/HK11/trustzone_images/core/securemsm/sse/qsee/SecureDisplay/libgd/build/fidosui/scorpion/IADAANAA/libgd.lib(gd.o) (cos)
/afs/localcell/cm/gv2.6/sysname/pkg.@sys/qct/software/llvm/release/arm/3.5.2.4/tools/lib32/lib/libc.a(fabs.o)
                              /afs/localcell/cm/gv2.6/sysname/pkg.@sys/qct/software/llvm/release/arm/3.5.2.4/tools/lib32/lib/libc.a(atan2.o) (fabs)
/afs/localcell/cm/gv2.6/sysname/pkg.@sys/qct/software/llvm/release/arm/3.5.2.4/tools/lib32/lib/libc.a(floor.o)
                              /local/mnt/workspace/CRMBuilds/TZ.BF.4.0.3.c1-00005-M8996AAAAANAZT-1_20170110_230814/b/HK11/trustzone_images/core/securemsm/sse/qsee/SecureDisplay/libgd/build/fidosui/scorpion/IADAANAA/libgd.lib(gd.o) (floor)
/afs/localcell/cm/gv2.6/sysname/pkg.@sys/qct/software/llvm/release/arm/3.5.2.4/tools/lib32/lib/libc.a(sin.o)
                              /local/mnt/workspace/CRMBuilds/TZ.BF.4.0.3.c1-00005-M8996AAAAANAZT-1_20170110_230814/b/HK11/trustzone_images/core/securemsm/sse/qsee/SecureDisplay/libgd/build/fidosui/scorpion/IADAANAA/libgd.lib(gd.o) (sin)
/afs/localcell/cm/gv2.6/sysname/pkg.@sys/qct/software/llvm/release/arm/3.5.2.4/tools/lib32/lib/libc.a(sqrt.o)
                              /local/mnt/workspace/CRMBuilds/TZ.BF.4.0.3.c1-00005-M8996AAAAANAZT-1_20170110_230814/b/HK11/trustzone_images/core/securemsm/sse/qsee/SecureDisplay/libgd/build/fidosui/scorpion/IADAANAA/libgd.lib(gd.o) (sqrt)
/afs/localcell/cm/gv2.6/sysname/pkg.@sys/qct/software/llvm/release/arm/3.5.2.4/tools/lib32/lib/libc.a(raise.o)
                              /afs/localcell/cm/gv2.6/sysname/pkg.@sys/qct/software/llvm/release/arm/3.5.2.4/tools/lib32/lib/libc.a(abort.o) (raise)
/afs/localcell/cm/gv2.6/sysname/pkg.@sys/qct/software/llvm/release/arm/3.5.2.4/tools/lib32/lib/libc.a(fflush.o)
                              /local/mnt/workspace/CRMBuilds/TZ.BF.4.0.3.c1-00005-M8996AAAAANAZT-1_20170110_230814/b/HK11/trustzone_images/core/securemsm/sse/qsee/SecureDisplay/libgd/build/fidosui/scorpion/IADAANAA/libgd.lib(gd.o) (fflush)
/afs/localcell/cm/gv2.6/sysname/pkg.@sys/qct/software/llvm/release/arm/3.5.2.4/tools/lib32/lib/libc.a(stderr.o)
                              /local/mnt/workspace/CRMBuilds/TZ.BF.4.0.3.c1-00005-M8996AAAAANAZT-1_20170110_230814/b/HK11/trustzone_images/core/securemsm/sse/qsee/SecureDisplay/libgd/build/fidosui/scorpion/IADAANAA/libgd.lib(gd.o) (stderr)
/afs/localcell/cm/gv2.6/sysname/pkg.@sys/qct/software/llvm/release/arm/3.5.2.4/tools/lib32/lib/libc.a(memcmp.o)
                              /local/mnt/workspace/CRMBuilds/TZ.BF.4.0.3.c1-00005-M8996AAAAANAZT-1_20170110_230814/b/HK11/trustzone_images/core/securemsm/sse/qsee/SecureDisplay/libpng/build/fidosui/scorpion/IADAANAA/libpng.lib(png.o) (memcmp)
/afs/localcell/cm/gv2.6/sysname/pkg.@sys/qct/software/llvm/release/arm/3.5.2.4/tools/lib32/lib/libc.a(strlcat.o)
                              /local/mnt/workspace/CRMBuilds/TZ.BF.4.0.3.c1-00005-M8996AAAAANAZT-1_20170110_230814/b/HK11/trustzone_images/core/securemsm/trustzone/qsapps/libs/applib/common_applib/build/fidosui/scorpion/IADAANAA/tzapp_entrylib.lib(gpPersistObjCommon.o) (strlcat)
/afs/localcell/cm/gv2.6/sysname/pkg.@sys/qct/software/llvm/release/arm/3.5.2.4/tools/lib32/lib/libc.a(strnlen.o)
                              /afs/localcell/cm/gv2.6/sysname/pkg.@sys/qct/software/llvm/release/arm/3.5.2.4/tools/lib32/lib/libc.a(strlcat.o) (strnlen)
/afs/localcell/cm/gv2.6/sysname/pkg.@sys/qct/software/llvm/release/arm/3.5.2.4/tools/lib32/lib/libc.a(syscall_ret.o)
                              /afs/localcell/cm/gv2.6/sysname/pkg.@sys/qct/software/llvm/release/arm/3.5.2.4/tools/lib32/lib/libc.a(raise.o) (__syscall_ret)
/afs/localcell/cm/gv2.6/sysname/pkg.@sys/qct/software/llvm/release/arm/3.5.2.4/tools/lib32/lib/libc.a(__cos.o)
                              /afs/localcell/cm/gv2.6/sysname/pkg.@sys/qct/software/llvm/release/arm/3.5.2.4/tools/lib32/lib/libc.a(cos.o) (__cos)
/afs/localcell/cm/gv2.6/sysname/pkg.@sys/qct/software/llvm/release/arm/3.5.2.4/tools/lib32/lib/libc.a(__rem_pio2.o)
                              /afs/localcell/cm/gv2.6/sysname/pkg.@sys/qct/software/llvm/release/arm/3.5.2.4/tools/lib32/lib/libc.a(cos.o) (__rem_pio2)
/afs/localcell/cm/gv2.6/sysname/pkg.@sys/qct/software/llvm/release/arm/3.5.2.4/tools/lib32/lib/libc.a(__rem_pio2_large.o)
                              /afs/localcell/cm/gv2.6/sysname/pkg.@sys/qct/software/llvm/release/arm/3.5.2.4/tools/lib32/lib/libc.a(__rem_pio2.o) (__rem_pio2_large)
/afs/localcell/cm/gv2.6/sysname/pkg.@sys/qct/software/llvm/release/arm/3.5.2.4/tools/lib32/lib/libc.a(__sin.o)
                              /afs/localcell/cm/gv2.6/sysname/pkg.@sys/qct/software/llvm/release/arm/3.5.2.4/tools/lib32/lib/libc.a(cos.o) (__sin)
/afs/localcell/cm/gv2.6/sysname/pkg.@sys/qct/software/llvm/release/arm/3.5.2.4/tools/lib32/lib/libc.a(atan.o)
                              /afs/localcell/cm/gv2.6/sysname/pkg.@sys/qct/software/llvm/release/arm/3.5.2.4/tools/lib32/lib/libc.a(atan2.o) (atan)
/afs/localcell/cm/gv2.6/sysname/pkg.@sys/qct/software/llvm/release/arm/3.5.2.4/tools/lib32/lib/libc.a(scalbn.o)
                              /afs/localcell/cm/gv2.6/sysname/pkg.@sys/qct/software/llvm/release/arm/3.5.2.4/tools/lib32/lib/libc.a(__rem_pio2_large.o) (scalbn)
/afs/localcell/cm/gv2.6/sysname/pkg.@sys/qct/software/llvm/release/arm/3.5.2.4/tools/lib32/lib/libc.a(block.o)
                              /afs/localcell/cm/gv2.6/sysname/pkg.@sys/qct/software/llvm/release/arm/3.5.2.4/tools/lib32/lib/libc.a(raise.o) (__block_app_sigs)
/afs/localcell/cm/gv2.6/sysname/pkg.@sys/qct/software/llvm/release/arm/3.5.2.4/tools/lib32/lib/libc.a(__stdio_close.o)
                              /afs/localcell/cm/gv2.6/sysname/pkg.@sys/qct/software/llvm/release/arm/3.5.2.4/tools/lib32/lib/libc.a(stderr.o) (__stdio_close)
/afs/localcell/cm/gv2.6/sysname/pkg.@sys/qct/software/llvm/release/arm/3.5.2.4/tools/lib32/lib/libc.a(__stdio_seek.o)
                              /afs/localcell/cm/gv2.6/sysname/pkg.@sys/qct/software/llvm/release/arm/3.5.2.4/tools/lib32/lib/libc.a(stderr.o) (__stdio_seek)
/afs/localcell/cm/gv2.6/sysname/pkg.@sys/qct/software/llvm/release/arm/3.5.2.4/tools/lib32/lib/libc.a(__stdio_write.o)
                              /afs/localcell/cm/gv2.6/sysname/pkg.@sys/qct/software/llvm/release/arm/3.5.2.4/tools/lib32/lib/libc.a(stderr.o) (__stdio_write)
/afs/localcell/cm/gv2.6/sysname/pkg.@sys/qct/software/llvm/release/arm/3.5.2.4/tools/lib32/lib/libc.a(__syscall_cp.o)
                              /afs/localcell/cm/gv2.6/sysname/pkg.@sys/qct/software/llvm/release/arm/3.5.2.4/tools/lib32/lib/libc.a(__stdio_write.o) (__syscall_cp)
/afs/localcell/cm/gv2.6/sysname/pkg.@sys/qct/software/llvm/release/arm/3.5.2.4/tools/lib32/lib/libc.a(pthread_cleanup_push.o)
                              /afs/localcell/cm/gv2.6/sysname/pkg.@sys/qct/software/llvm/release/arm/3.5.2.4/tools/lib32/lib/libc.a(__stdio_write.o) (_pthread_cleanup_pop)
/afs/localcell/cm/gv2.6/sysname/pkg.@sys/qct/software/llvm/release/arm/3.5.2.4/lib/clang/3.5.2/lib/linux/libclang_rt.builtins-arm.a(adddf3.c.o)
                              /local/mnt/workspace/CRMBuilds/TZ.BF.4.0.3.c1-00005-M8996AAAAANAZT-1_20170110_230814/b/HK11/trustzone_images/core/securemsm/sse/qsee/SecureDisplay/libgd/build/fidosui/scorpion/IADAANAA/libgd.lib(gd.o) (__aeabi_dadd)
/afs/localcell/cm/gv2.6/sysname/pkg.@sys/qct/software/llvm/release/arm/3.5.2.4/lib/clang/3.5.2/lib/linux/libclang_rt.builtins-arm.a(divsf3.c.o)
                              /local/mnt/workspace/CRMBuilds/TZ.BF.4.0.3.c1-00005-M8996AAAAANAZT-1_20170110_230814/b/HK11/trustzone_images/core/securemsm/sse/qsee/SecureDisplay/libgd/build/fidosui/scorpion/IADAANAA/libgd.lib(gd.o) (__aeabi_fdiv)
/afs/localcell/cm/gv2.6/sysname/pkg.@sys/qct/software/llvm/release/arm/3.5.2.4/lib/clang/3.5.2/lib/linux/libclang_rt.builtins-arm.a(extendsfdf2.c.o)
                              /local/mnt/workspace/CRMBuilds/TZ.BF.4.0.3.c1-00005-M8996AAAAANAZT-1_20170110_230814/b/HK11/trustzone_images/core/securemsm/sse/qsee/SecureDisplay/libgd/build/fidosui/scorpion/IADAANAA/libgd.lib(gd.o) (__aeabi_f2d)
/afs/localcell/cm/gv2.6/sysname/pkg.@sys/qct/software/llvm/release/arm/3.5.2.4/lib/clang/3.5.2/lib/linux/libclang_rt.builtins-arm.a(fixdfsi.c.o)
                              /local/mnt/workspace/CRMBuilds/TZ.BF.4.0.3.c1-00005-M8996AAAAANAZT-1_20170110_230814/b/HK11/trustzone_images/core/securemsm/sse/qsee/SecureDisplay/libgd/build/fidosui/scorpion/IADAANAA/libgd.lib(gd.o) (__aeabi_d2iz)
/afs/localcell/cm/gv2.6/sysname/pkg.@sys/qct/software/llvm/release/arm/3.5.2.4/lib/clang/3.5.2/lib/linux/libclang_rt.builtins-arm.a(floatsidf.c.o)
                              /local/mnt/workspace/CRMBuilds/TZ.BF.4.0.3.c1-00005-M8996AAAAANAZT-1_20170110_230814/b/HK11/trustzone_images/core/securemsm/sse/qsee/SecureDisplay/libgd/build/fidosui/scorpion/IADAANAA/libgd.lib(gd.o) (__aeabi_i2d)
/afs/localcell/cm/gv2.6/sysname/pkg.@sys/qct/software/llvm/release/arm/3.5.2.4/lib/clang/3.5.2/lib/linux/libclang_rt.builtins-arm.a(floatsisf.c.o)
                              /local/mnt/workspace/CRMBuilds/TZ.BF.4.0.3.c1-00005-M8996AAAAANAZT-1_20170110_230814/b/HK11/trustzone_images/core/securemsm/sse/qsee/SecureDisplay/libgd/build/fidosui/scorpion/IADAANAA/libgd.lib(gd.o) (__aeabi_i2f)
/local/mnt/workspace/CRMBuilds/TZ.BF.4.0.3.c1-00005-M8996AAAAANAZT-1_20170110_230814/b/HK11/trustzone_images/core/kernel/libstd/build/fidosui/scorpion/IADAANAA/libstd.lib(timesafe_memcmp.o)
                              /local/mnt/workspace/CRMBuilds/TZ.BF.4.0.3.c1-00005-M8996AAAAANAZT-1_20170110_230814/b/HK11/trustzone_images/core/securemsm/trustzone/qsapps/libs/applib/common_applib/build/fidosui/scorpion/IADAANAA/tzapp_entrylib.lib(gpPersistObjCrypto.o) (timesafe_memcmp)
/local/mnt/workspace/CRMBuilds/TZ.BF.4.0.3.c1-00005-M8996AAAAANAZT-1_20170110_230814/b/HK11/trustzone_images/core/securemsm/sse/SecureTouch/controller/build/fidosui/scorpion/IADAANAA/drts_controller_msm8996.lib(atmel_mxt_ts.o)
                              /local/mnt/workspace/CRMBuilds/TZ.BF.4.0.3.c1-00005-M8996AAAAANAZT-1_20170110_230814/b/HK11/trustzone_images/core/securemsm/sse/qsee/SecureTouch/drTs/lib/build/fidosui/scorpion/IADAANAA/touch_lib.lib(01_open.o) (atmel_drTsClose)
/local/mnt/workspace/CRMBuilds/TZ.BF.4.0.3.c1-00005-M8996AAAAANAZT-1_20170110_230814/b/HK11/trustzone_images/core/securemsm/sse/SecureTouch/controller/build/fidosui/scorpion/IADAANAA/drts_controller_msm8996.lib(synaptics_ts.o)
                              /local/mnt/workspace/CRMBuilds/TZ.BF.4.0.3.c1-00005-M8996AAAAANAZT-1_20170110_230814/b/HK11/trustzone_images/core/securemsm/sse/qsee/SecureTouch/drTs/lib/build/fidosui/scorpion/IADAANAA/touch_lib.lib(01_open.o) (synaptics_drTsClose)
/local/mnt/workspace/CRMBuilds/TZ.BF.4.0.3.c1-00005-M8996AAAAANAZT-1_20170110_230814/b/HK11/trustzone_images/core/securemsm/sse/qsee/SecureTouch/drTs/controller/build/fidosui/scorpion/IADAANAA/touch_controller_i2c_msm8996.lib(atmel_mxt_ts_i2c.o)
                              /local/mnt/workspace/CRMBuilds/TZ.BF.4.0.3.c1-00005-M8996AAAAANAZT-1_20170110_230814/b/HK11/trustzone_images/core/securemsm/sse/SecureTouch/controller/build/fidosui/scorpion/IADAANAA/drts_controller_msm8996.lib(atmel_mxt_ts.o) (atmel_i2cClose)
/local/mnt/workspace/CRMBuilds/TZ.BF.4.0.3.c1-00005-M8996AAAAANAZT-1_20170110_230814/b/HK11/trustzone_images/core/securemsm/sse/qsee/SecureTouch/drTs/controller/build/fidosui/scorpion/IADAANAA/touch_controller_i2c_msm8996.lib(synaptics_ts_i2c.o)
                              /local/mnt/workspace/CRMBuilds/TZ.BF.4.0.3.c1-00005-M8996AAAAANAZT-1_20170110_230814/b/HK11/trustzone_images/core/securemsm/sse/SecureTouch/controller/build/fidosui/scorpion/IADAANAA/drts_controller_msm8996.lib(synaptics_ts.o) (synaptics_i2cClose)
/local/mnt/workspace/CRMBuilds/TZ.BF.4.0.3.c1-00005-M8996AAAAANAZT-1_20170110_230814/b/HK11/trustzone_images/core/securemsm/trustzone/qsapps/libs/applib/qsee/build/fidosui/scorpion/IADAANAA/tzapp_entrylib.lib(qsee_i2c.o)
                              /local/mnt/workspace/CRMBuilds/TZ.BF.4.0.3.c1-00005-M8996AAAAANAZT-1_20170110_230814/b/HK11/trustzone_images/core/securemsm/sse/qsee/SecureTouch/drTs/controller/build/fidosui/scorpion/IADAANAA/touch_controller_i2c_msm8996.lib(atmel_mxt_ts_i2c.o) (qsee_i2c_close)

Allocating common symbols
Common symbol       size              file

apps_request_resp   0x14              /local/mnt/workspace/CRMBuilds/TZ.BF.4.0.3.c1-00005-M8996AAAAANAZT-1_20170110_230814/b/HK11/trustzone_images/core/securemsm/trustzone/qsapps/libs/applib/common_applib/build/fidosui/scorpion/IADAANAA/tzapp_entrylib.lib(common_applib.o)
__hwcap             0x4               /afs/localcell/cm/gv2.6/sysname/pkg.@sys/qct/software/llvm/release/arm/3.5.2.4/tools/lib32/lib/libc.a(libc.o)
__libc              0x4c              /afs/localcell/cm/gv2.6/sysname/pkg.@sys/qct/software/llvm/release/arm/3.5.2.4/tools/lib32/lib/libc.a(libc.o)
img_array           0x57e40           /local/mnt/workspace/CRMBuilds/TZ.BF.4.0.3.c1-00005-M8996AAAAANAZT-1_20170110_230814/b/HK11/trustzone_images/core/securemsm/sse/qsee/SecureUI/build/fidosui/scorpion/IADAANAA/secure_ui_tui.lib(secure_display_renderer.o)
g_st_start_time     0x8               /local/mnt/workspace/CRMBuilds/TZ.BF.4.0.3.c1-00005-M8996AAAAANAZT-1_20170110_230814/b/HK11/trustzone_images/apps/securemsm/trustzone/qsapps/fidosui/app/build/fidosui/scorpion/IADAANAA/fidosui_app.lib(app_main.o)
g_st_stop_time      0x8               /local/mnt/workspace/CRMBuilds/TZ.BF.4.0.3.c1-00005-M8996AAAAANAZT-1_20170110_230814/b/HK11/trustzone_images/apps/securemsm/trustzone/qsapps/fidosui/app/build/fidosui/scorpion/IADAANAA/fidosui_app.lib(app_main.o)
__sysinfo           0x4               /afs/localcell/cm/gv2.6/sysname/pkg.@sys/qct/software/llvm/release/arm/3.5.2.4/tools/lib32/lib/libc.a(libc.o)

Discarded input sections

 .text          0x00000000        0x0 /local/mnt/workspace/CRMBuilds/TZ.BF.4.0.3.c1-00005-M8996AAAAANAZT-1_20170110_230814/b/HK11/trustzone_images/core/securemsm/trustzone/qsapps/libs/applib/qsee/build/fidosui/scorpion/IADAANAA/src/tzapp_entry.o
 .data          0x00000000        0x0 /local/mnt/workspace/CRMBuilds/TZ.BF.4.0.3.c1-00005-M8996AAAAANAZT-1_20170110_230814/b/HK11/trustzone_images/core/securemsm/trustzone/qsapps/libs/applib/qsee/build/fidosui/scorpion/IADAANAA/src/tzapp_entry.o
 .bss           0x00000000        0x0 /local/mnt/workspace/CRMBuilds/TZ.BF.4.0.3.c1-00005-M8996AAAAANAZT-1_20170110_230814/b/HK11/trustzone_images/core/securemsm/trustzone/qsapps/libs/applib/qsee/build/fidosui/scorpion/IADAANAA/src/tzapp_entry.o
 .text          0x00000000        0x0 /local/mnt/workspace/CRMBuilds/TZ.BF.4.0.3.c1-00005-M8996AAAAANAZT-1_20170110_230814/b/HK11/trustzone_images/apps/securemsm/trustzone/qsapps/fidosui/build/fidosui/scorpion/IADAANAA/metadata.o
 .data          0x00000000        0x0 /local/mnt/workspace/CRMBuilds/TZ.BF.4.0.3.c1-00005-M8996AAAAANAZT-1_20170110_230814/b/HK11/trustzone_images/apps/securemsm/trustzone/qsapps/fidosui/build/fidosui/scorpion/IADAANAA/metadata.o
 .data          0x00000000        0x0 /local/mnt/workspace/CRMBuilds/TZ.BF.4.0.3.c1-00005-M8996AAAAANAZT-1_20170110_230814/b/HK11/trustzone_images/apps/securemsm/trustzone/qsapps/fidosui/ipc/build/fidosui/scorpion/IADAANAA/src/CFidoSuiToken.o
 .bss           0x00000000        0x0 /local/mnt/workspace/CRMBuilds/TZ.BF.4.0.3.c1-00005-M8996AAAAANAZT-1_20170110_230814/b/HK11/trustzone_images/apps/securemsm/trustzone/qsapps/fidosui/ipc/build/fidosui/scorpion/IADAANAA/src/CFidoSuiToken.o
 .ARM.exidx     0x00000000       0x10 /local/mnt/workspace/CRMBuilds/TZ.BF.4.0.3.c1-00005-M8996AAAAANAZT-1_20170110_230814/b/HK11/trustzone_images/apps/securemsm/trustzone/qsapps/fidosui/ipc/build/fidosui/scorpion/IADAANAA/src/CFidoSuiToken.o
 .data          0x00000000        0x0 /local/mnt/workspace/CRMBuilds/TZ.BF.4.0.3.c1-00005-M8996AAAAANAZT-1_20170110_230814/b/HK11/trustzone_images/core/kernel/libstd/build/fidosui/scorpion/IADAANAA/libstd.lib(memscpy.o)
 .bss           0x00000000        0x0 /local/mnt/workspace/CRMBuilds/TZ.BF.4.0.3.c1-00005-M8996AAAAANAZT-1_20170110_230814/b/HK11/trustzone_images/core/kernel/libstd/build/fidosui/scorpion/IADAANAA/libstd.lib(memscpy.o)
 .ARM.exidx     0x00000000        0x8 /local/mnt/workspace/CRMBuilds/TZ.BF.4.0.3.c1-00005-M8996AAAAANAZT-1_20170110_230814/b/HK11/trustzone_images/core/kernel/libstd/build/fidosui/scorpion/IADAANAA/libstd.lib(memscpy.o)
 .group         0x00000000        0xc /local/mnt/workspace/CRMBuilds/TZ.BF.4.0.3.c1-00005-M8996AAAAANAZT-1_20170110_230814/b/HK11/trustzone_images/core/securemsm/trustzone/qsapps/libs/applib/common_applib/build/fidosui/scorpion/IADAANAA/tzapp_entrylib.lib(common_applib.o)
 .ARM.exidx     0x00000000      0x108 /local/mnt/workspace/CRMBuilds/TZ.BF.4.0.3.c1-00005-M8996AAAAANAZT-1_20170110_230814/b/HK11/trustzone_images/core/securemsm/trustzone/qsapps/libs/applib/common_applib/build/fidosui/scorpion/IADAANAA/tzapp_entrylib.lib(common_applib.o)
 .text.tz_module_open
                0x00000000        0xc /local/mnt/workspace/CRMBuilds/TZ.BF.4.0.3.c1-00005-M8996AAAAANAZT-1_20170110_230814/b/HK11/trustzone_images/core/securemsm/trustzone/qsapps/libs/applib/common_applib/build/fidosui/scorpion/IADAANAA/tzapp_entrylib.lib(common_applib.o)
 .ARM.exidx.text.tz_module_open
                0x00000000        0x8 /local/mnt/workspace/CRMBuilds/TZ.BF.4.0.3.c1-00005-M8996AAAAANAZT-1_20170110_230814/b/HK11/trustzone_images/core/securemsm/trustzone/qsapps/libs/applib/common_applib/build/fidosui/scorpion/IADAANAA/tzapp_entrylib.lib(common_applib.o)
 .data          0x00000000        0x0 /local/mnt/workspace/CRMBuilds/TZ.BF.4.0.3.c1-00005-M8996AAAAANAZT-1_20170110_230814/b/HK11/trustzone_images/core/securemsm/trustzone/qsapps/libs/applib/proxy/build/fidosui/scorpion/IADAANAA/tzlib_proxy.lib(prxy_services.o)
 .bss           0x00000000        0x0 /local/mnt/workspace/CRMBuilds/TZ.BF.4.0.3.c1-00005-M8996AAAAANAZT-1_20170110_230814/b/HK11/trustzone_images/core/securemsm/trustzone/qsapps/libs/applib/proxy/build/fidosui/scorpion/IADAANAA/tzlib_proxy.lib(prxy_services.o)
 .ARM.exidx     0x00000000      0x100 /local/mnt/workspace/CRMBuilds/TZ.BF.4.0.3.c1-00005-M8996AAAAANAZT-1_20170110_230814/b/HK11/trustzone_images/core/securemsm/trustzone/qsapps/libs/applib/proxy/build/fidosui/scorpion/IADAANAA/tzlib_proxy.lib(prxy_services.o)
 .data          0x00000000        0x0 /local/mnt/workspace/CRMBuilds/TZ.BF.4.0.3.c1-00005-M8996AAAAANAZT-1_20170110_230814/b/HK11/trustzone_images/core/securemsm/trustzone/qsapps/libs/applib/qsee/build/fidosui/scorpion/IADAANAA/tzapp_entrylib.lib(mink_shared_code.o)
 .bss           0x00000000        0x0 /local/mnt/workspace/CRMBuilds/TZ.BF.4.0.3.c1-00005-M8996AAAAANAZT-1_20170110_230814/b/HK11/trustzone_images/core/securemsm/trustzone/qsapps/libs/applib/qsee/build/fidosui/scorpion/IADAANAA/tzapp_entrylib.lib(mink_shared_code.o)
 .ARM.exidx     0x00000000       0x20 /local/mnt/workspace/CRMBuilds/TZ.BF.4.0.3.c1-00005-M8996AAAAANAZT-1_20170110_230814/b/HK11/trustzone_images/core/securemsm/trustzone/qsapps/libs/applib/qsee/build/fidosui/scorpion/IADAANAA/tzapp_entrylib.lib(mink_shared_code.o)
 .data          0x00000000        0x0 /local/mnt/workspace/CRMBuilds/TZ.BF.4.0.3.c1-00005-M8996AAAAANAZT-1_20170110_230814/b/HK11/trustzone_images/core/securemsm/trustzone/qsapps/libs/applib/qsee/build/fidosui/scorpion/IADAANAA/tzapp_entrylib.lib(qsee_env.o)
 .ARM.exidx     0x00000000       0x28 /local/mnt/workspace/CRMBuilds/TZ.BF.4.0.3.c1-00005-M8996AAAAANAZT-1_20170110_230814/b/HK11/trustzone_images/core/securemsm/trustzone/qsapps/libs/applib/qsee/build/fidosui/scorpion/IADAANAA/tzapp_entrylib.lib(qsee_env.o)
 .data          0x00000000        0x0 /local/mnt/workspace/CRMBuilds/TZ.BF.4.0.3.c1-00005-M8996AAAAANAZT-1_20170110_230814/b/HK11/trustzone_images/core/securemsm/trustzone/qsapps/libs/applib/qsee/build/fidosui/scorpion/IADAANAA/tzapp_entrylib.lib(qsee_prng.o)
 .bss           0x00000000        0x0 /local/mnt/workspace/CRMBuilds/TZ.BF.4.0.3.c1-00005-M8996AAAAANAZT-1_20170110_230814/b/HK11/trustzone_images/core/securemsm/trustzone/qsapps/libs/applib/qsee/build/fidosui/scorpion/IADAANAA/tzapp_entrylib.lib(qsee_prng.o)
 .ARM.exidx     0x00000000        0x8 /local/mnt/workspace/CRMBuilds/TZ.BF.4.0.3.c1-00005-M8996AAAAANAZT-1_20170110_230814/b/HK11/trustzone_images/core/securemsm/trustzone/qsapps/libs/applib/qsee/build/fidosui/scorpion/IADAANAA/tzapp_entrylib.lib(qsee_prng.o)
 .text          0x00000000        0x0 /local/mnt/workspace/CRMBuilds/TZ.BF.4.0.3.c1-00005-M8996AAAAANAZT-1_20170110_230814/b/HK11/trustzone_images/core/securemsm/trustzone/qsapps/libs/applib/qsee/build/fidosui/scorpion/IADAANAA/tzapp_entrylib.lib(tzapp_syscall.o)
 .data          0x00000000        0x0 /local/mnt/workspace/CRMBuilds/TZ.BF.4.0.3.c1-00005-M8996AAAAANAZT-1_20170110_230814/b/HK11/trustzone_images/core/securemsm/trustzone/qsapps/libs/applib/qsee/build/fidosui/scorpion/IADAANAA/tzapp_entrylib.lib(tzapp_syscall.o)
 .bss           0x00000000        0x0 /local/mnt/workspace/CRMBuilds/TZ.BF.4.0.3.c1-00005-M8996AAAAANAZT-1_20170110_230814/b/HK11/trustzone_images/core/securemsm/trustzone/qsapps/libs/applib/qsee/build/fidosui/scorpion/IADAANAA/tzapp_entrylib.lib(tzapp_syscall.o)
 .data          0x00000000        0x0 /local/mnt/workspace/CRMBuilds/TZ.BF.4.0.3.c1-00005-M8996AAAAANAZT-1_20170110_230814/b/HK11/trustzone_images/core/securemsm/trustzone/qsapps/libs/applib/qsee/build/fidosui/scorpion/IADAANAA/tzapp_entrylib.lib(tzapp_lib_main.o)
 .bss           0x00000000        0x0 /local/mnt/workspace/CRMBuilds/TZ.BF.4.0.3.c1-00005-M8996AAAAANAZT-1_20170110_230814/b/HK11/trustzone_images/core/securemsm/trustzone/qsapps/libs/applib/qsee/build/fidosui/scorpion/IADAANAA/tzapp_entrylib.lib(tzapp_lib_main.o)
 .ARM.exidx     0x00000000       0x40 /local/mnt/workspace/CRMBuilds/TZ.BF.4.0.3.c1-00005-M8996AAAAANAZT-1_20170110_230814/b/HK11/trustzone_images/core/securemsm/trustzone/qsapps/libs/applib/qsee/build/fidosui/scorpion/IADAANAA/tzapp_entrylib.lib(tzapp_lib_main.o)
 .text          0x00000000        0x0 /local/mnt/workspace/CRMBuilds/TZ.BF.4.0.3.c1-00005-M8996AAAAANAZT-1_20170110_230814/b/HK11/trustzone_images/core/securemsm/trustzone/qsapps/libs/applib/qsee/build/fidosui/scorpion/IADAANAA/tzapp_entrylib.lib(kthread_shared.o)
 .data          0x00000000        0x0 /local/mnt/workspace/CRMBuilds/TZ.BF.4.0.3.c1-00005-M8996AAAAANAZT-1_20170110_230814/b/HK11/trustzone_images/core/securemsm/trustzone/qsapps/libs/applib/qsee/build/fidosui/scorpion/IADAANAA/tzapp_entrylib.lib(kthread_shared.o)
 .bss           0x00000000        0x0 /local/mnt/workspace/CRMBuilds/TZ.BF.4.0.3.c1-00005-M8996AAAAANAZT-1_20170110_230814/b/HK11/trustzone_images/core/securemsm/trustzone/qsapps/libs/applib/qsee/build/fidosui/scorpion/IADAANAA/tzapp_entrylib.lib(kthread_shared.o)
 .data          0x00000000        0x0 /afs/localcell/cm/gv2.6/sysname/pkg.@sys/qct/software/llvm/release/arm/3.5.2.4/tools/lib32/lib/libc.a(vsnprintf.o)
 .bss           0x00000000        0x0 /afs/localcell/cm/gv2.6/sysname/pkg.@sys/qct/software/llvm/release/arm/3.5.2.4/tools/lib32/lib/libc.a(vsnprintf.o)
 .ARM.exidx     0x00000000       0x10 /afs/localcell/cm/gv2.6/sysname/pkg.@sys/qct/software/llvm/release/arm/3.5.2.4/tools/lib32/lib/libc.a(vsnprintf.o)
 .note.GNU-stack
                0x00000000        0x0 /afs/localcell/cm/gv2.6/sysname/pkg.@sys/qct/software/llvm/release/arm/3.5.2.4/tools/lib32/lib/libc.a(vsnprintf.o)
 .data          0x00000000        0x0 /afs/localcell/cm/gv2.6/sysname/pkg.@sys/qct/software/llvm/release/arm/3.5.2.4/tools/lib32/lib/libc.a(memcpy.o)
 .bss           0x00000000        0x0 /afs/localcell/cm/gv2.6/sysname/pkg.@sys/qct/software/llvm/release/arm/3.5.2.4/tools/lib32/lib/libc.a(memcpy.o)
 .note.GNU-stack
                0x00000000        0x0 /afs/localcell/cm/gv2.6/sysname/pkg.@sys/qct/software/llvm/release/arm/3.5.2.4/tools/lib32/lib/libc.a(memcpy.o)
 .data          0x00000000        0x0 /afs/localcell/cm/gv2.6/sysname/pkg.@sys/qct/software/llvm/release/arm/3.5.2.4/tools/lib32/lib/libc.a(strlen.o)
 .bss           0x00000000        0x0 /afs/localcell/cm/gv2.6/sysname/pkg.@sys/qct/software/llvm/release/arm/3.5.2.4/tools/lib32/lib/libc.a(strlen.o)
 .ARM.exidx     0x00000000        0x8 /afs/localcell/cm/gv2.6/sysname/pkg.@sys/qct/software/llvm/release/arm/3.5.2.4/tools/lib32/lib/libc.a(strlen.o)
 .note.GNU-stack
                0x00000000        0x0 /afs/localcell/cm/gv2.6/sysname/pkg.@sys/qct/software/llvm/release/arm/3.5.2.4/tools/lib32/lib/libc.a(strlen.o)
 .data          0x00000000        0x0 /afs/localcell/cm/gv2.6/sysname/pkg.@sys/qct/software/llvm/release/arm/3.5.2.4/tools/lib32/lib/libc.a(__errno_location.o)
 .ARM.exidx     0x00000000        0x8 /afs/localcell/cm/gv2.6/sysname/pkg.@sys/qct/software/llvm/release/arm/3.5.2.4/tools/lib32/lib/libc.a(__errno_location.o)
 .note.GNU-stack
                0x00000000        0x0 /afs/localcell/cm/gv2.6/sysname/pkg.@sys/qct/software/llvm/release/arm/3.5.2.4/tools/lib32/lib/libc.a(__errno_location.o)
 .text          0x00000000        0x0 /afs/localcell/cm/gv2.6/sysname/pkg.@sys/qct/software/llvm/release/arm/3.5.2.4/tools/lib32/lib/libc.a(libc.o)
 .data          0x00000000        0x0 /afs/localcell/cm/gv2.6/sysname/pkg.@sys/qct/software/llvm/release/arm/3.5.2.4/tools/lib32/lib/libc.a(libc.o)
 .note.GNU-stack
                0x00000000        0x0 /afs/localcell/cm/gv2.6/sysname/pkg.@sys/qct/software/llvm/release/arm/3.5.2.4/tools/lib32/lib/libc.a(libc.o)
 .data          0x00000000        0x0 /afs/localcell/cm/gv2.6/sysname/pkg.@sys/qct/software/llvm/release/arm/3.5.2.4/tools/lib32/lib/libc.a(vfprintf.o)
 .bss           0x00000000        0x0 /afs/localcell/cm/gv2.6/sysname/pkg.@sys/qct/software/llvm/release/arm/3.5.2.4/tools/lib32/lib/libc.a(vfprintf.o)
 .ARM.exidx     0x00000000       0x38 /afs/localcell/cm/gv2.6/sysname/pkg.@sys/qct/software/llvm/release/arm/3.5.2.4/tools/lib32/lib/libc.a(vfprintf.o)
 .note.GNU-stack
                0x00000000        0x0 /afs/localcell/cm/gv2.6/sysname/pkg.@sys/qct/software/llvm/release/arm/3.5.2.4/tools/lib32/lib/libc.a(vfprintf.o)
 .data          0x00000000        0x0 /afs/localcell/cm/gv2.6/sysname/pkg.@sys/qct/software/llvm/release/arm/3.5.2.4/tools/lib32/lib/libc.a(memchr.o)
 .bss           0x00000000        0x0 /afs/localcell/cm/gv2.6/sysname/pkg.@sys/qct/software/llvm/release/arm/3.5.2.4/tools/lib32/lib/libc.a(memchr.o)
 .ARM.exidx     0x00000000        0x8 /afs/localcell/cm/gv2.6/sysname/pkg.@sys/qct/software/llvm/release/arm/3.5.2.4/tools/lib32/lib/libc.a(memchr.o)
 .note.GNU-stack
                0x00000000        0x0 /afs/localcell/cm/gv2.6/sysname/pkg.@sys/qct/software/llvm/release/arm/3.5.2.4/tools/lib32/lib/libc.a(memchr.o)
 .data          0x00000000        0x0 /afs/localcell/cm/gv2.6/sysname/pkg.@sys/qct/software/llvm/release/arm/3.5.2.4/tools/lib32/lib/libc.a(memset.o)
 .bss           0x00000000        0x0 /afs/localcell/cm/gv2.6/sysname/pkg.@sys/qct/software/llvm/release/arm/3.5.2.4/tools/lib32/lib/libc.a(memset.o)
 .ARM.exidx     0x00000000        0x8 /afs/localcell/cm/gv2.6/sysname/pkg.@sys/qct/software/llvm/release/arm/3.5.2.4/tools/lib32/lib/libc.a(memset.o)
 .note.GNU-stack
                0x00000000        0x0 /afs/localcell/cm/gv2.6/sysname/pkg.@sys/qct/software/llvm/release/arm/3.5.2.4/tools/lib32/lib/libc.a(memset.o)
 .data          0x00000000        0x0 /afs/localcell/cm/gv2.6/sysname/pkg.@sys/qct/software/llvm/release/arm/3.5.2.4/tools/lib32/lib/libc.a(strerror.o)
 .bss           0x00000000        0x0 /afs/localcell/cm/gv2.6/sysname/pkg.@sys/qct/software/llvm/release/arm/3.5.2.4/tools/lib32/lib/libc.a(strerror.o)
 .ARM.exidx     0x00000000       0x10 /afs/localcell/cm/gv2.6/sysname/pkg.@sys/qct/software/llvm/release/arm/3.5.2.4/tools/lib32/lib/libc.a(strerror.o)
 .note.GNU-stack
                0x00000000        0x0 /afs/localcell/cm/gv2.6/sysname/pkg.@sys/qct/software/llvm/release/arm/3.5.2.4/tools/lib32/lib/libc.a(strerror.o)
 .data          0x00000000        0x0 /afs/localcell/cm/gv2.6/sysname/pkg.@sys/qct/software/llvm/release/arm/3.5.2.4/tools/lib32/lib/libc.a(__lctrans.o)
 .bss           0x00000000        0x0 /afs/localcell/cm/gv2.6/sysname/pkg.@sys/qct/software/llvm/release/arm/3.5.2.4/tools/lib32/lib/libc.a(__lctrans.o)
 .ARM.exidx     0x00000000       0x18 /afs/localcell/cm/gv2.6/sysname/pkg.@sys/qct/software/llvm/release/arm/3.5.2.4/tools/lib32/lib/libc.a(__lctrans.o)
 .note.GNU-stack
                0x00000000        0x0 /afs/localcell/cm/gv2.6/sysname/pkg.@sys/qct/software/llvm/release/arm/3.5.2.4/tools/lib32/lib/libc.a(__lctrans.o)
 .data          0x00000000        0x0 /afs/localcell/cm/gv2.6/sysname/pkg.@sys/qct/software/llvm/release/arm/3.5.2.4/tools/lib32/lib/libc.a(frexpl.o)
 .bss           0x00000000        0x0 /afs/localcell/cm/gv2.6/sysname/pkg.@sys/qct/software/llvm/release/arm/3.5.2.4/tools/lib32/lib/libc.a(frexpl.o)
 .ARM.exidx     0x00000000        0x8 /afs/localcell/cm/gv2.6/sysname/pkg.@sys/qct/software/llvm/release/arm/3.5.2.4/tools/lib32/lib/libc.a(frexpl.o)
 .note.GNU-stack
                0x00000000        0x0 /afs/localcell/cm/gv2.6/sysname/pkg.@sys/qct/software/llvm/release/arm/3.5.2.4/tools/lib32/lib/libc.a(frexpl.o)
 .data          0x00000000        0x0 /afs/localcell/cm/gv2.6/sysname/pkg.@sys/qct/software/llvm/release/arm/3.5.2.4/tools/lib32/lib/libc.a(wctomb.o)
 .bss           0x00000000        0x0 /afs/localcell/cm/gv2.6/sysname/pkg.@sys/qct/software/llvm/release/arm/3.5.2.4/tools/lib32/lib/libc.a(wctomb.o)
 .ARM.exidx     0x00000000        0x8 /afs/localcell/cm/gv2.6/sysname/pkg.@sys/qct/software/llvm/release/arm/3.5.2.4/tools/lib32/lib/libc.a(wctomb.o)
 .note.GNU-stack
                0x00000000        0x0 /afs/localcell/cm/gv2.6/sysname/pkg.@sys/qct/software/llvm/release/arm/3.5.2.4/tools/lib32/lib/libc.a(wctomb.o)
 .data          0x00000000        0x0 /afs/localcell/cm/gv2.6/sysname/pkg.@sys/qct/software/llvm/release/arm/3.5.2.4/tools/lib32/lib/libc.a(__lockfile.o)
 .bss           0x00000000        0x0 /afs/localcell/cm/gv2.6/sysname/pkg.@sys/qct/software/llvm/release/arm/3.5.2.4/tools/lib32/lib/libc.a(__lockfile.o)
 .ARM.exidx     0x00000000       0x10 /afs/localcell/cm/gv2.6/sysname/pkg.@sys/qct/software/llvm/release/arm/3.5.2.4/tools/lib32/lib/libc.a(__lockfile.o)
 .note.GNU-stack
                0x00000000        0x0 /afs/localcell/cm/gv2.6/sysname/pkg.@sys/qct/software/llvm/release/arm/3.5.2.4/tools/lib32/lib/libc.a(__lockfile.o)
 .data          0x00000000        0x0 /afs/localcell/cm/gv2.6/sysname/pkg.@sys/qct/software/llvm/release/arm/3.5.2.4/tools/lib32/lib/libc.a(fwrite.o)
 .bss           0x00000000        0x0 /afs/localcell/cm/gv2.6/sysname/pkg.@sys/qct/software/llvm/release/arm/3.5.2.4/tools/lib32/lib/libc.a(fwrite.o)
 .ARM.exidx     0x00000000       0x10 /afs/localcell/cm/gv2.6/sysname/pkg.@sys/qct/software/llvm/release/arm/3.5.2.4/tools/lib32/lib/libc.a(fwrite.o)
 .note.GNU-stack
                0x00000000        0x0 /afs/localcell/cm/gv2.6/sysname/pkg.@sys/qct/software/llvm/release/arm/3.5.2.4/tools/lib32/lib/libc.a(fwrite.o)
 .data          0x00000000        0x0 /afs/localcell/cm/gv2.6/sysname/pkg.@sys/qct/software/llvm/release/arm/3.5.2.4/tools/lib32/lib/libc.a(__wait.o)
 .bss           0x00000000        0x0 /afs/localcell/cm/gv2.6/sysname/pkg.@sys/qct/software/llvm/release/arm/3.5.2.4/tools/lib32/lib/libc.a(__wait.o)
 .ARM.exidx     0x00000000        0x8 /afs/localcell/cm/gv2.6/sysname/pkg.@sys/qct/software/llvm/release/arm/3.5.2.4/tools/lib32/lib/libc.a(__wait.o)
 .note.GNU-stack
                0x00000000        0x0 /afs/localcell/cm/gv2.6/sysname/pkg.@sys/qct/software/llvm/release/arm/3.5.2.4/tools/lib32/lib/libc.a(__wait.o)
 .data          0x00000000        0x0 /afs/localcell/cm/gv2.6/sysname/pkg.@sys/qct/software/llvm/release/arm/3.5.2.4/tools/lib32/lib/libc.a(syscall.o)
 .bss           0x00000000        0x0 /afs/localcell/cm/gv2.6/sysname/pkg.@sys/qct/software/llvm/release/arm/3.5.2.4/tools/lib32/lib/libc.a(syscall.o)
 .note.GNU-stack
                0x00000000        0x0 /afs/localcell/cm/gv2.6/sysname/pkg.@sys/qct/software/llvm/release/arm/3.5.2.4/tools/lib32/lib/libc.a(syscall.o)
 .data          0x00000000        0x0 /afs/localcell/cm/gv2.6/sysname/pkg.@sys/qct/software/llvm/release/arm/3.5.2.4/tools/lib32/lib/libc.a(frexp.o)
 .bss           0x00000000        0x0 /afs/localcell/cm/gv2.6/sysname/pkg.@sys/qct/software/llvm/release/arm/3.5.2.4/tools/lib32/lib/libc.a(frexp.o)
 .ARM.exidx     0x00000000        0x8 /afs/localcell/cm/gv2.6/sysname/pkg.@sys/qct/software/llvm/release/arm/3.5.2.4/tools/lib32/lib/libc.a(frexp.o)
 .note.GNU-stack
                0x00000000        0x0 /afs/localcell/cm/gv2.6/sysname/pkg.@sys/qct/software/llvm/release/arm/3.5.2.4/tools/lib32/lib/libc.a(frexp.o)
 .data          0x00000000        0x0 /afs/localcell/cm/gv2.6/sysname/pkg.@sys/qct/software/llvm/release/arm/3.5.2.4/tools/lib32/lib/libc.a(wcrtomb.o)
 .bss           0x00000000        0x0 /afs/localcell/cm/gv2.6/sysname/pkg.@sys/qct/software/llvm/release/arm/3.5.2.4/tools/lib32/lib/libc.a(wcrtomb.o)
 .ARM.exidx     0x00000000        0x8 /afs/localcell/cm/gv2.6/sysname/pkg.@sys/qct/software/llvm/release/arm/3.5.2.4/tools/lib32/lib/libc.a(wcrtomb.o)
 .note.GNU-stack
                0x00000000        0x0 /afs/localcell/cm/gv2.6/sysname/pkg.@sys/qct/software/llvm/release/arm/3.5.2.4/tools/lib32/lib/libc.a(wcrtomb.o)
 .data          0x00000000        0x0 /afs/localcell/cm/gv2.6/sysname/pkg.@sys/qct/software/llvm/release/arm/3.5.2.4/tools/lib32/lib/libc.a(__towrite.o)
 .bss           0x00000000        0x0 /afs/localcell/cm/gv2.6/sysname/pkg.@sys/qct/software/llvm/release/arm/3.5.2.4/tools/lib32/lib/libc.a(__towrite.o)
 .ARM.exidx     0x00000000       0x10 /afs/localcell/cm/gv2.6/sysname/pkg.@sys/qct/software/llvm/release/arm/3.5.2.4/tools/lib32/lib/libc.a(__towrite.o)
 .note.GNU-stack
                0x00000000        0x0 /afs/localcell/cm/gv2.6/sysname/pkg.@sys/qct/software/llvm/release/arm/3.5.2.4/tools/lib32/lib/libc.a(__towrite.o)
 .data          0x00000000        0x0 /afs/localcell/cm/gv2.6/sysname/pkg.@sys/qct/software/llvm/release/arm/3.5.2.4/tools/lib32/lib/libc.a(__stdio_exit.o)
 .ARM.exidx     0x00000000       0x10 /afs/localcell/cm/gv2.6/sysname/pkg.@sys/qct/software/llvm/release/arm/3.5.2.4/tools/lib32/lib/libc.a(__stdio_exit.o)
 .note.GNU-stack
                0x00000000        0x0 /afs/localcell/cm/gv2.6/sysname/pkg.@sys/qct/software/llvm/release/arm/3.5.2.4/tools/lib32/lib/libc.a(__stdio_exit.o)
 .data          0x00000000        0x0 /afs/localcell/cm/gv2.6/sysname/pkg.@sys/qct/software/llvm/release/arm/3.5.2.4/tools/lib32/lib/libc.a(__lock.o)
 .bss           0x00000000        0x0 /afs/localcell/cm/gv2.6/sysname/pkg.@sys/qct/software/llvm/release/arm/3.5.2.4/tools/lib32/lib/libc.a(__lock.o)
 .ARM.exidx     0x00000000       0x10 /afs/localcell/cm/gv2.6/sysname/pkg.@sys/qct/software/llvm/release/arm/3.5.2.4/tools/lib32/lib/libc.a(__lock.o)
 .note.GNU-stack
                0x00000000        0x0 /afs/localcell/cm/gv2.6/sysname/pkg.@sys/qct/software/llvm/release/arm/3.5.2.4/tools/lib32/lib/libc.a(__lock.o)
 .data          0x00000000        0x0 /afs/localcell/cm/gv2.6/sysname/pkg.@sys/qct/software/llvm/release/arm/3.5.2.4/lib/clang/3.5.2/lib/linux/libclang_rt.builtins-arm.a(aeabi_memcpy.S.o)
 .bss           0x00000000        0x0 /afs/localcell/cm/gv2.6/sysname/pkg.@sys/qct/software/llvm/release/arm/3.5.2.4/lib/clang/3.5.2/lib/linux/libclang_rt.builtins-arm.a(aeabi_memcpy.S.o)
 .data          0x00000000        0x0 /afs/localcell/cm/gv2.6/sysname/pkg.@sys/qct/software/llvm/release/arm/3.5.2.4/lib/clang/3.5.2/lib/linux/libclang_rt.builtins-arm.a(aeabi_memset.S.o)
 .bss           0x00000000        0x0 /afs/localcell/cm/gv2.6/sysname/pkg.@sys/qct/software/llvm/release/arm/3.5.2.4/lib/clang/3.5.2/lib/linux/libclang_rt.builtins-arm.a(aeabi_memset.S.o)
 .data          0x00000000        0x0 /afs/localcell/cm/gv2.6/sysname/pkg.@sys/qct/software/llvm/release/arm/3.5.2.4/lib/clang/3.5.2/lib/linux/libclang_rt.builtins-arm.a(aeabi_uldivmod.S.o)
 .bss           0x00000000        0x0 /afs/localcell/cm/gv2.6/sysname/pkg.@sys/qct/software/llvm/release/arm/3.5.2.4/lib/clang/3.5.2/lib/linux/libclang_rt.builtins-arm.a(aeabi_uldivmod.S.o)
 .data          0x00000000        0x0 /afs/localcell/cm/gv2.6/sysname/pkg.@sys/qct/software/llvm/release/arm/3.5.2.4/lib/clang/3.5.2/lib/linux/libclang_rt.builtins-arm.a(udivmoddi4.c.o)
 .bss           0x00000000        0x0 /afs/localcell/cm/gv2.6/sysname/pkg.@sys/qct/software/llvm/release/arm/3.5.2.4/lib/clang/3.5.2/lib/linux/libclang_rt.builtins-arm.a(udivmoddi4.c.o)
 .ARM.exidx     0x00000000        0x8 /afs/localcell/cm/gv2.6/sysname/pkg.@sys/qct/software/llvm/release/arm/3.5.2.4/lib/clang/3.5.2/lib/linux/libclang_rt.builtins-arm.a(udivmoddi4.c.o)
 .data          0x00000000        0x0 /afs/localcell/cm/gv2.6/sysname/pkg.@sys/qct/software/llvm/release/arm/3.5.2.4/lib/clang/3.5.2/lib/linux/libclang_rt.builtins-arm.a(udivsi3.c.o)
 .bss           0x00000000        0x0 /afs/localcell/cm/gv2.6/sysname/pkg.@sys/qct/software/llvm/release/arm/3.5.2.4/lib/clang/3.5.2/lib/linux/libclang_rt.builtins-arm.a(udivsi3.c.o)
 .ARM.exidx     0x00000000        0x8 /afs/localcell/cm/gv2.6/sysname/pkg.@sys/qct/software/llvm/release/arm/3.5.2.4/lib/clang/3.5.2/lib/linux/libclang_rt.builtins-arm.a(udivsi3.c.o)
 .data          0x00000000        0x0 /afs/localcell/cm/gv2.6/sysname/pkg.@sys/qct/software/llvm/release/arm/3.5.2.4/lib/clang/3.5.2/lib/linux/libclang_rt.builtins-arm.a(umoddi3.c.o)
 .bss           0x00000000        0x0 /afs/localcell/cm/gv2.6/sysname/pkg.@sys/qct/software/llvm/release/arm/3.5.2.4/lib/clang/3.5.2/lib/linux/libclang_rt.builtins-arm.a(umoddi3.c.o)
 .ARM.exidx     0x00000000        0x8 /afs/localcell/cm/gv2.6/sysname/pkg.@sys/qct/software/llvm/release/arm/3.5.2.4/lib/clang/3.5.2/lib/linux/libclang_rt.builtins-arm.a(umoddi3.c.o)
 .data          0x00000000        0x0 /afs/localcell/cm/gv2.6/sysname/pkg.@sys/qct/software/llvm/release/arm/3.5.2.4/lib/clang/3.5.2/lib/linux/libclang_rt.builtins-arm.a(umodsi3.c.o)
 .bss           0x00000000        0x0 /afs/localcell/cm/gv2.6/sysname/pkg.@sys/qct/software/llvm/release/arm/3.5.2.4/lib/clang/3.5.2/lib/linux/libclang_rt.builtins-arm.a(umodsi3.c.o)
 .ARM.exidx     0x00000000        0x8 /afs/localcell/cm/gv2.6/sysname/pkg.@sys/qct/software/llvm/release/arm/3.5.2.4/lib/clang/3.5.2/lib/linux/libclang_rt.builtins-arm.a(umodsi3.c.o)
 .data          0x00000000        0x0 /local/mnt/workspace/CRMBuilds/TZ.BF.4.0.3.c1-00005-M8996AAAAANAZT-1_20170110_230814/b/HK11/trustzone_images/apps/securemsm/trustzone/qsapps/fidosui/app/build/fidosui/scorpion/IADAANAA/fidosui_app.lib(app_main.o)
 .ARM.exidx     0x00000000       0x20 /local/mnt/workspace/CRMBuilds/TZ.BF.4.0.3.c1-00005-M8996AAAAANAZT-1_20170110_230814/b/HK11/trustzone_images/apps/securemsm/trustzone/qsapps/fidosui/app/build/fidosui/scorpion/IADAANAA/fidosui_app.lib(app_main.o)
 .data          0x00000000        0x0 /local/mnt/workspace/CRMBuilds/TZ.BF.4.0.3.c1-00005-M8996AAAAANAZT-1_20170110_230814/b/HK11/trustzone_images/apps/securemsm/trustzone/qsapps/fidosui/app/build/fidosui/scorpion/IADAANAA/fidosui_app.lib(01_Initialize.o)
 .bss           0x00000000        0x0 /local/mnt/workspace/CRMBuilds/TZ.BF.4.0.3.c1-00005-M8996AAAAANAZT-1_20170110_230814/b/HK11/trustzone_images/apps/securemsm/trustzone/qsapps/fidosui/app/build/fidosui/scorpion/IADAANAA/fidosui_app.lib(01_Initialize.o)
 .ARM.exidx     0x00000000        0x8 /local/mnt/workspace/CRMBuilds/TZ.BF.4.0.3.c1-00005-M8996AAAAANAZT-1_20170110_230814/b/HK11/trustzone_images/apps/securemsm/trustzone/qsapps/fidosui/app/build/fidosui/scorpion/IADAANAA/fidosui_app.lib(01_Initialize.o)
 .data          0x00000000        0x0 /local/mnt/workspace/CRMBuilds/TZ.BF.4.0.3.c1-00005-M8996AAAAANAZT-1_20170110_230814/b/HK11/trustzone_images/apps/securemsm/trustzone/qsapps/fidosui/app/build/fidosui/scorpion/IADAANAA/fidosui_app.lib(08_ShowMessageSui.o)
 .ARM.exidx     0x00000000       0x10 /local/mnt/workspace/CRMBuilds/TZ.BF.4.0.3.c1-00005-M8996AAAAANAZT-1_20170110_230814/b/HK11/trustzone_images/apps/securemsm/trustzone/qsapps/fidosui/app/build/fidosui/scorpion/IADAANAA/fidosui_app.lib(08_ShowMessageSui.o)
 .data          0x00000000        0x0 /local/mnt/workspace/CRMBuilds/TZ.BF.4.0.3.c1-00005-M8996AAAAANAZT-1_20170110_230814/b/HK11/trustzone_images/apps/securemsm/trustzone/qsapps/fidosui/app/build/fidosui/scorpion/IADAANAA/fidosui_app.lib(fsSecureUI.o)
 .ARM.exidx     0x00000000       0x18 /local/mnt/workspace/CRMBuilds/TZ.BF.4.0.3.c1-00005-M8996AAAAANAZT-1_20170110_230814/b/HK11/trustzone_images/apps/securemsm/trustzone/qsapps/fidosui/app/build/fidosui/scorpion/IADAANAA/fidosui_app.lib(fsSecureUI.o)
 .data          0x00000000        0x0 /local/mnt/workspace/CRMBuilds/TZ.BF.4.0.3.c1-00005-M8996AAAAANAZT-1_20170110_230814/b/HK11/trustzone_images/apps/securemsm/trustzone/qsapps/fidosui/app/build/fidosui/scorpion/IADAANAA/fidosui_app.lib(fsLocale.o)
 .bss           0x00000000        0x0 /local/mnt/workspace/CRMBuilds/TZ.BF.4.0.3.c1-00005-M8996AAAAANAZT-1_20170110_230814/b/HK11/trustzone_images/apps/securemsm/trustzone/qsapps/fidosui/app/build/fidosui/scorpion/IADAANAA/fidosui_app.lib(fsLocale.o)
 .ARM.exidx     0x00000000       0x10 /local/mnt/workspace/CRMBuilds/TZ.BF.4.0.3.c1-00005-M8996AAAAANAZT-1_20170110_230814/b/HK11/trustzone_images/apps/securemsm/trustzone/qsapps/fidosui/app/build/fidosui/scorpion/IADAANAA/fidosui_app.lib(fsLocale.o)
 .text          0x00000000        0x0 /local/mnt/workspace/CRMBuilds/TZ.BF.4.0.3.c1-00005-M8996AAAAANAZT-1_20170110_230814/b/HK11/trustzone_images/apps/securemsm/trustzone/qsapps/fidosui/config/build/fidosui/scorpion/IADAANAA/fidosui_config.lib(config.o)
 .bss           0x00000000        0x0 /local/mnt/workspace/CRMBuilds/TZ.BF.4.0.3.c1-00005-M8996AAAAANAZT-1_20170110_230814/b/HK11/trustzone_images/apps/securemsm/trustzone/qsapps/fidosui/config/build/fidosui/scorpion/IADAANAA/fidosui_config.lib(config.o)
 .text          0x00000000        0x0 /local/mnt/workspace/CRMBuilds/TZ.BF.4.0.3.c1-00005-M8996AAAAANAZT-1_20170110_230814/b/HK11/trustzone_images/apps/securemsm/trustzone/qsapps/fidosui/locale/build/fidosui/scorpion/IADAANAA/fidosui_locale.lib(locale.o)
 .data          0x00000000        0x0 /local/mnt/workspace/CRMBuilds/TZ.BF.4.0.3.c1-00005-M8996AAAAANAZT-1_20170110_230814/b/HK11/trustzone_images/apps/securemsm/trustzone/qsapps/fidosui/locale/build/fidosui/scorpion/IADAANAA/fidosui_locale.lib(locale.o)
 .bss           0x00000000        0x0 /local/mnt/workspace/CRMBuilds/TZ.BF.4.0.3.c1-00005-M8996AAAAANAZT-1_20170110_230814/b/HK11/trustzone_images/apps/securemsm/trustzone/qsapps/fidosui/locale/build/fidosui/scorpion/IADAANAA/fidosui_locale.lib(locale.o)
 .data          0x00000000        0x0 /local/mnt/workspace/CRMBuilds/TZ.BF.4.0.3.c1-00005-M8996AAAAANAZT-1_20170110_230814/b/HK11/trustzone_images/core/kernel/libstd/build/fidosui/scorpion/IADAANAA/libstd.lib(secure_memset.o)
 .bss           0x00000000        0x0 /local/mnt/workspace/CRMBuilds/TZ.BF.4.0.3.c1-00005-M8996AAAAANAZT-1_20170110_230814/b/HK11/trustzone_images/core/kernel/libstd/build/fidosui/scorpion/IADAANAA/libstd.lib(secure_memset.o)
 .ARM.exidx     0x00000000        0x8 /local/mnt/workspace/CRMBuilds/TZ.BF.4.0.3.c1-00005-M8996AAAAANAZT-1_20170110_230814/b/HK11/trustzone_images/core/kernel/libstd/build/fidosui/scorpion/IADAANAA/libstd.lib(secure_memset.o)
 .data          0x00000000        0x0 /local/mnt/workspace/CRMBuilds/TZ.BF.4.0.3.c1-00005-M8996AAAAANAZT-1_20170110_230814/b/HK11/trustzone_images/core/securemsm/sse/log/build/fidosui/scorpion/IADAANAA/sselog.lib(sselog.o)
 .bss           0x00000000        0x0 /local/mnt/workspace/CRMBuilds/TZ.BF.4.0.3.c1-00005-M8996AAAAANAZT-1_20170110_230814/b/HK11/trustzone_images/core/securemsm/sse/log/build/fidosui/scorpion/IADAANAA/sselog.lib(sselog.o)
 .ARM.exidx     0x00000000        0x8 /local/mnt/workspace/CRMBuilds/TZ.BF.4.0.3.c1-00005-M8996AAAAANAZT-1_20170110_230814/b/HK11/trustzone_images/core/securemsm/sse/log/build/fidosui/scorpion/IADAANAA/sselog.lib(sselog.o)
 .ARM.exidx     0x00000000       0x90 /local/mnt/workspace/CRMBuilds/TZ.BF.4.0.3.c1-00005-M8996AAAAANAZT-1_20170110_230814/b/HK11/trustzone_images/core/securemsm/sse/qsee/SecureUI/build/fidosui/scorpion/IADAANAA/secure_ui.lib(SecureUI.o)
 .ARM.exidx     0x00000000       0x48 /local/mnt/workspace/CRMBuilds/TZ.BF.4.0.3.c1-00005-M8996AAAAANAZT-1_20170110_230814/b/HK11/trustzone_images/core/securemsm/sse/qsee/SecureUI/build/fidosui/scorpion/IADAANAA/secure_ui_tui.lib(qsee_tui_dialogs.o)
 .ARM.exidx     0x00000000       0xc8 /local/mnt/workspace/CRMBuilds/TZ.BF.4.0.3.c1-00005-M8996AAAAANAZT-1_20170110_230814/b/HK11/trustzone_images/core/securemsm/sse/qsee/SecureUI/build/fidosui/scorpion/IADAANAA/secure_ui_tui.lib(layout_manager.o)
 .data          0x00000000        0x0 /local/mnt/workspace/CRMBuilds/TZ.BF.4.0.3.c1-00005-M8996AAAAANAZT-1_20170110_230814/b/HK11/trustzone_images/core/securemsm/sse/qsee/SecureUI/build/fidosui/scorpion/IADAANAA/secure_ui_tui.lib(secure_display_renderer.o)
 .ARM.exidx     0x00000000       0x70 /local/mnt/workspace/CRMBuilds/TZ.BF.4.0.3.c1-00005-M8996AAAAANAZT-1_20170110_230814/b/HK11/trustzone_images/core/securemsm/sse/qsee/SecureUI/build/fidosui/scorpion/IADAANAA/secure_ui_tui.lib(secure_display_renderer.o)
 .data          0x00000000        0x0 /local/mnt/workspace/CRMBuilds/TZ.BF.4.0.3.c1-00005-M8996AAAAANAZT-1_20170110_230814/b/HK11/trustzone_images/core/securemsm/sse/qsee/SecureUI/build/fidosui/scorpion/IADAANAA/secure_ui_tui.lib(font_manager.o)
 .ARM.exidx     0x00000000       0x20 /local/mnt/workspace/CRMBuilds/TZ.BF.4.0.3.c1-00005-M8996AAAAANAZT-1_20170110_230814/b/HK11/trustzone_images/core/securemsm/sse/qsee/SecureUI/build/fidosui/scorpion/IADAANAA/secure_ui_tui.lib(font_manager.o)
 .ARM.exidx     0x00000000       0x28 /local/mnt/workspace/CRMBuilds/TZ.BF.4.0.3.c1-00005-M8996AAAAANAZT-1_20170110_230814/b/HK11/trustzone_images/core/securemsm/sse/qsee/SecureUILib/lib/build/fidosui/scorpion/IADAANAA/secure_ui_lib.lib(SecureUILib.o)
 .data          0x00000000        0x0 /local/mnt/workspace/CRMBuilds/TZ.BF.4.0.3.c1-00005-M8996AAAAANAZT-1_20170110_230814/b/HK11/trustzone_images/core/securemsm/sse/qsee/SecureUILib/lib/build/fidosui/scorpion/IADAANAA/secure_ui_lib.lib(01_startTouch.o)
 .bss           0x00000000        0x0 /local/mnt/workspace/CRMBuilds/TZ.BF.4.0.3.c1-00005-M8996AAAAANAZT-1_20170110_230814/b/HK11/trustzone_images/core/securemsm/sse/qsee/SecureUILib/lib/build/fidosui/scorpion/IADAANAA/secure_ui_lib.lib(01_startTouch.o)
 .ARM.exidx     0x00000000        0x8 /local/mnt/workspace/CRMBuilds/TZ.BF.4.0.3.c1-00005-M8996AAAAANAZT-1_20170110_230814/b/HK11/trustzone_images/core/securemsm/sse/qsee/SecureUILib/lib/build/fidosui/scorpion/IADAANAA/secure_ui_lib.lib(01_startTouch.o)
 .data          0x00000000        0x0 /local/mnt/workspace/CRMBuilds/TZ.BF.4.0.3.c1-00005-M8996AAAAANAZT-1_20170110_230814/b/HK11/trustzone_images/core/securemsm/sse/qsee/SecureUILib/lib/build/fidosui/scorpion/IADAANAA/secure_ui_lib.lib(02_processTouch.o)
 .bss           0x00000000        0x0 /local/mnt/workspace/CRMBuilds/TZ.BF.4.0.3.c1-00005-M8996AAAAANAZT-1_20170110_230814/b/HK11/trustzone_images/core/securemsm/sse/qsee/SecureUILib/lib/build/fidosui/scorpion/IADAANAA/secure_ui_lib.lib(02_processTouch.o)
 .ARM.exidx     0x00000000        0x8 /local/mnt/workspace/CRMBuilds/TZ.BF.4.0.3.c1-00005-M8996AAAAANAZT-1_20170110_230814/b/HK11/trustzone_images/core/securemsm/sse/qsee/SecureUILib/lib/build/fidosui/scorpion/IADAANAA/secure_ui_lib.lib(02_processTouch.o)
 .data          0x00000000        0x0 /local/mnt/workspace/CRMBuilds/TZ.BF.4.0.3.c1-00005-M8996AAAAANAZT-1_20170110_230814/b/HK11/trustzone_images/core/securemsm/sse/qsee/SecureUILib/lib/build/fidosui/scorpion/IADAANAA/secure_ui_lib.lib(03_stopTouch.o)
 .bss           0x00000000        0x0 /local/mnt/workspace/CRMBuilds/TZ.BF.4.0.3.c1-00005-M8996AAAAANAZT-1_20170110_230814/b/HK11/trustzone_images/core/securemsm/sse/qsee/SecureUILib/lib/build/fidosui/scorpion/IADAANAA/secure_ui_lib.lib(03_stopTouch.o)
 .ARM.exidx     0x00000000       0x10 /local/mnt/workspace/CRMBuilds/TZ.BF.4.0.3.c1-00005-M8996AAAAANAZT-1_20170110_230814/b/HK11/trustzone_images/core/securemsm/sse/qsee/SecureUILib/lib/build/fidosui/scorpion/IADAANAA/secure_ui_lib.lib(03_stopTouch.o)
 .data          0x00000000        0x0 /local/mnt/workspace/CRMBuilds/TZ.BF.4.0.3.c1-00005-M8996AAAAANAZT-1_20170110_230814/b/HK11/trustzone_images/core/securemsm/sse/qsee/SecureUILib/lib/build/fidosui/scorpion/IADAANAA/secure_ui_lib.lib(04_prepareRequest.o)
 .bss           0x00000000        0x0 /local/mnt/workspace/CRMBuilds/TZ.BF.4.0.3.c1-00005-M8996AAAAANAZT-1_20170110_230814/b/HK11/trustzone_images/core/securemsm/sse/qsee/SecureUILib/lib/build/fidosui/scorpion/IADAANAA/secure_ui_lib.lib(04_prepareRequest.o)
 .ARM.exidx     0x00000000        0x8 /local/mnt/workspace/CRMBuilds/TZ.BF.4.0.3.c1-00005-M8996AAAAANAZT-1_20170110_230814/b/HK11/trustzone_images/core/securemsm/sse/qsee/SecureUILib/lib/build/fidosui/scorpion/IADAANAA/secure_ui_lib.lib(04_prepareRequest.o)
 .data          0x00000000        0x0 /local/mnt/workspace/CRMBuilds/TZ.BF.4.0.3.c1-00005-M8996AAAAANAZT-1_20170110_230814/b/HK11/trustzone_images/core/securemsm/sse/qsee/SecureUILib/lib/build/fidosui/scorpion/IADAANAA/secure_ui_lib.lib(05_storeIndicator.o)
 .bss           0x00000000        0x0 /local/mnt/workspace/CRMBuilds/TZ.BF.4.0.3.c1-00005-M8996AAAAANAZT-1_20170110_230814/b/HK11/trustzone_images/core/securemsm/sse/qsee/SecureUILib/lib/build/fidosui/scorpion/IADAANAA/secure_ui_lib.lib(05_storeIndicator.o)
 .ARM.exidx     0x00000000        0x8 /local/mnt/workspace/CRMBuilds/TZ.BF.4.0.3.c1-00005-M8996AAAAANAZT-1_20170110_230814/b/HK11/trustzone_images/core/securemsm/sse/qsee/SecureUILib/lib/build/fidosui/scorpion/IADAANAA/secure_ui_lib.lib(05_storeIndicator.o)
 .data          0x00000000        0x0 /local/mnt/workspace/CRMBuilds/TZ.BF.4.0.3.c1-00005-M8996AAAAANAZT-1_20170110_230814/b/HK11/trustzone_images/core/securemsm/trustzone/qsapps/libs/applib/proxy/build/fidosui/scorpion/IADAANAA/tzlib_proxy.lib(prxy_qsee_shim.o)
 .bss           0x00000000        0x0 /local/mnt/workspace/CRMBuilds/TZ.BF.4.0.3.c1-00005-M8996AAAAANAZT-1_20170110_230814/b/HK11/trustzone_images/core/securemsm/trustzone/qsapps/libs/applib/proxy/build/fidosui/scorpion/IADAANAA/tzlib_proxy.lib(prxy_qsee_shim.o)
 .ARM.exidx     0x00000000      0x108 /local/mnt/workspace/CRMBuilds/TZ.BF.4.0.3.c1-00005-M8996AAAAANAZT-1_20170110_230814/b/HK11/trustzone_images/core/securemsm/trustzone/qsapps/libs/applib/proxy/build/fidosui/scorpion/IADAANAA/tzlib_proxy.lib(prxy_qsee_shim.o)
 .data          0x00000000        0x0 /local/mnt/workspace/CRMBuilds/TZ.BF.4.0.3.c1-00005-M8996AAAAANAZT-1_20170110_230814/b/HK11/trustzone_images/core/securemsm/trustzone/qsapps/libs/applib/proxy/build/fidosui/scorpion/IADAANAA/tzlib_proxy.lib(prxy_ufdes.o)
 .bss           0x00000000        0x0 /local/mnt/workspace/CRMBuilds/TZ.BF.4.0.3.c1-00005-M8996AAAAANAZT-1_20170110_230814/b/HK11/trustzone_images/core/securemsm/trustzone/qsapps/libs/applib/proxy/build/fidosui/scorpion/IADAANAA/tzlib_proxy.lib(prxy_ufdes.o)
 .ARM.exidx     0x00000000       0x20 /local/mnt/workspace/CRMBuilds/TZ.BF.4.0.3.c1-00005-M8996AAAAANAZT-1_20170110_230814/b/HK11/trustzone_images/core/securemsm/trustzone/qsapps/libs/applib/proxy/build/fidosui/scorpion/IADAANAA/tzlib_proxy.lib(prxy_ufdes.o)
 .data          0x00000000        0x0 /local/mnt/workspace/CRMBuilds/TZ.BF.4.0.3.c1-00005-M8996AAAAANAZT-1_20170110_230814/b/HK11/trustzone_images/core/securemsm/trustzone/qsapps/libs/applib/proxy/build/fidosui/scorpion/IADAANAA/tzlib_proxy.lib(prxy_secmath.o)
 .bss           0x00000000        0x0 /local/mnt/workspace/CRMBuilds/TZ.BF.4.0.3.c1-00005-M8996AAAAANAZT-1_20170110_230814/b/HK11/trustzone_images/core/securemsm/trustzone/qsapps/libs/applib/proxy/build/fidosui/scorpion/IADAANAA/tzlib_proxy.lib(prxy_secmath.o)
 .ARM.exidx     0x00000000       0x10 /local/mnt/workspace/CRMBuilds/TZ.BF.4.0.3.c1-00005-M8996AAAAANAZT-1_20170110_230814/b/HK11/trustzone_images/core/securemsm/trustzone/qsapps/libs/applib/proxy/build/fidosui/scorpion/IADAANAA/tzlib_proxy.lib(prxy_secmath.o)
 .data          0x00000000        0x0 /local/mnt/workspace/CRMBuilds/TZ.BF.4.0.3.c1-00005-M8996AAAAANAZT-1_20170110_230814/b/HK11/trustzone_images/core/securemsm/trustzone/qsapps/libs/applib/proxy/build/fidosui/scorpion/IADAANAA/tzlib_proxy.lib(prxy_secrsa.o)
 .bss           0x00000000        0x0 /local/mnt/workspace/CRMBuilds/TZ.BF.4.0.3.c1-00005-M8996AAAAANAZT-1_20170110_230814/b/HK11/trustzone_images/core/securemsm/trustzone/qsapps/libs/applib/proxy/build/fidosui/scorpion/IADAANAA/tzlib_proxy.lib(prxy_secrsa.o)
 .ARM.exidx     0x00000000       0x50 /local/mnt/workspace/CRMBuilds/TZ.BF.4.0.3.c1-00005-M8996AAAAANAZT-1_20170110_230814/b/HK11/trustzone_images/core/securemsm/trustzone/qsapps/libs/applib/proxy/build/fidosui/scorpion/IADAANAA/tzlib_proxy.lib(prxy_secrsa.o)
 .data          0x00000000        0x0 /local/mnt/workspace/CRMBuilds/TZ.BF.4.0.3.c1-00005-M8996AAAAANAZT-1_20170110_230814/b/HK11/trustzone_images/core/securemsm/trustzone/qsapps/libs/applib/proxy/build/fidosui/scorpion/IADAANAA/tzlib_proxy.lib(prxy_ecc.o)
 .bss           0x00000000        0x0 /local/mnt/workspace/CRMBuilds/TZ.BF.4.0.3.c1-00005-M8996AAAAANAZT-1_20170110_230814/b/HK11/trustzone_images/core/securemsm/trustzone/qsapps/libs/applib/proxy/build/fidosui/scorpion/IADAANAA/tzlib_proxy.lib(prxy_ecc.o)
 .ARM.exidx     0x00000000       0x88 /local/mnt/workspace/CRMBuilds/TZ.BF.4.0.3.c1-00005-M8996AAAAANAZT-1_20170110_230814/b/HK11/trustzone_images/core/securemsm/trustzone/qsapps/libs/applib/proxy/build/fidosui/scorpion/IADAANAA/tzlib_proxy.lib(prxy_ecc.o)
 .data          0x00000000        0x0 /local/mnt/workspace/CRMBuilds/TZ.BF.4.0.3.c1-00005-M8996AAAAANAZT-1_20170110_230814/b/HK11/trustzone_images/core/securemsm/trustzone/qsapps/libs/applib/qsee/build/fidosui/scorpion/IADAANAA/tzapp_entrylib.lib(qsee_secdisp.o)
 .bss           0x00000000        0x0 /local/mnt/workspace/CRMBuilds/TZ.BF.4.0.3.c1-00005-M8996AAAAANAZT-1_20170110_230814/b/HK11/trustzone_images/core/securemsm/trustzone/qsapps/libs/applib/qsee/build/fidosui/scorpion/IADAANAA/tzapp_entrylib.lib(qsee_secdisp.o)
 .ARM.exidx     0x00000000       0x10 /local/mnt/workspace/CRMBuilds/TZ.BF.4.0.3.c1-00005-M8996AAAAANAZT-1_20170110_230814/b/HK11/trustzone_images/core/securemsm/trustzone/qsapps/libs/applib/qsee/build/fidosui/scorpion/IADAANAA/tzapp_entrylib.lib(qsee_secdisp.o)
 .data          0x00000000        0x0 /local/mnt/workspace/CRMBuilds/TZ.BF.4.0.3.c1-00005-M8996AAAAANAZT-1_20170110_230814/b/HK11/trustzone_images/core/securemsm/trustzone/qsapps/libs/applib/qsee/build/fidosui/scorpion/IADAANAA/tzapp_entrylib.lib(qsee_nsmem.o)
 .bss           0x00000000        0x0 /local/mnt/workspace/CRMBuilds/TZ.BF.4.0.3.c1-00005-M8996AAAAANAZT-1_20170110_230814/b/HK11/trustzone_images/core/securemsm/trustzone/qsapps/libs/applib/qsee/build/fidosui/scorpion/IADAANAA/tzapp_entrylib.lib(qsee_nsmem.o)
 .ARM.exidx     0x00000000       0x20 /local/mnt/workspace/CRMBuilds/TZ.BF.4.0.3.c1-00005-M8996AAAAANAZT-1_20170110_230814/b/HK11/trustzone_images/core/securemsm/trustzone/qsapps/libs/applib/qsee/build/fidosui/scorpion/IADAANAA/tzapp_entrylib.lib(qsee_nsmem.o)
 .data          0x00000000        0x0 /local/mnt/workspace/CRMBuilds/TZ.BF.4.0.3.c1-00005-M8996AAAAANAZT-1_20170110_230814/b/HK11/trustzone_images/core/securemsm/trustzone/qsapps/libs/applib/qsee/build/fidosui/scorpion/IADAANAA/tzapp_entrylib.lib(qsee_timer_shim.o)
 .bss           0x00000000        0x0 /local/mnt/workspace/CRMBuilds/TZ.BF.4.0.3.c1-00005-M8996AAAAANAZT-1_20170110_230814/b/HK11/trustzone_images/core/securemsm/trustzone/qsapps/libs/applib/qsee/build/fidosui/scorpion/IADAANAA/tzapp_entrylib.lib(qsee_timer_shim.o)
 .ARM.exidx     0x00000000       0x18 /local/mnt/workspace/CRMBuilds/TZ.BF.4.0.3.c1-00005-M8996AAAAANAZT-1_20170110_230814/b/HK11/trustzone_images/core/securemsm/trustzone/qsapps/libs/applib/qsee/build/fidosui/scorpion/IADAANAA/tzapp_entrylib.lib(qsee_timer_shim.o)
 .data          0x00000000        0x0 /local/mnt/workspace/CRMBuilds/TZ.BF.4.0.3.c1-00005-M8996AAAAANAZT-1_20170110_230814/b/HK11/trustzone_images/core/securemsm/trustzone/qsapps/libs/applib/qsee/build/fidosui/scorpion/IADAANAA/tzapp_entrylib.lib(qsee_hash.o)
 .bss           0x00000000        0x0 /local/mnt/workspace/CRMBuilds/TZ.BF.4.0.3.c1-00005-M8996AAAAANAZT-1_20170110_230814/b/HK11/trustzone_images/core/securemsm/trustzone/qsapps/libs/applib/qsee/build/fidosui/scorpion/IADAANAA/tzapp_entrylib.lib(qsee_hash.o)
 .ARM.exidx     0x00000000       0x48 /local/mnt/workspace/CRMBuilds/TZ.BF.4.0.3.c1-00005-M8996AAAAANAZT-1_20170110_230814/b/HK11/trustzone_images/core/securemsm/trustzone/qsapps/libs/applib/qsee/build/fidosui/scorpion/IADAANAA/tzapp_entrylib.lib(qsee_hash.o)
 .data          0x00000000        0x0 /local/mnt/workspace/CRMBuilds/TZ.BF.4.0.3.c1-00005-M8996AAAAANAZT-1_20170110_230814/b/HK11/trustzone_images/core/securemsm/trustzone/qsapps/libs/applib/qsee/build/fidosui/scorpion/IADAANAA/tzapp_entrylib.lib(qsee_shared_buffer.o)
 .bss           0x00000000        0x0 /local/mnt/workspace/CRMBuilds/TZ.BF.4.0.3.c1-00005-M8996AAAAANAZT-1_20170110_230814/b/HK11/trustzone_images/core/securemsm/trustzone/qsapps/libs/applib/qsee/build/fidosui/scorpion/IADAANAA/tzapp_entrylib.lib(qsee_shared_buffer.o)
 .ARM.exidx     0x00000000       0x10 /local/mnt/workspace/CRMBuilds/TZ.BF.4.0.3.c1-00005-M8996AAAAANAZT-1_20170110_230814/b/HK11/trustzone_images/core/securemsm/trustzone/qsapps/libs/applib/qsee/build/fidosui/scorpion/IADAANAA/tzapp_entrylib.lib(qsee_shared_buffer.o)
 .data          0x00000000        0x0 /local/mnt/workspace/CRMBuilds/TZ.BF.4.0.3.c1-00005-M8996AAAAANAZT-1_20170110_230814/b/HK11/trustzone_images/core/securemsm/trustzone/qsapps/libs/applib/qsee/build/fidosui/scorpion/IADAANAA/tzapp_entrylib.lib(qsee_appmessage.o)
 .bss           0x00000000        0x0 /local/mnt/workspace/CRMBuilds/TZ.BF.4.0.3.c1-00005-M8996AAAAANAZT-1_20170110_230814/b/HK11/trustzone_images/core/securemsm/trustzone/qsapps/libs/applib/qsee/build/fidosui/scorpion/IADAANAA/tzapp_entrylib.lib(qsee_appmessage.o)
 .ARM.exidx     0x00000000       0x18 /local/mnt/workspace/CRMBuilds/TZ.BF.4.0.3.c1-00005-M8996AAAAANAZT-1_20170110_230814/b/HK11/trustzone_images/core/securemsm/trustzone/qsapps/libs/applib/qsee/build/fidosui/scorpion/IADAANAA/tzapp_entrylib.lib(qsee_appmessage.o)
 .data          0x00000000        0x0 /local/mnt/workspace/CRMBuilds/TZ.BF.4.0.3.c1-00005-M8996AAAAANAZT-1_20170110_230814/b/HK11/trustzone_images/core/securemsm/trustzone/qsapps/libs/applib/qsee/build/fidosui/scorpion/IADAANAA/tzapp_entrylib.lib(sfs_api.o)
 .ARM.exidx     0x00000000       0x70 /local/mnt/workspace/CRMBuilds/TZ.BF.4.0.3.c1-00005-M8996AAAAANAZT-1_20170110_230814/b/HK11/trustzone_images/core/securemsm/trustzone/qsapps/libs/applib/qsee/build/fidosui/scorpion/IADAANAA/tzapp_entrylib.lib(sfs_api.o)
 .data          0x00000000        0x0 /afs/localcell/cm/gv2.6/sysname/pkg.@sys/qct/software/llvm/release/arm/3.5.2.4/tools/lib32/lib/libc.a(snprintf.o)
 .bss           0x00000000        0x0 /afs/localcell/cm/gv2.6/sysname/pkg.@sys/qct/software/llvm/release/arm/3.5.2.4/tools/lib32/lib/libc.a(snprintf.o)
 .ARM.exidx     0x00000000        0x8 /afs/localcell/cm/gv2.6/sysname/pkg.@sys/qct/software/llvm/release/arm/3.5.2.4/tools/lib32/lib/libc.a(snprintf.o)
 .note.GNU-stack
                0x00000000        0x0 /afs/localcell/cm/gv2.6/sysname/pkg.@sys/qct/software/llvm/release/arm/3.5.2.4/tools/lib32/lib/libc.a(snprintf.o)
 .data          0x00000000        0x0 /afs/localcell/cm/gv2.6/sysname/pkg.@sys/qct/software/llvm/release/arm/3.5.2.4/tools/lib32/lib/libc.a(strcmp.o)
 .bss           0x00000000        0x0 /afs/localcell/cm/gv2.6/sysname/pkg.@sys/qct/software/llvm/release/arm/3.5.2.4/tools/lib32/lib/libc.a(strcmp.o)
 .ARM.exidx     0x00000000        0x8 /afs/localcell/cm/gv2.6/sysname/pkg.@sys/qct/software/llvm/release/arm/3.5.2.4/tools/lib32/lib/libc.a(strcmp.o)
 .note.GNU-stack
                0x00000000        0x0 /afs/localcell/cm/gv2.6/sysname/pkg.@sys/qct/software/llvm/release/arm/3.5.2.4/tools/lib32/lib/libc.a(strcmp.o)
 .data          0x00000000        0x0 /afs/localcell/cm/gv2.6/sysname/pkg.@sys/qct/software/llvm/release/arm/3.5.2.4/tools/lib32/lib/libc.a(strlcpy.o)
 .bss           0x00000000        0x0 /afs/localcell/cm/gv2.6/sysname/pkg.@sys/qct/software/llvm/release/arm/3.5.2.4/tools/lib32/lib/libc.a(strlcpy.o)
 .ARM.exidx     0x00000000        0x8 /afs/localcell/cm/gv2.6/sysname/pkg.@sys/qct/software/llvm/release/arm/3.5.2.4/tools/lib32/lib/libc.a(strlcpy.o)
 .note.GNU-stack
                0x00000000        0x0 /afs/localcell/cm/gv2.6/sysname/pkg.@sys/qct/software/llvm/release/arm/3.5.2.4/tools/lib32/lib/libc.a(strlcpy.o)
 .data          0x00000000        0x0 /afs/localcell/cm/gv2.6/sysname/pkg.@sys/qct/software/llvm/release/arm/3.5.2.4/tools/lib32/lib/libc.a(strncmp.o)
 .bss           0x00000000        0x0 /afs/localcell/cm/gv2.6/sysname/pkg.@sys/qct/software/llvm/release/arm/3.5.2.4/tools/lib32/lib/libc.a(strncmp.o)
 .ARM.exidx     0x00000000        0x8 /afs/localcell/cm/gv2.6/sysname/pkg.@sys/qct/software/llvm/release/arm/3.5.2.4/tools/lib32/lib/libc.a(strncmp.o)
 .note.GNU-stack
                0x00000000        0x0 /afs/localcell/cm/gv2.6/sysname/pkg.@sys/qct/software/llvm/release/arm/3.5.2.4/tools/lib32/lib/libc.a(strncmp.o)
 .data          0x00000000        0x0 /afs/localcell/cm/gv2.6/sysname/pkg.@sys/qct/software/llvm/release/arm/3.5.2.4/lib/clang/3.5.2/lib/linux/libclang_rt.builtins-arm.a(aeabi_dcmp.S.o)
 .bss           0x00000000        0x0 /afs/localcell/cm/gv2.6/sysname/pkg.@sys/qct/software/llvm/release/arm/3.5.2.4/lib/clang/3.5.2/lib/linux/libclang_rt.builtins-arm.a(aeabi_dcmp.S.o)
 .data          0x00000000        0x0 /afs/localcell/cm/gv2.6/sysname/pkg.@sys/qct/software/llvm/release/arm/3.5.2.4/lib/clang/3.5.2/lib/linux/libclang_rt.builtins-arm.a(comparedf2.c.o)
 .bss           0x00000000        0x0 /afs/localcell/cm/gv2.6/sysname/pkg.@sys/qct/software/llvm/release/arm/3.5.2.4/lib/clang/3.5.2/lib/linux/libclang_rt.builtins-arm.a(comparedf2.c.o)
 .ARM.exidx     0x00000000       0x38 /afs/localcell/cm/gv2.6/sysname/pkg.@sys/qct/software/llvm/release/arm/3.5.2.4/lib/clang/3.5.2/lib/linux/libclang_rt.builtins-arm.a(comparedf2.c.o)
 .data          0x00000000        0x0 /afs/localcell/cm/gv2.6/sysname/pkg.@sys/qct/software/llvm/release/arm/3.5.2.4/lib/clang/3.5.2/lib/linux/libclang_rt.builtins-arm.a(divdf3.c.o)
 .bss           0x00000000        0x0 /afs/localcell/cm/gv2.6/sysname/pkg.@sys/qct/software/llvm/release/arm/3.5.2.4/lib/clang/3.5.2/lib/linux/libclang_rt.builtins-arm.a(divdf3.c.o)
 .ARM.exidx     0x00000000        0x8 /afs/localcell/cm/gv2.6/sysname/pkg.@sys/qct/software/llvm/release/arm/3.5.2.4/lib/clang/3.5.2/lib/linux/libclang_rt.builtins-arm.a(divdf3.c.o)
 .data          0x00000000        0x0 /afs/localcell/cm/gv2.6/sysname/pkg.@sys/qct/software/llvm/release/arm/3.5.2.4/lib/clang/3.5.2/lib/linux/libclang_rt.builtins-arm.a(fixunsdfsi.c.o)
 .bss           0x00000000        0x0 /afs/localcell/cm/gv2.6/sysname/pkg.@sys/qct/software/llvm/release/arm/3.5.2.4/lib/clang/3.5.2/lib/linux/libclang_rt.builtins-arm.a(fixunsdfsi.c.o)
 .ARM.exidx     0x00000000        0x8 /afs/localcell/cm/gv2.6/sysname/pkg.@sys/qct/software/llvm/release/arm/3.5.2.4/lib/clang/3.5.2/lib/linux/libclang_rt.builtins-arm.a(fixunsdfsi.c.o)
 .data          0x00000000        0x0 /afs/localcell/cm/gv2.6/sysname/pkg.@sys/qct/software/llvm/release/arm/3.5.2.4/lib/clang/3.5.2/lib/linux/libclang_rt.builtins-arm.a(floatunsidf.c.o)
 .bss           0x00000000        0x0 /afs/localcell/cm/gv2.6/sysname/pkg.@sys/qct/software/llvm/release/arm/3.5.2.4/lib/clang/3.5.2/lib/linux/libclang_rt.builtins-arm.a(floatunsidf.c.o)
 .ARM.exidx     0x00000000        0x8 /afs/localcell/cm/gv2.6/sysname/pkg.@sys/qct/software/llvm/release/arm/3.5.2.4/lib/clang/3.5.2/lib/linux/libclang_rt.builtins-arm.a(floatunsidf.c.o)
 .data          0x00000000        0x0 /afs/localcell/cm/gv2.6/sysname/pkg.@sys/qct/software/llvm/release/arm/3.5.2.4/lib/clang/3.5.2/lib/linux/libclang_rt.builtins-arm.a(muldf3.c.o)
 .bss           0x00000000        0x0 /afs/localcell/cm/gv2.6/sysname/pkg.@sys/qct/software/llvm/release/arm/3.5.2.4/lib/clang/3.5.2/lib/linux/libclang_rt.builtins-arm.a(muldf3.c.o)
 .ARM.exidx     0x00000000        0x8 /afs/localcell/cm/gv2.6/sysname/pkg.@sys/qct/software/llvm/release/arm/3.5.2.4/lib/clang/3.5.2/lib/linux/libclang_rt.builtins-arm.a(muldf3.c.o)
 .ARM.exidx     0x00000000       0x60 /local/mnt/workspace/CRMBuilds/TZ.BF.4.0.3.c1-00005-M8996AAAAANAZT-1_20170110_230814/b/HK11/trustzone_images/apps/securemsm/trustzone/qsapps/fidosui/layouts/build/fidosui/scorpion/IADAANAA/secure_ui_layout.lib(layout_8996_fluid.o)
 .data          0x00000000        0x0 /local/mnt/workspace/CRMBuilds/TZ.BF.4.0.3.c1-00005-M8996AAAAANAZT-1_20170110_230814/b/HK11/trustzone_images/core/securemsm/sse/SecureTouch/layout/build/fidosui/scorpion/IADAANAA/sklayout.lib(layoutUtils.o)
 .bss           0x00000000        0x0 /local/mnt/workspace/CRMBuilds/TZ.BF.4.0.3.c1-00005-M8996AAAAANAZT-1_20170110_230814/b/HK11/trustzone_images/core/securemsm/sse/SecureTouch/layout/build/fidosui/scorpion/IADAANAA/sklayout.lib(layoutUtils.o)
 .ARM.exidx     0x00000000       0x48 /local/mnt/workspace/CRMBuilds/TZ.BF.4.0.3.c1-00005-M8996AAAAANAZT-1_20170110_230814/b/HK11/trustzone_images/core/securemsm/sse/SecureTouch/layout/build/fidosui/scorpion/IADAANAA/sklayout.lib(layoutUtils.o)
 .data          0x00000000        0x0 /local/mnt/workspace/CRMBuilds/TZ.BF.4.0.3.c1-00005-M8996AAAAANAZT-1_20170110_230814/b/HK11/trustzone_images/core/securemsm/sse/qsee/SecureDisplay/libgd/build/fidosui/scorpion/IADAANAA/libgd.lib(gd.o)
 .bss           0x00000000        0x0 /local/mnt/workspace/CRMBuilds/TZ.BF.4.0.3.c1-00005-M8996AAAAANAZT-1_20170110_230814/b/HK11/trustzone_images/core/securemsm/sse/qsee/SecureDisplay/libgd/build/fidosui/scorpion/IADAANAA/libgd.lib(gd.o)
 .ARM.exidx     0x00000000      0x250 /local/mnt/workspace/CRMBuilds/TZ.BF.4.0.3.c1-00005-M8996AAAAANAZT-1_20170110_230814/b/HK11/trustzone_images/core/securemsm/sse/qsee/SecureDisplay/libgd/build/fidosui/scorpion/IADAANAA/libgd.lib(gd.o)
 .data          0x00000000        0x0 /local/mnt/workspace/CRMBuilds/TZ.BF.4.0.3.c1-00005-M8996AAAAANAZT-1_20170110_230814/b/HK11/trustzone_images/core/securemsm/sse/qsee/SecureDisplay/libgd/build/fidosui/scorpion/IADAANAA/libgd.lib(gd_color.o)
 .bss           0x00000000        0x0 /local/mnt/workspace/CRMBuilds/TZ.BF.4.0.3.c1-00005-M8996AAAAANAZT-1_20170110_230814/b/HK11/trustzone_images/core/securemsm/sse/qsee/SecureDisplay/libgd/build/fidosui/scorpion/IADAANAA/libgd.lib(gd_color.o)
 .ARM.exidx     0x00000000        0x8 /local/mnt/workspace/CRMBuilds/TZ.BF.4.0.3.c1-00005-M8996AAAAANAZT-1_20170110_230814/b/HK11/trustzone_images/core/securemsm/sse/qsee/SecureDisplay/libgd/build/fidosui/scorpion/IADAANAA/libgd.lib(gd_color.o)
 .data          0x00000000        0x0 /local/mnt/workspace/CRMBuilds/TZ.BF.4.0.3.c1-00005-M8996AAAAANAZT-1_20170110_230814/b/HK11/trustzone_images/core/securemsm/sse/qsee/SecureDisplay/libgd/build/fidosui/scorpion/IADAANAA/libgd.lib(gd_security.o)
 .bss           0x00000000        0x0 /local/mnt/workspace/CRMBuilds/TZ.BF.4.0.3.c1-00005-M8996AAAAANAZT-1_20170110_230814/b/HK11/trustzone_images/core/securemsm/sse/qsee/SecureDisplay/libgd/build/fidosui/scorpion/IADAANAA/libgd.lib(gd_security.o)
 .ARM.exidx     0x00000000        0x8 /local/mnt/workspace/CRMBuilds/TZ.BF.4.0.3.c1-00005-M8996AAAAANAZT-1_20170110_230814/b/HK11/trustzone_images/core/securemsm/sse/qsee/SecureDisplay/libgd/build/fidosui/scorpion/IADAANAA/libgd.lib(gd_security.o)
 .text          0x00000000        0x0 /local/mnt/workspace/CRMBuilds/TZ.BF.4.0.3.c1-00005-M8996AAAAANAZT-1_20170110_230814/b/HK11/trustzone_images/core/securemsm/sse/qsee/SecureDisplay/libgd/build/fidosui/scorpion/IADAANAA/libgd.lib(gdtables.o)
 .data          0x00000000        0x0 /local/mnt/workspace/CRMBuilds/TZ.BF.4.0.3.c1-00005-M8996AAAAANAZT-1_20170110_230814/b/HK11/trustzone_images/core/securemsm/sse/qsee/SecureDisplay/libgd/build/fidosui/scorpion/IADAANAA/libgd.lib(gdtables.o)
 .bss           0x00000000        0x0 /local/mnt/workspace/CRMBuilds/TZ.BF.4.0.3.c1-00005-M8996AAAAANAZT-1_20170110_230814/b/HK11/trustzone_images/core/securemsm/sse/qsee/SecureDisplay/libgd/build/fidosui/scorpion/IADAANAA/libgd.lib(gdtables.o)
 .data          0x00000000        0x0 /local/mnt/workspace/CRMBuilds/TZ.BF.4.0.3.c1-00005-M8996AAAAANAZT-1_20170110_230814/b/HK11/trustzone_images/core/securemsm/sse/qsee/SecureDisplay/libpng/build/fidosui/scorpion/IADAANAA/libpng.lib(png.o)
 .bss           0x00000000        0x0 /local/mnt/workspace/CRMBuilds/TZ.BF.4.0.3.c1-00005-M8996AAAAANAZT-1_20170110_230814/b/HK11/trustzone_images/core/securemsm/sse/qsee/SecureDisplay/libpng/build/fidosui/scorpion/IADAANAA/libpng.lib(png.o)
 .ARM.exidx     0x00000000       0xa8 /local/mnt/workspace/CRMBuilds/TZ.BF.4.0.3.c1-00005-M8996AAAAANAZT-1_20170110_230814/b/HK11/trustzone_images/core/securemsm/sse/qsee/SecureDisplay/libpng/build/fidosui/scorpion/IADAANAA/libpng.lib(png.o)
 .data          0x00000000        0x0 /local/mnt/workspace/CRMBuilds/TZ.BF.4.0.3.c1-00005-M8996AAAAANAZT-1_20170110_230814/b/HK11/trustzone_images/core/securemsm/sse/qsee/SecureDisplay/libpng/build/fidosui/scorpion/IADAANAA/libpng.lib(pngerror.o)
 .bss           0x00000000        0x0 /local/mnt/workspace/CRMBuilds/TZ.BF.4.0.3.c1-00005-M8996AAAAANAZT-1_20170110_230814/b/HK11/trustzone_images/core/securemsm/sse/qsee/SecureDisplay/libpng/build/fidosui/scorpion/IADAANAA/libpng.lib(pngerror.o)
 .ARM.exidx     0x00000000       0x30 /local/mnt/workspace/CRMBuilds/TZ.BF.4.0.3.c1-00005-M8996AAAAANAZT-1_20170110_230814/b/HK11/trustzone_images/core/securemsm/sse/qsee/SecureDisplay/libpng/build/fidosui/scorpion/IADAANAA/libpng.lib(pngerror.o)
 .data          0x00000000        0x0 /local/mnt/workspace/CRMBuilds/TZ.BF.4.0.3.c1-00005-M8996AAAAANAZT-1_20170110_230814/b/HK11/trustzone_images/core/securemsm/sse/qsee/SecureDisplay/libpng/build/fidosui/scorpion/IADAANAA/libpng.lib(pngget.o)
 .bss           0x00000000        0x0 /local/mnt/workspace/CRMBuilds/TZ.BF.4.0.3.c1-00005-M8996AAAAANAZT-1_20170110_230814/b/HK11/trustzone_images/core/securemsm/sse/qsee/SecureDisplay/libpng/build/fidosui/scorpion/IADAANAA/libpng.lib(pngget.o)
 .ARM.exidx     0x00000000       0x38 /local/mnt/workspace/CRMBuilds/TZ.BF.4.0.3.c1-00005-M8996AAAAANAZT-1_20170110_230814/b/HK11/trustzone_images/core/securemsm/sse/qsee/SecureDisplay/libpng/build/fidosui/scorpion/IADAANAA/libpng.lib(pngget.o)
 .data          0x00000000        0x0 /local/mnt/workspace/CRMBuilds/TZ.BF.4.0.3.c1-00005-M8996AAAAANAZT-1_20170110_230814/b/HK11/trustzone_images/core/securemsm/sse/qsee/SecureDisplay/libpng/build/fidosui/scorpion/IADAANAA/libpng.lib(pngmem.o)
 .bss           0x00000000        0x0 /local/mnt/workspace/CRMBuilds/TZ.BF.4.0.3.c1-00005-M8996AAAAANAZT-1_20170110_230814/b/HK11/trustzone_images/core/securemsm/sse/qsee/SecureDisplay/libpng/build/fidosui/scorpion/IADAANAA/libpng.lib(pngmem.o)
 .ARM.exidx     0x00000000       0x50 /local/mnt/workspace/CRMBuilds/TZ.BF.4.0.3.c1-00005-M8996AAAAANAZT-1_20170110_230814/b/HK11/trustzone_images/core/securemsm/sse/qsee/SecureDisplay/libpng/build/fidosui/scorpion/IADAANAA/libpng.lib(pngmem.o)
 .data          0x00000000        0x0 /local/mnt/workspace/CRMBuilds/TZ.BF.4.0.3.c1-00005-M8996AAAAANAZT-1_20170110_230814/b/HK11/trustzone_images/core/securemsm/sse/qsee/SecureDisplay/libpng/build/fidosui/scorpion/IADAANAA/libpng.lib(pngread.o)
 .bss           0x00000000        0x0 /local/mnt/workspace/CRMBuilds/TZ.BF.4.0.3.c1-00005-M8996AAAAANAZT-1_20170110_230814/b/HK11/trustzone_images/core/securemsm/sse/qsee/SecureDisplay/libpng/build/fidosui/scorpion/IADAANAA/libpng.lib(pngread.o)
 .ARM.exidx     0x00000000       0x68 /local/mnt/workspace/CRMBuilds/TZ.BF.4.0.3.c1-00005-M8996AAAAANAZT-1_20170110_230814/b/HK11/trustzone_images/core/securemsm/sse/qsee/SecureDisplay/libpng/build/fidosui/scorpion/IADAANAA/libpng.lib(pngread.o)
 .data          0x00000000        0x0 /local/mnt/workspace/CRMBuilds/TZ.BF.4.0.3.c1-00005-M8996AAAAANAZT-1_20170110_230814/b/HK11/trustzone_images/core/securemsm/sse/qsee/SecureDisplay/libpng/build/fidosui/scorpion/IADAANAA/libpng.lib(pngrio.o)
 .bss           0x00000000        0x0 /local/mnt/workspace/CRMBuilds/TZ.BF.4.0.3.c1-00005-M8996AAAAANAZT-1_20170110_230814/b/HK11/trustzone_images/core/securemsm/sse/qsee/SecureDisplay/libpng/build/fidosui/scorpion/IADAANAA/libpng.lib(pngrio.o)
 .ARM.exidx     0x00000000       0x10 /local/mnt/workspace/CRMBuilds/TZ.BF.4.0.3.c1-00005-M8996AAAAANAZT-1_20170110_230814/b/HK11/trustzone_images/core/securemsm/sse/qsee/SecureDisplay/libpng/build/fidosui/scorpion/IADAANAA/libpng.lib(pngrio.o)
 .data          0x00000000        0x0 /local/mnt/workspace/CRMBuilds/TZ.BF.4.0.3.c1-00005-M8996AAAAANAZT-1_20170110_230814/b/HK11/trustzone_images/core/securemsm/sse/qsee/SecureDisplay/libpng/build/fidosui/scorpion/IADAANAA/libpng.lib(pngrutil.o)
 .bss           0x00000000        0x0 /local/mnt/workspace/CRMBuilds/TZ.BF.4.0.3.c1-00005-M8996AAAAANAZT-1_20170110_230814/b/HK11/trustzone_images/core/securemsm/sse/qsee/SecureDisplay/libpng/build/fidosui/scorpion/IADAANAA/libpng.lib(pngrutil.o)
 .ARM.exidx     0x00000000       0xb0 /local/mnt/workspace/CRMBuilds/TZ.BF.4.0.3.c1-00005-M8996AAAAANAZT-1_20170110_230814/b/HK11/trustzone_images/core/securemsm/sse/qsee/SecureDisplay/libpng/build/fidosui/scorpion/IADAANAA/libpng.lib(pngrutil.o)
 .data          0x00000000        0x0 /local/mnt/workspace/CRMBuilds/TZ.BF.4.0.3.c1-00005-M8996AAAAANAZT-1_20170110_230814/b/HK11/trustzone_images/core/securemsm/sse/qsee/SecureDisplay/libpng/build/fidosui/scorpion/IADAANAA/libpng.lib(pngset.o)
 .bss           0x00000000        0x0 /local/mnt/workspace/CRMBuilds/TZ.BF.4.0.3.c1-00005-M8996AAAAANAZT-1_20170110_230814/b/HK11/trustzone_images/core/securemsm/sse/qsee/SecureDisplay/libpng/build/fidosui/scorpion/IADAANAA/libpng.lib(pngset.o)
 .ARM.exidx     0x00000000       0x20 /local/mnt/workspace/CRMBuilds/TZ.BF.4.0.3.c1-00005-M8996AAAAANAZT-1_20170110_230814/b/HK11/trustzone_images/core/securemsm/sse/qsee/SecureDisplay/libpng/build/fidosui/scorpion/IADAANAA/libpng.lib(pngset.o)
 .data          0x00000000        0x0 /local/mnt/workspace/CRMBuilds/TZ.BF.4.0.3.c1-00005-M8996AAAAANAZT-1_20170110_230814/b/HK11/trustzone_images/core/securemsm/sse/qsee/SecureDisplay/zlib/build/fidosui/scorpion/IADAANAA/zlib.lib(crc32.o)
 .bss           0x00000000        0x0 /local/mnt/workspace/CRMBuilds/TZ.BF.4.0.3.c1-00005-M8996AAAAANAZT-1_20170110_230814/b/HK11/trustzone_images/core/securemsm/sse/qsee/SecureDisplay/zlib/build/fidosui/scorpion/IADAANAA/zlib.lib(crc32.o)
 .ARM.exidx     0x00000000       0x38 /local/mnt/workspace/CRMBuilds/TZ.BF.4.0.3.c1-00005-M8996AAAAANAZT-1_20170110_230814/b/HK11/trustzone_images/core/securemsm/sse/qsee/SecureDisplay/zlib/build/fidosui/scorpion/IADAANAA/zlib.lib(crc32.o)
 .data          0x00000000        0x0 /local/mnt/workspace/CRMBuilds/TZ.BF.4.0.3.c1-00005-M8996AAAAANAZT-1_20170110_230814/b/HK11/trustzone_images/core/securemsm/sse/qsee/SecureDisplay/zlib/build/fidosui/scorpion/IADAANAA/zlib.lib(inflate.o)
 .bss           0x00000000        0x0 /local/mnt/workspace/CRMBuilds/TZ.BF.4.0.3.c1-00005-M8996AAAAANAZT-1_20170110_230814/b/HK11/trustzone_images/core/securemsm/sse/qsee/SecureDisplay/zlib/build/fidosui/scorpion/IADAANAA/zlib.lib(inflate.o)
 .ARM.exidx     0x00000000       0x90 /local/mnt/workspace/CRMBuilds/TZ.BF.4.0.3.c1-00005-M8996AAAAANAZT-1_20170110_230814/b/HK11/trustzone_images/core/securemsm/sse/qsee/SecureDisplay/zlib/build/fidosui/scorpion/IADAANAA/zlib.lib(inflate.o)
 .data          0x00000000        0x0 /local/mnt/workspace/CRMBuilds/TZ.BF.4.0.3.c1-00005-M8996AAAAANAZT-1_20170110_230814/b/HK11/trustzone_images/core/securemsm/sse/qsee/SecureDisplay/zlib/build/fidosui/scorpion/IADAANAA/zlib.lib(inftrees.o)
 .bss           0x00000000        0x0 /local/mnt/workspace/CRMBuilds/TZ.BF.4.0.3.c1-00005-M8996AAAAANAZT-1_20170110_230814/b/HK11/trustzone_images/core/securemsm/sse/qsee/SecureDisplay/zlib/build/fidosui/scorpion/IADAANAA/zlib.lib(inftrees.o)
 .ARM.exidx     0x00000000        0x8 /local/mnt/workspace/CRMBuilds/TZ.BF.4.0.3.c1-00005-M8996AAAAANAZT-1_20170110_230814/b/HK11/trustzone_images/core/securemsm/sse/qsee/SecureDisplay/zlib/build/fidosui/scorpion/IADAANAA/zlib.lib(inftrees.o)
 .data          0x00000000        0x0 /local/mnt/workspace/CRMBuilds/TZ.BF.4.0.3.c1-00005-M8996AAAAANAZT-1_20170110_230814/b/HK11/trustzone_images/core/securemsm/sse/qsee/SecureDisplay/zlib/build/fidosui/scorpion/IADAANAA/zlib.lib(zutil.o)
 .bss           0x00000000        0x0 /local/mnt/workspace/CRMBuilds/TZ.BF.4.0.3.c1-00005-M8996AAAAANAZT-1_20170110_230814/b/HK11/trustzone_images/core/securemsm/sse/qsee/SecureDisplay/zlib/build/fidosui/scorpion/IADAANAA/zlib.lib(zutil.o)
 .ARM.exidx     0x00000000       0x28 /local/mnt/workspace/CRMBuilds/TZ.BF.4.0.3.c1-00005-M8996AAAAANAZT-1_20170110_230814/b/HK11/trustzone_images/core/securemsm/sse/qsee/SecureDisplay/zlib/build/fidosui/scorpion/IADAANAA/zlib.lib(zutil.o)
 .data          0x00000000        0x0 /local/mnt/workspace/CRMBuilds/TZ.BF.4.0.3.c1-00005-M8996AAAAANAZT-1_20170110_230814/b/HK11/trustzone_images/core/securemsm/sse/qsee/SecureDisplay/zlib/build/fidosui/scorpion/IADAANAA/zlib.lib(adler32.o)
 .bss           0x00000000        0x0 /local/mnt/workspace/CRMBuilds/TZ.BF.4.0.3.c1-00005-M8996AAAAANAZT-1_20170110_230814/b/HK11/trustzone_images/core/securemsm/sse/qsee/SecureDisplay/zlib/build/fidosui/scorpion/IADAANAA/zlib.lib(adler32.o)
 .ARM.exidx     0x00000000       0x20 /local/mnt/workspace/CRMBuilds/TZ.BF.4.0.3.c1-00005-M8996AAAAANAZT-1_20170110_230814/b/HK11/trustzone_images/core/securemsm/sse/qsee/SecureDisplay/zlib/build/fidosui/scorpion/IADAANAA/zlib.lib(adler32.o)
 .data          0x00000000        0x0 /local/mnt/workspace/CRMBuilds/TZ.BF.4.0.3.c1-00005-M8996AAAAANAZT-1_20170110_230814/b/HK11/trustzone_images/core/securemsm/sse/qsee/SecureDisplay/zlib/build/fidosui/scorpion/IADAANAA/zlib.lib(inffast.o)
 .bss           0x00000000        0x0 /local/mnt/workspace/CRMBuilds/TZ.BF.4.0.3.c1-00005-M8996AAAAANAZT-1_20170110_230814/b/HK11/trustzone_images/core/securemsm/sse/qsee/SecureDisplay/zlib/build/fidosui/scorpion/IADAANAA/zlib.lib(inffast.o)
 .ARM.exidx     0x00000000        0x8 /local/mnt/workspace/CRMBuilds/TZ.BF.4.0.3.c1-00005-M8996AAAAANAZT-1_20170110_230814/b/HK11/trustzone_images/core/securemsm/sse/qsee/SecureDisplay/zlib/build/fidosui/scorpion/IADAANAA/zlib.lib(inffast.o)
 .ARM.exidx     0x00000000        0x8 /local/mnt/workspace/CRMBuilds/TZ.BF.4.0.3.c1-00005-M8996AAAAANAZT-1_20170110_230814/b/HK11/trustzone_images/core/securemsm/sse/qsee/SecureTouch/drTs/lib/build/fidosui/scorpion/IADAANAA/touch_lib.lib(01_open.o)
 .data          0x00000000        0x0 /local/mnt/workspace/CRMBuilds/TZ.BF.4.0.3.c1-00005-M8996AAAAANAZT-1_20170110_230814/b/HK11/trustzone_images/core/securemsm/sse/qsee/SecureTouch/drTs/lib/build/fidosui/scorpion/IADAANAA/touch_lib.lib(02_close.o)
 .bss           0x00000000        0x0 /local/mnt/workspace/CRMBuilds/TZ.BF.4.0.3.c1-00005-M8996AAAAANAZT-1_20170110_230814/b/HK11/trustzone_images/core/securemsm/sse/qsee/SecureTouch/drTs/lib/build/fidosui/scorpion/IADAANAA/touch_lib.lib(02_close.o)
 .ARM.exidx     0x00000000        0x8 /local/mnt/workspace/CRMBuilds/TZ.BF.4.0.3.c1-00005-M8996AAAAANAZT-1_20170110_230814/b/HK11/trustzone_images/core/securemsm/sse/qsee/SecureTouch/drTs/lib/build/fidosui/scorpion/IADAANAA/touch_lib.lib(02_close.o)
 .data          0x00000000        0x0 /local/mnt/workspace/CRMBuilds/TZ.BF.4.0.3.c1-00005-M8996AAAAANAZT-1_20170110_230814/b/HK11/trustzone_images/core/securemsm/sse/qsee/SecureTouch/drTs/lib/build/fidosui/scorpion/IADAANAA/touch_lib.lib(03_getData.o)
 .ARM.exidx     0x00000000       0x10 /local/mnt/workspace/CRMBuilds/TZ.BF.4.0.3.c1-00005-M8996AAAAANAZT-1_20170110_230814/b/HK11/trustzone_images/core/securemsm/sse/qsee/SecureTouch/drTs/lib/build/fidosui/scorpion/IADAANAA/touch_lib.lib(03_getData.o)
 .data          0x00000000        0x0 /local/mnt/workspace/CRMBuilds/TZ.BF.4.0.3.c1-00005-M8996AAAAANAZT-1_20170110_230814/b/HK11/trustzone_images/core/securemsm/trustzone/qsapps/libs/applib/common_applib/build/fidosui/scorpion/IADAANAA/tzapp_entrylib.lib(gpPersistObjCommon.o)
 .ARM.exidx     0x00000000       0x40 /local/mnt/workspace/CRMBuilds/TZ.BF.4.0.3.c1-00005-M8996AAAAANAZT-1_20170110_230814/b/HK11/trustzone_images/core/securemsm/trustzone/qsapps/libs/applib/common_applib/build/fidosui/scorpion/IADAANAA/tzapp_entrylib.lib(gpPersistObjCommon.o)
 .data          0x00000000        0x0 /local/mnt/workspace/CRMBuilds/TZ.BF.4.0.3.c1-00005-M8996AAAAANAZT-1_20170110_230814/b/HK11/trustzone_images/core/securemsm/trustzone/qsapps/libs/applib/common_applib/build/fidosui/scorpion/IADAANAA/tzapp_entrylib.lib(gpPersistentObjects.o)
 .bss           0x00000000        0x0 /local/mnt/workspace/CRMBuilds/TZ.BF.4.0.3.c1-00005-M8996AAAAANAZT-1_20170110_230814/b/HK11/trustzone_images/core/securemsm/trustzone/qsapps/libs/applib/common_applib/build/fidosui/scorpion/IADAANAA/tzapp_entrylib.lib(gpPersistentObjects.o)
 .ARM.exidx     0x00000000       0x70 /local/mnt/workspace/CRMBuilds/TZ.BF.4.0.3.c1-00005-M8996AAAAANAZT-1_20170110_230814/b/HK11/trustzone_images/core/securemsm/trustzone/qsapps/libs/applib/common_applib/build/fidosui/scorpion/IADAANAA/tzapp_entrylib.lib(gpPersistentObjects.o)
 .data          0x00000000        0x0 /local/mnt/workspace/CRMBuilds/TZ.BF.4.0.3.c1-00005-M8996AAAAANAZT-1_20170110_230814/b/HK11/trustzone_images/core/securemsm/trustzone/qsapps/libs/applib/common_applib/build/fidosui/scorpion/IADAANAA/tzapp_entrylib.lib(gpPersistObjData.o)
 .ARM.exidx     0x00000000       0x88 /local/mnt/workspace/CRMBuilds/TZ.BF.4.0.3.c1-00005-M8996AAAAANAZT-1_20170110_230814/b/HK11/trustzone_images/core/securemsm/trustzone/qsapps/libs/applib/common_applib/build/fidosui/scorpion/IADAANAA/tzapp_entrylib.lib(gpPersistObjData.o)
 .ARM.exidx     0x00000000       0x38 /local/mnt/workspace/CRMBuilds/TZ.BF.4.0.3.c1-00005-M8996AAAAANAZT-1_20170110_230814/b/HK11/trustzone_images/core/securemsm/trustzone/qsapps/libs/applib/common_applib/build/fidosui/scorpion/IADAANAA/tzapp_entrylib.lib(gpPersistObjHandler.o)
 .data          0x00000000        0x0 /local/mnt/workspace/CRMBuilds/TZ.BF.4.0.3.c1-00005-M8996AAAAANAZT-1_20170110_230814/b/HK11/trustzone_images/core/securemsm/trustzone/qsapps/libs/applib/common_applib/build/fidosui/scorpion/IADAANAA/tzapp_entrylib.lib(gpPersistObjIndex.o)
 .ARM.exidx     0x00000000       0x60 /local/mnt/workspace/CRMBuilds/TZ.BF.4.0.3.c1-00005-M8996AAAAANAZT-1_20170110_230814/b/HK11/trustzone_images/core/securemsm/trustzone/qsapps/libs/applib/common_applib/build/fidosui/scorpion/IADAANAA/tzapp_entrylib.lib(gpPersistObjIndex.o)
 .ARM.exidx     0x00000000       0x48 /local/mnt/workspace/CRMBuilds/TZ.BF.4.0.3.c1-00005-M8996AAAAANAZT-1_20170110_230814/b/HK11/trustzone_images/core/securemsm/trustzone/qsapps/libs/applib/common_applib/build/fidosui/scorpion/IADAANAA/tzapp_entrylib.lib(gpPersistObjVersion.o)
 .data          0x00000000        0x0 /local/mnt/workspace/CRMBuilds/TZ.BF.4.0.3.c1-00005-M8996AAAAANAZT-1_20170110_230814/b/HK11/trustzone_images/core/securemsm/trustzone/qsapps/libs/applib/common_applib/build/fidosui/scorpion/IADAANAA/tzapp_entrylib.lib(gpPersistObjCrypto.o)
 .ARM.exidx     0x00000000       0x38 /local/mnt/workspace/CRMBuilds/TZ.BF.4.0.3.c1-00005-M8996AAAAANAZT-1_20170110_230814/b/HK11/trustzone_images/core/securemsm/trustzone/qsapps/libs/applib/common_applib/build/fidosui/scorpion/IADAANAA/tzapp_entrylib.lib(gpPersistObjCrypto.o)
 .data          0x00000000        0x0 /local/mnt/workspace/CRMBuilds/TZ.BF.4.0.3.c1-00005-M8996AAAAANAZT-1_20170110_230814/b/HK11/trustzone_images/core/securemsm/trustzone/qsapps/libs/applib/common_applib/build/fidosui/scorpion/IADAANAA/tzapp_entrylib.lib(gpPersistObjFileIO.o)
 .bss           0x00000000        0x0 /local/mnt/workspace/CRMBuilds/TZ.BF.4.0.3.c1-00005-M8996AAAAANAZT-1_20170110_230814/b/HK11/trustzone_images/core/securemsm/trustzone/qsapps/libs/applib/common_applib/build/fidosui/scorpion/IADAANAA/tzapp_entrylib.lib(gpPersistObjFileIO.o)
 .ARM.exidx     0x00000000       0x40 /local/mnt/workspace/CRMBuilds/TZ.BF.4.0.3.c1-00005-M8996AAAAANAZT-1_20170110_230814/b/HK11/trustzone_images/core/securemsm/trustzone/qsapps/libs/applib/common_applib/build/fidosui/scorpion/IADAANAA/tzapp_entrylib.lib(gpPersistObjFileIO.o)
 .data          0x00000000        0x0 /local/mnt/workspace/CRMBuilds/TZ.BF.4.0.3.c1-00005-M8996AAAAANAZT-1_20170110_230814/b/HK11/trustzone_images/core/securemsm/trustzone/qsapps/libs/applib/common_applib/build/fidosui/scorpion/IADAANAA/tzapp_entrylib.lib(gpFileService.o)
 .bss           0x00000000        0x0 /local/mnt/workspace/CRMBuilds/TZ.BF.4.0.3.c1-00005-M8996AAAAANAZT-1_20170110_230814/b/HK11/trustzone_images/core/securemsm/trustzone/qsapps/libs/applib/common_applib/build/fidosui/scorpion/IADAANAA/tzapp_entrylib.lib(gpFileService.o)
 .ARM.exidx     0x00000000       0x20 /local/mnt/workspace/CRMBuilds/TZ.BF.4.0.3.c1-00005-M8996AAAAANAZT-1_20170110_230814/b/HK11/trustzone_images/core/securemsm/trustzone/qsapps/libs/applib/common_applib/build/fidosui/scorpion/IADAANAA/tzapp_entrylib.lib(gpFileService.o)
 .data          0x00000000        0x0 /local/mnt/workspace/CRMBuilds/TZ.BF.4.0.3.c1-00005-M8996AAAAANAZT-1_20170110_230814/b/HK11/trustzone_images/core/securemsm/trustzone/qsapps/libs/applib/qsee/build/fidosui/scorpion/IADAANAA/tzapp_entrylib.lib(qsee_core_shim.o)
 .bss           0x00000000        0x0 /local/mnt/workspace/CRMBuilds/TZ.BF.4.0.3.c1-00005-M8996AAAAANAZT-1_20170110_230814/b/HK11/trustzone_images/core/securemsm/trustzone/qsapps/libs/applib/qsee/build/fidosui/scorpion/IADAANAA/tzapp_entrylib.lib(qsee_core_shim.o)
 .ARM.exidx     0x00000000       0x60 /local/mnt/workspace/CRMBuilds/TZ.BF.4.0.3.c1-00005-M8996AAAAANAZT-1_20170110_230814/b/HK11/trustzone_images/core/securemsm/trustzone/qsapps/libs/applib/qsee/build/fidosui/scorpion/IADAANAA/tzapp_entrylib.lib(qsee_core_shim.o)
 .data          0x00000000        0x0 /local/mnt/workspace/CRMBuilds/TZ.BF.4.0.3.c1-00005-M8996AAAAANAZT-1_20170110_230814/b/HK11/trustzone_images/core/securemsm/trustzone/qsapps/libs/applib/qsee/build/fidosui/scorpion/IADAANAA/tzapp_entrylib.lib(stor.o)
 .bss           0x00000000        0x0 /local/mnt/workspace/CRMBuilds/TZ.BF.4.0.3.c1-00005-M8996AAAAANAZT-1_20170110_230814/b/HK11/trustzone_images/core/securemsm/trustzone/qsapps/libs/applib/qsee/build/fidosui/scorpion/IADAANAA/tzapp_entrylib.lib(stor.o)
 .ARM.exidx     0x00000000       0x58 /local/mnt/workspace/CRMBuilds/TZ.BF.4.0.3.c1-00005-M8996AAAAANAZT-1_20170110_230814/b/HK11/trustzone_images/core/securemsm/trustzone/qsapps/libs/applib/qsee/build/fidosui/scorpion/IADAANAA/tzapp_entrylib.lib(stor.o)
 .ARM.exidx     0x00000000       0x70 /local/mnt/workspace/CRMBuilds/TZ.BF.4.0.3.c1-00005-M8996AAAAANAZT-1_20170110_230814/b/HK11/trustzone_images/core/securemsm/trustzone/qsapps/libs/applib/qsee/build/fidosui/scorpion/IADAANAA/tzapp_entrylib.lib(stor_gpt.o)
 .data          0x00000000        0x0 /local/mnt/workspace/CRMBuilds/TZ.BF.4.0.3.c1-00005-M8996AAAAANAZT-1_20170110_230814/b/HK11/trustzone_images/core/securemsm/trustzone/qsapps/libs/applib/qsee/build/fidosui/scorpion/IADAANAA/tzapp_entrylib.lib(stor_rpmbw.o)
 .bss           0x00000000        0x0 /local/mnt/workspace/CRMBuilds/TZ.BF.4.0.3.c1-00005-M8996AAAAANAZT-1_20170110_230814/b/HK11/trustzone_images/core/securemsm/trustzone/qsapps/libs/applib/qsee/build/fidosui/scorpion/IADAANAA/tzapp_entrylib.lib(stor_rpmbw.o)
 .ARM.exidx     0x00000000       0x50 /local/mnt/workspace/CRMBuilds/TZ.BF.4.0.3.c1-00005-M8996AAAAANAZT-1_20170110_230814/b/HK11/trustzone_images/core/securemsm/trustzone/qsapps/libs/applib/qsee/build/fidosui/scorpion/IADAANAA/tzapp_entrylib.lib(stor_rpmbw.o)
 .data          0x00000000        0x0 /local/mnt/workspace/CRMBuilds/TZ.BF.4.0.3.c1-00005-M8996AAAAANAZT-1_20170110_230814/b/HK11/trustzone_images/core/securemsm/trustzone/qsapps/libs/applib/qsee/build/fidosui/scorpion/IADAANAA/tzapp_entrylib.lib(qsee_cfg_prop_shim.o)
 .bss           0x00000000        0x0 /local/mnt/workspace/CRMBuilds/TZ.BF.4.0.3.c1-00005-M8996AAAAANAZT-1_20170110_230814/b/HK11/trustzone_images/core/securemsm/trustzone/qsapps/libs/applib/qsee/build/fidosui/scorpion/IADAANAA/tzapp_entrylib.lib(qsee_cfg_prop_shim.o)
 .ARM.exidx     0x00000000        0x8 /local/mnt/workspace/CRMBuilds/TZ.BF.4.0.3.c1-00005-M8996AAAAANAZT-1_20170110_230814/b/HK11/trustzone_images/core/securemsm/trustzone/qsapps/libs/applib/qsee/build/fidosui/scorpion/IADAANAA/tzapp_entrylib.lib(qsee_cfg_prop_shim.o)
 .data          0x00000000        0x0 /local/mnt/workspace/CRMBuilds/TZ.BF.4.0.3.c1-00005-M8996AAAAANAZT-1_20170110_230814/b/HK11/trustzone_images/core/securemsm/trustzone/qsapps/libs/applib/qsee/build/fidosui/scorpion/IADAANAA/tzapp_entrylib.lib(qsee_cipher.o)
 .bss           0x00000000        0x0 /local/mnt/workspace/CRMBuilds/TZ.BF.4.0.3.c1-00005-M8996AAAAANAZT-1_20170110_230814/b/HK11/trustzone_images/core/securemsm/trustzone/qsapps/libs/applib/qsee/build/fidosui/scorpion/IADAANAA/tzapp_entrylib.lib(qsee_cipher.o)
 .ARM.exidx     0x00000000       0x40 /local/mnt/workspace/CRMBuilds/TZ.BF.4.0.3.c1-00005-M8996AAAAANAZT-1_20170110_230814/b/HK11/trustzone_images/core/securemsm/trustzone/qsapps/libs/applib/qsee/build/fidosui/scorpion/IADAANAA/tzapp_entrylib.lib(qsee_cipher.o)
 .data          0x00000000        0x0 /local/mnt/workspace/CRMBuilds/TZ.BF.4.0.3.c1-00005-M8996AAAAANAZT-1_20170110_230814/b/HK11/trustzone_images/core/securemsm/trustzone/qsapps/libs/applib/qsee/build/fidosui/scorpion/IADAANAA/tzapp_entrylib.lib(qsee_hmac.o)
 .bss           0x00000000        0x0 /local/mnt/workspace/CRMBuilds/TZ.BF.4.0.3.c1-00005-M8996AAAAANAZT-1_20170110_230814/b/HK11/trustzone_images/core/securemsm/trustzone/qsapps/libs/applib/qsee/build/fidosui/scorpion/IADAANAA/tzapp_entrylib.lib(qsee_hmac.o)
 .ARM.exidx     0x00000000       0x38 /local/mnt/workspace/CRMBuilds/TZ.BF.4.0.3.c1-00005-M8996AAAAANAZT-1_20170110_230814/b/HK11/trustzone_images/core/securemsm/trustzone/qsapps/libs/applib/qsee/build/fidosui/scorpion/IADAANAA/tzapp_entrylib.lib(qsee_hmac.o)
 .data          0x00000000        0x0 /local/mnt/workspace/CRMBuilds/TZ.BF.4.0.3.c1-00005-M8996AAAAANAZT-1_20170110_230814/b/HK11/trustzone_images/core/securemsm/trustzone/qsapps/libs/applib/qsee/build/fidosui/scorpion/IADAANAA/tzapp_entrylib.lib(gpPersistObjPanic.o)
 .bss           0x00000000        0x0 /local/mnt/workspace/CRMBuilds/TZ.BF.4.0.3.c1-00005-M8996AAAAANAZT-1_20170110_230814/b/HK11/trustzone_images/core/securemsm/trustzone/qsapps/libs/applib/qsee/build/fidosui/scorpion/IADAANAA/tzapp_entrylib.lib(gpPersistObjPanic.o)
 .ARM.exidx     0x00000000       0x10 /local/mnt/workspace/CRMBuilds/TZ.BF.4.0.3.c1-00005-M8996AAAAANAZT-1_20170110_230814/b/HK11/trustzone_images/core/securemsm/trustzone/qsapps/libs/applib/qsee/build/fidosui/scorpion/IADAANAA/tzapp_entrylib.lib(gpPersistObjPanic.o)
 .data          0x00000000        0x0 /afs/localcell/cm/gv2.6/sysname/pkg.@sys/qct/software/llvm/release/arm/3.5.2.4/tools/lib32/lib/libc.a(abort.o)
 .bss           0x00000000        0x0 /afs/localcell/cm/gv2.6/sysname/pkg.@sys/qct/software/llvm/release/arm/3.5.2.4/tools/lib32/lib/libc.a(abort.o)
 .ARM.exidx     0x00000000        0x8 /afs/localcell/cm/gv2.6/sysname/pkg.@sys/qct/software/llvm/release/arm/3.5.2.4/tools/lib32/lib/libc.a(abort.o)
 .note.GNU-stack
                0x00000000        0x0 /afs/localcell/cm/gv2.6/sysname/pkg.@sys/qct/software/llvm/release/arm/3.5.2.4/tools/lib32/lib/libc.a(abort.o)
 .data          0x00000000        0x0 /afs/localcell/cm/gv2.6/sysname/pkg.@sys/qct/software/llvm/release/arm/3.5.2.4/tools/lib32/lib/libc.a(atan2.o)
 .bss           0x00000000        0x0 /afs/localcell/cm/gv2.6/sysname/pkg.@sys/qct/software/llvm/release/arm/3.5.2.4/tools/lib32/lib/libc.a(atan2.o)
 .ARM.exidx     0x00000000        0x8 /afs/localcell/cm/gv2.6/sysname/pkg.@sys/qct/software/llvm/release/arm/3.5.2.4/tools/lib32/lib/libc.a(atan2.o)
 .note.GNU-stack
                0x00000000        0x0 /afs/localcell/cm/gv2.6/sysname/pkg.@sys/qct/software/llvm/release/arm/3.5.2.4/tools/lib32/lib/libc.a(atan2.o)
 .data          0x00000000        0x0 /afs/localcell/cm/gv2.6/sysname/pkg.@sys/qct/software/llvm/release/arm/3.5.2.4/tools/lib32/lib/libc.a(cos.o)
 .bss           0x00000000        0x0 /afs/localcell/cm/gv2.6/sysname/pkg.@sys/qct/software/llvm/release/arm/3.5.2.4/tools/lib32/lib/libc.a(cos.o)
 .ARM.exidx     0x00000000        0x8 /afs/localcell/cm/gv2.6/sysname/pkg.@sys/qct/software/llvm/release/arm/3.5.2.4/tools/lib32/lib/libc.a(cos.o)
 .note.GNU-stack
                0x00000000        0x0 /afs/localcell/cm/gv2.6/sysname/pkg.@sys/qct/software/llvm/release/arm/3.5.2.4/tools/lib32/lib/libc.a(cos.o)
 .data          0x00000000        0x0 /afs/localcell/cm/gv2.6/sysname/pkg.@sys/qct/software/llvm/release/arm/3.5.2.4/tools/lib32/lib/libc.a(fabs.o)
 .bss           0x00000000        0x0 /afs/localcell/cm/gv2.6/sysname/pkg.@sys/qct/software/llvm/release/arm/3.5.2.4/tools/lib32/lib/libc.a(fabs.o)
 .ARM.exidx     0x00000000        0x8 /afs/localcell/cm/gv2.6/sysname/pkg.@sys/qct/software/llvm/release/arm/3.5.2.4/tools/lib32/lib/libc.a(fabs.o)
 .note.GNU-stack
                0x00000000        0x0 /afs/localcell/cm/gv2.6/sysname/pkg.@sys/qct/software/llvm/release/arm/3.5.2.4/tools/lib32/lib/libc.a(fabs.o)
 .data          0x00000000        0x0 /afs/localcell/cm/gv2.6/sysname/pkg.@sys/qct/software/llvm/release/arm/3.5.2.4/tools/lib32/lib/libc.a(floor.o)
 .bss           0x00000000        0x0 /afs/localcell/cm/gv2.6/sysname/pkg.@sys/qct/software/llvm/release/arm/3.5.2.4/tools/lib32/lib/libc.a(floor.o)
 .ARM.exidx     0x00000000        0x8 /afs/localcell/cm/gv2.6/sysname/pkg.@sys/qct/software/llvm/release/arm/3.5.2.4/tools/lib32/lib/libc.a(floor.o)
 .note.GNU-stack
                0x00000000        0x0 /afs/localcell/cm/gv2.6/sysname/pkg.@sys/qct/software/llvm/release/arm/3.5.2.4/tools/lib32/lib/libc.a(floor.o)
 .data          0x00000000        0x0 /afs/localcell/cm/gv2.6/sysname/pkg.@sys/qct/software/llvm/release/arm/3.5.2.4/tools/lib32/lib/libc.a(sin.o)
 .bss           0x00000000        0x0 /afs/localcell/cm/gv2.6/sysname/pkg.@sys/qct/software/llvm/release/arm/3.5.2.4/tools/lib32/lib/libc.a(sin.o)
 .ARM.exidx     0x00000000        0x8 /afs/localcell/cm/gv2.6/sysname/pkg.@sys/qct/software/llvm/release/arm/3.5.2.4/tools/lib32/lib/libc.a(sin.o)
 .note.GNU-stack
                0x00000000        0x0 /afs/localcell/cm/gv2.6/sysname/pkg.@sys/qct/software/llvm/release/arm/3.5.2.4/tools/lib32/lib/libc.a(sin.o)
 .data          0x00000000        0x0 /afs/localcell/cm/gv2.6/sysname/pkg.@sys/qct/software/llvm/release/arm/3.5.2.4/tools/lib32/lib/libc.a(sqrt.o)
 .bss           0x00000000        0x0 /afs/localcell/cm/gv2.6/sysname/pkg.@sys/qct/software/llvm/release/arm/3.5.2.4/tools/lib32/lib/libc.a(sqrt.o)
 .ARM.exidx     0x00000000        0x8 /afs/localcell/cm/gv2.6/sysname/pkg.@sys/qct/software/llvm/release/arm/3.5.2.4/tools/lib32/lib/libc.a(sqrt.o)
 .note.GNU-stack
                0x00000000        0x0 /afs/localcell/cm/gv2.6/sysname/pkg.@sys/qct/software/llvm/release/arm/3.5.2.4/tools/lib32/lib/libc.a(sqrt.o)
 .data          0x00000000        0x0 /afs/localcell/cm/gv2.6/sysname/pkg.@sys/qct/software/llvm/release/arm/3.5.2.4/tools/lib32/lib/libc.a(raise.o)
 .bss           0x00000000        0x0 /afs/localcell/cm/gv2.6/sysname/pkg.@sys/qct/software/llvm/release/arm/3.5.2.4/tools/lib32/lib/libc.a(raise.o)
 .ARM.exidx     0x00000000        0x8 /afs/localcell/cm/gv2.6/sysname/pkg.@sys/qct/software/llvm/release/arm/3.5.2.4/tools/lib32/lib/libc.a(raise.o)
 .note.GNU-stack
                0x00000000        0x0 /afs/localcell/cm/gv2.6/sysname/pkg.@sys/qct/software/llvm/release/arm/3.5.2.4/tools/lib32/lib/libc.a(raise.o)
 .data          0x00000000        0x0 /afs/localcell/cm/gv2.6/sysname/pkg.@sys/qct/software/llvm/release/arm/3.5.2.4/tools/lib32/lib/libc.a(fflush.o)
 .bss           0x00000000        0x4 /afs/localcell/cm/gv2.6/sysname/pkg.@sys/qct/software/llvm/release/arm/3.5.2.4/tools/lib32/lib/libc.a(fflush.o)
 .ARM.exidx     0x00000000       0x10 /afs/localcell/cm/gv2.6/sysname/pkg.@sys/qct/software/llvm/release/arm/3.5.2.4/tools/lib32/lib/libc.a(fflush.o)
 .note.GNU-stack
                0x00000000        0x0 /afs/localcell/cm/gv2.6/sysname/pkg.@sys/qct/software/llvm/release/arm/3.5.2.4/tools/lib32/lib/libc.a(fflush.o)
 .text          0x00000000        0x0 /afs/localcell/cm/gv2.6/sysname/pkg.@sys/qct/software/llvm/release/arm/3.5.2.4/tools/lib32/lib/libc.a(stderr.o)
 .data          0x00000000        0x0 /afs/localcell/cm/gv2.6/sysname/pkg.@sys/qct/software/llvm/release/arm/3.5.2.4/tools/lib32/lib/libc.a(stderr.o)
 .note.GNU-stack
                0x00000000        0x0 /afs/localcell/cm/gv2.6/sysname/pkg.@sys/qct/software/llvm/release/arm/3.5.2.4/tools/lib32/lib/libc.a(stderr.o)
 .data          0x00000000        0x0 /afs/localcell/cm/gv2.6/sysname/pkg.@sys/qct/software/llvm/release/arm/3.5.2.4/tools/lib32/lib/libc.a(memcmp.o)
 .bss           0x00000000        0x0 /afs/localcell/cm/gv2.6/sysname/pkg.@sys/qct/software/llvm/release/arm/3.5.2.4/tools/lib32/lib/libc.a(memcmp.o)
 .ARM.exidx     0x00000000        0x8 /afs/localcell/cm/gv2.6/sysname/pkg.@sys/qct/software/llvm/release/arm/3.5.2.4/tools/lib32/lib/libc.a(memcmp.o)
 .note.GNU-stack
                0x00000000        0x0 /afs/localcell/cm/gv2.6/sysname/pkg.@sys/qct/software/llvm/release/arm/3.5.2.4/tools/lib32/lib/libc.a(memcmp.o)
 .data          0x00000000        0x0 /afs/localcell/cm/gv2.6/sysname/pkg.@sys/qct/software/llvm/release/arm/3.5.2.4/tools/lib32/lib/libc.a(strlcat.o)
 .bss           0x00000000        0x0 /afs/localcell/cm/gv2.6/sysname/pkg.@sys/qct/software/llvm/release/arm/3.5.2.4/tools/lib32/lib/libc.a(strlcat.o)
 .ARM.exidx     0x00000000        0x8 /afs/localcell/cm/gv2.6/sysname/pkg.@sys/qct/software/llvm/release/arm/3.5.2.4/tools/lib32/lib/libc.a(strlcat.o)
 .note.GNU-stack
                0x00000000        0x0 /afs/localcell/cm/gv2.6/sysname/pkg.@sys/qct/software/llvm/release/arm/3.5.2.4/tools/lib32/lib/libc.a(strlcat.o)
 .data          0x00000000        0x0 /afs/localcell/cm/gv2.6/sysname/pkg.@sys/qct/software/llvm/release/arm/3.5.2.4/tools/lib32/lib/libc.a(strnlen.o)
 .bss           0x00000000        0x0 /afs/localcell/cm/gv2.6/sysname/pkg.@sys/qct/software/llvm/release/arm/3.5.2.4/tools/lib32/lib/libc.a(strnlen.o)
 .ARM.exidx     0x00000000        0x8 /afs/localcell/cm/gv2.6/sysname/pkg.@sys/qct/software/llvm/release/arm/3.5.2.4/tools/lib32/lib/libc.a(strnlen.o)
 .note.GNU-stack
                0x00000000        0x0 /afs/localcell/cm/gv2.6/sysname/pkg.@sys/qct/software/llvm/release/arm/3.5.2.4/tools/lib32/lib/libc.a(strnlen.o)
 .data          0x00000000        0x0 /afs/localcell/cm/gv2.6/sysname/pkg.@sys/qct/software/llvm/release/arm/3.5.2.4/tools/lib32/lib/libc.a(syscall_ret.o)
 .bss           0x00000000        0x0 /afs/localcell/cm/gv2.6/sysname/pkg.@sys/qct/software/llvm/release/arm/3.5.2.4/tools/lib32/lib/libc.a(syscall_ret.o)
 .ARM.exidx     0x00000000        0x8 /afs/localcell/cm/gv2.6/sysname/pkg.@sys/qct/software/llvm/release/arm/3.5.2.4/tools/lib32/lib/libc.a(syscall_ret.o)
 .note.GNU-stack
                0x00000000        0x0 /afs/localcell/cm/gv2.6/sysname/pkg.@sys/qct/software/llvm/release/arm/3.5.2.4/tools/lib32/lib/libc.a(syscall_ret.o)
 .data          0x00000000        0x0 /afs/localcell/cm/gv2.6/sysname/pkg.@sys/qct/software/llvm/release/arm/3.5.2.4/tools/lib32/lib/libc.a(__cos.o)
 .bss           0x00000000        0x0 /afs/localcell/cm/gv2.6/sysname/pkg.@sys/qct/software/llvm/release/arm/3.5.2.4/tools/lib32/lib/libc.a(__cos.o)
 .ARM.exidx     0x00000000        0x8 /afs/localcell/cm/gv2.6/sysname/pkg.@sys/qct/software/llvm/release/arm/3.5.2.4/tools/lib32/lib/libc.a(__cos.o)
 .note.GNU-stack
                0x00000000        0x0 /afs/localcell/cm/gv2.6/sysname/pkg.@sys/qct/software/llvm/release/arm/3.5.2.4/tools/lib32/lib/libc.a(__cos.o)
 .data          0x00000000        0x0 /afs/localcell/cm/gv2.6/sysname/pkg.@sys/qct/software/llvm/release/arm/3.5.2.4/tools/lib32/lib/libc.a(__rem_pio2.o)
 .bss           0x00000000        0x0 /afs/localcell/cm/gv2.6/sysname/pkg.@sys/qct/software/llvm/release/arm/3.5.2.4/tools/lib32/lib/libc.a(__rem_pio2.o)
 .ARM.exidx     0x00000000        0x8 /afs/localcell/cm/gv2.6/sysname/pkg.@sys/qct/software/llvm/release/arm/3.5.2.4/tools/lib32/lib/libc.a(__rem_pio2.o)
 .note.GNU-stack
                0x00000000        0x0 /afs/localcell/cm/gv2.6/sysname/pkg.@sys/qct/software/llvm/release/arm/3.5.2.4/tools/lib32/lib/libc.a(__rem_pio2.o)
 .data          0x00000000        0x0 /afs/localcell/cm/gv2.6/sysname/pkg.@sys/qct/software/llvm/release/arm/3.5.2.4/tools/lib32/lib/libc.a(__rem_pio2_large.o)
 .bss           0x00000000        0x0 /afs/localcell/cm/gv2.6/sysname/pkg.@sys/qct/software/llvm/release/arm/3.5.2.4/tools/lib32/lib/libc.a(__rem_pio2_large.o)
 .ARM.exidx     0x00000000        0x8 /afs/localcell/cm/gv2.6/sysname/pkg.@sys/qct/software/llvm/release/arm/3.5.2.4/tools/lib32/lib/libc.a(__rem_pio2_large.o)
 .note.GNU-stack
                0x00000000        0x0 /afs/localcell/cm/gv2.6/sysname/pkg.@sys/qct/software/llvm/release/arm/3.5.2.4/tools/lib32/lib/libc.a(__rem_pio2_large.o)
 .data          0x00000000        0x0 /afs/localcell/cm/gv2.6/sysname/pkg.@sys/qct/software/llvm/release/arm/3.5.2.4/tools/lib32/lib/libc.a(__sin.o)
 .bss           0x00000000        0x0 /afs/localcell/cm/gv2.6/sysname/pkg.@sys/qct/software/llvm/release/arm/3.5.2.4/tools/lib32/lib/libc.a(__sin.o)
 .ARM.exidx     0x00000000        0x8 /afs/localcell/cm/gv2.6/sysname/pkg.@sys/qct/software/llvm/release/arm/3.5.2.4/tools/lib32/lib/libc.a(__sin.o)
 .note.GNU-stack
                0x00000000        0x0 /afs/localcell/cm/gv2.6/sysname/pkg.@sys/qct/software/llvm/release/arm/3.5.2.4/tools/lib32/lib/libc.a(__sin.o)
 .data          0x00000000        0x0 /afs/localcell/cm/gv2.6/sysname/pkg.@sys/qct/software/llvm/release/arm/3.5.2.4/tools/lib32/lib/libc.a(atan.o)
 .bss           0x00000000        0x0 /afs/localcell/cm/gv2.6/sysname/pkg.@sys/qct/software/llvm/release/arm/3.5.2.4/tools/lib32/lib/libc.a(atan.o)
 .ARM.exidx     0x00000000        0x8 /afs/localcell/cm/gv2.6/sysname/pkg.@sys/qct/software/llvm/release/arm/3.5.2.4/tools/lib32/lib/libc.a(atan.o)
 .note.GNU-stack
                0x00000000        0x0 /afs/localcell/cm/gv2.6/sysname/pkg.@sys/qct/software/llvm/release/arm/3.5.2.4/tools/lib32/lib/libc.a(atan.o)
 .data          0x00000000        0x0 /afs/localcell/cm/gv2.6/sysname/pkg.@sys/qct/software/llvm/release/arm/3.5.2.4/tools/lib32/lib/libc.a(scalbn.o)
 .bss           0x00000000        0x0 /afs/localcell/cm/gv2.6/sysname/pkg.@sys/qct/software/llvm/release/arm/3.5.2.4/tools/lib32/lib/libc.a(scalbn.o)
 .ARM.exidx     0x00000000        0x8 /afs/localcell/cm/gv2.6/sysname/pkg.@sys/qct/software/llvm/release/arm/3.5.2.4/tools/lib32/lib/libc.a(scalbn.o)
 .note.GNU-stack
                0x00000000        0x0 /afs/localcell/cm/gv2.6/sysname/pkg.@sys/qct/software/llvm/release/arm/3.5.2.4/tools/lib32/lib/libc.a(scalbn.o)
 .data          0x00000000        0x0 /afs/localcell/cm/gv2.6/sysname/pkg.@sys/qct/software/llvm/release/arm/3.5.2.4/tools/lib32/lib/libc.a(block.o)
 .bss           0x00000000        0x0 /afs/localcell/cm/gv2.6/sysname/pkg.@sys/qct/software/llvm/release/arm/3.5.2.4/tools/lib32/lib/libc.a(block.o)
 .ARM.exidx     0x00000000       0x18 /afs/localcell/cm/gv2.6/sysname/pkg.@sys/qct/software/llvm/release/arm/3.5.2.4/tools/lib32/lib/libc.a(block.o)
 .note.GNU-stack
                0x00000000        0x0 /afs/localcell/cm/gv2.6/sysname/pkg.@sys/qct/software/llvm/release/arm/3.5.2.4/tools/lib32/lib/libc.a(block.o)
 .data          0x00000000        0x0 /afs/localcell/cm/gv2.6/sysname/pkg.@sys/qct/software/llvm/release/arm/3.5.2.4/tools/lib32/lib/libc.a(__stdio_close.o)
 .bss           0x00000000        0x0 /afs/localcell/cm/gv2.6/sysname/pkg.@sys/qct/software/llvm/release/arm/3.5.2.4/tools/lib32/lib/libc.a(__stdio_close.o)
 .ARM.exidx     0x00000000        0x8 /afs/localcell/cm/gv2.6/sysname/pkg.@sys/qct/software/llvm/release/arm/3.5.2.4/tools/lib32/lib/libc.a(__stdio_close.o)
 .note.GNU-stack
                0x00000000        0x0 /afs/localcell/cm/gv2.6/sysname/pkg.@sys/qct/software/llvm/release/arm/3.5.2.4/tools/lib32/lib/libc.a(__stdio_close.o)
 .data          0x00000000        0x0 /afs/localcell/cm/gv2.6/sysname/pkg.@sys/qct/software/llvm/release/arm/3.5.2.4/tools/lib32/lib/libc.a(__stdio_seek.o)
 .bss           0x00000000        0x0 /afs/localcell/cm/gv2.6/sysname/pkg.@sys/qct/software/llvm/release/arm/3.5.2.4/tools/lib32/lib/libc.a(__stdio_seek.o)
 .ARM.exidx     0x00000000        0x8 /afs/localcell/cm/gv2.6/sysname/pkg.@sys/qct/software/llvm/release/arm/3.5.2.4/tools/lib32/lib/libc.a(__stdio_seek.o)
 .note.GNU-stack
                0x00000000        0x0 /afs/localcell/cm/gv2.6/sysname/pkg.@sys/qct/software/llvm/release/arm/3.5.2.4/tools/lib32/lib/libc.a(__stdio_seek.o)
 .data          0x00000000        0x0 /afs/localcell/cm/gv2.6/sysname/pkg.@sys/qct/software/llvm/release/arm/3.5.2.4/tools/lib32/lib/libc.a(__stdio_write.o)
 .bss           0x00000000        0x0 /afs/localcell/cm/gv2.6/sysname/pkg.@sys/qct/software/llvm/release/arm/3.5.2.4/tools/lib32/lib/libc.a(__stdio_write.o)
 .ARM.exidx     0x00000000       0x10 /afs/localcell/cm/gv2.6/sysname/pkg.@sys/qct/software/llvm/release/arm/3.5.2.4/tools/lib32/lib/libc.a(__stdio_write.o)
 .note.GNU-stack
                0x00000000        0x0 /afs/localcell/cm/gv2.6/sysname/pkg.@sys/qct/software/llvm/release/arm/3.5.2.4/tools/lib32/lib/libc.a(__stdio_write.o)
 .data          0x00000000        0x0 /afs/localcell/cm/gv2.6/sysname/pkg.@sys/qct/software/llvm/release/arm/3.5.2.4/tools/lib32/lib/libc.a(__syscall_cp.o)
 .bss           0x00000000        0x0 /afs/localcell/cm/gv2.6/sysname/pkg.@sys/qct/software/llvm/release/arm/3.5.2.4/tools/lib32/lib/libc.a(__syscall_cp.o)
 .ARM.exidx     0x00000000       0x10 /afs/localcell/cm/gv2.6/sysname/pkg.@sys/qct/software/llvm/release/arm/3.5.2.4/tools/lib32/lib/libc.a(__syscall_cp.o)
 .note.GNU-stack
                0x00000000        0x0 /afs/localcell/cm/gv2.6/sysname/pkg.@sys/qct/software/llvm/release/arm/3.5.2.4/tools/lib32/lib/libc.a(__syscall_cp.o)
 .data          0x00000000        0x0 /afs/localcell/cm/gv2.6/sysname/pkg.@sys/qct/software/llvm/release/arm/3.5.2.4/tools/lib32/lib/libc.a(pthread_cleanup_push.o)
 .bss           0x00000000        0x0 /afs/localcell/cm/gv2.6/sysname/pkg.@sys/qct/software/llvm/release/arm/3.5.2.4/tools/lib32/lib/libc.a(pthread_cleanup_push.o)
 .ARM.exidx     0x00000000       0x18 /afs/localcell/cm/gv2.6/sysname/pkg.@sys/qct/software/llvm/release/arm/3.5.2.4/tools/lib32/lib/libc.a(pthread_cleanup_push.o)
 .note.GNU-stack
                0x00000000        0x0 /afs/localcell/cm/gv2.6/sysname/pkg.@sys/qct/software/llvm/release/arm/3.5.2.4/tools/lib32/lib/libc.a(pthread_cleanup_push.o)
 .data          0x00000000        0x0 /afs/localcell/cm/gv2.6/sysname/pkg.@sys/qct/software/llvm/release/arm/3.5.2.4/lib/clang/3.5.2/lib/linux/libclang_rt.builtins-arm.a(adddf3.c.o)
 .bss           0x00000000        0x0 /afs/localcell/cm/gv2.6/sysname/pkg.@sys/qct/software/llvm/release/arm/3.5.2.4/lib/clang/3.5.2/lib/linux/libclang_rt.builtins-arm.a(adddf3.c.o)
 .ARM.exidx     0x00000000        0x8 /afs/localcell/cm/gv2.6/sysname/pkg.@sys/qct/software/llvm/release/arm/3.5.2.4/lib/clang/3.5.2/lib/linux/libclang_rt.builtins-arm.a(adddf3.c.o)
 .data          0x00000000        0x0 /afs/localcell/cm/gv2.6/sysname/pkg.@sys/qct/software/llvm/release/arm/3.5.2.4/lib/clang/3.5.2/lib/linux/libclang_rt.builtins-arm.a(divsf3.c.o)
 .bss           0x00000000        0x0 /afs/localcell/cm/gv2.6/sysname/pkg.@sys/qct/software/llvm/release/arm/3.5.2.4/lib/clang/3.5.2/lib/linux/libclang_rt.builtins-arm.a(divsf3.c.o)
 .ARM.exidx     0x00000000        0x8 /afs/localcell/cm/gv2.6/sysname/pkg.@sys/qct/software/llvm/release/arm/3.5.2.4/lib/clang/3.5.2/lib/linux/libclang_rt.builtins-arm.a(divsf3.c.o)
 .data          0x00000000        0x0 /afs/localcell/cm/gv2.6/sysname/pkg.@sys/qct/software/llvm/release/arm/3.5.2.4/lib/clang/3.5.2/lib/linux/libclang_rt.builtins-arm.a(extendsfdf2.c.o)
 .bss           0x00000000        0x0 /afs/localcell/cm/gv2.6/sysname/pkg.@sys/qct/software/llvm/release/arm/3.5.2.4/lib/clang/3.5.2/lib/linux/libclang_rt.builtins-arm.a(extendsfdf2.c.o)
 .ARM.exidx     0x00000000        0x8 /afs/localcell/cm/gv2.6/sysname/pkg.@sys/qct/software/llvm/release/arm/3.5.2.4/lib/clang/3.5.2/lib/linux/libclang_rt.builtins-arm.a(extendsfdf2.c.o)
 .data          0x00000000        0x0 /afs/localcell/cm/gv2.6/sysname/pkg.@sys/qct/software/llvm/release/arm/3.5.2.4/lib/clang/3.5.2/lib/linux/libclang_rt.builtins-arm.a(fixdfsi.c.o)
 .bss           0x00000000        0x0 /afs/localcell/cm/gv2.6/sysname/pkg.@sys/qct/software/llvm/release/arm/3.5.2.4/lib/clang/3.5.2/lib/linux/libclang_rt.builtins-arm.a(fixdfsi.c.o)
 .ARM.exidx     0x00000000        0x8 /afs/localcell/cm/gv2.6/sysname/pkg.@sys/qct/software/llvm/release/arm/3.5.2.4/lib/clang/3.5.2/lib/linux/libclang_rt.builtins-arm.a(fixdfsi.c.o)
 .data          0x00000000        0x0 /afs/localcell/cm/gv2.6/sysname/pkg.@sys/qct/software/llvm/release/arm/3.5.2.4/lib/clang/3.5.2/lib/linux/libclang_rt.builtins-arm.a(floatsidf.c.o)
 .bss           0x00000000        0x0 /afs/localcell/cm/gv2.6/sysname/pkg.@sys/qct/software/llvm/release/arm/3.5.2.4/lib/clang/3.5.2/lib/linux/libclang_rt.builtins-arm.a(floatsidf.c.o)
 .ARM.exidx     0x00000000        0x8 /afs/localcell/cm/gv2.6/sysname/pkg.@sys/qct/software/llvm/release/arm/3.5.2.4/lib/clang/3.5.2/lib/linux/libclang_rt.builtins-arm.a(floatsidf.c.o)
 .data          0x00000000        0x0 /afs/localcell/cm/gv2.6/sysname/pkg.@sys/qct/software/llvm/release/arm/3.5.2.4/lib/clang/3.5.2/lib/linux/libclang_rt.builtins-arm.a(floatsisf.c.o)
 .bss           0x00000000        0x0 /afs/localcell/cm/gv2.6/sysname/pkg.@sys/qct/software/llvm/release/arm/3.5.2.4/lib/clang/3.5.2/lib/linux/libclang_rt.builtins-arm.a(floatsisf.c.o)
 .ARM.exidx     0x00000000        0x8 /afs/localcell/cm/gv2.6/sysname/pkg.@sys/qct/software/llvm/release/arm/3.5.2.4/lib/clang/3.5.2/lib/linux/libclang_rt.builtins-arm.a(floatsisf.c.o)
 .data          0x00000000        0x0 /local/mnt/workspace/CRMBuilds/TZ.BF.4.0.3.c1-00005-M8996AAAAANAZT-1_20170110_230814/b/HK11/trustzone_images/core/kernel/libstd/build/fidosui/scorpion/IADAANAA/libstd.lib(timesafe_memcmp.o)
 .bss           0x00000000        0x0 /local/mnt/workspace/CRMBuilds/TZ.BF.4.0.3.c1-00005-M8996AAAAANAZT-1_20170110_230814/b/HK11/trustzone_images/core/kernel/libstd/build/fidosui/scorpion/IADAANAA/libstd.lib(timesafe_memcmp.o)
 .ARM.exidx     0x00000000        0x8 /local/mnt/workspace/CRMBuilds/TZ.BF.4.0.3.c1-00005-M8996AAAAANAZT-1_20170110_230814/b/HK11/trustzone_images/core/kernel/libstd/build/fidosui/scorpion/IADAANAA/libstd.lib(timesafe_memcmp.o)
 .data          0x00000000        0x0 /local/mnt/workspace/CRMBuilds/TZ.BF.4.0.3.c1-00005-M8996AAAAANAZT-1_20170110_230814/b/HK11/trustzone_images/core/securemsm/sse/SecureTouch/controller/build/fidosui/scorpion/IADAANAA/drts_controller_msm8996.lib(atmel_mxt_ts.o)
 .ARM.exidx     0x00000000       0x48 /local/mnt/workspace/CRMBuilds/TZ.BF.4.0.3.c1-00005-M8996AAAAANAZT-1_20170110_230814/b/HK11/trustzone_images/core/securemsm/sse/SecureTouch/controller/build/fidosui/scorpion/IADAANAA/drts_controller_msm8996.lib(atmel_mxt_ts.o)
 .data          0x00000000        0x0 /local/mnt/workspace/CRMBuilds/TZ.BF.4.0.3.c1-00005-M8996AAAAANAZT-1_20170110_230814/b/HK11/trustzone_images/core/securemsm/sse/SecureTouch/controller/build/fidosui/scorpion/IADAANAA/drts_controller_msm8996.lib(synaptics_ts.o)
 .ARM.exidx     0x00000000       0x28 /local/mnt/workspace/CRMBuilds/TZ.BF.4.0.3.c1-00005-M8996AAAAANAZT-1_20170110_230814/b/HK11/trustzone_images/core/securemsm/sse/SecureTouch/controller/build/fidosui/scorpion/IADAANAA/drts_controller_msm8996.lib(synaptics_ts.o)
 .data          0x00000000        0x0 /local/mnt/workspace/CRMBuilds/TZ.BF.4.0.3.c1-00005-M8996AAAAANAZT-1_20170110_230814/b/HK11/trustzone_images/core/securemsm/sse/qsee/SecureTouch/drTs/controller/build/fidosui/scorpion/IADAANAA/touch_controller_i2c_msm8996.lib(atmel_mxt_ts_i2c.o)
 .bss           0x00000000        0x0 /local/mnt/workspace/CRMBuilds/TZ.BF.4.0.3.c1-00005-M8996AAAAANAZT-1_20170110_230814/b/HK11/trustzone_images/core/securemsm/sse/qsee/SecureTouch/drTs/controller/build/fidosui/scorpion/IADAANAA/touch_controller_i2c_msm8996.lib(atmel_mxt_ts_i2c.o)
 .ARM.exidx     0x00000000       0x18 /local/mnt/workspace/CRMBuilds/TZ.BF.4.0.3.c1-00005-M8996AAAAANAZT-1_20170110_230814/b/HK11/trustzone_images/core/securemsm/sse/qsee/SecureTouch/drTs/controller/build/fidosui/scorpion/IADAANAA/touch_controller_i2c_msm8996.lib(atmel_mxt_ts_i2c.o)
 .data          0x00000000        0x0 /local/mnt/workspace/CRMBuilds/TZ.BF.4.0.3.c1-00005-M8996AAAAANAZT-1_20170110_230814/b/HK11/trustzone_images/core/securemsm/sse/qsee/SecureTouch/drTs/controller/build/fidosui/scorpion/IADAANAA/touch_controller_i2c_msm8996.lib(synaptics_ts_i2c.o)
 .bss           0x00000000        0x0 /local/mnt/workspace/CRMBuilds/TZ.BF.4.0.3.c1-00005-M8996AAAAANAZT-1_20170110_230814/b/HK11/trustzone_images/core/securemsm/sse/qsee/SecureTouch/drTs/controller/build/fidosui/scorpion/IADAANAA/touch_controller_i2c_msm8996.lib(synaptics_ts_i2c.o)
 .ARM.exidx     0x00000000       0x20 /local/mnt/workspace/CRMBuilds/TZ.BF.4.0.3.c1-00005-M8996AAAAANAZT-1_20170110_230814/b/HK11/trustzone_images/core/securemsm/sse/qsee/SecureTouch/drTs/controller/build/fidosui/scorpion/IADAANAA/touch_controller_i2c_msm8996.lib(synaptics_ts_i2c.o)
 .data          0x00000000        0x0 /local/mnt/workspace/CRMBuilds/TZ.BF.4.0.3.c1-00005-M8996AAAAANAZT-1_20170110_230814/b/HK11/trustzone_images/core/securemsm/trustzone/qsapps/libs/applib/qsee/build/fidosui/scorpion/IADAANAA/tzapp_entrylib.lib(qsee_i2c.o)
 .bss           0x00000000        0x0 /local/mnt/workspace/CRMBuilds/TZ.BF.4.0.3.c1-00005-M8996AAAAANAZT-1_20170110_230814/b/HK11/trustzone_images/core/securemsm/trustzone/qsapps/libs/applib/qsee/build/fidosui/scorpion/IADAANAA/tzapp_entrylib.lib(qsee_i2c.o)
 .ARM.exidx     0x00000000       0x28 /local/mnt/workspace/CRMBuilds/TZ.BF.4.0.3.c1-00005-M8996AAAAANAZT-1_20170110_230814/b/HK11/trustzone_images/core/securemsm/trustzone/qsapps/libs/applib/qsee/build/fidosui/scorpion/IADAANAA/tzapp_entrylib.lib(qsee_i2c.o)

Memory Configuration

Name             Origin             Length             Attributes
*default*        0x00000000         0xffffffff

Linker script and memory map


.text           0x00000000    0xaa430
 *\tzapp_entry.o(SORT(TZAPPENTRYCODE))
 TZAPPENTRYCODE
                0x00000000       0x4c /local/mnt/workspace/CRMBuilds/TZ.BF.4.0.3.c1-00005-M8996AAAAANAZT-1_20170110_230814/b/HK11/trustzone_images/core/securemsm/trustzone/qsapps/libs/applib/qsee/build/fidosui/scorpion/IADAANAA/src/tzapp_entry.o
                0x00000000                __main
                0x00000000                TZAPPENTRY
                0x00000000                _main
                0x0000003c                get_cmnlib_ctx_ptr
 *(SORT(.text) SORT(.text.*) SORT(kthread_shared))
 *fill*         0x0000004c        0x4 
 .text          0x00000050     0x1718 /afs/localcell/cm/gv2.6/sysname/pkg.@sys/qct/software/llvm/release/arm/3.5.2.4/tools/lib32/lib/libc.a(vfprintf.o)
                0x00000050                vfprintf
 .text          0x00001768       0x68 /afs/localcell/cm/gv2.6/sysname/pkg.@sys/qct/software/llvm/release/arm/3.5.2.4/tools/lib32/lib/libc.a(frexp.o)
                0x00001768                frexp
 .text          0x000017d0      0x308 /afs/localcell/cm/gv2.6/sysname/pkg.@sys/qct/software/llvm/release/arm/3.5.2.4/lib/clang/3.5.2/lib/linux/libclang_rt.builtins-arm.a(divdf3.c.o)
                0x000017d0                __aeabi_ddiv
                0x000017d0                __divdf3
 .text          0x00001ad8      0x320 /afs/localcell/cm/gv2.6/sysname/pkg.@sys/qct/software/llvm/release/arm/3.5.2.4/lib/clang/3.5.2/lib/linux/libclang_rt.builtins-arm.a(muldf3.c.o)
                0x00001ad8                __aeabi_dmul
                0x00001ad8                __muldf3
 .text          0x00001df8      0x198 /afs/localcell/cm/gv2.6/sysname/pkg.@sys/qct/software/llvm/release/arm/3.5.2.4/tools/lib32/lib/libc.a(atan2.o)
                0x00001df8                atan2
 .text          0x00001f90      0x108 /afs/localcell/cm/gv2.6/sysname/pkg.@sys/qct/software/llvm/release/arm/3.5.2.4/tools/lib32/lib/libc.a(cos.o)
                0x00001f90                cos
 .text          0x00002098       0x90 /afs/localcell/cm/gv2.6/sysname/pkg.@sys/qct/software/llvm/release/arm/3.5.2.4/tools/lib32/lib/libc.a(floor.o)
                0x00002098                floor
 .text          0x00002128      0x128 /afs/localcell/cm/gv2.6/sysname/pkg.@sys/qct/software/llvm/release/arm/3.5.2.4/tools/lib32/lib/libc.a(sin.o)
                0x00002128                sin
 .text          0x00002250       0xa8 /afs/localcell/cm/gv2.6/sysname/pkg.@sys/qct/software/llvm/release/arm/3.5.2.4/tools/lib32/lib/libc.a(__cos.o)
                0x00002250                __cos
 .text          0x000022f8      0x3b0 /afs/localcell/cm/gv2.6/sysname/pkg.@sys/qct/software/llvm/release/arm/3.5.2.4/tools/lib32/lib/libc.a(__rem_pio2.o)
                0x000022f8                __rem_pio2
 .text          0x000026a8      0x670 /afs/localcell/cm/gv2.6/sysname/pkg.@sys/qct/software/llvm/release/arm/3.5.2.4/tools/lib32/lib/libc.a(__rem_pio2_large.o)
                0x000026a8                __rem_pio2_large
 .text          0x00002d18       0xa8 /afs/localcell/cm/gv2.6/sysname/pkg.@sys/qct/software/llvm/release/arm/3.5.2.4/tools/lib32/lib/libc.a(__sin.o)
                0x00002d18                __sin
 .text          0x00002dc0      0x238 /afs/localcell/cm/gv2.6/sysname/pkg.@sys/qct/software/llvm/release/arm/3.5.2.4/tools/lib32/lib/libc.a(atan.o)
                0x00002dc0                atan
 .text          0x00002ff8       0x90 /afs/localcell/cm/gv2.6/sysname/pkg.@sys/qct/software/llvm/release/arm/3.5.2.4/tools/lib32/lib/libc.a(scalbn.o)
                0x00002ff8                scalbn
 .text          0x00003088      0x398 /afs/localcell/cm/gv2.6/sysname/pkg.@sys/qct/software/llvm/release/arm/3.5.2.4/lib/clang/3.5.2/lib/linux/libclang_rt.builtins-arm.a(adddf3.c.o)
                0x00003088                __adddf3
                0x00003088                __aeabi_dadd
 .text          0x00003420      0x120 /local/mnt/workspace/CRMBuilds/TZ.BF.4.0.3.c1-00005-M8996AAAAANAZT-1_20170110_230814/b/HK11/trustzone_images/apps/securemsm/trustzone/qsapps/fidosui/ipc/build/fidosui/scorpion/IADAANAA/src/CFidoSuiToken.o
                0x00003420                CFidoSuiToken_open
 .text          0x00003540       0x18 /local/mnt/workspace/CRMBuilds/TZ.BF.4.0.3.c1-00005-M8996AAAAANAZT-1_20170110_230814/b/HK11/trustzone_images/core/kernel/libstd/build/fidosui/scorpion/IADAANAA/libstd.lib(memscpy.o)
                0x00003540                memscpy
 .text          0x00003558      0x770 /local/mnt/workspace/CRMBuilds/TZ.BF.4.0.3.c1-00005-M8996AAAAANAZT-1_20170110_230814/b/HK11/trustzone_images/core/securemsm/trustzone/qsapps/libs/applib/common_applib/build/fidosui/scorpion/IADAANAA/tzapp_entrylib.lib(common_applib.o)
                0x00003558                qsee_err_fatal
                0x00003578                platform_err_fatal
                0x0000357c                platform_get_random
                0x00003580                __stack_chk_fail
                0x00003584                _sys_command_string
                0x00003590                get_app_req_resp
                0x0000359c                qsee_read_register
                0x000035bc                qsee_request_service
                0x0000363c                qsee_prepare_shared_buf_for_nosecure_read
                0x0000365c                qsee_prepare_shared_buf_for_secure_read
                0x0000367c                qsee_set_global_flag
                0x0000369c                qsee_get_global_flag
                0x000036bc                qsee_oem_process_cmd
                0x000036e0                qsee_enforce_hdmi_hdcp_encryption
                0x00003700                qsee_write_hdcp2p2_key_riv_enable
                0x00003724                qsee_read_hdcp2p2_min_encryption_level
                0x00003744                qsee_write_hdcp2p2_min_encryption_level
                0x00003764                qsee_get_hdcp_min_enc_level
                0x00003784                qsee_set_hdcp_min_enc_level
                0x000037a4                qsee_write_hdcp1_key
                0x000037c4                qsee_set_hdcp_cpi_assert
                0x000037e4                qsee_get_secure_state
                0x00003804                qsee_malloc
                0x0000380c                qsee_realloc
                0x00003840                qsee_realloc_common
                0x000038bc                qsee_free
                0x000038ec                qsee_cmnlib_malloc
                0x00003920                qsee_cmnlib_free
                0x00003950                tzlib_app_entry
                0x00003a88                get_ta_app_name
                0x00003a98                get_app_md
 .text          0x00003cc8      0x580 /local/mnt/workspace/CRMBuilds/TZ.BF.4.0.3.c1-00005-M8996AAAAANAZT-1_20170110_230814/b/HK11/trustzone_images/core/securemsm/trustzone/qsapps/libs/applib/proxy/build/fidosui/scorpion/IADAANAA/tzlib_proxy.lib(prxy_services.o)
                0x00003cc8                qsee_kdf
                0x00003cfc                qsee_log
                0x00003d88                qsee_log_set_mask
                0x00003dac                qsee_log_get_mask
                0x00003dd4                open
                0x00003e14                read
                0x00003e40                write
                0x00003e6c                close
                0x00003e90                lstat
                0x00003eb4                mkdir
                0x00003ed8                frename
                0x00003efc                opendir
                0x00003f20                readdir
                0x00003f44                rmdir
                0x00003f68                testdir
                0x00003f8c                file_get_partition_free_size
                0x00003fb0                fstat
                0x00003fd4                lseek
                0x00004000                time_getsystime
                0x00004024                time_getutcsec
                0x00004048                time_is_leap_year
                0x0000406c                remove
                0x00004090                unlink
                0x000040b4                link
                0x000040d8                telldir
                0x000040fc                fsync
                0x00004120                openat
                0x0000415c                unlinkat
                0x00004188                fcntl
                0x000041c8                creat
                0x000041ec                file_dir_chown_chmod
                0x00004220                get_error_number
 .text          0x00004248      0x2a0 /local/mnt/workspace/CRMBuilds/TZ.BF.4.0.3.c1-00005-M8996AAAAANAZT-1_20170110_230814/b/HK11/trustzone_images/core/securemsm/trustzone/qsapps/libs/applib/qsee/build/fidosui/scorpion/IADAANAA/tzapp_entrylib.lib(mink_shared_code.o)
                0x00004248                UThread_syscall
                0x00004268                minkIPC
                0x00004394                minkServerLoop
                0x000044a8                minkServerEntry
 .text          0x000044e8      0x230 /local/mnt/workspace/CRMBuilds/TZ.BF.4.0.3.c1-00005-M8996AAAAANAZT-1_20170110_230814/b/HK11/trustzone_images/core/securemsm/trustzone/qsapps/libs/applib/qsee/build/fidosui/scorpion/IADAANAA/tzapp_entrylib.lib(qsee_env.o)
                0x000044e8                qsee_set_env
                0x00004504                qsee_open
                0x0000456c                qsee_open_singleton
                0x0000466c                qsee_printf_ap
                0x000046d4                qsee_printf
 .text          0x00004718       0x54 /local/mnt/workspace/CRMBuilds/TZ.BF.4.0.3.c1-00005-M8996AAAAANAZT-1_20170110_230814/b/HK11/trustzone_images/core/securemsm/trustzone/qsapps/libs/applib/qsee/build/fidosui/scorpion/IADAANAA/tzapp_entrylib.lib(qsee_prng.o)
                0x00004718                qsee_prng_getdata
 .text          0x0000476c       0xdc /local/mnt/workspace/CRMBuilds/TZ.BF.4.0.3.c1-00005-M8996AAAAANAZT-1_20170110_230814/b/HK11/trustzone_images/core/securemsm/trustzone/qsapps/libs/applib/qsee/build/fidosui/scorpion/IADAANAA/tzapp_entrylib.lib(tzapp_lib_main.o)
                0x0000476c                get_app_stack_base
                0x00004778                get_app_stack_size
                0x00004790                get_app_heap_base
                0x0000479c                get_app_heap_size
                0x000047b4                CApp_handleRequest
                0x000047d0                CApp_invoke
                0x00004830                secure_app_init
                0x0000483c                secure_app_shutdown
 kthread_shared
                0x00004848       0x2c /local/mnt/workspace/CRMBuilds/TZ.BF.4.0.3.c1-00005-M8996AAAAANAZT-1_20170110_230814/b/HK11/trustzone_images/core/securemsm/trustzone/qsapps/libs/applib/qsee/build/fidosui/scorpion/IADAANAA/tzapp_entrylib.lib(kthread_shared.o)
                0x00004848                mink_generic_syscall
 .text          0x00004874       0x9a /afs/localcell/cm/gv2.6/sysname/pkg.@sys/qct/software/llvm/release/arm/3.5.2.4/tools/lib32/lib/libc.a(vsnprintf.o)
                0x00004874                vsnprintf
 *fill*         0x0000490e        0x2 
 .text          0x00004910      0x30c /afs/localcell/cm/gv2.6/sysname/pkg.@sys/qct/software/llvm/release/arm/3.5.2.4/tools/lib32/lib/libc.a(memcpy.o)
                0x00004910                memcpy
 .text          0x00004c1c       0x44 /afs/localcell/cm/gv2.6/sysname/pkg.@sys/qct/software/llvm/release/arm/3.5.2.4/tools/lib32/lib/libc.a(strlen.o)
                0x00004c1c                strlen
 .text          0x00004c60       0x24 /afs/localcell/cm/gv2.6/sysname/pkg.@sys/qct/software/llvm/release/arm/3.5.2.4/tools/lib32/lib/libc.a(__errno_location.o)
                0x00004c60                __errno_location
 .text          0x00004c84       0xa8 /afs/localcell/cm/gv2.6/sysname/pkg.@sys/qct/software/llvm/release/arm/3.5.2.4/tools/lib32/lib/libc.a(memchr.o)
                0x00004c84                memchr
 .text          0x00004d2c       0xe4 /afs/localcell/cm/gv2.6/sysname/pkg.@sys/qct/software/llvm/release/arm/3.5.2.4/tools/lib32/lib/libc.a(memset.o)
                0x00004d2c                memset
 .text          0x00004e10       0x6c /afs/localcell/cm/gv2.6/sysname/pkg.@sys/qct/software/llvm/release/arm/3.5.2.4/tools/lib32/lib/libc.a(strerror.o)
                0x00004e10                strerror_l
                0x00004e10                __strerror_l
                0x00004e5c                strerror
 .text          0x00004e7c       0x28 /afs/localcell/cm/gv2.6/sysname/pkg.@sys/qct/software/llvm/release/arm/3.5.2.4/tools/lib32/lib/libc.a(__lctrans.o)
                0x00004e7c                __lctrans_impl
                0x00004e7c                dummy
                0x00004e80                __lctrans
                0x00004e84                __lctrans_cur
 .text          0x00004ea4        0x4 /afs/localcell/cm/gv2.6/sysname/pkg.@sys/qct/software/llvm/release/arm/3.5.2.4/tools/lib32/lib/libc.a(frexpl.o)
                0x00004ea4                frexpl
 .text          0x00004ea8        0xe /afs/localcell/cm/gv2.6/sysname/pkg.@sys/qct/software/llvm/release/arm/3.5.2.4/tools/lib32/lib/libc.a(wctomb.o)
                0x00004ea8                wctomb
 *fill*         0x00004eb6        0x2 
 .text          0x00004eb8       0xc8 /afs/localcell/cm/gv2.6/sysname/pkg.@sys/qct/software/llvm/release/arm/3.5.2.4/tools/lib32/lib/libc.a(__lockfile.o)
                0x00004eb8                __lockfile
                0x00004f34                __unlockfile
 .text          0x00004f80       0xf4 /afs/localcell/cm/gv2.6/sysname/pkg.@sys/qct/software/llvm/release/arm/3.5.2.4/tools/lib32/lib/libc.a(fwrite.o)
                0x00004f80                __fwritex
                0x0000501c                fwrite_unlocked
                0x0000501c                fwrite
 .text          0x00005074       0xb8 /afs/localcell/cm/gv2.6/sysname/pkg.@sys/qct/software/llvm/release/arm/3.5.2.4/tools/lib32/lib/libc.a(__wait.o)
                0x00005074                __wait
 .text          0x0000512c       0x30 /afs/localcell/cm/gv2.6/sysname/pkg.@sys/qct/software/llvm/release/arm/3.5.2.4/tools/lib32/lib/libc.a(syscall.o)
                0x0000512c                __syscall
 .text          0x0000515c       0xa6 /afs/localcell/cm/gv2.6/sysname/pkg.@sys/qct/software/llvm/release/arm/3.5.2.4/tools/lib32/lib/libc.a(wcrtomb.o)
                0x0000515c                wcrtomb
 *fill*         0x00005202        0x2 
 .text          0x00005204       0x40 /afs/localcell/cm/gv2.6/sysname/pkg.@sys/qct/software/llvm/release/arm/3.5.2.4/tools/lib32/lib/libc.a(__towrite.o)
                0x00005204                __towrite
                0x00005240                __towrite_needs_stdio_exit
 .text          0x00005244       0x8a /afs/localcell/cm/gv2.6/sysname/pkg.@sys/qct/software/llvm/release/arm/3.5.2.4/tools/lib32/lib/libc.a(__stdio_exit.o)
                0x00005244                __stdio_exit
                0x00005244                __stdio_exit_needed
 *fill*         0x000052ce        0x2 
 .text          0x000052d0       0x96 /afs/localcell/cm/gv2.6/sysname/pkg.@sys/qct/software/llvm/release/arm/3.5.2.4/tools/lib32/lib/libc.a(__lock.o)
                0x000052d0                __lock
                0x00005318                __unlock
 *fill*         0x00005366        0x2 
 .text          0x00005368        0x4 /afs/localcell/cm/gv2.6/sysname/pkg.@sys/qct/software/llvm/release/arm/3.5.2.4/lib/clang/3.5.2/lib/linux/libclang_rt.builtins-arm.a(aeabi_memcpy.S.o)
                0x00005368                __aeabi_memcpy
                0x00005368                __aeabi_memcpy4
                0x00005368                __aeabi_memcpy8
 .text          0x0000536c       0x1c /afs/localcell/cm/gv2.6/sysname/pkg.@sys/qct/software/llvm/release/arm/3.5.2.4/lib/clang/3.5.2/lib/linux/libclang_rt.builtins-arm.a(aeabi_memset.S.o)
                0x0000536c                __aeabi_memset
                0x0000536c                __aeabi_memset8
                0x0000536c                __aeabi_memset4
                0x0000537c                __aeabi_memclr8
                0x0000537c                __aeabi_memclr
                0x0000537c                __aeabi_memclr4
 .text          0x00005388       0x24 /afs/localcell/cm/gv2.6/sysname/pkg.@sys/qct/software/llvm/release/arm/3.5.2.4/lib/clang/3.5.2/lib/linux/libclang_rt.builtins-arm.a(aeabi_uldivmod.S.o)
                0x00005388                __aeabi_uldivmod
 .text          0x000053ac      0x416 /afs/localcell/cm/gv2.6/sysname/pkg.@sys/qct/software/llvm/release/arm/3.5.2.4/lib/clang/3.5.2/lib/linux/libclang_rt.builtins-arm.a(udivmoddi4.c.o)
                0x000053ac                __udivmoddi4
 *fill*         0x000057c2        0x2 
 .text          0x000057c4      0x154 /afs/localcell/cm/gv2.6/sysname/pkg.@sys/qct/software/llvm/release/arm/3.5.2.4/lib/clang/3.5.2/lib/linux/libclang_rt.builtins-arm.a(udivsi3.c.o)
                0x000057c4                __udivsi3
                0x000057c4                __aeabi_uidiv
 .text          0x00005918       0x18 /afs/localcell/cm/gv2.6/sysname/pkg.@sys/qct/software/llvm/release/arm/3.5.2.4/lib/clang/3.5.2/lib/linux/libclang_rt.builtins-arm.a(umoddi3.c.o)
                0x00005918                __umoddi3
 .text          0x00005930       0x10 /afs/localcell/cm/gv2.6/sysname/pkg.@sys/qct/software/llvm/release/arm/3.5.2.4/lib/clang/3.5.2/lib/linux/libclang_rt.builtins-arm.a(umodsi3.c.o)
                0x00005930                __umodsi3
 .text          0x00005940      0x3e4 /local/mnt/workspace/CRMBuilds/TZ.BF.4.0.3.c1-00005-M8996AAAAANAZT-1_20170110_230814/b/HK11/trustzone_images/apps/securemsm/trustzone/qsapps/fidosui/app/build/fidosui/scorpion/IADAANAA/fidosui_app.lib(app_main.o)
                0x00005940                tz_module_open
                0x00005980                tz_app_init
                0x00005a44                tz_app_cmd_handler
                0x00005c98                tz_app_shutdown
 .text          0x00005d24       0x5c /local/mnt/workspace/CRMBuilds/TZ.BF.4.0.3.c1-00005-M8996AAAAANAZT-1_20170110_230814/b/HK11/trustzone_images/apps/securemsm/trustzone/qsapps/fidosui/app/build/fidosui/scorpion/IADAANAA/fidosui_app.lib(01_Initialize.o)
                0x00005d24                processCmdInitialize
 .text          0x00005d80      0x690 /local/mnt/workspace/CRMBuilds/TZ.BF.4.0.3.c1-00005-M8996AAAAANAZT-1_20170110_230814/b/HK11/trustzone_images/apps/securemsm/trustzone/qsapps/fidosui/app/build/fidosui/scorpion/IADAANAA/fidosui_app.lib(08_ShowMessageSui.o)
                0x00005d80                processCmdShowMessageSuiStart
                0x00006280                processCmdShowMessageSuiFinish
 .text          0x00006410      0x204 /local/mnt/workspace/CRMBuilds/TZ.BF.4.0.3.c1-00005-M8996AAAAANAZT-1_20170110_230814/b/HK11/trustzone_images/apps/securemsm/trustzone/qsapps/fidosui/app/build/fidosui/scorpion/IADAANAA/fidosui_app.lib(fsSecureUI.o)
                0x00006410                clear_tui
                0x00006414                get_status
                0x00006420                start_dialog
 .text          0x00006614       0xd8 /local/mnt/workspace/CRMBuilds/TZ.BF.4.0.3.c1-00005-M8996AAAAANAZT-1_20170110_230814/b/HK11/trustzone_images/apps/securemsm/trustzone/qsapps/fidosui/app/build/fidosui/scorpion/IADAANAA/fidosui_app.lib(fsLocale.o)
                0x00006614                getLocaleData
 .text          0x000066ec       0x18 /local/mnt/workspace/CRMBuilds/TZ.BF.4.0.3.c1-00005-M8996AAAAANAZT-1_20170110_230814/b/HK11/trustzone_images/core/kernel/libstd/build/fidosui/scorpion/IADAANAA/libstd.lib(secure_memset.o)
                0x000066ec                secure_memset
 .text          0x00006704       0xd8 /local/mnt/workspace/CRMBuilds/TZ.BF.4.0.3.c1-00005-M8996AAAAANAZT-1_20170110_230814/b/HK11/trustzone_images/core/securemsm/sse/log/build/fidosui/scorpion/IADAANAA/sselog.lib(sselog.o)
                0x00006704                dumpHex
 .text          0x000067dc     0x1e14 /local/mnt/workspace/CRMBuilds/TZ.BF.4.0.3.c1-00005-M8996AAAAANAZT-1_20170110_230814/b/HK11/trustzone_images/core/securemsm/sse/qsee/SecureUI/build/fidosui/scorpion/IADAANAA/secure_ui.lib(SecureUI.o)
                0x000067dc                sec_ui_get_disp_properties
                0x00006920                sec_ui_start_disp_fullscreen
                0x00007380                session_is_unchanged
                0x00007490                sec_ui_stop_disp
                0x00007824                sec_ui_show_buf
                0x00007b3c                sec_ui_copy_to_buffer
                0x00007de0                sec_ui_hlos_release
                0x00007e5c                sec_ui_alloc_app_buffer
                0x00008190                sec_ui_free_app_buffer
 .text          0x000085f0     0x30a0 /local/mnt/workspace/CRMBuilds/TZ.BF.4.0.3.c1-00005-M8996AAAAANAZT-1_20170110_230814/b/HK11/trustzone_images/core/securemsm/sse/qsee/SecureUI/build/fidosui/scorpion/IADAANAA/secure_ui_tui.lib(qsee_tui_dialogs.o)
                0x000085f0                manage_layout_event
                0x00009500                qsee_tui_init
                0x00009504                qsee_tui_dialog
                0x0000b1e0                qsee_tui_get_secure_indicator_buffer
                0x0000b284                qsee_tui_release_secure_indicator
                0x0000b2d8                qsee_tui_tear_down
 .text          0x0000b690     0x2660 /local/mnt/workspace/CRMBuilds/TZ.BF.4.0.3.c1-00005-M8996AAAAANAZT-1_20170110_230814/b/HK11/trustzone_images/core/securemsm/sse/qsee/SecureUI/build/fidosui/scorpion/IADAANAA/secure_ui_tui.lib(layout_manager.o)
                0x0000b690                layout_mgr_delete_input_last_character
                0x0000b708                layout_mgr_load_layout
                0x0000b8cc                layout_mgr_eval_event
                0x0000c484                layout_mgr_render_layout
                0x0000c5b0                layout_mgr_render_bg_image
                0x0000c670                layout_mgr_set_label_text
                0x0000ca28                set_label_buffer
                0x0000ca78                layout_mgr_set_label_buffer
                0x0000cbd0                layout_mgr_set_input_display_mode
                0x0000cd04                layout_mgr_set_show_flag
                0x0000cdfc                layout_mgr_set_dirty_bit
                0x0000ceec                layout_mgr_set_button_disabled
                0x0000d06c                layout_mgr_set_focus_input
                0x0000d204                layout_mgr_set_image
                0x0000d348                layout_mgr_set_active_keyboard
                0x0000d504                layout_mgr_randomize_keyboard
                0x0000d8b4                layout_mgr_get_input_len
                0x0000da04                layout_mgr_set_input_len_to_max
                0x0000dafc                layout_mgr_clear_input_buffer
 .text          0x0000dcf0     0x2b1c /local/mnt/workspace/CRMBuilds/TZ.BF.4.0.3.c1-00005-M8996AAAAANAZT-1_20170110_230814/b/HK11/trustzone_images/core/securemsm/sse/qsee/SecureUI/build/fidosui/scorpion/IADAANAA/secure_ui_tui.lib(secure_display_renderer.o)
                0x0000dcf0                get_utf8_len
                0x0000ddec                render_bg_image
                0x0000e788                render_layout
 .text          0x0001080c     0x1c94 /local/mnt/workspace/CRMBuilds/TZ.BF.4.0.3.c1-00005-M8996AAAAANAZT-1_20170110_230814/b/HK11/trustzone_images/core/securemsm/sse/qsee/SecureUI/build/fidosui/scorpion/IADAANAA/secure_ui_tui.lib(font_manager.o)
                0x0001080c                font_mgr_prepare_gdfont
                0x00012038                font_mgr_cleanup
 .text          0x000124a0      0x1b4 /local/mnt/workspace/CRMBuilds/TZ.BF.4.0.3.c1-00005-M8996AAAAANAZT-1_20170110_230814/b/HK11/trustzone_images/core/securemsm/sse/qsee/SecureUILib/lib/build/fidosui/scorpion/IADAANAA/secure_ui_lib.lib(SecureUILib.o)
                0x000124a0                secUiProcessCmd
                0x00012578                secUiCmd
                0x00012610                secUiRegisterTouchCallback
                0x00012620                secUiTouchIsActive
                0x00012638                secUiSetPanelSize
 .text          0x00012654      0x138 /local/mnt/workspace/CRMBuilds/TZ.BF.4.0.3.c1-00005-M8996AAAAANAZT-1_20170110_230814/b/HK11/trustzone_images/core/securemsm/sse/qsee/SecureUILib/lib/build/fidosui/scorpion/IADAANAA/secure_ui_lib.lib(01_startTouch.o)
                0x00012654                processCmdStartTouch
 .text          0x0001278c      0x218 /local/mnt/workspace/CRMBuilds/TZ.BF.4.0.3.c1-00005-M8996AAAAANAZT-1_20170110_230814/b/HK11/trustzone_images/core/securemsm/sse/qsee/SecureUILib/lib/build/fidosui/scorpion/IADAANAA/secure_ui_lib.lib(02_processTouch.o)
                0x0001278c                processCmdProcessTouch
 .text          0x000129a4      0x12c /local/mnt/workspace/CRMBuilds/TZ.BF.4.0.3.c1-00005-M8996AAAAANAZT-1_20170110_230814/b/HK11/trustzone_images/core/securemsm/sse/qsee/SecureUILib/lib/build/fidosui/scorpion/IADAANAA/secure_ui_lib.lib(03_stopTouch.o)
                0x000129a4                secUiTouchStop
                0x00012a3c                processCmdStopTouch
 .text          0x00012ad0       0xc0 /local/mnt/workspace/CRMBuilds/TZ.BF.4.0.3.c1-00005-M8996AAAAANAZT-1_20170110_230814/b/HK11/trustzone_images/core/securemsm/sse/qsee/SecureUILib/lib/build/fidosui/scorpion/IADAANAA/secure_ui_lib.lib(04_prepareRequest.o)
                0x00012ad0                processCmdPrepareRequest
 .text          0x00012b90       0xf0 /local/mnt/workspace/CRMBuilds/TZ.BF.4.0.3.c1-00005-M8996AAAAANAZT-1_20170110_230814/b/HK11/trustzone_images/core/securemsm/sse/qsee/SecureUILib/lib/build/fidosui/scorpion/IADAANAA/secure_ui_lib.lib(05_storeIndicator.o)
                0x00012b90                processCmdStoreIndicator
 .text          0x00012c80      0x2c4 /local/mnt/workspace/CRMBuilds/TZ.BF.4.0.3.c1-00005-M8996AAAAANAZT-1_20170110_230814/b/HK11/trustzone_images/core/securemsm/trustzone/qsapps/libs/applib/proxy/build/fidosui/scorpion/IADAANAA/tzlib_proxy.lib(prxy_qsee_shim.o)
                0x00012c80                qsee_rsa_key_gen
                0x00012c90                qsee_secpkcs8_parse
                0x00012ca0                qsee_rsa_sign_hash
                0x00012cd4                qsee_rsa_verify_signature
                0x00012d08                qsee_rsa_encrypt
                0x00012d34                qsee_rsa_decrypt
                0x00012d60                qsee_BIGINT_read_unsigned_bin
                0x00012d70                qsee_util_init_s_bigint
                0x00012d80                qsee_util_free_s_bigint
                0x00012d84                qsee_BIGINT_read_radix
                0x00012d98                qsee_rsa_exptmod
                0x00012dbc                qsee_util_count_bytes
                0x00012dc0                qsee_SW_ECC_PubPrivate_Key_generate
                0x00012dd4                qsee_SW_ECDH_Shared_Key_Derive
                0x00012de8                qsee_SW_ECDSA_Sign
                0x00012dfc                qsee_SW_ECDSA_Verify
                0x00012e10                qsee_ECC_hash_to_bigval
                0x00012e14                qsee_toggle_random_bit
                0x00012e18                qsee_get_random_bytes
                0x00012e1c                qsee_in_curveP
                0x00012e2c                qsee_SW_GENERIC_ECC_init
                0x00012e64                qsee_SW_GENERIC_ECDSA_sign
                0x00012e84                qsee_SW_GENERIC_ECDSA_verify
                0x00012ea4                qsee_SW_GENERIC_ECDH_shared_key_derive
                0x00012eb8                qsee_SW_GENERIC_ECC_keypair_generate
                0x00012ecc                qsee_SW_GENERIC_ECC_binary_to_bigval
                0x00012eec                qsee_SW_GENERIC_ECC_bigval_to_binary
                0x00012f0c                qsee_SW_GENERIC_ECC_compare
                0x00012f20                qsee_SW_GENERIC_ECC_convert_input_to_bigval
                0x00012f34                qsee_SW_Cipher_DES_Init
                0x00012f38                qsee_SW_Cipher_DES_DeInit
                0x00012f3c                qsee_SW_CipherDESData
                0x00012f40                qsee_SW_Cipher_DES_SetParam
 .text          0x00012f44       0xb0 /local/mnt/workspace/CRMBuilds/TZ.BF.4.0.3.c1-00005-M8996AAAAANAZT-1_20170110_230814/b/HK11/trustzone_images/core/securemsm/trustzone/qsapps/libs/applib/proxy/build/fidosui/scorpion/IADAANAA/tzlib_proxy.lib(prxy_ufdes.o)
                0x00012f44                SW_Cipher_DES_Init
                0x00012f68                SW_Cipher_DES_DeInit
                0x00012f8c                SW_CipherDESData
                0x00012fc0                SW_Cipher_DES_SetParam
 .text          0x00012ff4       0x50 /local/mnt/workspace/CRMBuilds/TZ.BF.4.0.3.c1-00005-M8996AAAAANAZT-1_20170110_230814/b/HK11/trustzone_images/core/securemsm/trustzone/qsapps/libs/applib/proxy/build/fidosui/scorpion/IADAANAA/tzlib_proxy.lib(prxy_secmath.o)
                0x00012ff4                secmath_BIGINT_read_unsigned_bin
                0x0001301c                secmath_BIGINT_read_radix
 .text          0x00013044      0x1c8 /local/mnt/workspace/CRMBuilds/TZ.BF.4.0.3.c1-00005-M8996AAAAANAZT-1_20170110_230814/b/HK11/trustzone_images/core/securemsm/trustzone/qsapps/libs/applib/proxy/build/fidosui/scorpion/IADAANAA/tzlib_proxy.lib(prxy_secrsa.o)
                0x00013044                secpkcs8_parse
                0x0001306c                ce_rsa_key_gen
                0x000130a0                ce_rsa_encrypt
                0x000130d4                ce_rsa_decrypt
                0x00013108                ce_rsa_sign_hash
                0x0001313c                ce_rsa_verify_signature
                0x00013170                ce_util_init_s_bigint
                0x00013194                ce_util_free_s_bigint
                0x000131b4                ce_util_count_bytes
                0x000131d8                ce_rsa_exptmod
 .text          0x0001320c      0x2ec /local/mnt/workspace/CRMBuilds/TZ.BF.4.0.3.c1-00005-M8996AAAAANAZT-1_20170110_230814/b/HK11/trustzone_images/core/securemsm/trustzone/qsapps/libs/applib/proxy/build/fidosui/scorpion/IADAANAA/tzlib_proxy.lib(prxy_ecc.o)
                0x0001320c                SW_ECC_PubPrivate_Key_generate
                0x00013230                SW_ECDH_Shared_Key_Derive
                0x00013258                SW_ECDSA_Sign
                0x00013280                SW_ECDSA_Verify
                0x000132a8                ECC_hash_to_bigval
                0x000132d0                toggle_random_bit
                0x000132f4                in_curveP
                0x00013318                get_random_bytes
                0x0001333c                SW_GENERIC_ECC_init
                0x00013370                SW_GENERIC_ECDSA_sign
                0x000133a4                SW_GENERIC_ECDSA_verify
                0x000133d8                SW_GENERIC_ECDH_shared_key_derive
                0x0001340c                SW_GENERIC_ECC_keypair_generate
                0x00013434                SW_GENERIC_ECC_binary_to_bigval
                0x00013468                SW_GENERIC_ECC_bigval_to_binary
                0x0001349c                SW_GENERIC_ECC_compare
                0x000134c4                SW_GENERIC_ECC_convert_input_to_bigval
 .text          0x000134f8       0xb8 /local/mnt/workspace/CRMBuilds/TZ.BF.4.0.3.c1-00005-M8996AAAAANAZT-1_20170110_230814/b/HK11/trustzone_images/core/securemsm/trustzone/qsapps/libs/applib/qsee/build/fidosui/scorpion/IADAANAA/tzapp_entrylib.lib(qsee_secdisp.o)
                0x000134f8                qsee_sd_get_session
                0x00013554                qsee_sd_set_stop_allowed
 .text          0x000135b0      0x1ec /local/mnt/workspace/CRMBuilds/TZ.BF.4.0.3.c1-00005-M8996AAAAANAZT-1_20170110_230814/b/HK11/trustzone_images/core/securemsm/trustzone/qsapps/libs/applib/qsee/build/fidosui/scorpion/IADAANAA/tzapp_entrylib.lib(qsee_nsmem.o)
                0x000135b0                qsee_is_s_tag_area
                0x00013648                qsee_is_ns_range
                0x000136b4                qsee_vm_mem_count
                0x0001372c                qsee_tag_mem
 .text          0x0001379c       0x64 /local/mnt/workspace/CRMBuilds/TZ.BF.4.0.3.c1-00005-M8996AAAAANAZT-1_20170110_230814/b/HK11/trustzone_images/core/securemsm/trustzone/qsapps/libs/applib/qsee/build/fidosui/scorpion/IADAANAA/tzapp_entrylib.lib(qsee_timer_shim.o)
                0x0001379c                qsee_get_uptime
                0x000137c0                qsee_wdog_stop
                0x000137e0                qsee_wdog_pet
 .text          0x00013800      0x54c /local/mnt/workspace/CRMBuilds/TZ.BF.4.0.3.c1-00005-M8996AAAAANAZT-1_20170110_230814/b/HK11/trustzone_images/core/securemsm/trustzone/qsapps/libs/applib/qsee/build/fidosui/scorpion/IADAANAA/tzapp_entrylib.lib(qsee_hash.o)
                0x00013800                qsee_hash_init
                0x00013860                qsee_hash_free_ctx
                0x0001388c                qsee_hash_update
                0x00013900                qsee_hash_final
                0x00013974                qsee_hash_set_param
                0x00013a84                qsee_hash
                0x00013af8                qsee_hashcipher_encrypt
                0x00013bfc                qsee_hashcipher_decrypt
                0x00013d00                qsee_hash_reset
 .text          0x00013d4c      0x104 /local/mnt/workspace/CRMBuilds/TZ.BF.4.0.3.c1-00005-M8996AAAAANAZT-1_20170110_230814/b/HK11/trustzone_images/core/securemsm/trustzone/qsapps/libs/applib/qsee/build/fidosui/scorpion/IADAANAA/tzapp_entrylib.lib(qsee_shared_buffer.o)
                0x00013d4c                qsee_register_shared_buffer
                0x00013dd8                qsee_deregister_shared_buffer
 .text          0x00013e50      0x198 /local/mnt/workspace/CRMBuilds/TZ.BF.4.0.3.c1-00005-M8996AAAAANAZT-1_20170110_230814/b/HK11/trustzone_images/core/securemsm/trustzone/qsapps/libs/applib/qsee/build/fidosui/scorpion/IADAANAA/tzapp_entrylib.lib(qsee_appmessage.o)
                0x00013e50                qsee_encapsulate_inter_app_message
                0x00013f30                qsee_decapsulate_inter_app_message
 .text          0x00013fe8      0x7bc /local/mnt/workspace/CRMBuilds/TZ.BF.4.0.3.c1-00005-M8996AAAAANAZT-1_20170110_230814/b/HK11/trustzone_images/core/securemsm/trustzone/qsapps/libs/applib/qsee/build/fidosui/scorpion/IADAANAA/tzapp_entrylib.lib(sfs_api.o)
                0x00013fe8                qsee_sfs_open
                0x000141c0                qsee_sfs_close
                0x000141c4                qsee_sfs_read
                0x0001425c                qsee_sfs_write
                0x000142cc                qsee_sfs_seek
                0x000143c0                qsee_sfs_getSize
                0x00014468                qsee_sfs_mkdir
                0x0001446c                qsee_sfs_rmdir
                0x00014470                qsee_sfs_rm
                0x000144fc                qsee_sfs_error
                0x00014508                qsee_sfs_get_file_list
                0x00014728                qsee_sfs_clean_file_list
                0x00014764                qsee_sfs_is_anti_rollback_enabled
 .text          0x000147a4       0x1a /afs/localcell/cm/gv2.6/sysname/pkg.@sys/qct/software/llvm/release/arm/3.5.2.4/tools/lib32/lib/libc.a(snprintf.o)
                0x000147a4                snprintf
 *fill*         0x000147be        0x2 
 .text          0x000147c0       0x24 /afs/localcell/cm/gv2.6/sysname/pkg.@sys/qct/software/llvm/release/arm/3.5.2.4/tools/lib32/lib/libc.a(strcmp.o)
                0x000147c0                strcmp
 .text          0x000147e4       0xd0 /afs/localcell/cm/gv2.6/sysname/pkg.@sys/qct/software/llvm/release/arm/3.5.2.4/tools/lib32/lib/libc.a(strlcpy.o)
                0x000147e4                strlcpy
 .text          0x000148b4       0x46 /afs/localcell/cm/gv2.6/sysname/pkg.@sys/qct/software/llvm/release/arm/3.5.2.4/tools/lib32/lib/libc.a(strncmp.o)
                0x000148b4                strncmp
 *fill*         0x000148fa        0x2 
 .text          0x000148fc       0xa0 /afs/localcell/cm/gv2.6/sysname/pkg.@sys/qct/software/llvm/release/arm/3.5.2.4/lib/clang/3.5.2/lib/linux/libclang_rt.builtins-arm.a(aeabi_dcmp.S.o)
                0x000148fc                __aeabi_dcmpeq
                0x0001491c                __aeabi_dcmplt
                0x0001493c                __aeabi_dcmple
                0x0001495c                __aeabi_dcmpge
                0x0001497c                __aeabi_dcmpgt
 .text          0x0001499c      0x4be /afs/localcell/cm/gv2.6/sysname/pkg.@sys/qct/software/llvm/release/arm/3.5.2.4/lib/clang/3.5.2/lib/linux/libclang_rt.builtins-arm.a(comparedf2.c.o)
                0x0001499c                __ledf2
                0x00014a5c                __gedf2
                0x00014b1c                __aeabi_dcmpun
                0x00014b1c                __unorddf2
                0x00014b5c                __eqdf2
                0x00014c1c                __ltdf2
                0x00014cdc                __nedf2
                0x00014d9c                __gtdf2
 *fill*         0x00014e5a        0x2 
 .text          0x00014e5c       0x28 /afs/localcell/cm/gv2.6/sysname/pkg.@sys/qct/software/llvm/release/arm/3.5.2.4/lib/clang/3.5.2/lib/linux/libclang_rt.builtins-arm.a(fixunsdfsi.c.o)
                0x00014e5c                __fixunsdfsi
                0x00014e5c                __aeabi_d2uiz
 .text          0x00014e84       0x4c /afs/localcell/cm/gv2.6/sysname/pkg.@sys/qct/software/llvm/release/arm/3.5.2.4/lib/clang/3.5.2/lib/linux/libclang_rt.builtins-arm.a(floatunsidf.c.o)
                0x00014e84                __aeabi_ui2d
                0x00014e84                __floatunsidf
 .text          0x00014ed0    0x70a80 /local/mnt/workspace/CRMBuilds/TZ.BF.4.0.3.c1-00005-M8996AAAAANAZT-1_20170110_230814/b/HK11/trustzone_images/apps/securemsm/trustzone/qsapps/fidosui/layouts/build/fidosui/scorpion/IADAANAA/secure_ui_layout.lib(layout_8996_fluid.o)
                0x00085604                gdFontGetgdfontqualcomm_regular100propExt
                0x00085614                gdFontGetgdfontqualcomm_regular42propExt
                0x00085624                gdFontGetgdfontqualcomm_regular48propExt
                0x00085634                reset_vars
                0x00085880                create_layout
                0x000858e0                get_layout_by_name
 .text          0x00085950     0x16d4 /local/mnt/workspace/CRMBuilds/TZ.BF.4.0.3.c1-00005-M8996AAAAANAZT-1_20170110_230814/b/HK11/trustzone_images/core/securemsm/sse/SecureTouch/layout/build/fidosui/scorpion/IADAANAA/sklayout.lib(layoutUtils.o)
                0x00085950                setVisible
                0x00085968                showKeyboard
                0x00085a0c                updateKeyboard
                0x00085a44                unclickObject
                0x00085aa0                findObject
                0x00085d60                verifyLayout
                0x00086900                updatePage
 .text          0x00087024     0x4226 /local/mnt/workspace/CRMBuilds/TZ.BF.4.0.3.c1-00005-M8996AAAAANAZT-1_20170110_230814/b/HK11/trustzone_images/core/securemsm/sse/qsee/SecureDisplay/libgd/build/fidosui/scorpion/IADAANAA/libgd.lib(gd.o)
                0x00087024                gd_stderr_error
                0x000870e4                gd_error
                0x0008712c                gd_error_ex
                0x0008717c                gdSetErrorMethod
                0x00087188                gdClearErrorMethod
                0x000871a0                gdImageCreate
                0x000871a4                gdImageCreateExt
                0x000872a4                gdImageCreateTrueColor
                0x000872a8                gdImageCreateTrueColorExt
                0x00087398                gdImageDestroyEx
                0x000873e0                gdImageColorClosest
                0x000873f8                gdImageColorClosestAlpha
                0x00087498                gdImageColorExact
                0x000874b0                gdImageColorExactAlpha
                0x00087528                gdImageColorAllocate
                0x00087540                gdImageColorAllocateAlpha
                0x000875bc                gdImageColorResolve
                0x000875d4                gdImageColorResolveAlpha
                0x000876b8                gdImageColorDeallocate
                0x000876d4                gdImageColorTransparent
                0x0008772c                gdImagePaletteCopy
                0x0008789c                gdImageColorReplace
                0x000879d8                gdImageSetPixel
                0x00087c9c                gdImageColorReplaceThreshold
                0x00087fa4                gdAlphaBlend
                0x00088038                gdImageSetLine
                0x00088068                gdImageGetPixel
                0x000880c8                gdImageGetTrueColorPixel
                0x0008810c                gdImageAABlend
                0x00088110                gdImageLine
                0x00088adc                gdImageDashedLine
                0x00088f10                gdImageBoundsSafe
                0x00088f48                gdFontFindIndex
                0x00088f7c                gdImageCharExt
                0x00089028                getUnicode
                0x000890d0                gdImageStringExt
                0x00089128                gdImageCharVarWidth
                0x000891ec                gdImageStringVarWidth
                0x00089248                gdGetMaxLenForWidth
                0x000892a8                gdIsValidUTF8String
                0x0008932c                lsqrt
                0x00089340                gdImageArc
                0x00089378                gdImageFilledArc
                0x00089660                gdImageFilledPolygon
                0x00089950                gdImageEllipse
                0x00089a3c                gdImageFilledEllipse
                0x00089b44                gdImageGradientFilledEllipse
                0x0008a088                gdImageFillToBorder
                0x0008a20c                gdImageRectangle
                0x0008a3f8                gdImageFilledRectangle
                0x0008a5a0                gdImageQuickFilledRectangle
                0x0008a644                gdImageFilledRoundedRectangle
                0x0008a7b4                gdImageGradientFilledRectangle
                0x0008aa70                gdImageCopyResized
                0x0008ad4c                gdImagePolygon
                0x0008ad94                gdImageOpenPolygon
                0x0008add8                gdImageSetThickness
                0x0008ade0                gdImageSetBrush
                0x0008ae7c                gdImageSetTile
                0x0008af18                gdImageSetAntiAliased
                0x0008af34                gdImageSetAntiAliasedDontBlend
                0x0008af50                gdImageInterlace
                0x0008af58                gdImageCompare
                0x0008b0d4                gdImageAlphaBlending
                0x0008b0dc                gdImageSaveAlpha
                0x0008b0e4                gdImageSetClip
                0x0008b13c                gdImageGetClip
                0x0008b164                gdImageSetResolution
 *fill*         0x0008b24a        0x2 
 .text          0x0008b24c       0xca /local/mnt/workspace/CRMBuilds/TZ.BF.4.0.3.c1-00005-M8996AAAAANAZT-1_20170110_230814/b/HK11/trustzone_images/core/securemsm/sse/qsee/SecureDisplay/libgd/build/fidosui/scorpion/IADAANAA/libgd.lib(gd_color.o)
                0x0008b24c                gdColorMatch
 *fill*         0x0008b316        0x2 
 .text          0x0008b318       0x38 /local/mnt/workspace/CRMBuilds/TZ.BF.4.0.3.c1-00005-M8996AAAAANAZT-1_20170110_230814/b/HK11/trustzone_images/core/securemsm/sse/qsee/SecureDisplay/libgd/build/fidosui/scorpion/IADAANAA/libgd.lib(gd_security.o)
                0x0008b318                overflow2
 .text          0x0008b350      0x4e6 /local/mnt/workspace/CRMBuilds/TZ.BF.4.0.3.c1-00005-M8996AAAAANAZT-1_20170110_230814/b/HK11/trustzone_images/core/securemsm/sse/qsee/SecureDisplay/libpng/build/fidosui/scorpion/IADAANAA/libpng.lib(png.o)
                0x0008b350                png_set_sig_bytes
                0x0008b368                png_sig_cmp
                0x0008b3dc                png_zalloc
                0x0008b3f4                png_zfree
                0x0008b3f8                png_reset_crc
                0x0008b410                png_calculate_crc
                0x0008b464                png_user_version_check
                0x0008b4d0                png_get_header_ver
                0x0008b4dc                png_create_png_struct
                0x0008b584                png_create_info_struct
                0x0008b5a4                png_destroy_info_struct
                0x0008b5e4                png_free_data
                0x0008b638                png_data_freer
                0x0008b668                png_get_io_ptr
                0x0008b674                png_get_copyright
                0x0008b680                png_get_libpng_ver
                0x0008b68c                png_get_header_version
                0x0008b698                png_reset_zstream
                0x0008b6a8                png_access_version_number
                0x0008b6b0                png_zstream_error
                0x0008b748                png_check_IHDR
 *fill*         0x0008b836        0x2 
 .text          0x0008b838       0x8c /local/mnt/workspace/CRMBuilds/TZ.BF.4.0.3.c1-00005-M8996AAAAANAZT-1_20170110_230814/b/HK11/trustzone_images/core/securemsm/sse/qsee/SecureDisplay/libpng/build/fidosui/scorpion/IADAANAA/libpng.lib(pngerror.o)
                0x0008b838                png_err
                0x0008b854                png_safecat
                0x0008b88c                png_chunk_report
                0x0008b8a4                png_longjmp
                0x0008b8ac                png_set_error_fn
                0x0008b8b8                png_get_error_ptr
 .text          0x0008b8c4      0x116 /local/mnt/workspace/CRMBuilds/TZ.BF.4.0.3.c1-00005-M8996AAAAANAZT-1_20170110_230814/b/HK11/trustzone_images/core/securemsm/sse/qsee/SecureDisplay/libpng/build/fidosui/scorpion/IADAANAA/libpng.lib(pngget.o)
                0x0008b8c4                png_get_valid
                0x0008b8d8                png_get_rowbytes
                0x0008b8e8                png_get_channels
                0x0008b8f8                png_get_signature
                0x0008b914                png_get_IHDR
                0x0008b9a0                png_get_PLTE
                0x0008b9cc                png_get_compression_buffer_size
 *fill*         0x0008b9da        0x2 
 .text          0x0008b9dc      0x11a /local/mnt/workspace/CRMBuilds/TZ.BF.4.0.3.c1-00005-M8996AAAAANAZT-1_20170110_230814/b/HK11/trustzone_images/core/securemsm/sse/qsee/SecureDisplay/libpng/build/fidosui/scorpion/IADAANAA/libpng.lib(pngmem.o)
                0x0008b9dc                png_destroy_png_struct
                0x0008ba2c                png_free
                0x0008ba44                png_calloc
                0x0008ba60                png_malloc
                0x0008ba7c                png_malloc_base
                0x0008ba98                png_malloc_default
                0x0008bab4                png_malloc_warn
                0x0008bacc                png_free_default
                0x0008badc                png_set_mem_fn
                0x0008bae8                png_get_mem_ptr
 *fill*         0x0008baf6        0x2 
 .text          0x0008baf8      0x4c6 /local/mnt/workspace/CRMBuilds/TZ.BF.4.0.3.c1-00005-M8996AAAAANAZT-1_20170110_230814/b/HK11/trustzone_images/core/securemsm/sse/qsee/SecureDisplay/libpng/build/fidosui/scorpion/IADAANAA/libpng.lib(pngread.o)
                0x0008baf8                malloc_fn
                0x0008bb00                free_fn
                0x0008bb08                png_create_read_struct
                0x0008bb44                png_create_read_struct_2
                0x0008bb88                png_read_info
                0x0008bc5c                png_read_update_info
                0x0008bc78                png_start_read_image
                0x0008bc94                png_read_row
                0x0008bdc8                png_read_rows
                0x0008be50                png_read_image
                0x0008be8c                png_read_end
                0x0008bf38                png_destroy_read_struct
                0x0008bfb4                png_set_read_status_fn
 *fill*         0x0008bfbe        0x2 
 .text          0x0008bfc0       0x1e /local/mnt/workspace/CRMBuilds/TZ.BF.4.0.3.c1-00005-M8996AAAAANAZT-1_20170110_230814/b/HK11/trustzone_images/core/securemsm/sse/qsee/SecureDisplay/libpng/build/fidosui/scorpion/IADAANAA/libpng.lib(pngrio.o)
                0x0008bfc0                png_read_data
                0x0008bfd4                png_set_read_fn
 *fill*         0x0008bfde        0x2 
 .text          0x0008bfe0      0xc68 /local/mnt/workspace/CRMBuilds/TZ.BF.4.0.3.c1-00005-M8996AAAAANAZT-1_20170110_230814/b/HK11/trustzone_images/core/securemsm/sse/qsee/SecureDisplay/libpng/build/fidosui/scorpion/IADAANAA/libpng.lib(pngrutil.o)
                0x0008bfe0                png_get_uint_31
                0x0008c00c                png_read_sig
                0x0008c06c                png_read_chunk_header
                0x0008c0f4                png_check_chunk_name
                0x0008c128                png_crc_read
                0x0008c154                png_crc_finish
                0x0008c1e4                png_crc_error
                0x0008c258                png_handle_IHDR
                0x0008c368                png_handle_PLTE
                0x0008c4a8                png_handle_IEND
                0x0008c4d4                png_handle_unknown
                0x0008c4f4                png_combine_row
                0x0008c59c                png_read_filter_row
                0x0008c620                png_read_IDAT_data
                0x0008c790                png_read_finish_IDAT
                0x0008c7e8                png_read_finish_row
                0x0008c8cc                png_read_start_row
 .text          0x0008cc48      0x17c /local/mnt/workspace/CRMBuilds/TZ.BF.4.0.3.c1-00005-M8996AAAAANAZT-1_20170110_230814/b/HK11/trustzone_images/core/securemsm/sse/qsee/SecureDisplay/libpng/build/fidosui/scorpion/IADAANAA/libpng.lib(pngset.o)
                0x0008cc48                png_set_IHDR
                0x0008ccec                png_set_PLTE
                0x0008cd98                png_set_compression_buffer_size
                0x0008cdb4                png_set_invalid
 .text          0x0008cdc4      0x3c6 /local/mnt/workspace/CRMBuilds/TZ.BF.4.0.3.c1-00005-M8996AAAAANAZT-1_20170110_230814/b/HK11/trustzone_images/core/securemsm/sse/qsee/SecureDisplay/zlib/build/fidosui/scorpion/IADAANAA/zlib.lib(crc32.o)
                0x0008cdc4                get_crc_table
                0x0008cdd0                crc32
                0x0008d058                crc32_combine
                0x0008d12c                crc32_combine64
 *fill*         0x0008d18a        0x2 
 .text          0x0008d18c     0x1c9c /local/mnt/workspace/CRMBuilds/TZ.BF.4.0.3.c1-00005-M8996AAAAANAZT-1_20170110_230814/b/HK11/trustzone_images/core/securemsm/sse/qsee/SecureDisplay/zlib/build/fidosui/scorpion/IADAANAA/zlib.lib(inflate.o)
                0x0008d18c                inflateResetKeep
                0x0008d1e8                inflateReset
                0x0008d204                inflateReset2
                0x0008d26c                inflateInit2_
                0x0008d300                inflateInit_
                0x0008d30c                inflatePrime
                0x0008d368                inflate
                0x0008ea08                inflateEnd
                0x0008ea38                inflateGetDictionary
                0x0008ea90                inflateSetDictionary
                0x0008eb0c                inflateGetHeader
                0x0008eb30                inflateSync
                0x0008ec9c                inflateSyncPoint
                0x0008ecc4                inflateCopy
                0x0008edd0                inflateUndermine
                0x0008edec                inflateMark
 .text          0x0008ee28      0x400 /local/mnt/workspace/CRMBuilds/TZ.BF.4.0.3.c1-00005-M8996AAAAANAZT-1_20170110_230814/b/HK11/trustzone_images/core/securemsm/sse/qsee/SecureDisplay/zlib/build/fidosui/scorpion/IADAANAA/zlib.lib(inftrees.o)
                0x0008ee28                inflate_table
 .text          0x0008f228       0x4a /local/mnt/workspace/CRMBuilds/TZ.BF.4.0.3.c1-00005-M8996AAAAANAZT-1_20170110_230814/b/HK11/trustzone_images/core/securemsm/sse/qsee/SecureDisplay/zlib/build/fidosui/scorpion/IADAANAA/zlib.lib(zutil.o)
                0x0008f228                zlibVersion
                0x0008f234                zlibCompileFlags
                0x0008f238                zError
                0x0008f24c                zcalloc
                0x0008f26c                zcfree
 *fill*         0x0008f272        0x2 
 .text          0x0008f274      0x368 /local/mnt/workspace/CRMBuilds/TZ.BF.4.0.3.c1-00005-M8996AAAAANAZT-1_20170110_230814/b/HK11/trustzone_images/core/securemsm/sse/qsee/SecureDisplay/zlib/build/fidosui/scorpion/IADAANAA/zlib.lib(adler32.o)
                0x0008f274                adler32
                0x0008f540                adler32_combine
                0x0008f5d8                adler32_combine64
 .text          0x0008f5dc      0x594 /local/mnt/workspace/CRMBuilds/TZ.BF.4.0.3.c1-00005-M8996AAAAANAZT-1_20170110_230814/b/HK11/trustzone_images/core/securemsm/sse/qsee/SecureDisplay/zlib/build/fidosui/scorpion/IADAANAA/zlib.lib(inffast.o)
                0x0008f5dc                inflate_fast
 .text          0x0008fb70      0x130 /local/mnt/workspace/CRMBuilds/TZ.BF.4.0.3.c1-00005-M8996AAAAANAZT-1_20170110_230814/b/HK11/trustzone_images/core/securemsm/sse/qsee/SecureTouch/drTs/lib/build/fidosui/scorpion/IADAANAA/touch_lib.lib(01_open.o)
                0x0008fb70                touchOpen
 .text          0x0008fca0       0xe8 /local/mnt/workspace/CRMBuilds/TZ.BF.4.0.3.c1-00005-M8996AAAAANAZT-1_20170110_230814/b/HK11/trustzone_images/core/securemsm/sse/qsee/SecureTouch/drTs/lib/build/fidosui/scorpion/IADAANAA/touch_lib.lib(02_close.o)
                0x0008fca0                touchClose
 .text          0x0008fd88      0x200 /local/mnt/workspace/CRMBuilds/TZ.BF.4.0.3.c1-00005-M8996AAAAANAZT-1_20170110_230814/b/HK11/trustzone_images/core/securemsm/sse/qsee/SecureTouch/drTs/lib/build/fidosui/scorpion/IADAANAA/touch_lib.lib(03_getData.o)
                0x0008fd88                touchGetData
                0x0008fea0                drNotifyEvent
 .text          0x0008ff88      0x5e4 /local/mnt/workspace/CRMBuilds/TZ.BF.4.0.3.c1-00005-M8996AAAAANAZT-1_20170110_230814/b/HK11/trustzone_images/core/securemsm/trustzone/qsapps/libs/applib/common_applib/build/fidosui/scorpion/IADAANAA/tzapp_entrylib.lib(gpPersistObjCommon.o)
                0x0008ff88                gpCommon_Copy_Attributes
                0x000900e4                gpCommon_Init_Handles
                0x000901c4                gpCommon_Init_App_Info
                0x00090220                gpCommon_Clean_Attributes
                0x00090268                gpCommon_Clean_Object_Handle
                0x000902a8                gpCommon_Get_Object_Info
                0x00090304                gpCommon_Close_Object
                0x000903b0                gpCommon_Get_File_Path
 .text          0x0009056c      0xef4 /local/mnt/workspace/CRMBuilds/TZ.BF.4.0.3.c1-00005-M8996AAAAANAZT-1_20170110_230814/b/HK11/trustzone_images/core/securemsm/trustzone/qsapps/libs/applib/common_applib/build/fidosui/scorpion/IADAANAA/tzapp_entrylib.lib(gpPersistentObjects.o)
                0x0009056c                TEE_OpenPersistentObject
                0x00090768                TEE_CreatePersistentObject
                0x000909d4                TEE_CloseAndDeletePersistentObject1
                0x00090acc                TEE_CloseAndDeletePersistentObject
                0x00090ad0                TEE_ReadObjectData
                0x00090be4                TEE_WriteObjectData
                0x00090d68                TEE_TruncateObjectData
                0x00090eb0                TEE_SeekObjectData
                0x00090f8c                TEE_RenamePersistentObject
                0x00091094                TEE_AllocatePersistentObjectEnumerator
                0x00091190                TEE_FreePersistentObjectEnumerator
                0x00091208                TEE_ResetPersistentObjectEnumerator
                0x00091288                TEE_StartPersistentObjectEnumerator
                0x0009137c                TEE_GetNextPersistentObject
 .text          0x00091460     0x26b4 /local/mnt/workspace/CRMBuilds/TZ.BF.4.0.3.c1-00005-M8996AAAAANAZT-1_20170110_230814/b/HK11/trustzone_images/core/securemsm/trustzone/qsapps/libs/applib/common_applib/build/fidosui/scorpion/IADAANAA/tzapp_entrylib.lib(gpPersistObjData.o)
                0x00091460                gpData_Create_Object
                0x00091c3c                gpData_Delete_Object
                0x00091d54                gpData_Open_Object
                0x00091eb0                gpData_Close_Object
                0x00091ee8                gpData_Write_Data
                0x000923c8                gpData_Read_Data
                0x000925d8                gpData_Trunc_Data
                0x00092850                gpData_Seek_Data
 .text          0x00093b14      0x6ec /local/mnt/workspace/CRMBuilds/TZ.BF.4.0.3.c1-00005-M8996AAAAANAZT-1_20170110_230814/b/HK11/trustzone_images/core/securemsm/trustzone/qsapps/libs/applib/common_applib/build/fidosui/scorpion/IADAANAA/tzapp_entrylib.lib(gpPersistObjHandler.o)
                0x00093b14                gpHandler_Create_Handle
                0x00093e1c                gpHandler_Delete_Handle
                0x00093eb4                gpHandler_Close_Handle
                0x00093fe8                gpHandler_Open_Handle
                0x00094080                gpHandler_Update_Handle
                0x000940e0                gpHandler_Rename_Handle
 .text          0x00094200     0x13cc /local/mnt/workspace/CRMBuilds/TZ.BF.4.0.3.c1-00005-M8996AAAAANAZT-1_20170110_230814/b/HK11/trustzone_images/core/securemsm/trustzone/qsapps/libs/applib/common_applib/build/fidosui/scorpion/IADAANAA/tzapp_entrylib.lib(gpPersistObjIndex.o)
                0x00094200                index_Get_Index_Info
                0x0009443c                gpIndex_Create_Entry
                0x0009461c                gpIndex_Delete_Entry
                0x0009474c                gpIndex_Get_Entry
                0x000949c0                gpIndex_Set_Entry
                0x00094afc                gpIndex_Rename_Entry
                0x00094d10                gpIndex_Get_Enum_Entry
                0x00094f38                gpIndex_Get_Index_Info
 .text          0x000955cc      0xe08 /local/mnt/workspace/CRMBuilds/TZ.BF.4.0.3.c1-00005-M8996AAAAANAZT-1_20170110_230814/b/HK11/trustzone_images/core/securemsm/trustzone/qsapps/libs/applib/common_applib/build/fidosui/scorpion/IADAANAA/tzapp_entrylib.lib(gpPersistObjVersion.o)
                0x000955cc                version_Is_Rpmb_Usage_Enabled
                0x00095680                gpVersion_Get_Version
                0x00095c7c                gpVersion_Set_Version
                0x00095e9c                gpVersion_Inc_Version
                0x00095ed8                gpVersion_Delete_Version
 .text          0x000963d4      0x990 /local/mnt/workspace/CRMBuilds/TZ.BF.4.0.3.c1-00005-M8996AAAAANAZT-1_20170110_230814/b/HK11/trustzone_images/core/securemsm/trustzone/qsapps/libs/applib/common_applib/build/fidosui/scorpion/IADAANAA/tzapp_entrylib.lib(gpPersistObjCrypto.o)
                0x000963d4                gpCrypto_Encrypt
                0x00096750                gpCrypto_Integrity_Protect
                0x00096924                gpCrypto_Decrypt
                0x00096b10                gpCrypto_Integrity_Verify
 .text          0x00096d64      0x39c /local/mnt/workspace/CRMBuilds/TZ.BF.4.0.3.c1-00005-M8996AAAAANAZT-1_20170110_230814/b/HK11/trustzone_images/core/securemsm/trustzone/qsapps/libs/applib/common_applib/build/fidosui/scorpion/IADAANAA/tzapp_entrylib.lib(gpPersistObjFileIO.o)
                0x00096d64                fileIO_Read_Data
                0x00096dc8                fileIO_Write_Data
                0x00096e34                fileIO_Remove_Data
                0x00096e90                fileIO_Rename_Data
                0x00096eec                gpFileIO_Read_File
                0x00096f78                gpFileIO_Write_File
                0x00097020                gpFileIO_Remove_File
                0x00097084                gpFileIO_Rename_File
 .text          0x00097100      0x774 /local/mnt/workspace/CRMBuilds/TZ.BF.4.0.3.c1-00005-M8996AAAAANAZT-1_20170110_230814/b/HK11/trustzone_images/core/securemsm/trustzone/qsapps/libs/applib/common_applib/build/fidosui/scorpion/IADAANAA/tzapp_entrylib.lib(gpFileService.o)
                0x00097100                gpFileRead
                0x0009737c                gpFileWrite
                0x000975fc                gpFileRemove
                0x0009772c                gpFileRename
 .text          0x00097874      0x204 /local/mnt/workspace/CRMBuilds/TZ.BF.4.0.3.c1-00005-M8996AAAAANAZT-1_20170110_230814/b/HK11/trustzone_images/core/securemsm/trustzone/qsapps/libs/applib/qsee/build/fidosui/scorpion/IADAANAA/tzapp_entrylib.lib(qsee_core_shim.o)
                0x00097874                qsee_exec_protect_memory
                0x00097898                qsee_is_sw_fuse_blown
                0x000978b8                qsee_blow_sw_fuse
                0x000978d8                qsee_ks_decrypt
                0x00097928                qsee_ks_get_key
                0x00097990                qsee_ks_delete_key
                0x000979b0                qsee_ce_pipe_key_select
                0x000979d4                qsee_ce_disable_sequence
                0x000979f4                qsee_ice_set_context_config
                0x00097a18                qsee_hdmi_status_read
                0x00097a38                qsee_get_tz_app_id
                0x00097a58                qsee_blsp_modify_ownership
 .text          0x00097a78      0x192 /local/mnt/workspace/CRMBuilds/TZ.BF.4.0.3.c1-00005-M8996AAAAANAZT-1_20170110_230814/b/HK11/trustzone_images/core/securemsm/trustzone/qsapps/libs/applib/qsee/build/fidosui/scorpion/IADAANAA/tzapp_entrylib.lib(stor.o)
                0x00097a78                check_rpmb_handle
                0x00097aa4                qsee_stor_device_init
                0x00097ac0                qsee_stor_open_partition
                0x00097ae8                qsee_stor_device_get_info
                0x00097b0c                qsee_stor_client_get_info
                0x00097b34                qsee_stor_add_partition
                0x00097b54                qsee_stor_read_sectors
                0x00097b8c                qsee_stor_write_sectors
                0x00097bc4                qsee_stor_read_wp_config
                0x00097bd4                qsee_stor_write_wp_config
                0x00097be4                qsee_stor_remove_client
 *fill*         0x00097c0a        0x2 
 .text          0x00097c0c     0x159c /local/mnt/workspace/CRMBuilds/TZ.BF.4.0.3.c1-00005-M8996AAAAANAZT-1_20170110_230814/b/HK11/trustzone_images/core/securemsm/trustzone/qsapps/libs/applib/qsee/build/fidosui/scorpion/IADAANAA/tzapp_entrylib.lib(stor_gpt.o)
                0x00097c0c                add_gpt_device_handle
                0x00097d58                add_gpt_client
                0x00097e5c                gpt_dev_init
                0x00098048                gpt_qsee_read_sectors
                0x000982b4                gpt_qsee_write_sectors
                0x00098518                gpt_add_partitions
                0x00098888                gpt_config_partitions
                0x000989f8                gpt_init
                0x00098c74                gpt_open_partition
                0x00098d5c                gpt_device_get_info
                0x00098e64                gpt_client_get_info
                0x00098f74                gpt_add_partition
                0x00098fd4                gpt_read_sectors
                0x000990b4                gpt_write_sectors
 .text          0x000991a8      0x1da /local/mnt/workspace/CRMBuilds/TZ.BF.4.0.3.c1-00005-M8996AAAAANAZT-1_20170110_230814/b/HK11/trustzone_images/core/securemsm/trustzone/qsapps/libs/applib/qsee/build/fidosui/scorpion/IADAANAA/tzapp_entrylib.lib(stor_rpmbw.o)
                0x000991a8                rpmbw_init
                0x000991d4                rpmbw_open_partition
                0x00099204                rpmbw_device_get_info
                0x00099234                rpmbw_client_get_info
                0x00099264                rpmbw_add_partition
                0x00099290                rpmbw_read_sectors
                0x000992c8                rpmbw_write_sectors
                0x00099300                rpmbw_read_wp_config
                0x0009932c                rpmbw_write_wp_config
                0x00099358                rpmbw_remove_client
 *fill*         0x00099382        0x2 
 .text          0x00099384       0x24 /local/mnt/workspace/CRMBuilds/TZ.BF.4.0.3.c1-00005-M8996AAAAANAZT-1_20170110_230814/b/HK11/trustzone_images/core/securemsm/trustzone/qsapps/libs/applib/qsee/build/fidosui/scorpion/IADAANAA/tzapp_entrylib.lib(qsee_cfg_prop_shim.o)
                0x00099384                qsee_cfg_getpropval
 .text          0x000993a8      0x48c /local/mnt/workspace/CRMBuilds/TZ.BF.4.0.3.c1-00005-M8996AAAAANAZT-1_20170110_230814/b/HK11/trustzone_images/core/securemsm/trustzone/qsapps/libs/applib/qsee/build/fidosui/scorpion/IADAANAA/tzapp_entrylib.lib(qsee_cipher.o)
                0x000993a8                qsee_cipher_init
                0x0009940c                qsee_cipher_free_ctx
                0x00099438                qsee_cipher_set_param
                0x00099578                qsee_cipher_get_param
                0x000996a8                qsee_cipher_encrypt
                0x00099748                qsee_cipher_decrypt
                0x000997e8                qsee_cipher_reset
 .text          0x00099834      0x274 /local/mnt/workspace/CRMBuilds/TZ.BF.4.0.3.c1-00005-M8996AAAAANAZT-1_20170110_230814/b/HK11/trustzone_images/core/securemsm/trustzone/qsapps/libs/applib/qsee/build/fidosui/scorpion/IADAANAA/tzapp_entrylib.lib(qsee_hmac.o)
                0x00099834                qsee_hmac_init
                0x000998a4                qsee_hmac_free_ctx
                0x000998d0                qsee_hmac_update
                0x00099944                qsee_hmac_final
                0x000999b8                qsee_hmac_set_param
                0x00099a40                qsee_hmac
 .text          0x00099aa8        0x8 /local/mnt/workspace/CRMBuilds/TZ.BF.4.0.3.c1-00005-M8996AAAAANAZT-1_20170110_230814/b/HK11/trustzone_images/core/securemsm/trustzone/qsapps/libs/applib/qsee/build/fidosui/scorpion/IADAANAA/tzapp_entrylib.lib(gpPersistObjPanic.o)
                0x00099aa8                TEE_Panic
                0x00099aac                GPMemoryMgmt_verifyHandle
 .text          0x00099ab0       0x10 /afs/localcell/cm/gv2.6/sysname/pkg.@sys/qct/software/llvm/release/arm/3.5.2.4/tools/lib32/lib/libc.a(abort.o)
                0x00099ab0                abort
 .text          0x00099ac0        0x6 /afs/localcell/cm/gv2.6/sysname/pkg.@sys/qct/software/llvm/release/arm/3.5.2.4/tools/lib32/lib/libc.a(fabs.o)
                0x00099ac0                fabs
 *fill*         0x00099ac6        0x2 
 .text          0x00099ac8      0x19e /afs/localcell/cm/gv2.6/sysname/pkg.@sys/qct/software/llvm/release/arm/3.5.2.4/tools/lib32/lib/libc.a(sqrt.o)
                0x00099ac8                sqrt
 *fill*         0x00099c66        0x2 
 .text          0x00099c68       0x3c /afs/localcell/cm/gv2.6/sysname/pkg.@sys/qct/software/llvm/release/arm/3.5.2.4/tools/lib32/lib/libc.a(raise.o)
                0x00099c68                raise
 .text          0x00099ca4       0xee /afs/localcell/cm/gv2.6/sysname/pkg.@sys/qct/software/llvm/release/arm/3.5.2.4/tools/lib32/lib/libc.a(fflush.o)
                0x00099ca4                fflush
                0x00099d48                fflush_unlocked
 *fill*         0x00099d92        0x2 
 .text          0x00099d94       0x22 /afs/localcell/cm/gv2.6/sysname/pkg.@sys/qct/software/llvm/release/arm/3.5.2.4/tools/lib32/lib/libc.a(memcmp.o)
                0x00099d94                memcmp
 *fill*         0x00099db6        0x2 
 .text          0x00099db8       0x2e /afs/localcell/cm/gv2.6/sysname/pkg.@sys/qct/software/llvm/release/arm/3.5.2.4/tools/lib32/lib/libc.a(strlcat.o)
                0x00099db8                strlcat
 *fill*         0x00099de6        0x2 
 .text          0x00099de8       0x18 /afs/localcell/cm/gv2.6/sysname/pkg.@sys/qct/software/llvm/release/arm/3.5.2.4/tools/lib32/lib/libc.a(strnlen.o)
                0x00099de8                strnlen
 .text          0x00099e00       0x1c /afs/localcell/cm/gv2.6/sysname/pkg.@sys/qct/software/llvm/release/arm/3.5.2.4/tools/lib32/lib/libc.a(syscall_ret.o)
                0x00099e00                __syscall_ret
 .text          0x00099e1c       0x58 /afs/localcell/cm/gv2.6/sysname/pkg.@sys/qct/software/llvm/release/arm/3.5.2.4/tools/lib32/lib/libc.a(block.o)
                0x00099e1c                __block_all_sigs
                0x00099e3c                __block_app_sigs
                0x00099e5c                __restore_sigs
 .text          0x00099e74       0x12 /afs/localcell/cm/gv2.6/sysname/pkg.@sys/qct/software/llvm/release/arm/3.5.2.4/tools/lib32/lib/libc.a(__stdio_close.o)
                0x00099e74                __stdio_close
 *fill*         0x00099e86        0x2 
 .text          0x00099e88       0x38 /afs/localcell/cm/gv2.6/sysname/pkg.@sys/qct/software/llvm/release/arm/3.5.2.4/tools/lib32/lib/libc.a(__stdio_seek.o)
                0x00099e88                __stdio_seek
 .text          0x00099ec0       0xe8 /afs/localcell/cm/gv2.6/sysname/pkg.@sys/qct/software/llvm/release/arm/3.5.2.4/tools/lib32/lib/libc.a(__stdio_write.o)
                0x00099ec0                __stdio_write
 .text          0x00099fa8       0x20 /afs/localcell/cm/gv2.6/sysname/pkg.@sys/qct/software/llvm/release/arm/3.5.2.4/tools/lib32/lib/libc.a(__syscall_cp.o)
                0x00099fa8                __syscall_cp_c
                0x00099fc4                __syscall_cp
 .text          0x00099fc8       0x26 /afs/localcell/cm/gv2.6/sysname/pkg.@sys/qct/software/llvm/release/arm/3.5.2.4/tools/lib32/lib/libc.a(pthread_cleanup_push.o)
                0x00099fc8                __do_cleanup_push
                0x00099fc8                __do_cleanup_pop
                0x00099fcc                _pthread_cleanup_push
                0x00099fd4                _pthread_cleanup_pop
 *fill*         0x00099fee        0x2 
 .text          0x00099ff0      0x190 /afs/localcell/cm/gv2.6/sysname/pkg.@sys/qct/software/llvm/release/arm/3.5.2.4/lib/clang/3.5.2/lib/linux/libclang_rt.builtins-arm.a(divsf3.c.o)
                0x00099ff0                __divsf3
                0x00099ff0                __aeabi_fdiv
 .text          0x0009a180       0x7c /afs/localcell/cm/gv2.6/sysname/pkg.@sys/qct/software/llvm/release/arm/3.5.2.4/lib/clang/3.5.2/lib/linux/libclang_rt.builtins-arm.a(extendsfdf2.c.o)
                0x0009a180                __extendsfdf2
                0x0009a180                __aeabi_f2d
 .text          0x0009a1fc       0x5e /afs/localcell/cm/gv2.6/sysname/pkg.@sys/qct/software/llvm/release/arm/3.5.2.4/lib/clang/3.5.2/lib/linux/libclang_rt.builtins-arm.a(fixdfsi.c.o)
                0x0009a1fc                __fixdfsi
                0x0009a1fc                __aeabi_d2iz
 *fill*         0x0009a25a        0x2 
 .text          0x0009a25c       0x5c /afs/localcell/cm/gv2.6/sysname/pkg.@sys/qct/software/llvm/release/arm/3.5.2.4/lib/clang/3.5.2/lib/linux/libclang_rt.builtins-arm.a(floatsidf.c.o)
                0x0009a25c                __floatsidf
                0x0009a25c                __aeabi_i2d
 .text          0x0009a2b8       0x7c /afs/localcell/cm/gv2.6/sysname/pkg.@sys/qct/software/llvm/release/arm/3.5.2.4/lib/clang/3.5.2/lib/linux/libclang_rt.builtins-arm.a(floatsisf.c.o)
                0x0009a2b8                __aeabi_i2f
                0x0009a2b8                __floatsisf
 .text          0x0009a334       0x38 /local/mnt/workspace/CRMBuilds/TZ.BF.4.0.3.c1-00005-M8996AAAAANAZT-1_20170110_230814/b/HK11/trustzone_images/core/kernel/libstd/build/fidosui/scorpion/IADAANAA/libstd.lib(timesafe_memcmp.o)
                0x0009a334                timesafe_memcmp
 .text          0x0009a36c      0xc54 /local/mnt/workspace/CRMBuilds/TZ.BF.4.0.3.c1-00005-M8996AAAAANAZT-1_20170110_230814/b/HK11/trustzone_images/core/securemsm/sse/SecureTouch/controller/build/fidosui/scorpion/IADAANAA/drts_controller_msm8996.lib(atmel_mxt_ts.o)
                0x0009a36c                dumpT9
                0x0009a434                dumpT100
                0x0009a494                dumpT15
                0x0009a5bc                dumpT42
                0x0009a5e8                processT9
                0x0009a678                processT100
                0x0009a760                atmel_drTsOpen
                0x0009ad7c                atmel_drTsClose
                0x0009ae04                atmel_drTsProcessEvents
 .text          0x0009afc0      0xb94 /local/mnt/workspace/CRMBuilds/TZ.BF.4.0.3.c1-00005-M8996AAAAANAZT-1_20170110_230814/b/HK11/trustzone_images/core/securemsm/sse/SecureTouch/controller/build/fidosui/scorpion/IADAANAA/drts_controller_msm8996.lib(synaptics_ts.o)
                0x0009afc0                synReadF12
                0x0009b254                synaptics_drTsOpen
                0x0009b950                synaptics_drTsClose
                0x0009b9d8                synaptics_drTsProcessEvents
 .text          0x0009bb54      0x15c /local/mnt/workspace/CRMBuilds/TZ.BF.4.0.3.c1-00005-M8996AAAAANAZT-1_20170110_230814/b/HK11/trustzone_images/core/securemsm/sse/qsee/SecureTouch/drTs/controller/build/fidosui/scorpion/IADAANAA/touch_controller_i2c_msm8996.lib(atmel_mxt_ts_i2c.o)
                0x0009bb54                atmel_i2cReadReg
                0x0009bbf8                atmel_i2cOpen
                0x0009bc54                atmel_i2cClose
 .text          0x0009bcb0      0x148 /local/mnt/workspace/CRMBuilds/TZ.BF.4.0.3.c1-00005-M8996AAAAANAZT-1_20170110_230814/b/HK11/trustzone_images/core/securemsm/sse/qsee/SecureTouch/drTs/controller/build/fidosui/scorpion/IADAANAA/touch_controller_i2c_msm8996.lib(synaptics_ts_i2c.o)
                0x0009bcb0                synaptics_i2cReadReg
                0x0009bd4c                synaptics_i2cWriteReg
                0x0009bd98                synaptics_i2cOpen
                0x0009bdc8                synaptics_i2cClose
 .text          0x0009bdf8      0x31c /local/mnt/workspace/CRMBuilds/TZ.BF.4.0.3.c1-00005-M8996AAAAANAZT-1_20170110_230814/b/HK11/trustzone_images/core/securemsm/trustzone/qsapps/libs/applib/qsee/build/fidosui/scorpion/IADAANAA/tzapp_entrylib.lib(qsee_i2c.o)
                0x0009bdf8                qsee_i2c_open
                0x0009be94                qsee_i2c_close
                0x0009bf20                qsee_i2c_read
                0x0009c064                qsee_i2c_write
 *(SORT(tzapp_syscall_asm))
 *fill*         0x0009c114       0xec 
 tzapp_syscall_asm
                0x0009c200       0x88 /local/mnt/workspace/CRMBuilds/TZ.BF.4.0.3.c1-00005-M8996AAAAANAZT-1_20170110_230814/b/HK11/trustzone_images/core/securemsm/trustzone/qsapps/libs/applib/qsee/build/fidosui/scorpion/IADAANAA/tzapp_entrylib.lib(tzapp_syscall.o)
                0x0009c200                app_export_init_info_to_qsee
                0x0009c238                qsee_wait_default_signal_syscall
                0x0009c264                qsee_generic_syscall
 tzapp_syscall_asm.__stub
                0x0009c288       0x10 linker stubs
 *(SORT(.rodata))
 *fill*         0x0009c298        0x8 
 .rodata        0x0009c2a0       0x14 /local/mnt/workspace/CRMBuilds/TZ.BF.4.0.3.c1-00005-M8996AAAAANAZT-1_20170110_230814/b/HK11/trustzone_images/core/securemsm/sse/qsee/SecureUI/build/fidosui/scorpion/IADAANAA/secure_ui.lib(SecureUI.o)
 *fill*         0x0009c2b4        0xc 
 .rodata        0x0009c2c0       0x58 /local/mnt/workspace/CRMBuilds/TZ.BF.4.0.3.c1-00005-M8996AAAAANAZT-1_20170110_230814/b/HK11/trustzone_images/core/securemsm/trustzone/qsapps/libs/applib/qsee/build/fidosui/scorpion/IADAANAA/tzapp_entrylib.lib(qsee_appmessage.o)
 *fill*         0x0009c318        0x8 
 .rodata        0x0009c320       0x30 /local/mnt/workspace/CRMBuilds/TZ.BF.4.0.3.c1-00005-M8996AAAAANAZT-1_20170110_230814/b/HK11/trustzone_images/core/securemsm/trustzone/qsapps/libs/applib/qsee/build/fidosui/scorpion/IADAANAA/tzapp_entrylib.lib(qsee_cipher.o)
 .rodata        0x0009c350       0x40 /afs/localcell/cm/gv2.6/sysname/pkg.@sys/qct/software/llvm/release/arm/3.5.2.4/tools/lib32/lib/libc.a(atan2.o)
 .rodata        0x0009c390      0x148 /afs/localcell/cm/gv2.6/sysname/pkg.@sys/qct/software/llvm/release/arm/3.5.2.4/tools/lib32/lib/libc.a(__rem_pio2_large.o)
 .rodata        0x0009c4d8       0x40 /afs/localcell/cm/gv2.6/sysname/pkg.@sys/qct/software/llvm/release/arm/3.5.2.4/tools/lib32/lib/libc.a(atan.o)
 .rodata        0x0009c518        0x4 /local/mnt/workspace/CRMBuilds/TZ.BF.4.0.3.c1-00005-M8996AAAAANAZT-1_20170110_230814/b/HK11/trustzone_images/apps/securemsm/trustzone/qsapps/fidosui/build/fidosui/scorpion/IADAANAA/metadata.o
                0x0009c518                TA_ACCEPT_BUF_SIZE
 .rodata        0x0009c51c        0x4 /local/mnt/workspace/CRMBuilds/TZ.BF.4.0.3.c1-00005-M8996AAAAANAZT-1_20170110_230814/b/HK11/trustzone_images/apps/securemsm/trustzone/qsapps/fidosui/app/build/fidosui/scorpion/IADAANAA/fidosui_app.lib(app_main.o)
                0x0009c51c                commandsLen
 .rodata        0x0009c520        0x4 /local/mnt/workspace/CRMBuilds/TZ.BF.4.0.3.c1-00005-M8996AAAAANAZT-1_20170110_230814/b/HK11/trustzone_images/apps/securemsm/trustzone/qsapps/fidosui/locale/build/fidosui/scorpion/IADAANAA/fidosui_locale.lib(locale.o)
                0x0009c520                layout_data_len
 .rodata        0x0009c524       0x18 /local/mnt/workspace/CRMBuilds/TZ.BF.4.0.3.c1-00005-M8996AAAAANAZT-1_20170110_230814/b/HK11/trustzone_images/core/securemsm/sse/qsee/SecureUI/build/fidosui/scorpion/IADAANAA/secure_ui_tui.lib(font_manager.o)
 .rodata        0x0009c53c        0xc /local/mnt/workspace/CRMBuilds/TZ.BF.4.0.3.c1-00005-M8996AAAAANAZT-1_20170110_230814/b/HK11/trustzone_images/core/securemsm/trustzone/qsapps/libs/applib/qsee/build/fidosui/scorpion/IADAANAA/tzapp_entrylib.lib(qsee_hash.o)
 .rodata        0x0009c548      0xb40 /local/mnt/workspace/CRMBuilds/TZ.BF.4.0.3.c1-00005-M8996AAAAANAZT-1_20170110_230814/b/HK11/trustzone_images/core/securemsm/sse/qsee/SecureDisplay/libgd/build/fidosui/scorpion/IADAANAA/libgd.lib(gdtables.o)
                0x0009c548                gdCosT
                0x0009cae8                gdSinT
 .rodata        0x0009d088     0x2000 /local/mnt/workspace/CRMBuilds/TZ.BF.4.0.3.c1-00005-M8996AAAAANAZT-1_20170110_230814/b/HK11/trustzone_images/core/securemsm/sse/qsee/SecureDisplay/zlib/build/fidosui/scorpion/IADAANAA/zlib.lib(crc32.o)
 .rodata        0x0009f088       0x10 /afs/localcell/cm/gv2.6/sysname/pkg.@sys/qct/software/llvm/release/arm/3.5.2.4/tools/lib32/lib/libc.a(block.o)
 .rodata        0x0009f098        0xc /local/mnt/workspace/CRMBuilds/TZ.BF.4.0.3.c1-00005-M8996AAAAANAZT-1_20170110_230814/b/HK11/trustzone_images/core/securemsm/trustzone/qsapps/libs/applib/qsee/build/fidosui/scorpion/IADAANAA/tzapp_entrylib.lib(qsee_i2c.o)
 .rodata        0x0009f0a4      0x8a6 /local/mnt/workspace/CRMBuilds/TZ.BF.4.0.3.c1-00005-M8996AAAAANAZT-1_20170110_230814/b/HK11/trustzone_images/core/securemsm/sse/qsee/SecureDisplay/zlib/build/fidosui/scorpion/IADAANAA/zlib.lib(inflate.o)
 .rodata        0x0009f94a      0x12c /local/mnt/workspace/CRMBuilds/TZ.BF.4.0.3.c1-00005-M8996AAAAANAZT-1_20170110_230814/b/HK11/trustzone_images/core/securemsm/sse/qsee/SecureDisplay/zlib/build/fidosui/scorpion/IADAANAA/zlib.lib(inftrees.o)
                0x0009f94a                inflate_copyright
 .rodata        0x0009fa76      0x1d0 /afs/localcell/cm/gv2.6/sysname/pkg.@sys/qct/software/llvm/release/arm/3.5.2.4/tools/lib32/lib/libc.a(vfprintf.o)
 .rodata        0x0009fc46      0x70c /afs/localcell/cm/gv2.6/sysname/pkg.@sys/qct/software/llvm/release/arm/3.5.2.4/tools/lib32/lib/libc.a(strerror.o)
 .rodata        0x000a0352       0x1c /local/mnt/workspace/CRMBuilds/TZ.BF.4.0.3.c1-00005-M8996AAAAANAZT-1_20170110_230814/b/HK11/trustzone_images/core/securemsm/sse/qsee/SecureDisplay/libpng/build/fidosui/scorpion/IADAANAA/libpng.lib(pngrutil.o)
 .rodata        0x000a036e      0x140 /local/mnt/workspace/CRMBuilds/TZ.BF.4.0.3.c1-00005-M8996AAAAANAZT-1_20170110_230814/b/HK11/trustzone_images/core/securemsm/sse/qsee/SecureDisplay/zlib/build/fidosui/scorpion/IADAANAA/zlib.lib(zutil.o)
                0x000a036e                z_errmsg
 *(SORT(EXCLUDE_FILE(*metadata.o) .rodata.*))
 *fill*         0x000a04ae        0x2 
 .rodata.cst16  0x000a04b0       0x10 /afs/localcell/cm/gv2.6/sysname/pkg.@sys/qct/software/llvm/release/arm/3.5.2.4/tools/lib32/lib/libc.a(__rem_pio2_large.o)
 .rodata.str1.1
                0x000a04c0       0x5f /local/mnt/workspace/CRMBuilds/TZ.BF.4.0.3.c1-00005-M8996AAAAANAZT-1_20170110_230814/b/HK11/trustzone_images/apps/securemsm/trustzone/qsapps/fidosui/ipc/build/fidosui/scorpion/IADAANAA/src/CFidoSuiToken.o
 .rodata.str1.1
                0x000a051f        0x9 /local/mnt/workspace/CRMBuilds/TZ.BF.4.0.3.c1-00005-M8996AAAAANAZT-1_20170110_230814/b/HK11/trustzone_images/core/securemsm/trustzone/qsapps/libs/applib/common_applib/build/fidosui/scorpion/IADAANAA/tzapp_entrylib.lib(common_applib.o)
 .rodata.str1.1
                0x000a0528       0x36 /afs/localcell/cm/gv2.6/sysname/pkg.@sys/qct/software/llvm/release/arm/3.5.2.4/tools/lib32/lib/libc.a(vfprintf.o)
 .rodata.cst16  0x000a055e       0x10 /afs/localcell/cm/gv2.6/sysname/pkg.@sys/qct/software/llvm/release/arm/3.5.2.4/tools/lib32/lib/libc.a(vfprintf.o)
 .rodata.str1.1
                0x000a056e       0x58 /afs/localcell/cm/gv2.6/sysname/pkg.@sys/qct/software/llvm/release/arm/3.5.2.4/tools/lib32/lib/libc.a(strerror.o)
 .rodata.str1.1
                0x000a05c6      0x288 /local/mnt/workspace/CRMBuilds/TZ.BF.4.0.3.c1-00005-M8996AAAAANAZT-1_20170110_230814/b/HK11/trustzone_images/apps/securemsm/trustzone/qsapps/fidosui/app/build/fidosui/scorpion/IADAANAA/fidosui_app.lib(app_main.o)
                                0x296 (size before relaxing)
 .rodata.str1.1
                0x000a084e       0x15 /local/mnt/workspace/CRMBuilds/TZ.BF.4.0.3.c1-00005-M8996AAAAANAZT-1_20170110_230814/b/HK11/trustzone_images/apps/securemsm/trustzone/qsapps/fidosui/app/build/fidosui/scorpion/IADAANAA/fidosui_app.lib(01_Initialize.o)
                                 0x31 (size before relaxing)
 .rodata.str1.1
                0x000a0863      0x2bb /local/mnt/workspace/CRMBuilds/TZ.BF.4.0.3.c1-00005-M8996AAAAANAZT-1_20170110_230814/b/HK11/trustzone_images/apps/securemsm/trustzone/qsapps/fidosui/app/build/fidosui/scorpion/IADAANAA/fidosui_app.lib(08_ShowMessageSui.o)
                                0x2d7 (size before relaxing)
 .rodata.str1.1
                0x000a0b1e       0xe2 /local/mnt/workspace/CRMBuilds/TZ.BF.4.0.3.c1-00005-M8996AAAAANAZT-1_20170110_230814/b/HK11/trustzone_images/apps/securemsm/trustzone/qsapps/fidosui/app/build/fidosui/scorpion/IADAANAA/fidosui_app.lib(fsSecureUI.o)
                                0x104 (size before relaxing)
 .rodata.str1.1
                0x000a0c00       0x30 /local/mnt/workspace/CRMBuilds/TZ.BF.4.0.3.c1-00005-M8996AAAAANAZT-1_20170110_230814/b/HK11/trustzone_images/apps/securemsm/trustzone/qsapps/fidosui/app/build/fidosui/scorpion/IADAANAA/fidosui_app.lib(fsLocale.o)
 .rodata.str1.1
                0x000a0c30       0x60 /local/mnt/workspace/CRMBuilds/TZ.BF.4.0.3.c1-00005-M8996AAAAANAZT-1_20170110_230814/b/HK11/trustzone_images/apps/securemsm/trustzone/qsapps/fidosui/locale/build/fidosui/scorpion/IADAANAA/fidosui_locale.lib(locale.o)
                                 0x65 (size before relaxing)
 .rodata.str1.1
                0x000a0c90       0x2c /local/mnt/workspace/CRMBuilds/TZ.BF.4.0.3.c1-00005-M8996AAAAANAZT-1_20170110_230814/b/HK11/trustzone_images/core/securemsm/sse/log/build/fidosui/scorpion/IADAANAA/sselog.lib(sselog.o)
 .rodata.str1.1
                0x000a0cbc      0x8cb /local/mnt/workspace/CRMBuilds/TZ.BF.4.0.3.c1-00005-M8996AAAAANAZT-1_20170110_230814/b/HK11/trustzone_images/core/securemsm/sse/qsee/SecureUI/build/fidosui/scorpion/IADAANAA/secure_ui.lib(SecureUI.o)
                                0x906 (size before relaxing)
 .rodata.str1.1
                0x000a1587     0x26e7 /local/mnt/workspace/CRMBuilds/TZ.BF.4.0.3.c1-00005-M8996AAAAANAZT-1_20170110_230814/b/HK11/trustzone_images/core/securemsm/sse/qsee/SecureUI/build/fidosui/scorpion/IADAANAA/secure_ui_tui.lib(qsee_tui_dialogs.o)
                               0x2719 (size before relaxing)
 .rodata.str1.1
                0x000a3c6e     0x174e /local/mnt/workspace/CRMBuilds/TZ.BF.4.0.3.c1-00005-M8996AAAAANAZT-1_20170110_230814/b/HK11/trustzone_images/core/securemsm/sse/qsee/SecureUI/build/fidosui/scorpion/IADAANAA/secure_ui_tui.lib(layout_manager.o)
                               0x179d (size before relaxing)
 .rodata.str1.1
                0x000a53bc     0x13cd /local/mnt/workspace/CRMBuilds/TZ.BF.4.0.3.c1-00005-M8996AAAAANAZT-1_20170110_230814/b/HK11/trustzone_images/core/securemsm/sse/qsee/SecureUI/build/fidosui/scorpion/IADAANAA/secure_ui_tui.lib(secure_display_renderer.o)
                               0x140a (size before relaxing)
 .rodata.str1.1
                0x000a6789      0xb2f /local/mnt/workspace/CRMBuilds/TZ.BF.4.0.3.c1-00005-M8996AAAAANAZT-1_20170110_230814/b/HK11/trustzone_images/core/securemsm/sse/qsee/SecureUI/build/fidosui/scorpion/IADAANAA/secure_ui_tui.lib(font_manager.o)
                                0xb67 (size before relaxing)
 .rodata.str1.1
                0x000a72b8       0x47 /local/mnt/workspace/CRMBuilds/TZ.BF.4.0.3.c1-00005-M8996AAAAANAZT-1_20170110_230814/b/HK11/trustzone_images/core/securemsm/sse/qsee/SecureUILib/lib/build/fidosui/scorpion/IADAANAA/secure_ui_lib.lib(SecureUILib.o)
                                 0x63 (size before relaxing)
 .rodata.str1.1
                0x000a72ff       0x84 /local/mnt/workspace/CRMBuilds/TZ.BF.4.0.3.c1-00005-M8996AAAAANAZT-1_20170110_230814/b/HK11/trustzone_images/core/securemsm/sse/qsee/SecureUILib/lib/build/fidosui/scorpion/IADAANAA/secure_ui_lib.lib(01_startTouch.o)
                                 0xa0 (size before relaxing)
 .rodata.str1.1
                0x000a7383       0xa4 /local/mnt/workspace/CRMBuilds/TZ.BF.4.0.3.c1-00005-M8996AAAAANAZT-1_20170110_230814/b/HK11/trustzone_images/core/securemsm/sse/qsee/SecureUILib/lib/build/fidosui/scorpion/IADAANAA/secure_ui_lib.lib(02_processTouch.o)
                                 0xd6 (size before relaxing)
 .rodata.str1.1
                0x000a7427       0x52 /local/mnt/workspace/CRMBuilds/TZ.BF.4.0.3.c1-00005-M8996AAAAANAZT-1_20170110_230814/b/HK11/trustzone_images/core/securemsm/sse/qsee/SecureUILib/lib/build/fidosui/scorpion/IADAANAA/secure_ui_lib.lib(03_stopTouch.o)
                                 0x99 (size before relaxing)
 .rodata.str1.1
                0x000a7479       0x4f /local/mnt/workspace/CRMBuilds/TZ.BF.4.0.3.c1-00005-M8996AAAAANAZT-1_20170110_230814/b/HK11/trustzone_images/core/securemsm/sse/qsee/SecureUILib/lib/build/fidosui/scorpion/IADAANAA/secure_ui_lib.lib(04_prepareRequest.o)
                                 0x6b (size before relaxing)
 .rodata.str1.1
                0x000a74c8       0x9c /local/mnt/workspace/CRMBuilds/TZ.BF.4.0.3.c1-00005-M8996AAAAANAZT-1_20170110_230814/b/HK11/trustzone_images/core/securemsm/sse/qsee/SecureUILib/lib/build/fidosui/scorpion/IADAANAA/secure_ui_lib.lib(05_storeIndicator.o)
                                 0xc8 (size before relaxing)
 .rodata.str1.1
                0x000a7564       0xe5 /local/mnt/workspace/CRMBuilds/TZ.BF.4.0.3.c1-00005-M8996AAAAANAZT-1_20170110_230814/b/HK11/trustzone_images/core/securemsm/trustzone/qsapps/libs/applib/qsee/build/fidosui/scorpion/IADAANAA/tzapp_entrylib.lib(qsee_shared_buffer.o)
 .rodata.str1.1
                0x000a7649       0xc0 /local/mnt/workspace/CRMBuilds/TZ.BF.4.0.3.c1-00005-M8996AAAAANAZT-1_20170110_230814/b/HK11/trustzone_images/core/securemsm/trustzone/qsapps/libs/applib/qsee/build/fidosui/scorpion/IADAANAA/tzapp_entrylib.lib(sfs_api.o)
 .rodata.str1.1
                0x000a7709      0x4bc /local/mnt/workspace/CRMBuilds/TZ.BF.4.0.3.c1-00005-M8996AAAAANAZT-1_20170110_230814/b/HK11/trustzone_images/apps/securemsm/trustzone/qsapps/fidosui/layouts/build/fidosui/scorpion/IADAANAA/secure_ui_layout.lib(layout_8996_fluid.o)
                                0x5f1 (size before relaxing)
 .rodata.str1.1
                0x000a7bc5      0x8eb /local/mnt/workspace/CRMBuilds/TZ.BF.4.0.3.c1-00005-M8996AAAAANAZT-1_20170110_230814/b/HK11/trustzone_images/core/securemsm/sse/SecureTouch/layout/build/fidosui/scorpion/IADAANAA/sklayout.lib(layoutUtils.o)
                                0x917 (size before relaxing)
 .rodata.str1.1
                0x000a84b0       0x39 /local/mnt/workspace/CRMBuilds/TZ.BF.4.0.3.c1-00005-M8996AAAAANAZT-1_20170110_230814/b/HK11/trustzone_images/core/securemsm/sse/qsee/SecureDisplay/libgd/build/fidosui/scorpion/IADAANAA/libgd.lib(gd.o)
 .rodata.str1.1
                0x000a84e9       0xc7 /local/mnt/workspace/CRMBuilds/TZ.BF.4.0.3.c1-00005-M8996AAAAANAZT-1_20170110_230814/b/HK11/trustzone_images/core/securemsm/sse/qsee/SecureDisplay/libgd/build/fidosui/scorpion/IADAANAA/libgd.lib(gd_security.o)
 .rodata.str1.1
                0x000a85b0      0x1b3 /local/mnt/workspace/CRMBuilds/TZ.BF.4.0.3.c1-00005-M8996AAAAANAZT-1_20170110_230814/b/HK11/trustzone_images/core/securemsm/sse/qsee/SecureDisplay/libpng/build/fidosui/scorpion/IADAANAA/libpng.lib(png.o)
                                0x1ba (size before relaxing)
 .rodata.str1.1
                0x00000000        0x1 /local/mnt/workspace/CRMBuilds/TZ.BF.4.0.3.c1-00005-M8996AAAAANAZT-1_20170110_230814/b/HK11/trustzone_images/core/securemsm/sse/qsee/SecureDisplay/libpng/build/fidosui/scorpion/IADAANAA/libpng.lib(pngerror.o)
 .rodata.str1.1
                0x000a8763       0x15 /local/mnt/workspace/CRMBuilds/TZ.BF.4.0.3.c1-00005-M8996AAAAANAZT-1_20170110_230814/b/HK11/trustzone_images/core/securemsm/sse/qsee/SecureDisplay/libpng/build/fidosui/scorpion/IADAANAA/libpng.lib(pngrutil.o)
 .rodata.str1.1
                0x000a8778      0x1cd /local/mnt/workspace/CRMBuilds/TZ.BF.4.0.3.c1-00005-M8996AAAAANAZT-1_20170110_230814/b/HK11/trustzone_images/core/securemsm/sse/qsee/SecureDisplay/zlib/build/fidosui/scorpion/IADAANAA/zlib.lib(inflate.o)
 .rodata.str1.1
                0x00000000        0x6 /local/mnt/workspace/CRMBuilds/TZ.BF.4.0.3.c1-00005-M8996AAAAANAZT-1_20170110_230814/b/HK11/trustzone_images/core/securemsm/sse/qsee/SecureDisplay/zlib/build/fidosui/scorpion/IADAANAA/zlib.lib(zutil.o)
 .rodata.str1.1
                0x00000000       0x50 /local/mnt/workspace/CRMBuilds/TZ.BF.4.0.3.c1-00005-M8996AAAAANAZT-1_20170110_230814/b/HK11/trustzone_images/core/securemsm/sse/qsee/SecureDisplay/zlib/build/fidosui/scorpion/IADAANAA/zlib.lib(inffast.o)
 .rodata.str1.1
                0x000a8945       0x98 /local/mnt/workspace/CRMBuilds/TZ.BF.4.0.3.c1-00005-M8996AAAAANAZT-1_20170110_230814/b/HK11/trustzone_images/core/securemsm/sse/qsee/SecureTouch/drTs/lib/build/fidosui/scorpion/IADAANAA/touch_lib.lib(01_open.o)
                                 0xb4 (size before relaxing)
 .rodata.str1.1
                0x000a89dd       0xbc /local/mnt/workspace/CRMBuilds/TZ.BF.4.0.3.c1-00005-M8996AAAAANAZT-1_20170110_230814/b/HK11/trustzone_images/core/securemsm/sse/qsee/SecureTouch/drTs/lib/build/fidosui/scorpion/IADAANAA/touch_lib.lib(02_close.o)
                                 0xd8 (size before relaxing)
 .rodata.str1.1
                0x000a8a99      0x116 /local/mnt/workspace/CRMBuilds/TZ.BF.4.0.3.c1-00005-M8996AAAAANAZT-1_20170110_230814/b/HK11/trustzone_images/core/securemsm/sse/qsee/SecureTouch/drTs/lib/build/fidosui/scorpion/IADAANAA/touch_lib.lib(03_getData.o)
                                0x13c (size before relaxing)
 .rodata.str1.1
                0x000a8baf       0xb1 /local/mnt/workspace/CRMBuilds/TZ.BF.4.0.3.c1-00005-M8996AAAAANAZT-1_20170110_230814/b/HK11/trustzone_images/core/securemsm/trustzone/qsapps/libs/applib/common_applib/build/fidosui/scorpion/IADAANAA/tzapp_entrylib.lib(gpPersistObjCommon.o)
                                 0xcb (size before relaxing)
 .rodata.str1.1
                0x000a8c60      0x172 /local/mnt/workspace/CRMBuilds/TZ.BF.4.0.3.c1-00005-M8996AAAAANAZT-1_20170110_230814/b/HK11/trustzone_images/core/securemsm/trustzone/qsapps/libs/applib/common_applib/build/fidosui/scorpion/IADAANAA/tzapp_entrylib.lib(gpPersistentObjects.o)
                                0x18a (size before relaxing)
 .rodata.str1.1
                0x000a8dd2      0x31c /local/mnt/workspace/CRMBuilds/TZ.BF.4.0.3.c1-00005-M8996AAAAANAZT-1_20170110_230814/b/HK11/trustzone_images/core/securemsm/trustzone/qsapps/libs/applib/common_applib/build/fidosui/scorpion/IADAANAA/tzapp_entrylib.lib(gpPersistObjData.o)
                                0x334 (size before relaxing)
 .rodata.str1.1
                0x000a90ee       0xcc /local/mnt/workspace/CRMBuilds/TZ.BF.4.0.3.c1-00005-M8996AAAAANAZT-1_20170110_230814/b/HK11/trustzone_images/core/securemsm/trustzone/qsapps/libs/applib/common_applib/build/fidosui/scorpion/IADAANAA/tzapp_entrylib.lib(gpPersistObjHandler.o)
                                 0xe4 (size before relaxing)
 .rodata.str1.1
                0x000a91ba      0x182 /local/mnt/workspace/CRMBuilds/TZ.BF.4.0.3.c1-00005-M8996AAAAANAZT-1_20170110_230814/b/HK11/trustzone_images/core/securemsm/trustzone/qsapps/libs/applib/common_applib/build/fidosui/scorpion/IADAANAA/tzapp_entrylib.lib(gpPersistObjIndex.o)
                                0x19f (size before relaxing)
 .rodata.str1.1
                0x000a933c      0x1e5 /local/mnt/workspace/CRMBuilds/TZ.BF.4.0.3.c1-00005-M8996AAAAANAZT-1_20170110_230814/b/HK11/trustzone_images/core/securemsm/trustzone/qsapps/libs/applib/common_applib/build/fidosui/scorpion/IADAANAA/tzapp_entrylib.lib(gpPersistObjVersion.o)
                                0x202 (size before relaxing)
 .rodata.str1.1
                0x000a9521      0x163 /local/mnt/workspace/CRMBuilds/TZ.BF.4.0.3.c1-00005-M8996AAAAANAZT-1_20170110_230814/b/HK11/trustzone_images/core/securemsm/trustzone/qsapps/libs/applib/common_applib/build/fidosui/scorpion/IADAANAA/tzapp_entrylib.lib(gpPersistObjCrypto.o)
                                0x17b (size before relaxing)
 .rodata.str1.1
                0x000a9684       0x9a /local/mnt/workspace/CRMBuilds/TZ.BF.4.0.3.c1-00005-M8996AAAAANAZT-1_20170110_230814/b/HK11/trustzone_images/core/securemsm/trustzone/qsapps/libs/applib/common_applib/build/fidosui/scorpion/IADAANAA/tzapp_entrylib.lib(gpPersistObjFileIO.o)
                                 0xb2 (size before relaxing)
 .rodata.str1.1
                0x000a971e       0x31 /local/mnt/workspace/CRMBuilds/TZ.BF.4.0.3.c1-00005-M8996AAAAANAZT-1_20170110_230814/b/HK11/trustzone_images/core/securemsm/trustzone/qsapps/libs/applib/common_applib/build/fidosui/scorpion/IADAANAA/tzapp_entrylib.lib(gpFileService.o)
                                 0x49 (size before relaxing)
 .rodata.str1.1
                0x00000000        0x1 /local/mnt/workspace/CRMBuilds/TZ.BF.4.0.3.c1-00005-M8996AAAAANAZT-1_20170110_230814/b/HK11/trustzone_images/core/securemsm/trustzone/qsapps/libs/applib/qsee/build/fidosui/scorpion/IADAANAA/tzapp_entrylib.lib(qsee_core_shim.o)
 .rodata.str1.1
                0x000a974f      0x534 /local/mnt/workspace/CRMBuilds/TZ.BF.4.0.3.c1-00005-M8996AAAAANAZT-1_20170110_230814/b/HK11/trustzone_images/core/securemsm/sse/SecureTouch/controller/build/fidosui/scorpion/IADAANAA/drts_controller_msm8996.lib(atmel_mxt_ts.o)
                                0x550 (size before relaxing)
 .rodata.str1.1
                0x000a9c83      0x6c1 /local/mnt/workspace/CRMBuilds/TZ.BF.4.0.3.c1-00005-M8996AAAAANAZT-1_20170110_230814/b/HK11/trustzone_images/core/securemsm/sse/SecureTouch/controller/build/fidosui/scorpion/IADAANAA/drts_controller_msm8996.lib(synaptics_ts.o)
                                0x73a (size before relaxing)
 .rodata.str1.1
                0x000aa344       0x5a /local/mnt/workspace/CRMBuilds/TZ.BF.4.0.3.c1-00005-M8996AAAAANAZT-1_20170110_230814/b/HK11/trustzone_images/core/securemsm/sse/qsee/SecureTouch/drTs/controller/build/fidosui/scorpion/IADAANAA/touch_controller_i2c_msm8996.lib(atmel_mxt_ts_i2c.o)
 .rodata.str1.1
                0x000aa39e       0x8a /local/mnt/workspace/CRMBuilds/TZ.BF.4.0.3.c1-00005-M8996AAAAANAZT-1_20170110_230814/b/HK11/trustzone_images/core/securemsm/sse/qsee/SecureTouch/drTs/controller/build/fidosui/scorpion/IADAANAA/touch_controller_i2c_msm8996.lib(synaptics_ts_i2c.o)
                                 0xcc (size before relaxing)
 *metadata.o(SORT(.rodata.str1.1))
 .rodata.str1.1
                0x000aa428        0x8 /local/mnt/workspace/CRMBuilds/TZ.BF.4.0.3.c1-00005-M8996AAAAANAZT-1_20170110_230814/b/HK11/trustzone_images/apps/securemsm/trustzone/qsapps/fidosui/build/fidosui/scorpion/IADAANAA/metadata.o

.glue_7         0x000aa430        0x0
 .glue_7        0x00000000        0x0 linker stubs

.glue_7t        0x000aa430        0x0
 .glue_7t       0x00000000        0x0 linker stubs

.vfp11_veneer   0x000aa430        0x0
 .vfp11_veneer  0x00000000        0x0 linker stubs

.v4_bx          0x000aa430        0x0
 .v4_bx         0x00000000        0x0 linker stubs

.dynbss         0x000aa430        0x0
 .dynbss        0x00000000        0x0 /local/mnt/workspace/CRMBuilds/TZ.BF.4.0.3.c1-00005-M8996AAAAANAZT-1_20170110_230814/b/HK11/trustzone_images/core/securemsm/trustzone/qsapps/libs/applib/qsee/build/fidosui/scorpion/IADAANAA/src/tzapp_entry.o

.plt            0x000aa430        0x0
 .plt           0x00000000        0x0 /local/mnt/workspace/CRMBuilds/TZ.BF.4.0.3.c1-00005-M8996AAAAANAZT-1_20170110_230814/b/HK11/trustzone_images/core/securemsm/trustzone/qsapps/libs/applib/qsee/build/fidosui/scorpion/IADAANAA/src/tzapp_entry.o

.iplt           0x000aa430        0x0
 .iplt          0x00000000        0x0 /local/mnt/workspace/CRMBuilds/TZ.BF.4.0.3.c1-00005-M8996AAAAANAZT-1_20170110_230814/b/HK11/trustzone_images/core/securemsm/trustzone/qsapps/libs/applib/qsee/build/fidosui/scorpion/IADAANAA/src/tzapp_entry.o

.sentinel       0x000aa430       0x2f
 *(SORT(.rodata.sentinel))
 .rodata.sentinel
                0x000aa430       0x2f /local/mnt/workspace/CRMBuilds/TZ.BF.4.0.3.c1-00005-M8996AAAAANAZT-1_20170110_230814/b/HK11/trustzone_images/apps/securemsm/trustzone/qsapps/fidosui/build/fidosui/scorpion/IADAANAA/metadata.o
                0x000aa430                TA_METADATA
                0x00000001                ASSERT ((SIZEOF (.sentinel) != 0x0), No sentinel section defined.)

.metadata_check
                0x000aa45f        0x0
 *metadata.o(SORT(.rodata.*))
                0x00000001                ASSERT ((SIZEOF (.metadata_check) == 0x0), New metadata not accounted for here)

.data           0x000ab000   0x1d0b8e
 *(SORT(.data) SORT(TZAPPENTRYSTACK) SORT(.bss) SORT(COMMON))
 TZAPPENTRYSTACK
                0x000ab000       0x80 /local/mnt/workspace/CRMBuilds/TZ.BF.4.0.3.c1-00005-M8996AAAAANAZT-1_20170110_230814/b/HK11/trustzone_images/core/securemsm/trustzone/qsapps/libs/applib/qsee/build/fidosui/scorpion/IADAANAA/src/tzapp_entry.o
 .data          0x000ab080      0x240 /local/mnt/workspace/CRMBuilds/TZ.BF.4.0.3.c1-00005-M8996AAAAANAZT-1_20170110_230814/b/HK11/trustzone_images/core/securemsm/trustzone/qsapps/libs/applib/common_applib/build/fidosui/scorpion/IADAANAA/tzapp_entrylib.lib(common_applib.o)
                0x000ab080                magic_num
                0x000ab094                magic_num_index_array
                0x000ab0a0                mem_magic_number
                0x000ab0ac                __stack_chk_guard
 .bss           0x000ab2c0       0x88 /local/mnt/workspace/CRMBuilds/TZ.BF.4.0.3.c1-00005-M8996AAAAANAZT-1_20170110_230814/b/HK11/trustzone_images/core/securemsm/trustzone/qsapps/libs/applib/common_applib/build/fidosui/scorpion/IADAANAA/tzapp_entrylib.lib(common_applib.o)
                0x000ab2c0                pgCmnlib
 *fill*         0x000ab348        0x8 
 .bss           0x000ab350      0x140 /local/mnt/workspace/CRMBuilds/TZ.BF.4.0.3.c1-00005-M8996AAAAANAZT-1_20170110_230814/b/HK11/trustzone_images/core/securemsm/trustzone/qsapps/libs/applib/qsee/build/fidosui/scorpion/IADAANAA/tzapp_entrylib.lib(qsee_env.o)
 .bss           0x000ab490      0x4b4 /local/mnt/workspace/CRMBuilds/TZ.BF.4.0.3.c1-00005-M8996AAAAANAZT-1_20170110_230814/b/HK11/trustzone_images/apps/securemsm/trustzone/qsapps/fidosui/app/build/fidosui/scorpion/IADAANAA/fidosui_app.lib(fsSecureUI.o)
 *fill*         0x000ab944        0xc 
 .bss           0x000ab950       0x20 /local/mnt/workspace/CRMBuilds/TZ.BF.4.0.3.c1-00005-M8996AAAAANAZT-1_20170110_230814/b/HK11/trustzone_images/core/securemsm/sse/qsee/SecureUI/build/fidosui/scorpion/IADAANAA/secure_ui.lib(SecureUI.o)
 .bss           0x000ab970       0xac /local/mnt/workspace/CRMBuilds/TZ.BF.4.0.3.c1-00005-M8996AAAAANAZT-1_20170110_230814/b/HK11/trustzone_images/core/securemsm/sse/qsee/SecureUI/build/fidosui/scorpion/IADAANAA/secure_ui_tui.lib(qsee_tui_dialogs.o)
                0x000ab970                manage_layout_event_custom
 *fill*         0x000aba1c        0x4 
 .bss           0x000aba20       0x20 /local/mnt/workspace/CRMBuilds/TZ.BF.4.0.3.c1-00005-M8996AAAAANAZT-1_20170110_230814/b/HK11/trustzone_images/core/securemsm/sse/qsee/SecureUI/build/fidosui/scorpion/IADAANAA/secure_ui_tui.lib(layout_manager.o)
 .bss           0x000aba40    0x309a0 /local/mnt/workspace/CRMBuilds/TZ.BF.4.0.3.c1-00005-M8996AAAAANAZT-1_20170110_230814/b/HK11/trustzone_images/core/securemsm/sse/qsee/SecureUI/build/fidosui/scorpion/IADAANAA/secure_ui_tui.lib(font_manager.o)
 .bss           0x000dc3e0     0x1044 /local/mnt/workspace/CRMBuilds/TZ.BF.4.0.3.c1-00005-M8996AAAAANAZT-1_20170110_230814/b/HK11/trustzone_images/core/securemsm/trustzone/qsapps/libs/applib/common_applib/build/fidosui/scorpion/IADAANAA/tzapp_entrylib.lib(gpPersistObjData.o)
 *fill*         0x000dd424        0xc 
 .bss           0x000dd430      0x488 /local/mnt/workspace/CRMBuilds/TZ.BF.4.0.3.c1-00005-M8996AAAAANAZT-1_20170110_230814/b/HK11/trustzone_images/core/securemsm/trustzone/qsapps/libs/applib/common_applib/build/fidosui/scorpion/IADAANAA/tzapp_entrylib.lib(gpPersistObjVersion.o)
 *fill*         0x000dd8b8        0x8 
 .bss           0x000dd8c0       0x50 /local/mnt/workspace/CRMBuilds/TZ.BF.4.0.3.c1-00005-M8996AAAAANAZT-1_20170110_230814/b/HK11/trustzone_images/core/securemsm/trustzone/qsapps/libs/applib/common_applib/build/fidosui/scorpion/IADAANAA/tzapp_entrylib.lib(gpPersistObjCrypto.o)
 .bss           0x000dd910      0x724 /local/mnt/workspace/CRMBuilds/TZ.BF.4.0.3.c1-00005-M8996AAAAANAZT-1_20170110_230814/b/HK11/trustzone_images/core/securemsm/trustzone/qsapps/libs/applib/qsee/build/fidosui/scorpion/IADAANAA/tzapp_entrylib.lib(stor_gpt.o)
 *fill*         0x000de034        0xc 
 .bss           0x000de040       0xc0 /local/mnt/workspace/CRMBuilds/TZ.BF.4.0.3.c1-00005-M8996AAAAANAZT-1_20170110_230814/b/HK11/trustzone_images/core/securemsm/sse/SecureTouch/controller/build/fidosui/scorpion/IADAANAA/drts_controller_msm8996.lib(atmel_mxt_ts.o)
 .bss           0x000de100        0xc /local/mnt/workspace/CRMBuilds/TZ.BF.4.0.3.c1-00005-M8996AAAAANAZT-1_20170110_230814/b/HK11/trustzone_images/apps/securemsm/trustzone/qsapps/fidosui/app/build/fidosui/scorpion/IADAANAA/fidosui_app.lib(app_main.o)
                0x000de100                sourceId
 *fill*         0x000de10c        0x4 
 COMMON         0x000de110       0x10 /local/mnt/workspace/CRMBuilds/TZ.BF.4.0.3.c1-00005-M8996AAAAANAZT-1_20170110_230814/b/HK11/trustzone_images/apps/securemsm/trustzone/qsapps/fidosui/app/build/fidosui/scorpion/IADAANAA/fidosui_app.lib(app_main.o)
                0x000de110                g_st_start_time
                0x000de118                g_st_stop_time
 .data          0x000de120       0x64 /local/mnt/workspace/CRMBuilds/TZ.BF.4.0.3.c1-00005-M8996AAAAANAZT-1_20170110_230814/b/HK11/trustzone_images/core/securemsm/sse/qsee/SecureUI/build/fidosui/scorpion/IADAANAA/secure_ui.lib(SecureUI.o)
 .bss           0x000de184     0x1000 /local/mnt/workspace/CRMBuilds/TZ.BF.4.0.3.c1-00005-M8996AAAAANAZT-1_20170110_230814/b/HK11/trustzone_images/apps/securemsm/trustzone/qsapps/fidosui/build/fidosui/scorpion/IADAANAA/metadata.o
                0x000de184                ta_acceptBuf
 COMMON         0x000df184       0x14 /local/mnt/workspace/CRMBuilds/TZ.BF.4.0.3.c1-00005-M8996AAAAANAZT-1_20170110_230814/b/HK11/trustzone_images/core/securemsm/trustzone/qsapps/libs/applib/common_applib/build/fidosui/scorpion/IADAANAA/tzapp_entrylib.lib(common_applib.o)
                0x000df184                apps_request_resp
 .bss           0x000df198        0x4 /afs/localcell/cm/gv2.6/sysname/pkg.@sys/qct/software/llvm/release/arm/3.5.2.4/tools/lib32/lib/libc.a(__errno_location.o)
 .bss           0x000df19c        0x8 /afs/localcell/cm/gv2.6/sysname/pkg.@sys/qct/software/llvm/release/arm/3.5.2.4/tools/lib32/lib/libc.a(libc.o)
                0x000df19c                __progname
                0x000df19c                program_invocation_short_name
                0x000df1a0                program_invocation_name
                0x000df1a0                __progname_full
 COMMON         0x000df1a4       0x54 /afs/localcell/cm/gv2.6/sysname/pkg.@sys/qct/software/llvm/release/arm/3.5.2.4/tools/lib32/lib/libc.a(libc.o)
                0x000df1a4                __hwcap
                0x000df1a8                __libc
                0x000df1f4                __sysinfo
 .bss           0x000df1f8        0x4 /afs/localcell/cm/gv2.6/sysname/pkg.@sys/qct/software/llvm/release/arm/3.5.2.4/tools/lib32/lib/libc.a(__stdio_exit.o)
                0x000df1f8                __stdout_used
                0x000df1f8                __stdin_used
 .bss           0x000df1fc       0x90 /local/mnt/workspace/CRMBuilds/TZ.BF.4.0.3.c1-00005-M8996AAAAANAZT-1_20170110_230814/b/HK11/trustzone_images/apps/securemsm/trustzone/qsapps/fidosui/app/build/fidosui/scorpion/IADAANAA/fidosui_app.lib(08_ShowMessageSui.o)
                0x000df1fc                g_token
 .data          0x000df28c       0x88 /local/mnt/workspace/CRMBuilds/TZ.BF.4.0.3.c1-00005-M8996AAAAANAZT-1_20170110_230814/b/HK11/trustzone_images/apps/securemsm/trustzone/qsapps/fidosui/config/build/fidosui/scorpion/IADAANAA/fidosui_config.lib(config.o)
                0x000df28c                g_config
 .data          0x000df314        0xc /local/mnt/workspace/CRMBuilds/TZ.BF.4.0.3.c1-00005-M8996AAAAANAZT-1_20170110_230814/b/HK11/trustzone_images/core/securemsm/sse/qsee/SecureUI/build/fidosui/scorpion/IADAANAA/secure_ui_tui.lib(qsee_tui_dialogs.o)
 .data          0x000df320       0x10 /local/mnt/workspace/CRMBuilds/TZ.BF.4.0.3.c1-00005-M8996AAAAANAZT-1_20170110_230814/b/HK11/trustzone_images/core/securemsm/sse/qsee/SecureUI/build/fidosui/scorpion/IADAANAA/secure_ui_tui.lib(layout_manager.o)
 .bss           0x000df330        0x4 /local/mnt/workspace/CRMBuilds/TZ.BF.4.0.3.c1-00005-M8996AAAAANAZT-1_20170110_230814/b/HK11/trustzone_images/core/securemsm/sse/qsee/SecureUI/build/fidosui/scorpion/IADAANAA/secure_ui_tui.lib(secure_display_renderer.o)
 .data          0x000df334        0xc /local/mnt/workspace/CRMBuilds/TZ.BF.4.0.3.c1-00005-M8996AAAAANAZT-1_20170110_230814/b/HK11/trustzone_images/core/securemsm/sse/qsee/SecureUILib/lib/build/fidosui/scorpion/IADAANAA/secure_ui_lib.lib(SecureUILib.o)
                0x000df334                g_sid
                0x000df338                g_width
                0x000df33c                g_height
 .bss           0x000df340        0x4 /local/mnt/workspace/CRMBuilds/TZ.BF.4.0.3.c1-00005-M8996AAAAANAZT-1_20170110_230814/b/HK11/trustzone_images/core/securemsm/sse/qsee/SecureUILib/lib/build/fidosui/scorpion/IADAANAA/secure_ui_lib.lib(SecureUILib.o)
                0x000df340                g_touch_callback
 .bss           0x000df344        0x4 /local/mnt/workspace/CRMBuilds/TZ.BF.4.0.3.c1-00005-M8996AAAAANAZT-1_20170110_230814/b/HK11/trustzone_images/core/securemsm/trustzone/qsapps/libs/applib/qsee/build/fidosui/scorpion/IADAANAA/tzapp_entrylib.lib(sfs_api.o)
 .data          0x000df348   0x12f364 /local/mnt/workspace/CRMBuilds/TZ.BF.4.0.3.c1-00005-M8996AAAAANAZT-1_20170110_230814/b/HK11/trustzone_images/apps/securemsm/trustzone/qsapps/fidosui/layouts/build/fidosui/scorpion/IADAANAA/secure_ui_layout.lib(layout_8996_fluid.o)
                0x000df348                tui_number_of_layouts
                0x000df34c                gdFontgdfontqualcomm_regular100propData
                0x00119e14                gdFontgdfontqualcomm_regular42propData
                0x00132b14                gdFontgdfontqualcomm_regular48propData
                0x0014ea3c                image_buffer_0
                0x00152573                image_buffer_1
                0x00157065                image_buffer_2
                0x001594a3                image_buffer_3
                0x0015954c                image_buffer_4
                0x0015f369                image_buffer_5
                0x00165615                image_buffer_6
                0x0016ac32                image_buffer_7
                0x00186c8b                image_buffer_8
                0x00189a5a                image_buffer_9
                0x0018d3f0                image_buffer_10
                0x0018f1ce                image_buffer_11
                0x001957c6                image_buffer_12
                0x0019c4be                image_buffer_13
                0x001a192e                image_buffer_14
                0x001bdaaf                image_buffer_15
                0x001bfb33                image_buffer_16
                0x001c1793                image_buffer_17
                0x001c2b6b                image_buffer_18
                0x001c5735                image_buffer_19
                0x001c8f1f                image_buffer_20
                0x001cae91                image_buffer_21
                0x001cfcf8                image_buffer_22
                0x001d4977                image_buffer_23
                0x001d92a8                image_buffer_24
                0x001dd99f                image_buffer_25
                0x001e00d2                image_buffer_26
                0x001e3d09                image_buffer_27
                0x001e793d                image_buffer_28
                0x001ea95f                image_buffer_29
                0x001ee339                image_buffer_30
                0x001f0589                image_buffer_31
                0x001f666e                image_buffer_32
                0x001f9270                image_buffer_33
                0x001fc971                image_buffer_34
 .bss           0x0020e6ac    0x1242c /local/mnt/workspace/CRMBuilds/TZ.BF.4.0.3.c1-00005-M8996AAAAANAZT-1_20170110_230814/b/HK11/trustzone_images/apps/securemsm/trustzone/qsapps/fidosui/layouts/build/fidosui/scorpion/IADAANAA/secure_ui_layout.lib(layout_8996_fluid.o)
                0x0020e6ac                publicRSAExponent
                0x0020e6b0                publicRSAModulus
 .data          0x00220ad8        0x4 /local/mnt/workspace/CRMBuilds/TZ.BF.4.0.3.c1-00005-M8996AAAAANAZT-1_20170110_230814/b/HK11/trustzone_images/core/securemsm/sse/qsee/SecureTouch/drTs/lib/build/fidosui/scorpion/IADAANAA/touch_lib.lib(01_open.o)
                0x00220ad8                g_drTs_sid
 .bss           0x00220adc        0xc /local/mnt/workspace/CRMBuilds/TZ.BF.4.0.3.c1-00005-M8996AAAAANAZT-1_20170110_230814/b/HK11/trustzone_images/core/securemsm/sse/qsee/SecureTouch/drTs/lib/build/fidosui/scorpion/IADAANAA/touch_lib.lib(01_open.o)
                0x00220adc                g_ts_dr_func
 .bss           0x00220ae8        0x4 /local/mnt/workspace/CRMBuilds/TZ.BF.4.0.3.c1-00005-M8996AAAAANAZT-1_20170110_230814/b/HK11/trustzone_images/core/securemsm/sse/qsee/SecureTouch/drTs/lib/build/fidosui/scorpion/IADAANAA/touch_lib.lib(03_getData.o)
                0x00220ae8                g_fingers_ptr
 .bss           0x00220aec       0x81 /local/mnt/workspace/CRMBuilds/TZ.BF.4.0.3.c1-00005-M8996AAAAANAZT-1_20170110_230814/b/HK11/trustzone_images/core/securemsm/trustzone/qsapps/libs/applib/common_applib/build/fidosui/scorpion/IADAANAA/tzapp_entrylib.lib(gpPersistObjCommon.o)
 *fill*         0x00220b6d        0x3 
 .data          0x00220b70     0x1110 /local/mnt/workspace/CRMBuilds/TZ.BF.4.0.3.c1-00005-M8996AAAAANAZT-1_20170110_230814/b/HK11/trustzone_images/core/securemsm/trustzone/qsapps/libs/applib/common_applib/build/fidosui/scorpion/IADAANAA/tzapp_entrylib.lib(gpPersistObjHandler.o)
 .bss           0x00221c80        0x4 /local/mnt/workspace/CRMBuilds/TZ.BF.4.0.3.c1-00005-M8996AAAAANAZT-1_20170110_230814/b/HK11/trustzone_images/core/securemsm/trustzone/qsapps/libs/applib/common_applib/build/fidosui/scorpion/IADAANAA/tzapp_entrylib.lib(gpPersistObjHandler.o)
 .bss           0x00221c84     0x2024 /local/mnt/workspace/CRMBuilds/TZ.BF.4.0.3.c1-00005-M8996AAAAANAZT-1_20170110_230814/b/HK11/trustzone_images/core/securemsm/trustzone/qsapps/libs/applib/common_applib/build/fidosui/scorpion/IADAANAA/tzapp_entrylib.lib(gpPersistObjIndex.o)
 .data          0x00223ca8        0x1 /local/mnt/workspace/CRMBuilds/TZ.BF.4.0.3.c1-00005-M8996AAAAANAZT-1_20170110_230814/b/HK11/trustzone_images/core/securemsm/trustzone/qsapps/libs/applib/common_applib/build/fidosui/scorpion/IADAANAA/tzapp_entrylib.lib(gpPersistObjVersion.o)
 *fill*         0x00223ca9        0x3 
 .data          0x00223cac        0x4 /local/mnt/workspace/CRMBuilds/TZ.BF.4.0.3.c1-00005-M8996AAAAANAZT-1_20170110_230814/b/HK11/trustzone_images/core/securemsm/trustzone/qsapps/libs/applib/qsee/build/fidosui/scorpion/IADAANAA/tzapp_entrylib.lib(stor_gpt.o)
 .bss           0x00223cb0        0x8 /afs/localcell/cm/gv2.6/sysname/pkg.@sys/qct/software/llvm/release/arm/3.5.2.4/tools/lib32/lib/libc.a(stderr.o)
 .bss           0x00223cb8       0x96 /local/mnt/workspace/CRMBuilds/TZ.BF.4.0.3.c1-00005-M8996AAAAANAZT-1_20170110_230814/b/HK11/trustzone_images/core/securemsm/sse/SecureTouch/controller/build/fidosui/scorpion/IADAANAA/drts_controller_msm8996.lib(synaptics_ts.o)
 COMMON         0x00223d4e    0x57e40 /local/mnt/workspace/CRMBuilds/TZ.BF.4.0.3.c1-00005-M8996AAAAANAZT-1_20170110_230814/b/HK11/trustzone_images/core/securemsm/sse/qsee/SecureUI/build/fidosui/scorpion/IADAANAA/secure_ui_tui.lib(secure_display_renderer.o)
                0x00223d4e                img_array

.rel.text       0x0027bb90        0x0
 *(SORT(.rel.text))
 .rel.text      0x00000000        0x0 /local/mnt/workspace/CRMBuilds/TZ.BF.4.0.3.c1-00005-M8996AAAAANAZT-1_20170110_230814/b/HK11/trustzone_images/core/securemsm/trustzone/qsapps/libs/applib/qsee/build/fidosui/scorpion/IADAANAA/src/tzapp_entry.o

.rel.rodata
 *(SORT(.rel.rodata))

.data.rel.ro.local
                0x0027bb90      0x1ac
 *(SORT(.data.rel.ro.local))
 .data.rel.ro.local
                0x0027bb90       0x88 /afs/localcell/cm/gv2.6/sysname/pkg.@sys/qct/software/llvm/release/arm/3.5.2.4/tools/lib32/lib/libc.a(vsnprintf.o)
 .data.rel.ro.local
                0x0027bc18      0x120 /local/mnt/workspace/CRMBuilds/TZ.BF.4.0.3.c1-00005-M8996AAAAANAZT-1_20170110_230814/b/HK11/trustzone_images/apps/securemsm/trustzone/qsapps/fidosui/locale/build/fidosui/scorpion/IADAANAA/fidosui_locale.lib(locale.o)
                0x0027bc18                layout_data
 .data.rel.ro.local
                0x0027bd38        0x4 /afs/localcell/cm/gv2.6/sysname/pkg.@sys/qct/software/llvm/release/arm/3.5.2.4/tools/lib32/lib/libc.a(stderr.o)
                0x0027bd38                stderr

.data.rel.ro    0x0027bd3c       0x28
 *(SORT(.data.rel.ro))
 .data.rel.ro   0x0027bd3c       0x28 /local/mnt/workspace/CRMBuilds/TZ.BF.4.0.3.c1-00005-M8996AAAAANAZT-1_20170110_230814/b/HK11/trustzone_images/core/securemsm/sse/qsee/SecureUILib/lib/build/fidosui/scorpion/IADAANAA/secure_ui_lib.lib(SecureUILib.o)

.rel.data
 *(SORT(.rel.data))

.rel.plt        0x0027bd64        0x0
 *(SORT(.rel.plt))
 .rel.plt       0x00000000        0x0 /local/mnt/workspace/CRMBuilds/TZ.BF.4.0.3.c1-00005-M8996AAAAANAZT-1_20170110_230814/b/HK11/trustzone_images/core/securemsm/trustzone/qsapps/libs/applib/qsee/build/fidosui/scorpion/IADAANAA/src/tzapp_entry.o

.gnu.version_d  0x0027bd64        0x0
 .gnu.version_d
                0x00000000        0x0 /local/mnt/workspace/CRMBuilds/TZ.BF.4.0.3.c1-00005-M8996AAAAANAZT-1_20170110_230814/b/HK11/trustzone_images/core/securemsm/trustzone/qsapps/libs/applib/qsee/build/fidosui/scorpion/IADAANAA/src/tzapp_entry.o

.gnu.version    0x0027bd64        0x0
 .gnu.version   0x00000000        0x0 /local/mnt/workspace/CRMBuilds/TZ.BF.4.0.3.c1-00005-M8996AAAAANAZT-1_20170110_230814/b/HK11/trustzone_images/core/securemsm/trustzone/qsapps/libs/applib/qsee/build/fidosui/scorpion/IADAANAA/src/tzapp_entry.o

.gnu.version_r  0x0027bd64        0x0
 .gnu.version_r
                0x00000000        0x0 /local/mnt/workspace/CRMBuilds/TZ.BF.4.0.3.c1-00005-M8996AAAAANAZT-1_20170110_230814/b/HK11/trustzone_images/core/securemsm/trustzone/qsapps/libs/applib/qsee/build/fidosui/scorpion/IADAANAA/src/tzapp_entry.o

.data.rel       0x0027bd68       0xec
 *(SORT(.data.rel))
 .data.rel      0x0027bd68       0x88 /afs/localcell/cm/gv2.6/sysname/pkg.@sys/qct/software/llvm/release/arm/3.5.2.4/tools/lib32/lib/libc.a(stderr.o)
 .data.rel      0x0027bdf0       0x18 /local/mnt/workspace/CRMBuilds/TZ.BF.4.0.3.c1-00005-M8996AAAAANAZT-1_20170110_230814/b/HK11/trustzone_images/apps/securemsm/trustzone/qsapps/fidosui/app/build/fidosui/scorpion/IADAANAA/fidosui_app.lib(app_main.o)
                0x0027bdf0                commands
 .data.rel      0x0027be08       0x48 /local/mnt/workspace/CRMBuilds/TZ.BF.4.0.3.c1-00005-M8996AAAAANAZT-1_20170110_230814/b/HK11/trustzone_images/apps/securemsm/trustzone/qsapps/fidosui/layouts/build/fidosui/scorpion/IADAANAA/secure_ui_layout.lib(layout_8996_fluid.o)
                0x0027be08                gdFontgdfontqualcomm_regular100propRep
                0x0027be1c                gdFontgdfontqualcomm_regular100propExt
                0x0027be20                gdFontgdfontqualcomm_regular42propRep
                0x0027be34                gdFontgdfontqualcomm_regular42propExt
                0x0027be38                gdFontgdfontqualcomm_regular48propRep
                0x0027be4c                gdFontgdfontqualcomm_regular48propExt
 .data.rel      0x0027be50        0x4 /local/mnt/workspace/CRMBuilds/TZ.BF.4.0.3.c1-00005-M8996AAAAANAZT-1_20170110_230814/b/HK11/trustzone_images/core/securemsm/sse/qsee/SecureDisplay/libgd/build/fidosui/scorpion/IADAANAA/libgd.lib(gd.o)

.data.rel.local
                0x0027be60      0x12c
 *(SORT(.data.rel.local))
 .data.rel.local
                0x0027be60       0x84 /local/mnt/workspace/CRMBuilds/TZ.BF.4.0.3.c1-00005-M8996AAAAANAZT-1_20170110_230814/b/HK11/trustzone_images/core/securemsm/sse/SecureTouch/controller/build/fidosui/scorpion/IADAANAA/drts_controller_msm8996.lib(atmel_mxt_ts.o)
 *fill*         0x0027bee4        0xc 
 .data.rel.local
                0x0027bef0       0x2c /local/mnt/workspace/CRMBuilds/TZ.BF.4.0.3.c1-00005-M8996AAAAANAZT-1_20170110_230814/b/HK11/trustzone_images/core/securemsm/sse/qsee/SecureTouch/drTs/controller/build/fidosui/scorpion/IADAANAA/touch_controller_i2c_msm8996.lib(atmel_mxt_ts_i2c.o)
 *fill*         0x0027bf1c        0x4 
 .data.rel.local
                0x0027bf20       0x2c /local/mnt/workspace/CRMBuilds/TZ.BF.4.0.3.c1-00005-M8996AAAAANAZT-1_20170110_230814/b/HK11/trustzone_images/core/securemsm/sse/qsee/SecureTouch/drTs/controller/build/fidosui/scorpion/IADAANAA/touch_controller_i2c_msm8996.lib(synaptics_ts_i2c.o)
 .data.rel.local
                0x0027bf4c        0x4 /local/mnt/workspace/CRMBuilds/TZ.BF.4.0.3.c1-00005-M8996AAAAANAZT-1_20170110_230814/b/HK11/trustzone_images/apps/securemsm/trustzone/qsapps/fidosui/build/fidosui/scorpion/IADAANAA/metadata.o
                0x0027bf4c                TA_APP_NAME
 .data.rel.local
                0x0027bf50        0x4 /local/mnt/workspace/CRMBuilds/TZ.BF.4.0.3.c1-00005-M8996AAAAANAZT-1_20170110_230814/b/HK11/trustzone_images/core/securemsm/trustzone/qsapps/libs/applib/common_applib/build/fidosui/scorpion/IADAANAA/tzapp_entrylib.lib(common_applib.o)
                0x0027bf50                dummy_str
 .data.rel.local
                0x0027bf54        0x4 /local/mnt/workspace/CRMBuilds/TZ.BF.4.0.3.c1-00005-M8996AAAAANAZT-1_20170110_230814/b/HK11/trustzone_images/apps/securemsm/trustzone/qsapps/fidosui/app/build/fidosui/scorpion/IADAANAA/fidosui_app.lib(app_main.o)
                0x0027bf54                sse_log_tag
 .data.rel.local
                0x0027bf58       0x30 /local/mnt/workspace/CRMBuilds/TZ.BF.4.0.3.c1-00005-M8996AAAAANAZT-1_20170110_230814/b/HK11/trustzone_images/apps/securemsm/trustzone/qsapps/fidosui/layouts/build/fidosui/scorpion/IADAANAA/secure_ui_layout.lib(layout_8996_fluid.o)
                0x0027bf58                tui_layout_functions
 .data.rel.local
                0x0027bf88        0x4 /afs/localcell/cm/gv2.6/sysname/pkg.@sys/qct/software/llvm/release/arm/3.5.2.4/tools/lib32/lib/libc.a(stderr.o)
                0x0027bf88                __stderr_used

TZ_APP_STACK    0x0027bf8c    0x16000
                0x0027bf8c                Image$$TZ_APP_STACK$$ZI$$Base = .
                0x00291f8c                . = (. + 0x16000)
 *fill*         0x0027bf8c    0x16000 
                0x00291f8c                Image$$TZ_APP_STACK$$ZI$$Limit = .

TZ_APP_HEAP     0x00291f8c    0x16000
                0x00291f8c                Image$$TZ_APP_HEAP$$ZI$$Base = .
                0x002a7f8c                . = (. + 0x16000)
 *fill*         0x00291f8c    0x16000 
                0x002a7f8c                Image$$TZ_APP_HEAP$$ZI$$Limit = .

.got            0x002a8000      0x1ac
 *(SORT(.got.plt))
 .got.plt       0x002a8000        0xc /local/mnt/workspace/CRMBuilds/TZ.BF.4.0.3.c1-00005-M8996AAAAANAZT-1_20170110_230814/b/HK11/trustzone_images/core/securemsm/trustzone/qsapps/libs/applib/qsee/build/fidosui/scorpion/IADAANAA/src/tzapp_entry.o
                0x002a8000                _GLOBAL_OFFSET_TABLE_
 *(SORT(.igot.plt))
 .igot.plt      0x00000000        0x0 /local/mnt/workspace/CRMBuilds/TZ.BF.4.0.3.c1-00005-M8996AAAAANAZT-1_20170110_230814/b/HK11/trustzone_images/core/securemsm/trustzone/qsapps/libs/applib/qsee/build/fidosui/scorpion/IADAANAA/src/tzapp_entry.o
 *(SORT(.got))
 .got           0x002a800c      0x1a0 /local/mnt/workspace/CRMBuilds/TZ.BF.4.0.3.c1-00005-M8996AAAAANAZT-1_20170110_230814/b/HK11/trustzone_images/core/securemsm/trustzone/qsapps/libs/applib/qsee/build/fidosui/scorpion/IADAANAA/src/tzapp_entry.o
 *(SORT(.igot))

.dynamic        0x002a9000       0x58
 *(SORT(.dynamic))
 .dynamic       0x002a9000       0x58 /local/mnt/workspace/CRMBuilds/TZ.BF.4.0.3.c1-00005-M8996AAAAANAZT-1_20170110_230814/b/HK11/trustzone_images/core/securemsm/trustzone/qsapps/libs/applib/qsee/build/fidosui/scorpion/IADAANAA/src/tzapp_entry.o
                0x002a9000                _DYNAMIC

.rel.dyn        0x002aa000      0x610
 *(SORT(.rel.dyn))
 .rel.got       0x002aa000      0x340 /local/mnt/workspace/CRMBuilds/TZ.BF.4.0.3.c1-00005-M8996AAAAANAZT-1_20170110_230814/b/HK11/trustzone_images/core/securemsm/trustzone/qsapps/libs/applib/qsee/build/fidosui/scorpion/IADAANAA/src/tzapp_entry.o
 .rel.iplt      0x00000000        0x0 /local/mnt/workspace/CRMBuilds/TZ.BF.4.0.3.c1-00005-M8996AAAAANAZT-1_20170110_230814/b/HK11/trustzone_images/core/securemsm/trustzone/qsapps/libs/applib/qsee/build/fidosui/scorpion/IADAANAA/src/tzapp_entry.o
 .relTZAPPENTRYCODE
                0x002aa340        0x8 /local/mnt/workspace/CRMBuilds/TZ.BF.4.0.3.c1-00005-M8996AAAAANAZT-1_20170110_230814/b/HK11/trustzone_images/core/securemsm/trustzone/qsapps/libs/applib/qsee/build/fidosui/scorpion/IADAANAA/src/tzapp_entry.o
 .rel.data.rel.local
                0x002aa348       0xc0 /local/mnt/workspace/CRMBuilds/TZ.BF.4.0.3.c1-00005-M8996AAAAANAZT-1_20170110_230814/b/HK11/trustzone_images/core/securemsm/trustzone/qsapps/libs/applib/qsee/build/fidosui/scorpion/IADAANAA/src/tzapp_entry.o
 .rel.data.rel.ro.local
                0x002aa408      0x170 /local/mnt/workspace/CRMBuilds/TZ.BF.4.0.3.c1-00005-M8996AAAAANAZT-1_20170110_230814/b/HK11/trustzone_images/core/securemsm/trustzone/qsapps/libs/applib/qsee/build/fidosui/scorpion/IADAANAA/src/tzapp_entry.o
 .rel.data.rel  0x002aa578       0x70 /local/mnt/workspace/CRMBuilds/TZ.BF.4.0.3.c1-00005-M8996AAAAANAZT-1_20170110_230814/b/HK11/trustzone_images/core/securemsm/trustzone/qsapps/libs/applib/qsee/build/fidosui/scorpion/IADAANAA/src/tzapp_entry.o
 .rel.data.rel.ro
                0x002aa5e8       0x28 /local/mnt/workspace/CRMBuilds/TZ.BF.4.0.3.c1-00005-M8996AAAAANAZT-1_20170110_230814/b/HK11/trustzone_images/core/securemsm/trustzone/qsapps/libs/applib/qsee/build/fidosui/scorpion/IADAANAA/src/tzapp_entry.o

.gnu.attributes
 *(SORT(.gnu.attributes))

.note.gnu.arm.ident
 *(SORT(.note.gnu.arm.ident))

/DISCARD/
 *(SORT(.hash))
 *(SORT(.dynsym))
 *(SORT(.dynstr))
 *(SORT(.ARM.exidx*))
 *(SORT(.note.GNU-stack))
 *(SORT(.gnu_debuglink))
 *(SORT(.gnu.lto_*))
 *(SORT(.init))
 *(SORT(.fini))
START GROUP
LOAD /local/mnt/workspace/CRMBuilds/TZ.BF.4.0.3.c1-00005-M8996AAAAANAZT-1_20170110_230814/b/HK11/trustzone_images/core/kernel/libstd/build/fidosui/scorpion/IADAANAA/libstd.lib
LOAD /local/mnt/workspace/CRMBuilds/TZ.BF.4.0.3.c1-00005-M8996AAAAANAZT-1_20170110_230814/b/HK11/trustzone_images/core/securemsm/sse/SecureTouch/controller/build/fidosui/scorpion/IADAANAA/drts_controller_msm8996.lib
LOAD /local/mnt/workspace/CRMBuilds/TZ.BF.4.0.3.c1-00005-M8996AAAAANAZT-1_20170110_230814/b/HK11/trustzone_images/core/securemsm/sse/SecureTouch/layout/build/fidosui/scorpion/IADAANAA/sklayout.lib
LOAD /local/mnt/workspace/CRMBuilds/TZ.BF.4.0.3.c1-00005-M8996AAAAANAZT-1_20170110_230814/b/HK11/trustzone_images/core/securemsm/sse/log/build/fidosui/scorpion/IADAANAA/sselog.lib
LOAD /local/mnt/workspace/CRMBuilds/TZ.BF.4.0.3.c1-00005-M8996AAAAANAZT-1_20170110_230814/b/HK11/trustzone_images/core/securemsm/sse/qsee/SecureDisplay/libgd/build/fidosui/scorpion/IADAANAA/libgd.lib
LOAD /local/mnt/workspace/CRMBuilds/TZ.BF.4.0.3.c1-00005-M8996AAAAANAZT-1_20170110_230814/b/HK11/trustzone_images/core/securemsm/sse/qsee/SecureDisplay/libpng/build/fidosui/scorpion/IADAANAA/libpng.lib
LOAD /local/mnt/workspace/CRMBuilds/TZ.BF.4.0.3.c1-00005-M8996AAAAANAZT-1_20170110_230814/b/HK11/trustzone_images/core/securemsm/sse/qsee/SecureDisplay/zlib/build/fidosui/scorpion/IADAANAA/zlib.lib
LOAD /local/mnt/workspace/CRMBuilds/TZ.BF.4.0.3.c1-00005-M8996AAAAANAZT-1_20170110_230814/b/HK11/trustzone_images/core/securemsm/sse/qsee/SecureTouch/drTs/controller/build/fidosui/scorpion/IADAANAA/touch_controller_i2c_msm8996.lib
LOAD /local/mnt/workspace/CRMBuilds/TZ.BF.4.0.3.c1-00005-M8996AAAAANAZT-1_20170110_230814/b/HK11/trustzone_images/core/securemsm/sse/qsee/SecureTouch/drTs/lib/build/fidosui/scorpion/IADAANAA/touch_lib.lib
LOAD /local/mnt/workspace/CRMBuilds/TZ.BF.4.0.3.c1-00005-M8996AAAAANAZT-1_20170110_230814/b/HK11/trustzone_images/core/securemsm/sse/qsee/SecureUI/build/fidosui/scorpion/IADAANAA/secure_ui.lib
LOAD /local/mnt/workspace/CRMBuilds/TZ.BF.4.0.3.c1-00005-M8996AAAAANAZT-1_20170110_230814/b/HK11/trustzone_images/core/securemsm/sse/qsee/SecureUI/build/fidosui/scorpion/IADAANAA/secure_ui_tui.lib
LOAD /local/mnt/workspace/CRMBuilds/TZ.BF.4.0.3.c1-00005-M8996AAAAANAZT-1_20170110_230814/b/HK11/trustzone_images/core/securemsm/sse/qsee/SecureUILib/lib/build/fidosui/scorpion/IADAANAA/secure_ui_lib.lib
LOAD /local/mnt/workspace/CRMBuilds/TZ.BF.4.0.3.c1-00005-M8996AAAAANAZT-1_20170110_230814/b/HK11/trustzone_images/core/securemsm/trustzone/qsapps/libs/applib/common_applib/build/fidosui/scorpion/IADAANAA/tzapp_entrylib.lib
LOAD /local/mnt/workspace/CRMBuilds/TZ.BF.4.0.3.c1-00005-M8996AAAAANAZT-1_20170110_230814/b/HK11/trustzone_images/core/securemsm/trustzone/qsapps/libs/applib/proxy/build/fidosui/scorpion/IADAANAA/tzlib_proxy.lib
LOAD /local/mnt/workspace/CRMBuilds/TZ.BF.4.0.3.c1-00005-M8996AAAAANAZT-1_20170110_230814/b/HK11/trustzone_images/core/securemsm/trustzone/qsapps/libs/applib/qsee/build/fidosui/scorpion/IADAANAA/tzapp_entrylib.lib
LOAD /afs/localcell/cm/gv2.6/sysname/pkg.@sys/qct/software/llvm/release/arm/3.5.2.4/tools/lib32/lib/libc.a
LOAD /afs/localcell/cm/gv2.6/sysname/pkg.@sys/qct/software/llvm/release/arm/3.5.2.4/lib/clang/3.5.2/lib/linux/libclang_rt.builtins-arm.a
LOAD /local/mnt/workspace/CRMBuilds/TZ.BF.4.0.3.c1-00005-M8996AAAAANAZT-1_20170110_230814/b/HK11/trustzone_images/apps/securemsm/trustzone/qsapps/fidosui/app/build/fidosui/scorpion/IADAANAA/fidosui_app.lib
LOAD /local/mnt/workspace/CRMBuilds/TZ.BF.4.0.3.c1-00005-M8996AAAAANAZT-1_20170110_230814/b/HK11/trustzone_images/apps/securemsm/trustzone/qsapps/fidosui/config/build/fidosui/scorpion/IADAANAA/fidosui_config.lib
LOAD /local/mnt/workspace/CRMBuilds/TZ.BF.4.0.3.c1-00005-M8996AAAAANAZT-1_20170110_230814/b/HK11/trustzone_images/apps/securemsm/trustzone/qsapps/fidosui/layouts/build/fidosui/scorpion/IADAANAA/secure_ui_layout.lib
LOAD /local/mnt/workspace/CRMBuilds/TZ.BF.4.0.3.c1-00005-M8996AAAAANAZT-1_20170110_230814/b/HK11/trustzone_images/apps/securemsm/trustzone/qsapps/fidosui/locale/build/fidosui/scorpion/IADAANAA/fidosui_locale.lib
LOAD /local/mnt/workspace/CRMBuilds/TZ.BF.4.0.3.c1-00005-M8996AAAAANAZT-1_20170110_230814/b/HK11/trustzone_images/core/securemsm/trustzone/qsapps/libs/applib/qsee/build/fidosui/scorpion/IADAANAA/src/tzapp_entry.o
LOAD /local/mnt/workspace/CRMBuilds/TZ.BF.4.0.3.c1-00005-M8996AAAAANAZT-1_20170110_230814/b/HK11/trustzone_images/apps/securemsm/trustzone/qsapps/fidosui/build/fidosui/scorpion/IADAANAA/metadata.o
LOAD /local/mnt/workspace/CRMBuilds/TZ.BF.4.0.3.c1-00005-M8996AAAAANAZT-1_20170110_230814/b/HK11/trustzone_images/apps/securemsm/trustzone/qsapps/fidosui/ipc/build/fidosui/scorpion/IADAANAA/src/CFidoSuiToken.o
END GROUP
OUTPUT(/local/mnt/workspace/CRMBuilds/TZ.BF.4.0.3.c1-00005-M8996AAAAANAZT-1_20170110_230814/b/HK11/trustzone_images/apps/bsp/trustzone/qsapps/fidosui/build/IADAANAA/fidosui.elf elf32-littlearm)

.ARM.attributes
                0x00000000       0x3d
 .ARM.attributes
                0x00000000       0x37 /local/mnt/workspace/CRMBuilds/TZ.BF.4.0.3.c1-00005-M8996AAAAANAZT-1_20170110_230814/b/HK11/trustzone_images/apps/securemsm/trustzone/qsapps/fidosui/build/fidosui/scorpion/IADAANAA/metadata.o
 .ARM.attributes
                0x00000037       0x37 /local/mnt/workspace/CRMBuilds/TZ.BF.4.0.3.c1-00005-M8996AAAAANAZT-1_20170110_230814/b/HK11/trustzone_images/apps/securemsm/trustzone/qsapps/fidosui/ipc/build/fidosui/scorpion/IADAANAA/src/CFidoSuiToken.o
 .ARM.attributes
                0x0000006e       0x37 /local/mnt/workspace/CRMBuilds/TZ.BF.4.0.3.c1-00005-M8996AAAAANAZT-1_20170110_230814/b/HK11/trustzone_images/core/kernel/libstd/build/fidosui/scorpion/IADAANAA/libstd.lib(memscpy.o)
 .ARM.attributes
                0x000000a5       0x37 /local/mnt/workspace/CRMBuilds/TZ.BF.4.0.3.c1-00005-M8996AAAAANAZT-1_20170110_230814/b/HK11/trustzone_images/core/securemsm/trustzone/qsapps/libs/applib/common_applib/build/fidosui/scorpion/IADAANAA/tzapp_entrylib.lib(common_applib.o)
 .ARM.attributes
                0x000000dc       0x37 /local/mnt/workspace/CRMBuilds/TZ.BF.4.0.3.c1-00005-M8996AAAAANAZT-1_20170110_230814/b/HK11/trustzone_images/core/securemsm/trustzone/qsapps/libs/applib/proxy/build/fidosui/scorpion/IADAANAA/tzlib_proxy.lib(prxy_services.o)
 .ARM.attributes
                0x00000113       0x37 /local/mnt/workspace/CRMBuilds/TZ.BF.4.0.3.c1-00005-M8996AAAAANAZT-1_20170110_230814/b/HK11/trustzone_images/core/securemsm/trustzone/qsapps/libs/applib/qsee/build/fidosui/scorpion/IADAANAA/tzapp_entrylib.lib(mink_shared_code.o)
 .ARM.attributes
                0x0000014a       0x37 /local/mnt/workspace/CRMBuilds/TZ.BF.4.0.3.c1-00005-M8996AAAAANAZT-1_20170110_230814/b/HK11/trustzone_images/core/securemsm/trustzone/qsapps/libs/applib/qsee/build/fidosui/scorpion/IADAANAA/tzapp_entrylib.lib(qsee_env.o)
 .ARM.attributes
                0x00000181       0x37 /local/mnt/workspace/CRMBuilds/TZ.BF.4.0.3.c1-00005-M8996AAAAANAZT-1_20170110_230814/b/HK11/trustzone_images/core/securemsm/trustzone/qsapps/libs/applib/qsee/build/fidosui/scorpion/IADAANAA/tzapp_entrylib.lib(qsee_prng.o)
 .ARM.attributes
                0x000001b8       0x37 /local/mnt/workspace/CRMBuilds/TZ.BF.4.0.3.c1-00005-M8996AAAAANAZT-1_20170110_230814/b/HK11/trustzone_images/core/securemsm/trustzone/qsapps/libs/applib/qsee/build/fidosui/scorpion/IADAANAA/tzapp_entrylib.lib(tzapp_lib_main.o)
 .ARM.attributes
                0x000001ef       0x12 /local/mnt/workspace/CRMBuilds/TZ.BF.4.0.3.c1-00005-M8996AAAAANAZT-1_20170110_230814/b/HK11/trustzone_images/core/securemsm/trustzone/qsapps/libs/applib/qsee/build/fidosui/scorpion/IADAANAA/tzapp_entrylib.lib(kthread_shared.o)
 .ARM.attributes
                0x00000201       0x39 /afs/localcell/cm/gv2.6/sysname/pkg.@sys/qct/software/llvm/release/arm/3.5.2.4/tools/lib32/lib/libc.a(vsnprintf.o)
 .ARM.attributes
                0x0000023a       0x1f /afs/localcell/cm/gv2.6/sysname/pkg.@sys/qct/software/llvm/release/arm/3.5.2.4/tools/lib32/lib/libc.a(memcpy.o)
 .ARM.attributes
                0x00000259       0x39 /afs/localcell/cm/gv2.6/sysname/pkg.@sys/qct/software/llvm/release/arm/3.5.2.4/tools/lib32/lib/libc.a(strlen.o)
 .ARM.attributes
                0x00000292       0x39 /afs/localcell/cm/gv2.6/sysname/pkg.@sys/qct/software/llvm/release/arm/3.5.2.4/tools/lib32/lib/libc.a(__errno_location.o)
 .ARM.attributes
                0x000002cb       0x39 /afs/localcell/cm/gv2.6/sysname/pkg.@sys/qct/software/llvm/release/arm/3.5.2.4/tools/lib32/lib/libc.a(libc.o)
 .ARM.attributes
                0x00000304       0x39 /afs/localcell/cm/gv2.6/sysname/pkg.@sys/qct/software/llvm/release/arm/3.5.2.4/tools/lib32/lib/libc.a(vfprintf.o)
 .ARM.attributes
                0x0000033d       0x39 /afs/localcell/cm/gv2.6/sysname/pkg.@sys/qct/software/llvm/release/arm/3.5.2.4/tools/lib32/lib/libc.a(memchr.o)
 .ARM.attributes
                0x00000376       0x39 /afs/localcell/cm/gv2.6/sysname/pkg.@sys/qct/software/llvm/release/arm/3.5.2.4/tools/lib32/lib/libc.a(memset.o)
 .ARM.attributes
                0x000003af       0x39 /afs/localcell/cm/gv2.6/sysname/pkg.@sys/qct/software/llvm/release/arm/3.5.2.4/tools/lib32/lib/libc.a(strerror.o)
 .ARM.attributes
                0x000003e8       0x39 /afs/localcell/cm/gv2.6/sysname/pkg.@sys/qct/software/llvm/release/arm/3.5.2.4/tools/lib32/lib/libc.a(__lctrans.o)
 .ARM.attributes
                0x00000421       0x39 /afs/localcell/cm/gv2.6/sysname/pkg.@sys/qct/software/llvm/release/arm/3.5.2.4/tools/lib32/lib/libc.a(frexpl.o)
 .ARM.attributes
                0x0000045a       0x39 /afs/localcell/cm/gv2.6/sysname/pkg.@sys/qct/software/llvm/release/arm/3.5.2.4/tools/lib32/lib/libc.a(wctomb.o)
 .ARM.attributes
                0x00000493       0x39 /afs/localcell/cm/gv2.6/sysname/pkg.@sys/qct/software/llvm/release/arm/3.5.2.4/tools/lib32/lib/libc.a(__lockfile.o)
 .ARM.attributes
                0x000004cc       0x39 /afs/localcell/cm/gv2.6/sysname/pkg.@sys/qct/software/llvm/release/arm/3.5.2.4/tools/lib32/lib/libc.a(fwrite.o)
 .ARM.attributes
                0x00000505       0x39 /afs/localcell/cm/gv2.6/sysname/pkg.@sys/qct/software/llvm/release/arm/3.5.2.4/tools/lib32/lib/libc.a(__wait.o)
 .ARM.attributes
                0x0000053e       0x1f /afs/localcell/cm/gv2.6/sysname/pkg.@sys/qct/software/llvm/release/arm/3.5.2.4/tools/lib32/lib/libc.a(syscall.o)
 .ARM.attributes
                0x0000055d       0x39 /afs/localcell/cm/gv2.6/sysname/pkg.@sys/qct/software/llvm/release/arm/3.5.2.4/tools/lib32/lib/libc.a(frexp.o)
 .ARM.attributes
                0x00000596       0x39 /afs/localcell/cm/gv2.6/sysname/pkg.@sys/qct/software/llvm/release/arm/3.5.2.4/tools/lib32/lib/libc.a(wcrtomb.o)
 .ARM.attributes
                0x000005cf       0x39 /afs/localcell/cm/gv2.6/sysname/pkg.@sys/qct/software/llvm/release/arm/3.5.2.4/tools/lib32/lib/libc.a(__towrite.o)
 .ARM.attributes
                0x00000608       0x39 /afs/localcell/cm/gv2.6/sysname/pkg.@sys/qct/software/llvm/release/arm/3.5.2.4/tools/lib32/lib/libc.a(__stdio_exit.o)
 .ARM.attributes
                0x00000641       0x39 /afs/localcell/cm/gv2.6/sysname/pkg.@sys/qct/software/llvm/release/arm/3.5.2.4/tools/lib32/lib/libc.a(__lock.o)
 .ARM.attributes
                0x0000067a       0x2b /afs/localcell/cm/gv2.6/sysname/pkg.@sys/qct/software/llvm/release/arm/3.5.2.4/lib/clang/3.5.2/lib/linux/libclang_rt.builtins-arm.a(aeabi_memcpy.S.o)
 .ARM.attributes
                0x000006a5       0x2b /afs/localcell/cm/gv2.6/sysname/pkg.@sys/qct/software/llvm/release/arm/3.5.2.4/lib/clang/3.5.2/lib/linux/libclang_rt.builtins-arm.a(aeabi_memset.S.o)
 .ARM.attributes
                0x000006d0       0x2b /afs/localcell/cm/gv2.6/sysname/pkg.@sys/qct/software/llvm/release/arm/3.5.2.4/lib/clang/3.5.2/lib/linux/libclang_rt.builtins-arm.a(aeabi_uldivmod.S.o)
 .ARM.attributes
                0x000006fb       0x41 /afs/localcell/cm/gv2.6/sysname/pkg.@sys/qct/software/llvm/release/arm/3.5.2.4/lib/clang/3.5.2/lib/linux/libclang_rt.builtins-arm.a(udivmoddi4.c.o)
 .ARM.attributes
                0x0000073c       0x41 /afs/localcell/cm/gv2.6/sysname/pkg.@sys/qct/software/llvm/release/arm/3.5.2.4/lib/clang/3.5.2/lib/linux/libclang_rt.builtins-arm.a(udivsi3.c.o)
 .ARM.attributes
                0x0000077d       0x41 /afs/localcell/cm/gv2.6/sysname/pkg.@sys/qct/software/llvm/release/arm/3.5.2.4/lib/clang/3.5.2/lib/linux/libclang_rt.builtins-arm.a(umoddi3.c.o)
 .ARM.attributes
                0x000007be       0x41 /afs/localcell/cm/gv2.6/sysname/pkg.@sys/qct/software/llvm/release/arm/3.5.2.4/lib/clang/3.5.2/lib/linux/libclang_rt.builtins-arm.a(umodsi3.c.o)
 .ARM.attributes
                0x000007ff       0x37 /local/mnt/workspace/CRMBuilds/TZ.BF.4.0.3.c1-00005-M8996AAAAANAZT-1_20170110_230814/b/HK11/trustzone_images/apps/securemsm/trustzone/qsapps/fidosui/app/build/fidosui/scorpion/IADAANAA/fidosui_app.lib(app_main.o)
 .ARM.attributes
                0x00000836       0x37 /local/mnt/workspace/CRMBuilds/TZ.BF.4.0.3.c1-00005-M8996AAAAANAZT-1_20170110_230814/b/HK11/trustzone_images/apps/securemsm/trustzone/qsapps/fidosui/app/build/fidosui/scorpion/IADAANAA/fidosui_app.lib(01_Initialize.o)
 .ARM.attributes
                0x0000086d       0x37 /local/mnt/workspace/CRMBuilds/TZ.BF.4.0.3.c1-00005-M8996AAAAANAZT-1_20170110_230814/b/HK11/trustzone_images/apps/securemsm/trustzone/qsapps/fidosui/app/build/fidosui/scorpion/IADAANAA/fidosui_app.lib(08_ShowMessageSui.o)
 .ARM.attributes
                0x000008a4       0x37 /local/mnt/workspace/CRMBuilds/TZ.BF.4.0.3.c1-00005-M8996AAAAANAZT-1_20170110_230814/b/HK11/trustzone_images/apps/securemsm/trustzone/qsapps/fidosui/app/build/fidosui/scorpion/IADAANAA/fidosui_app.lib(fsSecureUI.o)
 .ARM.attributes
                0x000008db       0x37 /local/mnt/workspace/CRMBuilds/TZ.BF.4.0.3.c1-00005-M8996AAAAANAZT-1_20170110_230814/b/HK11/trustzone_images/apps/securemsm/trustzone/qsapps/fidosui/app/build/fidosui/scorpion/IADAANAA/fidosui_app.lib(fsLocale.o)
 .ARM.attributes
                0x00000912       0x37 /local/mnt/workspace/CRMBuilds/TZ.BF.4.0.3.c1-00005-M8996AAAAANAZT-1_20170110_230814/b/HK11/trustzone_images/apps/securemsm/trustzone/qsapps/fidosui/config/build/fidosui/scorpion/IADAANAA/fidosui_config.lib(config.o)
 .ARM.attributes
                0x00000949       0x37 /local/mnt/workspace/CRMBuilds/TZ.BF.4.0.3.c1-00005-M8996AAAAANAZT-1_20170110_230814/b/HK11/trustzone_images/apps/securemsm/trustzone/qsapps/fidosui/locale/build/fidosui/scorpion/IADAANAA/fidosui_locale.lib(locale.o)
 .ARM.attributes
                0x00000980       0x37 /local/mnt/workspace/CRMBuilds/TZ.BF.4.0.3.c1-00005-M8996AAAAANAZT-1_20170110_230814/b/HK11/trustzone_images/core/kernel/libstd/build/fidosui/scorpion/IADAANAA/libstd.lib(secure_memset.o)
 .ARM.attributes
                0x000009b7       0x37 /local/mnt/workspace/CRMBuilds/TZ.BF.4.0.3.c1-00005-M8996AAAAANAZT-1_20170110_230814/b/HK11/trustzone_images/core/securemsm/sse/log/build/fidosui/scorpion/IADAANAA/sselog.lib(sselog.o)
 .ARM.attributes
                0x000009ee       0x37 /local/mnt/workspace/CRMBuilds/TZ.BF.4.0.3.c1-00005-M8996AAAAANAZT-1_20170110_230814/b/HK11/trustzone_images/core/securemsm/sse/qsee/SecureUI/build/fidosui/scorpion/IADAANAA/secure_ui.lib(SecureUI.o)
 .ARM.attributes
                0x00000a25       0x37 /local/mnt/workspace/CRMBuilds/TZ.BF.4.0.3.c1-00005-M8996AAAAANAZT-1_20170110_230814/b/HK11/trustzone_images/core/securemsm/sse/qsee/SecureUI/build/fidosui/scorpion/IADAANAA/secure_ui_tui.lib(qsee_tui_dialogs.o)
 .ARM.attributes
                0x00000a5c       0x37 /local/mnt/workspace/CRMBuilds/TZ.BF.4.0.3.c1-00005-M8996AAAAANAZT-1_20170110_230814/b/HK11/trustzone_images/core/securemsm/sse/qsee/SecureUI/build/fidosui/scorpion/IADAANAA/secure_ui_tui.lib(layout_manager.o)
 .ARM.attributes
                0x00000a93       0x37 /local/mnt/workspace/CRMBuilds/TZ.BF.4.0.3.c1-00005-M8996AAAAANAZT-1_20170110_230814/b/HK11/trustzone_images/core/securemsm/sse/qsee/SecureUI/build/fidosui/scorpion/IADAANAA/secure_ui_tui.lib(secure_display_renderer.o)
 .ARM.attributes
                0x00000aca       0x37 /local/mnt/workspace/CRMBuilds/TZ.BF.4.0.3.c1-00005-M8996AAAAANAZT-1_20170110_230814/b/HK11/trustzone_images/core/securemsm/sse/qsee/SecureUI/build/fidosui/scorpion/IADAANAA/secure_ui_tui.lib(font_manager.o)
 .ARM.attributes
                0x00000b01       0x37 /local/mnt/workspace/CRMBuilds/TZ.BF.4.0.3.c1-00005-M8996AAAAANAZT-1_20170110_230814/b/HK11/trustzone_images/core/securemsm/sse/qsee/SecureUILib/lib/build/fidosui/scorpion/IADAANAA/secure_ui_lib.lib(SecureUILib.o)
 .ARM.attributes
                0x00000b38       0x37 /local/mnt/workspace/CRMBuilds/TZ.BF.4.0.3.c1-00005-M8996AAAAANAZT-1_20170110_230814/b/HK11/trustzone_images/core/securemsm/sse/qsee/SecureUILib/lib/build/fidosui/scorpion/IADAANAA/secure_ui_lib.lib(01_startTouch.o)
 .ARM.attributes
                0x00000b6f       0x37 /local/mnt/workspace/CRMBuilds/TZ.BF.4.0.3.c1-00005-M8996AAAAANAZT-1_20170110_230814/b/HK11/trustzone_images/core/securemsm/sse/qsee/SecureUILib/lib/build/fidosui/scorpion/IADAANAA/secure_ui_lib.lib(02_processTouch.o)
 .ARM.attributes
                0x00000ba6       0x37 /local/mnt/workspace/CRMBuilds/TZ.BF.4.0.3.c1-00005-M8996AAAAANAZT-1_20170110_230814/b/HK11/trustzone_images/core/securemsm/sse/qsee/SecureUILib/lib/build/fidosui/scorpion/IADAANAA/secure_ui_lib.lib(03_stopTouch.o)
 .ARM.attributes
                0x00000bdd       0x37 /local/mnt/workspace/CRMBuilds/TZ.BF.4.0.3.c1-00005-M8996AAAAANAZT-1_20170110_230814/b/HK11/trustzone_images/core/securemsm/sse/qsee/SecureUILib/lib/build/fidosui/scorpion/IADAANAA/secure_ui_lib.lib(04_prepareRequest.o)
 .ARM.attributes
                0x00000c14       0x37 /local/mnt/workspace/CRMBuilds/TZ.BF.4.0.3.c1-00005-M8996AAAAANAZT-1_20170110_230814/b/HK11/trustzone_images/core/securemsm/sse/qsee/SecureUILib/lib/build/fidosui/scorpion/IADAANAA/secure_ui_lib.lib(05_storeIndicator.o)
 .ARM.attributes
                0x00000c4b       0x37 /local/mnt/workspace/CRMBuilds/TZ.BF.4.0.3.c1-00005-M8996AAAAANAZT-1_20170110_230814/b/HK11/trustzone_images/core/securemsm/trustzone/qsapps/libs/applib/proxy/build/fidosui/scorpion/IADAANAA/tzlib_proxy.lib(prxy_qsee_shim.o)
 .ARM.attributes
                0x00000c82       0x37 /local/mnt/workspace/CRMBuilds/TZ.BF.4.0.3.c1-00005-M8996AAAAANAZT-1_20170110_230814/b/HK11/trustzone_images/core/securemsm/trustzone/qsapps/libs/applib/proxy/build/fidosui/scorpion/IADAANAA/tzlib_proxy.lib(prxy_ufdes.o)
 .ARM.attributes
                0x00000cb9       0x37 /local/mnt/workspace/CRMBuilds/TZ.BF.4.0.3.c1-00005-M8996AAAAANAZT-1_20170110_230814/b/HK11/trustzone_images/core/securemsm/trustzone/qsapps/libs/applib/proxy/build/fidosui/scorpion/IADAANAA/tzlib_proxy.lib(prxy_secmath.o)
 .ARM.attributes
                0x00000cf0       0x37 /local/mnt/workspace/CRMBuilds/TZ.BF.4.0.3.c1-00005-M8996AAAAANAZT-1_20170110_230814/b/HK11/trustzone_images/core/securemsm/trustzone/qsapps/libs/applib/proxy/build/fidosui/scorpion/IADAANAA/tzlib_proxy.lib(prxy_secrsa.o)
 .ARM.attributes
                0x00000d27       0x37 /local/mnt/workspace/CRMBuilds/TZ.BF.4.0.3.c1-00005-M8996AAAAANAZT-1_20170110_230814/b/HK11/trustzone_images/core/securemsm/trustzone/qsapps/libs/applib/proxy/build/fidosui/scorpion/IADAANAA/tzlib_proxy.lib(prxy_ecc.o)
 .ARM.attributes
                0x00000d5e       0x37 /local/mnt/workspace/CRMBuilds/TZ.BF.4.0.3.c1-00005-M8996AAAAANAZT-1_20170110_230814/b/HK11/trustzone_images/core/securemsm/trustzone/qsapps/libs/applib/qsee/build/fidosui/scorpion/IADAANAA/tzapp_entrylib.lib(qsee_secdisp.o)
 .ARM.attributes
                0x00000d95       0x37 /local/mnt/workspace/CRMBuilds/TZ.BF.4.0.3.c1-00005-M8996AAAAANAZT-1_20170110_230814/b/HK11/trustzone_images/core/securemsm/trustzone/qsapps/libs/applib/qsee/build/fidosui/scorpion/IADAANAA/tzapp_entrylib.lib(qsee_nsmem.o)
 .ARM.attributes
                0x00000dcc       0x37 /local/mnt/workspace/CRMBuilds/TZ.BF.4.0.3.c1-00005-M8996AAAAANAZT-1_20170110_230814/b/HK11/trustzone_images/core/securemsm/trustzone/qsapps/libs/applib/qsee/build/fidosui/scorpion/IADAANAA/tzapp_entrylib.lib(qsee_timer_shim.o)
 .ARM.attributes
                0x00000e03       0x37 /local/mnt/workspace/CRMBuilds/TZ.BF.4.0.3.c1-00005-M8996AAAAANAZT-1_20170110_230814/b/HK11/trustzone_images/core/securemsm/trustzone/qsapps/libs/applib/qsee/build/fidosui/scorpion/IADAANAA/tzapp_entrylib.lib(qsee_hash.o)
 .ARM.attributes
                0x00000e3a       0x37 /local/mnt/workspace/CRMBuilds/TZ.BF.4.0.3.c1-00005-M8996AAAAANAZT-1_20170110_230814/b/HK11/trustzone_images/core/securemsm/trustzone/qsapps/libs/applib/qsee/build/fidosui/scorpion/IADAANAA/tzapp_entrylib.lib(qsee_shared_buffer.o)
 .ARM.attributes
                0x00000e71       0x37 /local/mnt/workspace/CRMBuilds/TZ.BF.4.0.3.c1-00005-M8996AAAAANAZT-1_20170110_230814/b/HK11/trustzone_images/core/securemsm/trustzone/qsapps/libs/applib/qsee/build/fidosui/scorpion/IADAANAA/tzapp_entrylib.lib(qsee_appmessage.o)
 .ARM.attributes
                0x00000ea8       0x37 /local/mnt/workspace/CRMBuilds/TZ.BF.4.0.3.c1-00005-M8996AAAAANAZT-1_20170110_230814/b/HK11/trustzone_images/core/securemsm/trustzone/qsapps/libs/applib/qsee/build/fidosui/scorpion/IADAANAA/tzapp_entrylib.lib(sfs_api.o)
 .ARM.attributes
                0x00000edf       0x39 /afs/localcell/cm/gv2.6/sysname/pkg.@sys/qct/software/llvm/release/arm/3.5.2.4/tools/lib32/lib/libc.a(snprintf.o)
 .ARM.attributes
                0x00000f18       0x39 /afs/localcell/cm/gv2.6/sysname/pkg.@sys/qct/software/llvm/release/arm/3.5.2.4/tools/lib32/lib/libc.a(strcmp.o)
 .ARM.attributes
                0x00000f51       0x39 /afs/localcell/cm/gv2.6/sysname/pkg.@sys/qct/software/llvm/release/arm/3.5.2.4/tools/lib32/lib/libc.a(strlcpy.o)
 .ARM.attributes
                0x00000f8a       0x39 /afs/localcell/cm/gv2.6/sysname/pkg.@sys/qct/software/llvm/release/arm/3.5.2.4/tools/lib32/lib/libc.a(strncmp.o)
 .ARM.attributes
                0x00000fc3       0x2b /afs/localcell/cm/gv2.6/sysname/pkg.@sys/qct/software/llvm/release/arm/3.5.2.4/lib/clang/3.5.2/lib/linux/libclang_rt.builtins-arm.a(aeabi_dcmp.S.o)
 .ARM.attributes
                0x00000fee       0x41 /afs/localcell/cm/gv2.6/sysname/pkg.@sys/qct/software/llvm/release/arm/3.5.2.4/lib/clang/3.5.2/lib/linux/libclang_rt.builtins-arm.a(comparedf2.c.o)
 .ARM.attributes
                0x0000102f       0x41 /afs/localcell/cm/gv2.6/sysname/pkg.@sys/qct/software/llvm/release/arm/3.5.2.4/lib/clang/3.5.2/lib/linux/libclang_rt.builtins-arm.a(divdf3.c.o)
 .ARM.attributes
                0x00001070       0x41 /afs/localcell/cm/gv2.6/sysname/pkg.@sys/qct/software/llvm/release/arm/3.5.2.4/lib/clang/3.5.2/lib/linux/libclang_rt.builtins-arm.a(fixunsdfsi.c.o)
 .ARM.attributes
                0x000010b1       0x41 /afs/localcell/cm/gv2.6/sysname/pkg.@sys/qct/software/llvm/release/arm/3.5.2.4/lib/clang/3.5.2/lib/linux/libclang_rt.builtins-arm.a(floatunsidf.c.o)
 .ARM.attributes
                0x000010f2       0x41 /afs/localcell/cm/gv2.6/sysname/pkg.@sys/qct/software/llvm/release/arm/3.5.2.4/lib/clang/3.5.2/lib/linux/libclang_rt.builtins-arm.a(muldf3.c.o)
 .ARM.attributes
                0x00001133       0x37 /local/mnt/workspace/CRMBuilds/TZ.BF.4.0.3.c1-00005-M8996AAAAANAZT-1_20170110_230814/b/HK11/trustzone_images/apps/securemsm/trustzone/qsapps/fidosui/layouts/build/fidosui/scorpion/IADAANAA/secure_ui_layout.lib(layout_8996_fluid.o)
 .ARM.attributes
                0x0000116a       0x37 /local/mnt/workspace/CRMBuilds/TZ.BF.4.0.3.c1-00005-M8996AAAAANAZT-1_20170110_230814/b/HK11/trustzone_images/core/securemsm/sse/SecureTouch/layout/build/fidosui/scorpion/IADAANAA/sklayout.lib(layoutUtils.o)
 .ARM.attributes
                0x000011a1       0x37 /local/mnt/workspace/CRMBuilds/TZ.BF.4.0.3.c1-00005-M8996AAAAANAZT-1_20170110_230814/b/HK11/trustzone_images/core/securemsm/sse/qsee/SecureDisplay/libgd/build/fidosui/scorpion/IADAANAA/libgd.lib(gd.o)
 .ARM.attributes
                0x000011d8       0x37 /local/mnt/workspace/CRMBuilds/TZ.BF.4.0.3.c1-00005-M8996AAAAANAZT-1_20170110_230814/b/HK11/trustzone_images/core/securemsm/sse/qsee/SecureDisplay/libgd/build/fidosui/scorpion/IADAANAA/libgd.lib(gd_color.o)
 .ARM.attributes
                0x0000120f       0x37 /local/mnt/workspace/CRMBuilds/TZ.BF.4.0.3.c1-00005-M8996AAAAANAZT-1_20170110_230814/b/HK11/trustzone_images/core/securemsm/sse/qsee/SecureDisplay/libgd/build/fidosui/scorpion/IADAANAA/libgd.lib(gd_security.o)
 .ARM.attributes
                0x00001246       0x37 /local/mnt/workspace/CRMBuilds/TZ.BF.4.0.3.c1-00005-M8996AAAAANAZT-1_20170110_230814/b/HK11/trustzone_images/core/securemsm/sse/qsee/SecureDisplay/libgd/build/fidosui/scorpion/IADAANAA/libgd.lib(gdtables.o)
 .ARM.attributes
                0x0000127d       0x37 /local/mnt/workspace/CRMBuilds/TZ.BF.4.0.3.c1-00005-M8996AAAAANAZT-1_20170110_230814/b/HK11/trustzone_images/core/securemsm/sse/qsee/SecureDisplay/libpng/build/fidosui/scorpion/IADAANAA/libpng.lib(png.o)
 .ARM.attributes
                0x000012b4       0x37 /local/mnt/workspace/CRMBuilds/TZ.BF.4.0.3.c1-00005-M8996AAAAANAZT-1_20170110_230814/b/HK11/trustzone_images/core/securemsm/sse/qsee/SecureDisplay/libpng/build/fidosui/scorpion/IADAANAA/libpng.lib(pngerror.o)
 .ARM.attributes
                0x000012eb       0x37 /local/mnt/workspace/CRMBuilds/TZ.BF.4.0.3.c1-00005-M8996AAAAANAZT-1_20170110_230814/b/HK11/trustzone_images/core/securemsm/sse/qsee/SecureDisplay/libpng/build/fidosui/scorpion/IADAANAA/libpng.lib(pngget.o)
 .ARM.attributes
                0x00001322       0x37 /local/mnt/workspace/CRMBuilds/TZ.BF.4.0.3.c1-00005-M8996AAAAANAZT-1_20170110_230814/b/HK11/trustzone_images/core/securemsm/sse/qsee/SecureDisplay/libpng/build/fidosui/scorpion/IADAANAA/libpng.lib(pngmem.o)
 .ARM.attributes
                0x00001359       0x37 /local/mnt/workspace/CRMBuilds/TZ.BF.4.0.3.c1-00005-M8996AAAAANAZT-1_20170110_230814/b/HK11/trustzone_images/core/securemsm/sse/qsee/SecureDisplay/libpng/build/fidosui/scorpion/IADAANAA/libpng.lib(pngread.o)
 .ARM.attributes
                0x00001390       0x37 /local/mnt/workspace/CRMBuilds/TZ.BF.4.0.3.c1-00005-M8996AAAAANAZT-1_20170110_230814/b/HK11/trustzone_images/core/securemsm/sse/qsee/SecureDisplay/libpng/build/fidosui/scorpion/IADAANAA/libpng.lib(pngrio.o)
 .ARM.attributes
                0x000013c7       0x37 /local/mnt/workspace/CRMBuilds/TZ.BF.4.0.3.c1-00005-M8996AAAAANAZT-1_20170110_230814/b/HK11/trustzone_images/core/securemsm/sse/qsee/SecureDisplay/libpng/build/fidosui/scorpion/IADAANAA/libpng.lib(pngrutil.o)
 .ARM.attributes
                0x000013fe       0x37 /local/mnt/workspace/CRMBuilds/TZ.BF.4.0.3.c1-00005-M8996AAAAANAZT-1_20170110_230814/b/HK11/trustzone_images/core/securemsm/sse/qsee/SecureDisplay/libpng/build/fidosui/scorpion/IADAANAA/libpng.lib(pngset.o)
 .ARM.attributes
                0x00001435       0x37 /local/mnt/workspace/CRMBuilds/TZ.BF.4.0.3.c1-00005-M8996AAAAANAZT-1_20170110_230814/b/HK11/trustzone_images/core/securemsm/sse/qsee/SecureDisplay/zlib/build/fidosui/scorpion/IADAANAA/zlib.lib(crc32.o)
 .ARM.attributes
                0x0000146c       0x37 /local/mnt/workspace/CRMBuilds/TZ.BF.4.0.3.c1-00005-M8996AAAAANAZT-1_20170110_230814/b/HK11/trustzone_images/core/securemsm/sse/qsee/SecureDisplay/zlib/build/fidosui/scorpion/IADAANAA/zlib.lib(inflate.o)
 .ARM.attributes
                0x000014a3       0x37 /local/mnt/workspace/CRMBuilds/TZ.BF.4.0.3.c1-00005-M8996AAAAANAZT-1_20170110_230814/b/HK11/trustzone_images/core/securemsm/sse/qsee/SecureDisplay/zlib/build/fidosui/scorpion/IADAANAA/zlib.lib(inftrees.o)
 .ARM.attributes
                0x000014da       0x37 /local/mnt/workspace/CRMBuilds/TZ.BF.4.0.3.c1-00005-M8996AAAAANAZT-1_20170110_230814/b/HK11/trustzone_images/core/securemsm/sse/qsee/SecureDisplay/zlib/build/fidosui/scorpion/IADAANAA/zlib.lib(zutil.o)
 .ARM.attributes
                0x00001511       0x37 /local/mnt/workspace/CRMBuilds/TZ.BF.4.0.3.c1-00005-M8996AAAAANAZT-1_20170110_230814/b/HK11/trustzone_images/core/securemsm/sse/qsee/SecureDisplay/zlib/build/fidosui/scorpion/IADAANAA/zlib.lib(adler32.o)
 .ARM.attributes
                0x00001548       0x37 /local/mnt/workspace/CRMBuilds/TZ.BF.4.0.3.c1-00005-M8996AAAAANAZT-1_20170110_230814/b/HK11/trustzone_images/core/securemsm/sse/qsee/SecureDisplay/zlib/build/fidosui/scorpion/IADAANAA/zlib.lib(inffast.o)
 .ARM.attributes
                0x0000157f       0x37 /local/mnt/workspace/CRMBuilds/TZ.BF.4.0.3.c1-00005-M8996AAAAANAZT-1_20170110_230814/b/HK11/trustzone_images/core/securemsm/sse/qsee/SecureTouch/drTs/lib/build/fidosui/scorpion/IADAANAA/touch_lib.lib(01_open.o)
 .ARM.attributes
                0x000015b6       0x37 /local/mnt/workspace/CRMBuilds/TZ.BF.4.0.3.c1-00005-M8996AAAAANAZT-1_20170110_230814/b/HK11/trustzone_images/core/securemsm/sse/qsee/SecureTouch/drTs/lib/build/fidosui/scorpion/IADAANAA/touch_lib.lib(02_close.o)
 .ARM.attributes
                0x000015ed       0x37 /local/mnt/workspace/CRMBuilds/TZ.BF.4.0.3.c1-00005-M8996AAAAANAZT-1_20170110_230814/b/HK11/trustzone_images/core/securemsm/sse/qsee/SecureTouch/drTs/lib/build/fidosui/scorpion/IADAANAA/touch_lib.lib(03_getData.o)
 .ARM.attributes
                0x00001624       0x37 /local/mnt/workspace/CRMBuilds/TZ.BF.4.0.3.c1-00005-M8996AAAAANAZT-1_20170110_230814/b/HK11/trustzone_images/core/securemsm/trustzone/qsapps/libs/applib/common_applib/build/fidosui/scorpion/IADAANAA/tzapp_entrylib.lib(gpPersistObjCommon.o)
 .ARM.attributes
                0x0000165b       0x37 /local/mnt/workspace/CRMBuilds/TZ.BF.4.0.3.c1-00005-M8996AAAAANAZT-1_20170110_230814/b/HK11/trustzone_images/core/securemsm/trustzone/qsapps/libs/applib/common_applib/build/fidosui/scorpion/IADAANAA/tzapp_entrylib.lib(gpPersistentObjects.o)
 .ARM.attributes
                0x00001692       0x37 /local/mnt/workspace/CRMBuilds/TZ.BF.4.0.3.c1-00005-M8996AAAAANAZT-1_20170110_230814/b/HK11/trustzone_images/core/securemsm/trustzone/qsapps/libs/applib/common_applib/build/fidosui/scorpion/IADAANAA/tzapp_entrylib.lib(gpPersistObjData.o)
 .ARM.attributes
                0x000016c9       0x37 /local/mnt/workspace/CRMBuilds/TZ.BF.4.0.3.c1-00005-M8996AAAAANAZT-1_20170110_230814/b/HK11/trustzone_images/core/securemsm/trustzone/qsapps/libs/applib/common_applib/build/fidosui/scorpion/IADAANAA/tzapp_entrylib.lib(gpPersistObjHandler.o)
 .ARM.attributes
                0x00001700       0x37 /local/mnt/workspace/CRMBuilds/TZ.BF.4.0.3.c1-00005-M8996AAAAANAZT-1_20170110_230814/b/HK11/trustzone_images/core/securemsm/trustzone/qsapps/libs/applib/common_applib/build/fidosui/scorpion/IADAANAA/tzapp_entrylib.lib(gpPersistObjIndex.o)
 .ARM.attributes
                0x00001737       0x37 /local/mnt/workspace/CRMBuilds/TZ.BF.4.0.3.c1-00005-M8996AAAAANAZT-1_20170110_230814/b/HK11/trustzone_images/core/securemsm/trustzone/qsapps/libs/applib/common_applib/build/fidosui/scorpion/IADAANAA/tzapp_entrylib.lib(gpPersistObjVersion.o)
 .ARM.attributes
                0x0000176e       0x37 /local/mnt/workspace/CRMBuilds/TZ.BF.4.0.3.c1-00005-M8996AAAAANAZT-1_20170110_230814/b/HK11/trustzone_images/core/securemsm/trustzone/qsapps/libs/applib/common_applib/build/fidosui/scorpion/IADAANAA/tzapp_entrylib.lib(gpPersistObjCrypto.o)
 .ARM.attributes
                0x000017a5       0x37 /local/mnt/workspace/CRMBuilds/TZ.BF.4.0.3.c1-00005-M8996AAAAANAZT-1_20170110_230814/b/HK11/trustzone_images/core/securemsm/trustzone/qsapps/libs/applib/common_applib/build/fidosui/scorpion/IADAANAA/tzapp_entrylib.lib(gpPersistObjFileIO.o)
 .ARM.attributes
                0x000017dc       0x37 /local/mnt/workspace/CRMBuilds/TZ.BF.4.0.3.c1-00005-M8996AAAAANAZT-1_20170110_230814/b/HK11/trustzone_images/core/securemsm/trustzone/qsapps/libs/applib/common_applib/build/fidosui/scorpion/IADAANAA/tzapp_entrylib.lib(gpFileService.o)
 .ARM.attributes
                0x00001813       0x37 /local/mnt/workspace/CRMBuilds/TZ.BF.4.0.3.c1-00005-M8996AAAAANAZT-1_20170110_230814/b/HK11/trustzone_images/core/securemsm/trustzone/qsapps/libs/applib/qsee/build/fidosui/scorpion/IADAANAA/tzapp_entrylib.lib(qsee_core_shim.o)
 .ARM.attributes
                0x0000184a       0x37 /local/mnt/workspace/CRMBuilds/TZ.BF.4.0.3.c1-00005-M8996AAAAANAZT-1_20170110_230814/b/HK11/trustzone_images/core/securemsm/trustzone/qsapps/libs/applib/qsee/build/fidosui/scorpion/IADAANAA/tzapp_entrylib.lib(stor.o)
 .ARM.attributes
                0x00001881       0x37 /local/mnt/workspace/CRMBuilds/TZ.BF.4.0.3.c1-00005-M8996AAAAANAZT-1_20170110_230814/b/HK11/trustzone_images/core/securemsm/trustzone/qsapps/libs/applib/qsee/build/fidosui/scorpion/IADAANAA/tzapp_entrylib.lib(stor_gpt.o)
 .ARM.attributes
                0x000018b8       0x37 /local/mnt/workspace/CRMBuilds/TZ.BF.4.0.3.c1-00005-M8996AAAAANAZT-1_20170110_230814/b/HK11/trustzone_images/core/securemsm/trustzone/qsapps/libs/applib/qsee/build/fidosui/scorpion/IADAANAA/tzapp_entrylib.lib(stor_rpmbw.o)
 .ARM.attributes
                0x000018ef       0x37 /local/mnt/workspace/CRMBuilds/TZ.BF.4.0.3.c1-00005-M8996AAAAANAZT-1_20170110_230814/b/HK11/trustzone_images/core/securemsm/trustzone/qsapps/libs/applib/qsee/build/fidosui/scorpion/IADAANAA/tzapp_entrylib.lib(qsee_cfg_prop_shim.o)
 .ARM.attributes
                0x00001926       0x37 /local/mnt/workspace/CRMBuilds/TZ.BF.4.0.3.c1-00005-M8996AAAAANAZT-1_20170110_230814/b/HK11/trustzone_images/core/securemsm/trustzone/qsapps/libs/applib/qsee/build/fidosui/scorpion/IADAANAA/tzapp_entrylib.lib(qsee_cipher.o)
 .ARM.attributes
                0x0000195d       0x37 /local/mnt/workspace/CRMBuilds/TZ.BF.4.0.3.c1-00005-M8996AAAAANAZT-1_20170110_230814/b/HK11/trustzone_images/core/securemsm/trustzone/qsapps/libs/applib/qsee/build/fidosui/scorpion/IADAANAA/tzapp_entrylib.lib(qsee_hmac.o)
 .ARM.attributes
                0x00001994       0x37 /local/mnt/workspace/CRMBuilds/TZ.BF.4.0.3.c1-00005-M8996AAAAANAZT-1_20170110_230814/b/HK11/trustzone_images/core/securemsm/trustzone/qsapps/libs/applib/qsee/build/fidosui/scorpion/IADAANAA/tzapp_entrylib.lib(gpPersistObjPanic.o)
 .ARM.attributes
                0x000019cb       0x39 /afs/localcell/cm/gv2.6/sysname/pkg.@sys/qct/software/llvm/release/arm/3.5.2.4/tools/lib32/lib/libc.a(abort.o)
 .ARM.attributes
                0x00001a04       0x39 /afs/localcell/cm/gv2.6/sysname/pkg.@sys/qct/software/llvm/release/arm/3.5.2.4/tools/lib32/lib/libc.a(atan2.o)
 .ARM.attributes
                0x00001a3d       0x39 /afs/localcell/cm/gv2.6/sysname/pkg.@sys/qct/software/llvm/release/arm/3.5.2.4/tools/lib32/lib/libc.a(cos.o)
 .ARM.attributes
                0x00001a76       0x39 /afs/localcell/cm/gv2.6/sysname/pkg.@sys/qct/software/llvm/release/arm/3.5.2.4/tools/lib32/lib/libc.a(fabs.o)
 .ARM.attributes
                0x00001aaf       0x39 /afs/localcell/cm/gv2.6/sysname/pkg.@sys/qct/software/llvm/release/arm/3.5.2.4/tools/lib32/lib/libc.a(floor.o)
 .ARM.attributes
                0x00001ae8       0x39 /afs/localcell/cm/gv2.6/sysname/pkg.@sys/qct/software/llvm/release/arm/3.5.2.4/tools/lib32/lib/libc.a(sin.o)
 .ARM.attributes
                0x00001b21       0x39 /afs/localcell/cm/gv2.6/sysname/pkg.@sys/qct/software/llvm/release/arm/3.5.2.4/tools/lib32/lib/libc.a(sqrt.o)
 .ARM.attributes
                0x00001b5a       0x39 /afs/localcell/cm/gv2.6/sysname/pkg.@sys/qct/software/llvm/release/arm/3.5.2.4/tools/lib32/lib/libc.a(raise.o)
 .ARM.attributes
                0x00001b93       0x39 /afs/localcell/cm/gv2.6/sysname/pkg.@sys/qct/software/llvm/release/arm/3.5.2.4/tools/lib32/lib/libc.a(fflush.o)
 .ARM.attributes
                0x00001bcc       0x39 /afs/localcell/cm/gv2.6/sysname/pkg.@sys/qct/software/llvm/release/arm/3.5.2.4/tools/lib32/lib/libc.a(stderr.o)
 .ARM.attributes
                0x00001c05       0x39 /afs/localcell/cm/gv2.6/sysname/pkg.@sys/qct/software/llvm/release/arm/3.5.2.4/tools/lib32/lib/libc.a(memcmp.o)
 .ARM.attributes
                0x00001c3e       0x39 /afs/localcell/cm/gv2.6/sysname/pkg.@sys/qct/software/llvm/release/arm/3.5.2.4/tools/lib32/lib/libc.a(strlcat.o)
 .ARM.attributes
                0x00001c77       0x39 /afs/localcell/cm/gv2.6/sysname/pkg.@sys/qct/software/llvm/release/arm/3.5.2.4/tools/lib32/lib/libc.a(strnlen.o)
 .ARM.attributes
                0x00001cb0       0x39 /afs/localcell/cm/gv2.6/sysname/pkg.@sys/qct/software/llvm/release/arm/3.5.2.4/tools/lib32/lib/libc.a(syscall_ret.o)
 .ARM.attributes
                0x00001ce9       0x39 /afs/localcell/cm/gv2.6/sysname/pkg.@sys/qct/software/llvm/release/arm/3.5.2.4/tools/lib32/lib/libc.a(__cos.o)
 .ARM.attributes
                0x00001d22       0x39 /afs/localcell/cm/gv2.6/sysname/pkg.@sys/qct/software/llvm/release/arm/3.5.2.4/tools/lib32/lib/libc.a(__rem_pio2.o)
 .ARM.attributes
                0x00001d5b       0x39 /afs/localcell/cm/gv2.6/sysname/pkg.@sys/qct/software/llvm/release/arm/3.5.2.4/tools/lib32/lib/libc.a(__rem_pio2_large.o)
 .ARM.attributes
                0x00001d94       0x39 /afs/localcell/cm/gv2.6/sysname/pkg.@sys/qct/software/llvm/release/arm/3.5.2.4/tools/lib32/lib/libc.a(__sin.o)
 .ARM.attributes
                0x00001dcd       0x39 /afs/localcell/cm/gv2.6/sysname/pkg.@sys/qct/software/llvm/release/arm/3.5.2.4/tools/lib32/lib/libc.a(atan.o)
 .ARM.attributes
                0x00001e06       0x39 /afs/localcell/cm/gv2.6/sysname/pkg.@sys/qct/software/llvm/release/arm/3.5.2.4/tools/lib32/lib/libc.a(scalbn.o)
 .ARM.attributes
                0x00001e3f       0x39 /afs/localcell/cm/gv2.6/sysname/pkg.@sys/qct/software/llvm/release/arm/3.5.2.4/tools/lib32/lib/libc.a(block.o)
 .ARM.attributes
                0x00001e78       0x39 /afs/localcell/cm/gv2.6/sysname/pkg.@sys/qct/software/llvm/release/arm/3.5.2.4/tools/lib32/lib/libc.a(__stdio_close.o)
 .ARM.attributes
                0x00001eb1       0x39 /afs/localcell/cm/gv2.6/sysname/pkg.@sys/qct/software/llvm/release/arm/3.5.2.4/tools/lib32/lib/libc.a(__stdio_seek.o)
 .ARM.attributes
                0x00001eea       0x39 /afs/localcell/cm/gv2.6/sysname/pkg.@sys/qct/software/llvm/release/arm/3.5.2.4/tools/lib32/lib/libc.a(__stdio_write.o)
 .ARM.attributes
                0x00001f23       0x39 /afs/localcell/cm/gv2.6/sysname/pkg.@sys/qct/software/llvm/release/arm/3.5.2.4/tools/lib32/lib/libc.a(__syscall_cp.o)
 .ARM.attributes
                0x00001f5c       0x39 /afs/localcell/cm/gv2.6/sysname/pkg.@sys/qct/software/llvm/release/arm/3.5.2.4/tools/lib32/lib/libc.a(pthread_cleanup_push.o)
 .ARM.attributes
                0x00001f95       0x41 /afs/localcell/cm/gv2.6/sysname/pkg.@sys/qct/software/llvm/release/arm/3.5.2.4/lib/clang/3.5.2/lib/linux/libclang_rt.builtins-arm.a(adddf3.c.o)
 .ARM.attributes
                0x00001fd6       0x41 /afs/localcell/cm/gv2.6/sysname/pkg.@sys/qct/software/llvm/release/arm/3.5.2.4/lib/clang/3.5.2/lib/linux/libclang_rt.builtins-arm.a(divsf3.c.o)
 .ARM.attributes
                0x00002017       0x41 /afs/localcell/cm/gv2.6/sysname/pkg.@sys/qct/software/llvm/release/arm/3.5.2.4/lib/clang/3.5.2/lib/linux/libclang_rt.builtins-arm.a(extendsfdf2.c.o)
 .ARM.attributes
                0x00002058       0x41 /afs/localcell/cm/gv2.6/sysname/pkg.@sys/qct/software/llvm/release/arm/3.5.2.4/lib/clang/3.5.2/lib/linux/libclang_rt.builtins-arm.a(fixdfsi.c.o)
 .ARM.attributes
                0x00002099       0x41 /afs/localcell/cm/gv2.6/sysname/pkg.@sys/qct/software/llvm/release/arm/3.5.2.4/lib/clang/3.5.2/lib/linux/libclang_rt.builtins-arm.a(floatsidf.c.o)
 .ARM.attributes
                0x000020da       0x41 /afs/localcell/cm/gv2.6/sysname/pkg.@sys/qct/software/llvm/release/arm/3.5.2.4/lib/clang/3.5.2/lib/linux/libclang_rt.builtins-arm.a(floatsisf.c.o)
 .ARM.attributes
                0x0000211b       0x37 /local/mnt/workspace/CRMBuilds/TZ.BF.4.0.3.c1-00005-M8996AAAAANAZT-1_20170110_230814/b/HK11/trustzone_images/core/kernel/libstd/build/fidosui/scorpion/IADAANAA/libstd.lib(timesafe_memcmp.o)
 .ARM.attributes
                0x00002152       0x37 /local/mnt/workspace/CRMBuilds/TZ.BF.4.0.3.c1-00005-M8996AAAAANAZT-1_20170110_230814/b/HK11/trustzone_images/core/securemsm/sse/SecureTouch/controller/build/fidosui/scorpion/IADAANAA/drts_controller_msm8996.lib(atmel_mxt_ts.o)
 .ARM.attributes
                0x00002189       0x37 /local/mnt/workspace/CRMBuilds/TZ.BF.4.0.3.c1-00005-M8996AAAAANAZT-1_20170110_230814/b/HK11/trustzone_images/core/securemsm/sse/SecureTouch/controller/build/fidosui/scorpion/IADAANAA/drts_controller_msm8996.lib(synaptics_ts.o)
 .ARM.attributes
                0x000021c0       0x37 /local/mnt/workspace/CRMBuilds/TZ.BF.4.0.3.c1-00005-M8996AAAAANAZT-1_20170110_230814/b/HK11/trustzone_images/core/securemsm/sse/qsee/SecureTouch/drTs/controller/build/fidosui/scorpion/IADAANAA/touch_controller_i2c_msm8996.lib(atmel_mxt_ts_i2c.o)
 .ARM.attributes
                0x000021f7       0x37 /local/mnt/workspace/CRMBuilds/TZ.BF.4.0.3.c1-00005-M8996AAAAANAZT-1_20170110_230814/b/HK11/trustzone_images/core/securemsm/sse/qsee/SecureTouch/drTs/controller/build/fidosui/scorpion/IADAANAA/touch_controller_i2c_msm8996.lib(synaptics_ts_i2c.o)
 .ARM.attributes
                0x0000222e       0x37 /local/mnt/workspace/CRMBuilds/TZ.BF.4.0.3.c1-00005-M8996AAAAANAZT-1_20170110_230814/b/HK11/trustzone_images/core/securemsm/trustzone/qsapps/libs/applib/qsee/build/fidosui/scorpion/IADAANAA/tzapp_entrylib.lib(qsee_i2c.o)

.comment        0x00000000       0x44
 .comment       0x00000000       0x23 /local/mnt/workspace/CRMBuilds/TZ.BF.4.0.3.c1-00005-M8996AAAAANAZT-1_20170110_230814/b/HK11/trustzone_images/apps/securemsm/trustzone/qsapps/fidosui/build/fidosui/scorpion/IADAANAA/metadata.o
                                 0x24 (size before relaxing)
 .comment       0x00000000       0x24 /local/mnt/workspace/CRMBuilds/TZ.BF.4.0.3.c1-00005-M8996AAAAANAZT-1_20170110_230814/b/HK11/trustzone_images/apps/securemsm/trustzone/qsapps/fidosui/ipc/build/fidosui/scorpion/IADAANAA/src/CFidoSuiToken.o
 .comment       0x00000000       0x24 /local/mnt/workspace/CRMBuilds/TZ.BF.4.0.3.c1-00005-M8996AAAAANAZT-1_20170110_230814/b/HK11/trustzone_images/core/kernel/libstd/build/fidosui/scorpion/IADAANAA/libstd.lib(memscpy.o)
 .comment       0x00000000       0x24 /local/mnt/workspace/CRMBuilds/TZ.BF.4.0.3.c1-00005-M8996AAAAANAZT-1_20170110_230814/b/HK11/trustzone_images/core/securemsm/trustzone/qsapps/libs/applib/common_applib/build/fidosui/scorpion/IADAANAA/tzapp_entrylib.lib(common_applib.o)
 .comment       0x00000000       0x24 /local/mnt/workspace/CRMBuilds/TZ.BF.4.0.3.c1-00005-M8996AAAAANAZT-1_20170110_230814/b/HK11/trustzone_images/core/securemsm/trustzone/qsapps/libs/applib/proxy/build/fidosui/scorpion/IADAANAA/tzlib_proxy.lib(prxy_services.o)
 .comment       0x00000000       0x24 /local/mnt/workspace/CRMBuilds/TZ.BF.4.0.3.c1-00005-M8996AAAAANAZT-1_20170110_230814/b/HK11/trustzone_images/core/securemsm/trustzone/qsapps/libs/applib/qsee/build/fidosui/scorpion/IADAANAA/tzapp_entrylib.lib(mink_shared_code.o)
 .comment       0x00000000       0x24 /local/mnt/workspace/CRMBuilds/TZ.BF.4.0.3.c1-00005-M8996AAAAANAZT-1_20170110_230814/b/HK11/trustzone_images/core/securemsm/trustzone/qsapps/libs/applib/qsee/build/fidosui/scorpion/IADAANAA/tzapp_entrylib.lib(qsee_env.o)
 .comment       0x00000000       0x24 /local/mnt/workspace/CRMBuilds/TZ.BF.4.0.3.c1-00005-M8996AAAAANAZT-1_20170110_230814/b/HK11/trustzone_images/core/securemsm/trustzone/qsapps/libs/applib/qsee/build/fidosui/scorpion/IADAANAA/tzapp_entrylib.lib(qsee_prng.o)
 .comment       0x00000000       0x24 /local/mnt/workspace/CRMBuilds/TZ.BF.4.0.3.c1-00005-M8996AAAAANAZT-1_20170110_230814/b/HK11/trustzone_images/core/securemsm/trustzone/qsapps/libs/applib/qsee/build/fidosui/scorpion/IADAANAA/tzapp_entrylib.lib(tzapp_lib_main.o)
 .comment       0x00000023       0x21 /afs/localcell/cm/gv2.6/sysname/pkg.@sys/qct/software/llvm/release/arm/3.5.2.4/tools/lib32/lib/libc.a(vsnprintf.o)
                                 0x22 (size before relaxing)
 .comment       0x00000000       0x22 /afs/localcell/cm/gv2.6/sysname/pkg.@sys/qct/software/llvm/release/arm/3.5.2.4/tools/lib32/lib/libc.a(strlen.o)
 .comment       0x00000000       0x22 /afs/localcell/cm/gv2.6/sysname/pkg.@sys/qct/software/llvm/release/arm/3.5.2.4/tools/lib32/lib/libc.a(__errno_location.o)
 .comment       0x00000000       0x22 /afs/localcell/cm/gv2.6/sysname/pkg.@sys/qct/software/llvm/release/arm/3.5.2.4/tools/lib32/lib/libc.a(libc.o)
 .comment       0x00000000       0x22 /afs/localcell/cm/gv2.6/sysname/pkg.@sys/qct/software/llvm/release/arm/3.5.2.4/tools/lib32/lib/libc.a(vfprintf.o)
 .comment       0x00000000       0x22 /afs/localcell/cm/gv2.6/sysname/pkg.@sys/qct/software/llvm/release/arm/3.5.2.4/tools/lib32/lib/libc.a(memchr.o)
 .comment       0x00000000       0x22 /afs/localcell/cm/gv2.6/sysname/pkg.@sys/qct/software/llvm/release/arm/3.5.2.4/tools/lib32/lib/libc.a(memset.o)
 .comment       0x00000000       0x22 /afs/localcell/cm/gv2.6/sysname/pkg.@sys/qct/software/llvm/release/arm/3.5.2.4/tools/lib32/lib/libc.a(strerror.o)
 .comment       0x00000000       0x22 /afs/localcell/cm/gv2.6/sysname/pkg.@sys/qct/software/llvm/release/arm/3.5.2.4/tools/lib32/lib/libc.a(__lctrans.o)
 .comment       0x00000000       0x22 /afs/localcell/cm/gv2.6/sysname/pkg.@sys/qct/software/llvm/release/arm/3.5.2.4/tools/lib32/lib/libc.a(frexpl.o)
 .comment       0x00000000       0x22 /afs/localcell/cm/gv2.6/sysname/pkg.@sys/qct/software/llvm/release/arm/3.5.2.4/tools/lib32/lib/libc.a(wctomb.o)
 .comment       0x00000000       0x22 /afs/localcell/cm/gv2.6/sysname/pkg.@sys/qct/software/llvm/release/arm/3.5.2.4/tools/lib32/lib/libc.a(__lockfile.o)
 .comment       0x00000000       0x22 /afs/localcell/cm/gv2.6/sysname/pkg.@sys/qct/software/llvm/release/arm/3.5.2.4/tools/lib32/lib/libc.a(fwrite.o)
 .comment       0x00000000       0x22 /afs/localcell/cm/gv2.6/sysname/pkg.@sys/qct/software/llvm/release/arm/3.5.2.4/tools/lib32/lib/libc.a(__wait.o)
 .comment       0x00000000       0x22 /afs/localcell/cm/gv2.6/sysname/pkg.@sys/qct/software/llvm/release/arm/3.5.2.4/tools/lib32/lib/libc.a(frexp.o)
 .comment       0x00000000       0x22 /afs/localcell/cm/gv2.6/sysname/pkg.@sys/qct/software/llvm/release/arm/3.5.2.4/tools/lib32/lib/libc.a(wcrtomb.o)
 .comment       0x00000000       0x22 /afs/localcell/cm/gv2.6/sysname/pkg.@sys/qct/software/llvm/release/arm/3.5.2.4/tools/lib32/lib/libc.a(__towrite.o)
 .comment       0x00000000       0x22 /afs/localcell/cm/gv2.6/sysname/pkg.@sys/qct/software/llvm/release/arm/3.5.2.4/tools/lib32/lib/libc.a(__stdio_exit.o)
 .comment       0x00000000       0x22 /afs/localcell/cm/gv2.6/sysname/pkg.@sys/qct/software/llvm/release/arm/3.5.2.4/tools/lib32/lib/libc.a(__lock.o)
 .comment       0x00000000       0x24 /afs/localcell/cm/gv2.6/sysname/pkg.@sys/qct/software/llvm/release/arm/3.5.2.4/lib/clang/3.5.2/lib/linux/libclang_rt.builtins-arm.a(udivmoddi4.c.o)
 .comment       0x00000000       0x24 /afs/localcell/cm/gv2.6/sysname/pkg.@sys/qct/software/llvm/release/arm/3.5.2.4/lib/clang/3.5.2/lib/linux/libclang_rt.builtins-arm.a(udivsi3.c.o)
 .comment       0x00000000       0x24 /afs/localcell/cm/gv2.6/sysname/pkg.@sys/qct/software/llvm/release/arm/3.5.2.4/lib/clang/3.5.2/lib/linux/libclang_rt.builtins-arm.a(umoddi3.c.o)
 .comment       0x00000000       0x24 /afs/localcell/cm/gv2.6/sysname/pkg.@sys/qct/software/llvm/release/arm/3.5.2.4/lib/clang/3.5.2/lib/linux/libclang_rt.builtins-arm.a(umodsi3.c.o)
 .comment       0x00000000       0x24 /local/mnt/workspace/CRMBuilds/TZ.BF.4.0.3.c1-00005-M8996AAAAANAZT-1_20170110_230814/b/HK11/trustzone_images/apps/securemsm/trustzone/qsapps/fidosui/app/build/fidosui/scorpion/IADAANAA/fidosui_app.lib(app_main.o)
 .comment       0x00000000       0x24 /local/mnt/workspace/CRMBuilds/TZ.BF.4.0.3.c1-00005-M8996AAAAANAZT-1_20170110_230814/b/HK11/trustzone_images/apps/securemsm/trustzone/qsapps/fidosui/app/build/fidosui/scorpion/IADAANAA/fidosui_app.lib(01_Initialize.o)
 .comment       0x00000000       0x24 /local/mnt/workspace/CRMBuilds/TZ.BF.4.0.3.c1-00005-M8996AAAAANAZT-1_20170110_230814/b/HK11/trustzone_images/apps/securemsm/trustzone/qsapps/fidosui/app/build/fidosui/scorpion/IADAANAA/fidosui_app.lib(08_ShowMessageSui.o)
 .comment       0x00000000       0x24 /local/mnt/workspace/CRMBuilds/TZ.BF.4.0.3.c1-00005-M8996AAAAANAZT-1_20170110_230814/b/HK11/trustzone_images/apps/securemsm/trustzone/qsapps/fidosui/app/build/fidosui/scorpion/IADAANAA/fidosui_app.lib(fsSecureUI.o)
 .comment       0x00000000       0x24 /local/mnt/workspace/CRMBuilds/TZ.BF.4.0.3.c1-00005-M8996AAAAANAZT-1_20170110_230814/b/HK11/trustzone_images/apps/securemsm/trustzone/qsapps/fidosui/app/build/fidosui/scorpion/IADAANAA/fidosui_app.lib(fsLocale.o)
 .comment       0x00000000       0x24 /local/mnt/workspace/CRMBuilds/TZ.BF.4.0.3.c1-00005-M8996AAAAANAZT-1_20170110_230814/b/HK11/trustzone_images/apps/securemsm/trustzone/qsapps/fidosui/config/build/fidosui/scorpion/IADAANAA/fidosui_config.lib(config.o)
 .comment       0x00000000       0x24 /local/mnt/workspace/CRMBuilds/TZ.BF.4.0.3.c1-00005-M8996AAAAANAZT-1_20170110_230814/b/HK11/trustzone_images/apps/securemsm/trustzone/qsapps/fidosui/locale/build/fidosui/scorpion/IADAANAA/fidosui_locale.lib(locale.o)
 .comment       0x00000000       0x24 /local/mnt/workspace/CRMBuilds/TZ.BF.4.0.3.c1-00005-M8996AAAAANAZT-1_20170110_230814/b/HK11/trustzone_images/core/kernel/libstd/build/fidosui/scorpion/IADAANAA/libstd.lib(secure_memset.o)
 .comment       0x00000000       0x24 /local/mnt/workspace/CRMBuilds/TZ.BF.4.0.3.c1-00005-M8996AAAAANAZT-1_20170110_230814/b/HK11/trustzone_images/core/securemsm/sse/log/build/fidosui/scorpion/IADAANAA/sselog.lib(sselog.o)
 .comment       0x00000000       0x24 /local/mnt/workspace/CRMBuilds/TZ.BF.4.0.3.c1-00005-M8996AAAAANAZT-1_20170110_230814/b/HK11/trustzone_images/core/securemsm/sse/qsee/SecureUI/build/fidosui/scorpion/IADAANAA/secure_ui.lib(SecureUI.o)
 .comment       0x00000000       0x24 /local/mnt/workspace/CRMBuilds/TZ.BF.4.0.3.c1-00005-M8996AAAAANAZT-1_20170110_230814/b/HK11/trustzone_images/core/securemsm/sse/qsee/SecureUI/build/fidosui/scorpion/IADAANAA/secure_ui_tui.lib(qsee_tui_dialogs.o)
 .comment       0x00000000       0x24 /local/mnt/workspace/CRMBuilds/TZ.BF.4.0.3.c1-00005-M8996AAAAANAZT-1_20170110_230814/b/HK11/trustzone_images/core/securemsm/sse/qsee/SecureUI/build/fidosui/scorpion/IADAANAA/secure_ui_tui.lib(layout_manager.o)
 .comment       0x00000000       0x24 /local/mnt/workspace/CRMBuilds/TZ.BF.4.0.3.c1-00005-M8996AAAAANAZT-1_20170110_230814/b/HK11/trustzone_images/core/securemsm/sse/qsee/SecureUI/build/fidosui/scorpion/IADAANAA/secure_ui_tui.lib(secure_display_renderer.o)
 .comment       0x00000000       0x24 /local/mnt/workspace/CRMBuilds/TZ.BF.4.0.3.c1-00005-M8996AAAAANAZT-1_20170110_230814/b/HK11/trustzone_images/core/securemsm/sse/qsee/SecureUI/build/fidosui/scorpion/IADAANAA/secure_ui_tui.lib(font_manager.o)
 .comment       0x00000000       0x24 /local/mnt/workspace/CRMBuilds/TZ.BF.4.0.3.c1-00005-M8996AAAAANAZT-1_20170110_230814/b/HK11/trustzone_images/core/securemsm/sse/qsee/SecureUILib/lib/build/fidosui/scorpion/IADAANAA/secure_ui_lib.lib(SecureUILib.o)
 .comment       0x00000000       0x24 /local/mnt/workspace/CRMBuilds/TZ.BF.4.0.3.c1-00005-M8996AAAAANAZT-1_20170110_230814/b/HK11/trustzone_images/core/securemsm/sse/qsee/SecureUILib/lib/build/fidosui/scorpion/IADAANAA/secure_ui_lib.lib(01_startTouch.o)
 .comment       0x00000000       0x24 /local/mnt/workspace/CRMBuilds/TZ.BF.4.0.3.c1-00005-M8996AAAAANAZT-1_20170110_230814/b/HK11/trustzone_images/core/securemsm/sse/qsee/SecureUILib/lib/build/fidosui/scorpion/IADAANAA/secure_ui_lib.lib(02_processTouch.o)
 .comment       0x00000000       0x24 /local/mnt/workspace/CRMBuilds/TZ.BF.4.0.3.c1-00005-M8996AAAAANAZT-1_20170110_230814/b/HK11/trustzone_images/core/securemsm/sse/qsee/SecureUILib/lib/build/fidosui/scorpion/IADAANAA/secure_ui_lib.lib(03_stopTouch.o)
 .comment       0x00000000       0x24 /local/mnt/workspace/CRMBuilds/TZ.BF.4.0.3.c1-00005-M8996AAAAANAZT-1_20170110_230814/b/HK11/trustzone_images/core/securemsm/sse/qsee/SecureUILib/lib/build/fidosui/scorpion/IADAANAA/secure_ui_lib.lib(04_prepareRequest.o)
 .comment       0x00000000       0x24 /local/mnt/workspace/CRMBuilds/TZ.BF.4.0.3.c1-00005-M8996AAAAANAZT-1_20170110_230814/b/HK11/trustzone_images/core/securemsm/sse/qsee/SecureUILib/lib/build/fidosui/scorpion/IADAANAA/secure_ui_lib.lib(05_storeIndicator.o)
 .comment       0x00000000       0x24 /local/mnt/workspace/CRMBuilds/TZ.BF.4.0.3.c1-00005-M8996AAAAANAZT-1_20170110_230814/b/HK11/trustzone_images/core/securemsm/trustzone/qsapps/libs/applib/proxy/build/fidosui/scorpion/IADAANAA/tzlib_proxy.lib(prxy_qsee_shim.o)
 .comment       0x00000000       0x24 /local/mnt/workspace/CRMBuilds/TZ.BF.4.0.3.c1-00005-M8996AAAAANAZT-1_20170110_230814/b/HK11/trustzone_images/core/securemsm/trustzone/qsapps/libs/applib/proxy/build/fidosui/scorpion/IADAANAA/tzlib_proxy.lib(prxy_ufdes.o)
 .comment       0x00000000       0x24 /local/mnt/workspace/CRMBuilds/TZ.BF.4.0.3.c1-00005-M8996AAAAANAZT-1_20170110_230814/b/HK11/trustzone_images/core/securemsm/trustzone/qsapps/libs/applib/proxy/build/fidosui/scorpion/IADAANAA/tzlib_proxy.lib(prxy_secmath.o)
 .comment       0x00000000       0x24 /local/mnt/workspace/CRMBuilds/TZ.BF.4.0.3.c1-00005-M8996AAAAANAZT-1_20170110_230814/b/HK11/trustzone_images/core/securemsm/trustzone/qsapps/libs/applib/proxy/build/fidosui/scorpion/IADAANAA/tzlib_proxy.lib(prxy_secrsa.o)
 .comment       0x00000000       0x24 /local/mnt/workspace/CRMBuilds/TZ.BF.4.0.3.c1-00005-M8996AAAAANAZT-1_20170110_230814/b/HK11/trustzone_images/core/securemsm/trustzone/qsapps/libs/applib/proxy/build/fidosui/scorpion/IADAANAA/tzlib_proxy.lib(prxy_ecc.o)
 .comment       0x00000000       0x24 /local/mnt/workspace/CRMBuilds/TZ.BF.4.0.3.c1-00005-M8996AAAAANAZT-1_20170110_230814/b/HK11/trustzone_images/core/securemsm/trustzone/qsapps/libs/applib/qsee/build/fidosui/scorpion/IADAANAA/tzapp_entrylib.lib(qsee_secdisp.o)
 .comment       0x00000000       0x24 /local/mnt/workspace/CRMBuilds/TZ.BF.4.0.3.c1-00005-M8996AAAAANAZT-1_20170110_230814/b/HK11/trustzone_images/core/securemsm/trustzone/qsapps/libs/applib/qsee/build/fidosui/scorpion/IADAANAA/tzapp_entrylib.lib(qsee_nsmem.o)
 .comment       0x00000000       0x24 /local/mnt/workspace/CRMBuilds/TZ.BF.4.0.3.c1-00005-M8996AAAAANAZT-1_20170110_230814/b/HK11/trustzone_images/core/securemsm/trustzone/qsapps/libs/applib/qsee/build/fidosui/scorpion/IADAANAA/tzapp_entrylib.lib(qsee_timer_shim.o)
 .comment       0x00000000       0x24 /local/mnt/workspace/CRMBuilds/TZ.BF.4.0.3.c1-00005-M8996AAAAANAZT-1_20170110_230814/b/HK11/trustzone_images/core/securemsm/trustzone/qsapps/libs/applib/qsee/build/fidosui/scorpion/IADAANAA/tzapp_entrylib.lib(qsee_hash.o)
 .comment       0x00000000       0x24 /local/mnt/workspace/CRMBuilds/TZ.BF.4.0.3.c1-00005-M8996AAAAANAZT-1_20170110_230814/b/HK11/trustzone_images/core/securemsm/trustzone/qsapps/libs/applib/qsee/build/fidosui/scorpion/IADAANAA/tzapp_entrylib.lib(qsee_shared_buffer.o)
 .comment       0x00000000       0x24 /local/mnt/workspace/CRMBuilds/TZ.BF.4.0.3.c1-00005-M8996AAAAANAZT-1_20170110_230814/b/HK11/trustzone_images/core/securemsm/trustzone/qsapps/libs/applib/qsee/build/fidosui/scorpion/IADAANAA/tzapp_entrylib.lib(qsee_appmessage.o)
 .comment       0x00000000       0x24 /local/mnt/workspace/CRMBuilds/TZ.BF.4.0.3.c1-00005-M8996AAAAANAZT-1_20170110_230814/b/HK11/trustzone_images/core/securemsm/trustzone/qsapps/libs/applib/qsee/build/fidosui/scorpion/IADAANAA/tzapp_entrylib.lib(sfs_api.o)
 .comment       0x00000000       0x22 /afs/localcell/cm/gv2.6/sysname/pkg.@sys/qct/software/llvm/release/arm/3.5.2.4/tools/lib32/lib/libc.a(snprintf.o)
 .comment       0x00000000       0x22 /afs/localcell/cm/gv2.6/sysname/pkg.@sys/qct/software/llvm/release/arm/3.5.2.4/tools/lib32/lib/libc.a(strcmp.o)
 .comment       0x00000000       0x22 /afs/localcell/cm/gv2.6/sysname/pkg.@sys/qct/software/llvm/release/arm/3.5.2.4/tools/lib32/lib/libc.a(strlcpy.o)
 .comment       0x00000000       0x22 /afs/localcell/cm/gv2.6/sysname/pkg.@sys/qct/software/llvm/release/arm/3.5.2.4/tools/lib32/lib/libc.a(strncmp.o)
 .comment       0x00000000       0x24 /afs/localcell/cm/gv2.6/sysname/pkg.@sys/qct/software/llvm/release/arm/3.5.2.4/lib/clang/3.5.2/lib/linux/libclang_rt.builtins-arm.a(comparedf2.c.o)
 .comment       0x00000000       0x24 /afs/localcell/cm/gv2.6/sysname/pkg.@sys/qct/software/llvm/release/arm/3.5.2.4/lib/clang/3.5.2/lib/linux/libclang_rt.builtins-arm.a(divdf3.c.o)
 .comment       0x00000000       0x24 /afs/localcell/cm/gv2.6/sysname/pkg.@sys/qct/software/llvm/release/arm/3.5.2.4/lib/clang/3.5.2/lib/linux/libclang_rt.builtins-arm.a(fixunsdfsi.c.o)
 .comment       0x00000000       0x24 /afs/localcell/cm/gv2.6/sysname/pkg.@sys/qct/software/llvm/release/arm/3.5.2.4/lib/clang/3.5.2/lib/linux/libclang_rt.builtins-arm.a(floatunsidf.c.o)
 .comment       0x00000000       0x24 /afs/localcell/cm/gv2.6/sysname/pkg.@sys/qct/software/llvm/release/arm/3.5.2.4/lib/clang/3.5.2/lib/linux/libclang_rt.builtins-arm.a(muldf3.c.o)
 .comment       0x00000000       0x24 /local/mnt/workspace/CRMBuilds/TZ.BF.4.0.3.c1-00005-M8996AAAAANAZT-1_20170110_230814/b/HK11/trustzone_images/apps/securemsm/trustzone/qsapps/fidosui/layouts/build/fidosui/scorpion/IADAANAA/secure_ui_layout.lib(layout_8996_fluid.o)
 .comment       0x00000000       0x24 /local/mnt/workspace/CRMBuilds/TZ.BF.4.0.3.c1-00005-M8996AAAAANAZT-1_20170110_230814/b/HK11/trustzone_images/core/securemsm/sse/SecureTouch/layout/build/fidosui/scorpion/IADAANAA/sklayout.lib(layoutUtils.o)
 .comment       0x00000000       0x24 /local/mnt/workspace/CRMBuilds/TZ.BF.4.0.3.c1-00005-M8996AAAAANAZT-1_20170110_230814/b/HK11/trustzone_images/core/securemsm/sse/qsee/SecureDisplay/libgd/build/fidosui/scorpion/IADAANAA/libgd.lib(gd.o)
 .comment       0x00000000       0x24 /local/mnt/workspace/CRMBuilds/TZ.BF.4.0.3.c1-00005-M8996AAAAANAZT-1_20170110_230814/b/HK11/trustzone_images/core/securemsm/sse/qsee/SecureDisplay/libgd/build/fidosui/scorpion/IADAANAA/libgd.lib(gd_color.o)
 .comment       0x00000000       0x24 /local/mnt/workspace/CRMBuilds/TZ.BF.4.0.3.c1-00005-M8996AAAAANAZT-1_20170110_230814/b/HK11/trustzone_images/core/securemsm/sse/qsee/SecureDisplay/libgd/build/fidosui/scorpion/IADAANAA/libgd.lib(gd_security.o)
 .comment       0x00000000       0x24 /local/mnt/workspace/CRMBuilds/TZ.BF.4.0.3.c1-00005-M8996AAAAANAZT-1_20170110_230814/b/HK11/trustzone_images/core/securemsm/sse/qsee/SecureDisplay/libgd/build/fidosui/scorpion/IADAANAA/libgd.lib(gdtables.o)
 .comment       0x00000000       0x24 /local/mnt/workspace/CRMBuilds/TZ.BF.4.0.3.c1-00005-M8996AAAAANAZT-1_20170110_230814/b/HK11/trustzone_images/core/securemsm/sse/qsee/SecureDisplay/libpng/build/fidosui/scorpion/IADAANAA/libpng.lib(png.o)
 .comment       0x00000000       0x24 /local/mnt/workspace/CRMBuilds/TZ.BF.4.0.3.c1-00005-M8996AAAAANAZT-1_20170110_230814/b/HK11/trustzone_images/core/securemsm/sse/qsee/SecureDisplay/libpng/build/fidosui/scorpion/IADAANAA/libpng.lib(pngerror.o)
 .comment       0x00000000       0x24 /local/mnt/workspace/CRMBuilds/TZ.BF.4.0.3.c1-00005-M8996AAAAANAZT-1_20170110_230814/b/HK11/trustzone_images/core/securemsm/sse/qsee/SecureDisplay/libpng/build/fidosui/scorpion/IADAANAA/libpng.lib(pngget.o)
 .comment       0x00000000       0x24 /local/mnt/workspace/CRMBuilds/TZ.BF.4.0.3.c1-00005-M8996AAAAANAZT-1_20170110_230814/b/HK11/trustzone_images/core/securemsm/sse/qsee/SecureDisplay/libpng/build/fidosui/scorpion/IADAANAA/libpng.lib(pngmem.o)
 .comment       0x00000000       0x24 /local/mnt/workspace/CRMBuilds/TZ.BF.4.0.3.c1-00005-M8996AAAAANAZT-1_20170110_230814/b/HK11/trustzone_images/core/securemsm/sse/qsee/SecureDisplay/libpng/build/fidosui/scorpion/IADAANAA/libpng.lib(pngread.o)
 .comment       0x00000000       0x24 /local/mnt/workspace/CRMBuilds/TZ.BF.4.0.3.c1-00005-M8996AAAAANAZT-1_20170110_230814/b/HK11/trustzone_images/core/securemsm/sse/qsee/SecureDisplay/libpng/build/fidosui/scorpion/IADAANAA/libpng.lib(pngrio.o)
 .comment       0x00000000       0x24 /local/mnt/workspace/CRMBuilds/TZ.BF.4.0.3.c1-00005-M8996AAAAANAZT-1_20170110_230814/b/HK11/trustzone_images/core/securemsm/sse/qsee/SecureDisplay/libpng/build/fidosui/scorpion/IADAANAA/libpng.lib(pngrutil.o)
 .comment       0x00000000       0x24 /local/mnt/workspace/CRMBuilds/TZ.BF.4.0.3.c1-00005-M8996AAAAANAZT-1_20170110_230814/b/HK11/trustzone_images/core/securemsm/sse/qsee/SecureDisplay/libpng/build/fidosui/scorpion/IADAANAA/libpng.lib(pngset.o)
 .comment       0x00000000       0x24 /local/mnt/workspace/CRMBuilds/TZ.BF.4.0.3.c1-00005-M8996AAAAANAZT-1_20170110_230814/b/HK11/trustzone_images/core/securemsm/sse/qsee/SecureDisplay/zlib/build/fidosui/scorpion/IADAANAA/zlib.lib(crc32.o)
 .comment       0x00000000       0x24 /local/mnt/workspace/CRMBuilds/TZ.BF.4.0.3.c1-00005-M8996AAAAANAZT-1_20170110_230814/b/HK11/trustzone_images/core/securemsm/sse/qsee/SecureDisplay/zlib/build/fidosui/scorpion/IADAANAA/zlib.lib(inflate.o)
 .comment       0x00000000       0x24 /local/mnt/workspace/CRMBuilds/TZ.BF.4.0.3.c1-00005-M8996AAAAANAZT-1_20170110_230814/b/HK11/trustzone_images/core/securemsm/sse/qsee/SecureDisplay/zlib/build/fidosui/scorpion/IADAANAA/zlib.lib(inftrees.o)
 .comment       0x00000000       0x24 /local/mnt/workspace/CRMBuilds/TZ.BF.4.0.3.c1-00005-M8996AAAAANAZT-1_20170110_230814/b/HK11/trustzone_images/core/securemsm/sse/qsee/SecureDisplay/zlib/build/fidosui/scorpion/IADAANAA/zlib.lib(zutil.o)
 .comment       0x00000000       0x24 /local/mnt/workspace/CRMBuilds/TZ.BF.4.0.3.c1-00005-M8996AAAAANAZT-1_20170110_230814/b/HK11/trustzone_images/core/securemsm/sse/qsee/SecureDisplay/zlib/build/fidosui/scorpion/IADAANAA/zlib.lib(adler32.o)
 .comment       0x00000000       0x24 /local/mnt/workspace/CRMBuilds/TZ.BF.4.0.3.c1-00005-M8996AAAAANAZT-1_20170110_230814/b/HK11/trustzone_images/core/securemsm/sse/qsee/SecureDisplay/zlib/build/fidosui/scorpion/IADAANAA/zlib.lib(inffast.o)
 .comment       0x00000000       0x24 /local/mnt/workspace/CRMBuilds/TZ.BF.4.0.3.c1-00005-M8996AAAAANAZT-1_20170110_230814/b/HK11/trustzone_images/core/securemsm/sse/qsee/SecureTouch/drTs/lib/build/fidosui/scorpion/IADAANAA/touch_lib.lib(01_open.o)
 .comment       0x00000000       0x24 /local/mnt/workspace/CRMBuilds/TZ.BF.4.0.3.c1-00005-M8996AAAAANAZT-1_20170110_230814/b/HK11/trustzone_images/core/securemsm/sse/qsee/SecureTouch/drTs/lib/build/fidosui/scorpion/IADAANAA/touch_lib.lib(02_close.o)
 .comment       0x00000000       0x24 /local/mnt/workspace/CRMBuilds/TZ.BF.4.0.3.c1-00005-M8996AAAAANAZT-1_20170110_230814/b/HK11/trustzone_images/core/securemsm/sse/qsee/SecureTouch/drTs/lib/build/fidosui/scorpion/IADAANAA/touch_lib.lib(03_getData.o)
 .comment       0x00000000       0x24 /local/mnt/workspace/CRMBuilds/TZ.BF.4.0.3.c1-00005-M8996AAAAANAZT-1_20170110_230814/b/HK11/trustzone_images/core/securemsm/trustzone/qsapps/libs/applib/common_applib/build/fidosui/scorpion/IADAANAA/tzapp_entrylib.lib(gpPersistObjCommon.o)
 .comment       0x00000000       0x24 /local/mnt/workspace/CRMBuilds/TZ.BF.4.0.3.c1-00005-M8996AAAAANAZT-1_20170110_230814/b/HK11/trustzone_images/core/securemsm/trustzone/qsapps/libs/applib/common_applib/build/fidosui/scorpion/IADAANAA/tzapp_entrylib.lib(gpPersistentObjects.o)
 .comment       0x00000000       0x24 /local/mnt/workspace/CRMBuilds/TZ.BF.4.0.3.c1-00005-M8996AAAAANAZT-1_20170110_230814/b/HK11/trustzone_images/core/securemsm/trustzone/qsapps/libs/applib/common_applib/build/fidosui/scorpion/IADAANAA/tzapp_entrylib.lib(gpPersistObjData.o)
 .comment       0x00000000       0x24 /local/mnt/workspace/CRMBuilds/TZ.BF.4.0.3.c1-00005-M8996AAAAANAZT-1_20170110_230814/b/HK11/trustzone_images/core/securemsm/trustzone/qsapps/libs/applib/common_applib/build/fidosui/scorpion/IADAANAA/tzapp_entrylib.lib(gpPersistObjHandler.o)
 .comment       0x00000000       0x24 /local/mnt/workspace/CRMBuilds/TZ.BF.4.0.3.c1-00005-M8996AAAAANAZT-1_20170110_230814/b/HK11/trustzone_images/core/securemsm/trustzone/qsapps/libs/applib/common_applib/build/fidosui/scorpion/IADAANAA/tzapp_entrylib.lib(gpPersistObjIndex.o)
 .comment       0x00000000       0x24 /local/mnt/workspace/CRMBuilds/TZ.BF.4.0.3.c1-00005-M8996AAAAANAZT-1_20170110_230814/b/HK11/trustzone_images/core/securemsm/trustzone/qsapps/libs/applib/common_applib/build/fidosui/scorpion/IADAANAA/tzapp_entrylib.lib(gpPersistObjVersion.o)
 .comment       0x00000000       0x24 /local/mnt/workspace/CRMBuilds/TZ.BF.4.0.3.c1-00005-M8996AAAAANAZT-1_20170110_230814/b/HK11/trustzone_images/core/securemsm/trustzone/qsapps/libs/applib/common_applib/build/fidosui/scorpion/IADAANAA/tzapp_entrylib.lib(gpPersistObjCrypto.o)
 .comment       0x00000000       0x24 /local/mnt/workspace/CRMBuilds/TZ.BF.4.0.3.c1-00005-M8996AAAAANAZT-1_20170110_230814/b/HK11/trustzone_images/core/securemsm/trustzone/qsapps/libs/applib/common_applib/build/fidosui/scorpion/IADAANAA/tzapp_entrylib.lib(gpPersistObjFileIO.o)
 .comment       0x00000000       0x24 /local/mnt/workspace/CRMBuilds/TZ.BF.4.0.3.c1-00005-M8996AAAAANAZT-1_20170110_230814/b/HK11/trustzone_images/core/securemsm/trustzone/qsapps/libs/applib/common_applib/build/fidosui/scorpion/IADAANAA/tzapp_entrylib.lib(gpFileService.o)
 .comment       0x00000000       0x24 /local/mnt/workspace/CRMBuilds/TZ.BF.4.0.3.c1-00005-M8996AAAAANAZT-1_20170110_230814/b/HK11/trustzone_images/core/securemsm/trustzone/qsapps/libs/applib/qsee/build/fidosui/scorpion/IADAANAA/tzapp_entrylib.lib(qsee_core_shim.o)
 .comment       0x00000000       0x24 /local/mnt/workspace/CRMBuilds/TZ.BF.4.0.3.c1-00005-M8996AAAAANAZT-1_20170110_230814/b/HK11/trustzone_images/core/securemsm/trustzone/qsapps/libs/applib/qsee/build/fidosui/scorpion/IADAANAA/tzapp_entrylib.lib(stor.o)
 .comment       0x00000000       0x24 /local/mnt/workspace/CRMBuilds/TZ.BF.4.0.3.c1-00005-M8996AAAAANAZT-1_20170110_230814/b/HK11/trustzone_images/core/securemsm/trustzone/qsapps/libs/applib/qsee/build/fidosui/scorpion/IADAANAA/tzapp_entrylib.lib(stor_gpt.o)
 .comment       0x00000000       0x24 /local/mnt/workspace/CRMBuilds/TZ.BF.4.0.3.c1-00005-M8996AAAAANAZT-1_20170110_230814/b/HK11/trustzone_images/core/securemsm/trustzone/qsapps/libs/applib/qsee/build/fidosui/scorpion/IADAANAA/tzapp_entrylib.lib(stor_rpmbw.o)
 .comment       0x00000000       0x24 /local/mnt/workspace/CRMBuilds/TZ.BF.4.0.3.c1-00005-M8996AAAAANAZT-1_20170110_230814/b/HK11/trustzone_images/core/securemsm/trustzone/qsapps/libs/applib/qsee/build/fidosui/scorpion/IADAANAA/tzapp_entrylib.lib(qsee_cfg_prop_shim.o)
 .comment       0x00000000       0x24 /local/mnt/workspace/CRMBuilds/TZ.BF.4.0.3.c1-00005-M8996AAAAANAZT-1_20170110_230814/b/HK11/trustzone_images/core/securemsm/trustzone/qsapps/libs/applib/qsee/build/fidosui/scorpion/IADAANAA/tzapp_entrylib.lib(qsee_cipher.o)
 .comment       0x00000000       0x24 /local/mnt/workspace/CRMBuilds/TZ.BF.4.0.3.c1-00005-M8996AAAAANAZT-1_20170110_230814/b/HK11/trustzone_images/core/securemsm/trustzone/qsapps/libs/applib/qsee/build/fidosui/scorpion/IADAANAA/tzapp_entrylib.lib(qsee_hmac.o)
 .comment       0x00000000       0x24 /local/mnt/workspace/CRMBuilds/TZ.BF.4.0.3.c1-00005-M8996AAAAANAZT-1_20170110_230814/b/HK11/trustzone_images/core/securemsm/trustzone/qsapps/libs/applib/qsee/build/fidosui/scorpion/IADAANAA/tzapp_entrylib.lib(gpPersistObjPanic.o)
 .comment       0x00000000       0x22 /afs/localcell/cm/gv2.6/sysname/pkg.@sys/qct/software/llvm/release/arm/3.5.2.4/tools/lib32/lib/libc.a(abort.o)
 .comment       0x00000000       0x22 /afs/localcell/cm/gv2.6/sysname/pkg.@sys/qct/software/llvm/release/arm/3.5.2.4/tools/lib32/lib/libc.a(atan2.o)
 .comment       0x00000000       0x22 /afs/localcell/cm/gv2.6/sysname/pkg.@sys/qct/software/llvm/release/arm/3.5.2.4/tools/lib32/lib/libc.a(cos.o)
 .comment       0x00000000       0x22 /afs/localcell/cm/gv2.6/sysname/pkg.@sys/qct/software/llvm/release/arm/3.5.2.4/tools/lib32/lib/libc.a(fabs.o)
 .comment       0x00000000       0x22 /afs/localcell/cm/gv2.6/sysname/pkg.@sys/qct/software/llvm/release/arm/3.5.2.4/tools/lib32/lib/libc.a(floor.o)
 .comment       0x00000000       0x22 /afs/localcell/cm/gv2.6/sysname/pkg.@sys/qct/software/llvm/release/arm/3.5.2.4/tools/lib32/lib/libc.a(sin.o)
 .comment       0x00000000       0x22 /afs/localcell/cm/gv2.6/sysname/pkg.@sys/qct/software/llvm/release/arm/3.5.2.4/tools/lib32/lib/libc.a(sqrt.o)
 .comment       0x00000000       0x22 /afs/localcell/cm/gv2.6/sysname/pkg.@sys/qct/software/llvm/release/arm/3.5.2.4/tools/lib32/lib/libc.a(raise.o)
 .comment       0x00000000       0x22 /afs/localcell/cm/gv2.6/sysname/pkg.@sys/qct/software/llvm/release/arm/3.5.2.4/tools/lib32/lib/libc.a(fflush.o)
 .comment       0x00000000       0x22 /afs/localcell/cm/gv2.6/sysname/pkg.@sys/qct/software/llvm/release/arm/3.5.2.4/tools/lib32/lib/libc.a(stderr.o)
 .comment       0x00000000       0x22 /afs/localcell/cm/gv2.6/sysname/pkg.@sys/qct/software/llvm/release/arm/3.5.2.4/tools/lib32/lib/libc.a(memcmp.o)
 .comment       0x00000000       0x22 /afs/localcell/cm/gv2.6/sysname/pkg.@sys/qct/software/llvm/release/arm/3.5.2.4/tools/lib32/lib/libc.a(strlcat.o)
 .comment       0x00000000       0x22 /afs/localcell/cm/gv2.6/sysname/pkg.@sys/qct/software/llvm/release/arm/3.5.2.4/tools/lib32/lib/libc.a(strnlen.o)
 .comment       0x00000000       0x22 /afs/localcell/cm/gv2.6/sysname/pkg.@sys/qct/software/llvm/release/arm/3.5.2.4/tools/lib32/lib/libc.a(syscall_ret.o)
 .comment       0x00000000       0x22 /afs/localcell/cm/gv2.6/sysname/pkg.@sys/qct/software/llvm/release/arm/3.5.2.4/tools/lib32/lib/libc.a(__cos.o)
 .comment       0x00000000       0x22 /afs/localcell/cm/gv2.6/sysname/pkg.@sys/qct/software/llvm/release/arm/3.5.2.4/tools/lib32/lib/libc.a(__rem_pio2.o)
 .comment       0x00000000       0x22 /afs/localcell/cm/gv2.6/sysname/pkg.@sys/qct/software/llvm/release/arm/3.5.2.4/tools/lib32/lib/libc.a(__rem_pio2_large.o)
 .comment       0x00000000       0x22 /afs/localcell/cm/gv2.6/sysname/pkg.@sys/qct/software/llvm/release/arm/3.5.2.4/tools/lib32/lib/libc.a(__sin.o)
 .comment       0x00000000       0x22 /afs/localcell/cm/gv2.6/sysname/pkg.@sys/qct/software/llvm/release/arm/3.5.2.4/tools/lib32/lib/libc.a(atan.o)
 .comment       0x00000000       0x22 /afs/localcell/cm/gv2.6/sysname/pkg.@sys/qct/software/llvm/release/arm/3.5.2.4/tools/lib32/lib/libc.a(scalbn.o)
 .comment       0x00000000       0x22 /afs/localcell/cm/gv2.6/sysname/pkg.@sys/qct/software/llvm/release/arm/3.5.2.4/tools/lib32/lib/libc.a(block.o)
 .comment       0x00000000       0x22 /afs/localcell/cm/gv2.6/sysname/pkg.@sys/qct/software/llvm/release/arm/3.5.2.4/tools/lib32/lib/libc.a(__stdio_close.o)
 .comment       0x00000000       0x22 /afs/localcell/cm/gv2.6/sysname/pkg.@sys/qct/software/llvm/release/arm/3.5.2.4/tools/lib32/lib/libc.a(__stdio_seek.o)
 .comment       0x00000000       0x22 /afs/localcell/cm/gv2.6/sysname/pkg.@sys/qct/software/llvm/release/arm/3.5.2.4/tools/lib32/lib/libc.a(__stdio_write.o)
 .comment       0x00000000       0x22 /afs/localcell/cm/gv2.6/sysname/pkg.@sys/qct/software/llvm/release/arm/3.5.2.4/tools/lib32/lib/libc.a(__syscall_cp.o)
 .comment       0x00000000       0x22 /afs/localcell/cm/gv2.6/sysname/pkg.@sys/qct/software/llvm/release/arm/3.5.2.4/tools/lib32/lib/libc.a(pthread_cleanup_push.o)
 .comment       0x00000000       0x24 /afs/localcell/cm/gv2.6/sysname/pkg.@sys/qct/software/llvm/release/arm/3.5.2.4/lib/clang/3.5.2/lib/linux/libclang_rt.builtins-arm.a(adddf3.c.o)
 .comment       0x00000000       0x24 /afs/localcell/cm/gv2.6/sysname/pkg.@sys/qct/software/llvm/release/arm/3.5.2.4/lib/clang/3.5.2/lib/linux/libclang_rt.builtins-arm.a(divsf3.c.o)
 .comment       0x00000000       0x24 /afs/localcell/cm/gv2.6/sysname/pkg.@sys/qct/software/llvm/release/arm/3.5.2.4/lib/clang/3.5.2/lib/linux/libclang_rt.builtins-arm.a(extendsfdf2.c.o)
 .comment       0x00000000       0x24 /afs/localcell/cm/gv2.6/sysname/pkg.@sys/qct/software/llvm/release/arm/3.5.2.4/lib/clang/3.5.2/lib/linux/libclang_rt.builtins-arm.a(fixdfsi.c.o)
 .comment       0x00000000       0x24 /afs/localcell/cm/gv2.6/sysname/pkg.@sys/qct/software/llvm/release/arm/3.5.2.4/lib/clang/3.5.2/lib/linux/libclang_rt.builtins-arm.a(floatsidf.c.o)
 .comment       0x00000000       0x24 /afs/localcell/cm/gv2.6/sysname/pkg.@sys/qct/software/llvm/release/arm/3.5.2.4/lib/clang/3.5.2/lib/linux/libclang_rt.builtins-arm.a(floatsisf.c.o)
 .comment       0x00000000       0x24 /local/mnt/workspace/CRMBuilds/TZ.BF.4.0.3.c1-00005-M8996AAAAANAZT-1_20170110_230814/b/HK11/trustzone_images/core/kernel/libstd/build/fidosui/scorpion/IADAANAA/libstd.lib(timesafe_memcmp.o)
 .comment       0x00000000       0x24 /local/mnt/workspace/CRMBuilds/TZ.BF.4.0.3.c1-00005-M8996AAAAANAZT-1_20170110_230814/b/HK11/trustzone_images/core/securemsm/sse/SecureTouch/controller/build/fidosui/scorpion/IADAANAA/drts_controller_msm8996.lib(atmel_mxt_ts.o)
 .comment       0x00000000       0x24 /local/mnt/workspace/CRMBuilds/TZ.BF.4.0.3.c1-00005-M8996AAAAANAZT-1_20170110_230814/b/HK11/trustzone_images/core/securemsm/sse/SecureTouch/controller/build/fidosui/scorpion/IADAANAA/drts_controller_msm8996.lib(synaptics_ts.o)
 .comment       0x00000000       0x24 /local/mnt/workspace/CRMBuilds/TZ.BF.4.0.3.c1-00005-M8996AAAAANAZT-1_20170110_230814/b/HK11/trustzone_images/core/securemsm/sse/qsee/SecureTouch/drTs/controller/build/fidosui/scorpion/IADAANAA/touch_controller_i2c_msm8996.lib(atmel_mxt_ts_i2c.o)
 .comment       0x00000000       0x24 /local/mnt/workspace/CRMBuilds/TZ.BF.4.0.3.c1-00005-M8996AAAAANAZT-1_20170110_230814/b/HK11/trustzone_images/core/securemsm/sse/qsee/SecureTouch/drTs/controller/build/fidosui/scorpion/IADAANAA/touch_controller_i2c_msm8996.lib(synaptics_ts_i2c.o)
 .comment       0x00000000       0x24 /local/mnt/workspace/CRMBuilds/TZ.BF.4.0.3.c1-00005-M8996AAAAANAZT-1_20170110_230814/b/HK11/trustzone_images/core/securemsm/trustzone/qsapps/libs/applib/qsee/build/fidosui/scorpion/IADAANAA/tzapp_entrylib.lib(qsee_i2c.o)

.debug_info     0x00000000    0x3dd74
 .debug_info    0x00000000       0xa5 /local/mnt/workspace/CRMBuilds/TZ.BF.4.0.3.c1-00005-M8996AAAAANAZT-1_20170110_230814/b/HK11/trustzone_images/apps/securemsm/trustzone/qsapps/fidosui/build/fidosui/scorpion/IADAANAA/metadata.o
 .debug_info    0x000000a5      0x2d5 /local/mnt/workspace/CRMBuilds/TZ.BF.4.0.3.c1-00005-M8996AAAAANAZT-1_20170110_230814/b/HK11/trustzone_images/apps/securemsm/trustzone/qsapps/fidosui/ipc/build/fidosui/scorpion/IADAANAA/src/CFidoSuiToken.o
 .debug_info    0x0000037a       0xa2 /local/mnt/workspace/CRMBuilds/TZ.BF.4.0.3.c1-00005-M8996AAAAANAZT-1_20170110_230814/b/HK11/trustzone_images/core/kernel/libstd/build/fidosui/scorpion/IADAANAA/libstd.lib(memscpy.o)
 .debug_info    0x0000041c     0x1424 /local/mnt/workspace/CRMBuilds/TZ.BF.4.0.3.c1-00005-M8996AAAAANAZT-1_20170110_230814/b/HK11/trustzone_images/core/securemsm/trustzone/qsapps/libs/applib/common_applib/build/fidosui/scorpion/IADAANAA/tzapp_entrylib.lib(common_applib.o)
 .debug_info    0x00001840     0x2c8f /local/mnt/workspace/CRMBuilds/TZ.BF.4.0.3.c1-00005-M8996AAAAANAZT-1_20170110_230814/b/HK11/trustzone_images/core/securemsm/trustzone/qsapps/libs/applib/proxy/build/fidosui/scorpion/IADAANAA/tzlib_proxy.lib(prxy_services.o)
 .debug_info    0x000044cf      0x581 /local/mnt/workspace/CRMBuilds/TZ.BF.4.0.3.c1-00005-M8996AAAAANAZT-1_20170110_230814/b/HK11/trustzone_images/core/securemsm/trustzone/qsapps/libs/applib/qsee/build/fidosui/scorpion/IADAANAA/tzapp_entrylib.lib(mink_shared_code.o)
 .debug_info    0x00004a50      0x627 /local/mnt/workspace/CRMBuilds/TZ.BF.4.0.3.c1-00005-M8996AAAAANAZT-1_20170110_230814/b/HK11/trustzone_images/core/securemsm/trustzone/qsapps/libs/applib/qsee/build/fidosui/scorpion/IADAANAA/tzapp_entrylib.lib(qsee_env.o)
 .debug_info    0x00005077      0x2c4 /local/mnt/workspace/CRMBuilds/TZ.BF.4.0.3.c1-00005-M8996AAAAANAZT-1_20170110_230814/b/HK11/trustzone_images/core/securemsm/trustzone/qsapps/libs/applib/qsee/build/fidosui/scorpion/IADAANAA/tzapp_entrylib.lib(qsee_prng.o)
 .debug_info    0x0000533b      0x39f /local/mnt/workspace/CRMBuilds/TZ.BF.4.0.3.c1-00005-M8996AAAAANAZT-1_20170110_230814/b/HK11/trustzone_images/core/securemsm/trustzone/qsapps/libs/applib/qsee/build/fidosui/scorpion/IADAANAA/tzapp_entrylib.lib(tzapp_lib_main.o)
 .debug_info    0x000056da      0x9d5 /local/mnt/workspace/CRMBuilds/TZ.BF.4.0.3.c1-00005-M8996AAAAANAZT-1_20170110_230814/b/HK11/trustzone_images/apps/securemsm/trustzone/qsapps/fidosui/app/build/fidosui/scorpion/IADAANAA/fidosui_app.lib(app_main.o)
 .debug_info    0x000060af      0x2a8 /local/mnt/workspace/CRMBuilds/TZ.BF.4.0.3.c1-00005-M8996AAAAANAZT-1_20170110_230814/b/HK11/trustzone_images/apps/securemsm/trustzone/qsapps/fidosui/app/build/fidosui/scorpion/IADAANAA/fidosui_app.lib(01_Initialize.o)
 .debug_info    0x00006357      0x89c /local/mnt/workspace/CRMBuilds/TZ.BF.4.0.3.c1-00005-M8996AAAAANAZT-1_20170110_230814/b/HK11/trustzone_images/apps/securemsm/trustzone/qsapps/fidosui/app/build/fidosui/scorpion/IADAANAA/fidosui_app.lib(08_ShowMessageSui.o)
 .debug_info    0x00006bf3     0x132f /local/mnt/workspace/CRMBuilds/TZ.BF.4.0.3.c1-00005-M8996AAAAANAZT-1_20170110_230814/b/HK11/trustzone_images/apps/securemsm/trustzone/qsapps/fidosui/app/build/fidosui/scorpion/IADAANAA/fidosui_app.lib(fsSecureUI.o)
 .debug_info    0x00007f22      0x15f /local/mnt/workspace/CRMBuilds/TZ.BF.4.0.3.c1-00005-M8996AAAAANAZT-1_20170110_230814/b/HK11/trustzone_images/apps/securemsm/trustzone/qsapps/fidosui/app/build/fidosui/scorpion/IADAANAA/fidosui_app.lib(fsLocale.o)
 .debug_info    0x00008081       0xc9 /local/mnt/workspace/CRMBuilds/TZ.BF.4.0.3.c1-00005-M8996AAAAANAZT-1_20170110_230814/b/HK11/trustzone_images/apps/securemsm/trustzone/qsapps/fidosui/config/build/fidosui/scorpion/IADAANAA/fidosui_config.lib(config.o)
 .debug_info    0x0000814a      0x12c /local/mnt/workspace/CRMBuilds/TZ.BF.4.0.3.c1-00005-M8996AAAAANAZT-1_20170110_230814/b/HK11/trustzone_images/apps/securemsm/trustzone/qsapps/fidosui/locale/build/fidosui/scorpion/IADAANAA/fidosui_locale.lib(locale.o)
 .debug_info    0x00008276       0xb8 /local/mnt/workspace/CRMBuilds/TZ.BF.4.0.3.c1-00005-M8996AAAAANAZT-1_20170110_230814/b/HK11/trustzone_images/core/kernel/libstd/build/fidosui/scorpion/IADAANAA/libstd.lib(secure_memset.o)
 .debug_info    0x0000832e       0xe2 /local/mnt/workspace/CRMBuilds/TZ.BF.4.0.3.c1-00005-M8996AAAAANAZT-1_20170110_230814/b/HK11/trustzone_images/core/securemsm/sse/log/build/fidosui/scorpion/IADAANAA/sselog.lib(sselog.o)
 .debug_info    0x00008410     0x1a0d /local/mnt/workspace/CRMBuilds/TZ.BF.4.0.3.c1-00005-M8996AAAAANAZT-1_20170110_230814/b/HK11/trustzone_images/core/securemsm/sse/qsee/SecureUI/build/fidosui/scorpion/IADAANAA/secure_ui.lib(SecureUI.o)
 .debug_info    0x00009e1d     0x250d /local/mnt/workspace/CRMBuilds/TZ.BF.4.0.3.c1-00005-M8996AAAAANAZT-1_20170110_230814/b/HK11/trustzone_images/core/securemsm/sse/qsee/SecureUI/build/fidosui/scorpion/IADAANAA/secure_ui_tui.lib(qsee_tui_dialogs.o)
 .debug_info    0x0000c32a     0x2628 /local/mnt/workspace/CRMBuilds/TZ.BF.4.0.3.c1-00005-M8996AAAAANAZT-1_20170110_230814/b/HK11/trustzone_images/core/securemsm/sse/qsee/SecureUI/build/fidosui/scorpion/IADAANAA/secure_ui_tui.lib(layout_manager.o)
 .debug_info    0x0000e952     0x2d65 /local/mnt/workspace/CRMBuilds/TZ.BF.4.0.3.c1-00005-M8996AAAAANAZT-1_20170110_230814/b/HK11/trustzone_images/core/securemsm/sse/qsee/SecureUI/build/fidosui/scorpion/IADAANAA/secure_ui_tui.lib(secure_display_renderer.o)
 .debug_info    0x000116b7     0x20d6 /local/mnt/workspace/CRMBuilds/TZ.BF.4.0.3.c1-00005-M8996AAAAANAZT-1_20170110_230814/b/HK11/trustzone_images/core/securemsm/sse/qsee/SecureUI/build/fidosui/scorpion/IADAANAA/secure_ui_tui.lib(font_manager.o)
 .debug_info    0x0001378d      0x96c /local/mnt/workspace/CRMBuilds/TZ.BF.4.0.3.c1-00005-M8996AAAAANAZT-1_20170110_230814/b/HK11/trustzone_images/core/securemsm/sse/qsee/SecureUILib/lib/build/fidosui/scorpion/IADAANAA/secure_ui_lib.lib(SecureUILib.o)
 .debug_info    0x000140f9      0x347 /local/mnt/workspace/CRMBuilds/TZ.BF.4.0.3.c1-00005-M8996AAAAANAZT-1_20170110_230814/b/HK11/trustzone_images/core/securemsm/sse/qsee/SecureUILib/lib/build/fidosui/scorpion/IADAANAA/secure_ui_lib.lib(01_startTouch.o)
 .debug_info    0x00014440      0x421 /local/mnt/workspace/CRMBuilds/TZ.BF.4.0.3.c1-00005-M8996AAAAANAZT-1_20170110_230814/b/HK11/trustzone_images/core/securemsm/sse/qsee/SecureUILib/lib/build/fidosui/scorpion/IADAANAA/secure_ui_lib.lib(02_processTouch.o)
 .debug_info    0x00014861      0x38a /local/mnt/workspace/CRMBuilds/TZ.BF.4.0.3.c1-00005-M8996AAAAANAZT-1_20170110_230814/b/HK11/trustzone_images/core/securemsm/sse/qsee/SecureUILib/lib/build/fidosui/scorpion/IADAANAA/secure_ui_lib.lib(03_stopTouch.o)
 .debug_info    0x00014beb      0x394 /local/mnt/workspace/CRMBuilds/TZ.BF.4.0.3.c1-00005-M8996AAAAANAZT-1_20170110_230814/b/HK11/trustzone_images/core/securemsm/sse/qsee/SecureUILib/lib/build/fidosui/scorpion/IADAANAA/secure_ui_lib.lib(04_prepareRequest.o)
 .debug_info    0x00014f7f      0x410 /local/mnt/workspace/CRMBuilds/TZ.BF.4.0.3.c1-00005-M8996AAAAANAZT-1_20170110_230814/b/HK11/trustzone_images/core/securemsm/sse/qsee/SecureUILib/lib/build/fidosui/scorpion/IADAANAA/secure_ui_lib.lib(05_storeIndicator.o)
 .debug_info    0x0001538f     0x173b /local/mnt/workspace/CRMBuilds/TZ.BF.4.0.3.c1-00005-M8996AAAAANAZT-1_20170110_230814/b/HK11/trustzone_images/core/securemsm/trustzone/qsapps/libs/applib/proxy/build/fidosui/scorpion/IADAANAA/tzlib_proxy.lib(prxy_qsee_shim.o)
 .debug_info    0x00016aca     0x2553 /local/mnt/workspace/CRMBuilds/TZ.BF.4.0.3.c1-00005-M8996AAAAANAZT-1_20170110_230814/b/HK11/trustzone_images/core/securemsm/trustzone/qsapps/libs/applib/proxy/build/fidosui/scorpion/IADAANAA/tzlib_proxy.lib(prxy_ufdes.o)
 .debug_info    0x0001901d     0x24d9 /local/mnt/workspace/CRMBuilds/TZ.BF.4.0.3.c1-00005-M8996AAAAANAZT-1_20170110_230814/b/HK11/trustzone_images/core/securemsm/trustzone/qsapps/libs/applib/proxy/build/fidosui/scorpion/IADAANAA/tzlib_proxy.lib(prxy_secmath.o)
 .debug_info    0x0001b4f6     0x2832 /local/mnt/workspace/CRMBuilds/TZ.BF.4.0.3.c1-00005-M8996AAAAANAZT-1_20170110_230814/b/HK11/trustzone_images/core/securemsm/trustzone/qsapps/libs/applib/proxy/build/fidosui/scorpion/IADAANAA/tzlib_proxy.lib(prxy_secrsa.o)
 .debug_info    0x0001dd28     0x29aa /local/mnt/workspace/CRMBuilds/TZ.BF.4.0.3.c1-00005-M8996AAAAANAZT-1_20170110_230814/b/HK11/trustzone_images/core/securemsm/trustzone/qsapps/libs/applib/proxy/build/fidosui/scorpion/IADAANAA/tzlib_proxy.lib(prxy_ecc.o)
 .debug_info    0x000206d2      0x362 /local/mnt/workspace/CRMBuilds/TZ.BF.4.0.3.c1-00005-M8996AAAAANAZT-1_20170110_230814/b/HK11/trustzone_images/core/securemsm/trustzone/qsapps/libs/applib/qsee/build/fidosui/scorpion/IADAANAA/tzapp_entrylib.lib(qsee_secdisp.o)
 .debug_info    0x00020a34      0x5e7 /local/mnt/workspace/CRMBuilds/TZ.BF.4.0.3.c1-00005-M8996AAAAANAZT-1_20170110_230814/b/HK11/trustzone_images/core/securemsm/trustzone/qsapps/libs/applib/qsee/build/fidosui/scorpion/IADAANAA/tzapp_entrylib.lib(qsee_nsmem.o)
 .debug_info    0x0002101b       0x68 /local/mnt/workspace/CRMBuilds/TZ.BF.4.0.3.c1-00005-M8996AAAAANAZT-1_20170110_230814/b/HK11/trustzone_images/core/securemsm/trustzone/qsapps/libs/applib/qsee/build/fidosui/scorpion/IADAANAA/tzapp_entrylib.lib(qsee_timer_shim.o)
 .debug_info    0x00021083      0xddc /local/mnt/workspace/CRMBuilds/TZ.BF.4.0.3.c1-00005-M8996AAAAANAZT-1_20170110_230814/b/HK11/trustzone_images/core/securemsm/trustzone/qsapps/libs/applib/qsee/build/fidosui/scorpion/IADAANAA/tzapp_entrylib.lib(qsee_hash.o)
 .debug_info    0x00021e5f      0x3c8 /local/mnt/workspace/CRMBuilds/TZ.BF.4.0.3.c1-00005-M8996AAAAANAZT-1_20170110_230814/b/HK11/trustzone_images/core/securemsm/trustzone/qsapps/libs/applib/qsee/build/fidosui/scorpion/IADAANAA/tzapp_entrylib.lib(qsee_shared_buffer.o)
 .debug_info    0x00022227      0x53f /local/mnt/workspace/CRMBuilds/TZ.BF.4.0.3.c1-00005-M8996AAAAANAZT-1_20170110_230814/b/HK11/trustzone_images/core/securemsm/trustzone/qsapps/libs/applib/qsee/build/fidosui/scorpion/IADAANAA/tzapp_entrylib.lib(qsee_appmessage.o)
 .debug_info    0x00022766      0xa05 /local/mnt/workspace/CRMBuilds/TZ.BF.4.0.3.c1-00005-M8996AAAAANAZT-1_20170110_230814/b/HK11/trustzone_images/core/securemsm/trustzone/qsapps/libs/applib/qsee/build/fidosui/scorpion/IADAANAA/tzapp_entrylib.lib(sfs_api.o)
 .debug_info    0x0002316b     0x259d /local/mnt/workspace/CRMBuilds/TZ.BF.4.0.3.c1-00005-M8996AAAAANAZT-1_20170110_230814/b/HK11/trustzone_images/apps/securemsm/trustzone/qsapps/fidosui/layouts/build/fidosui/scorpion/IADAANAA/secure_ui_layout.lib(layout_8996_fluid.o)
 .debug_info    0x00025708     0x139b /local/mnt/workspace/CRMBuilds/TZ.BF.4.0.3.c1-00005-M8996AAAAANAZT-1_20170110_230814/b/HK11/trustzone_images/core/securemsm/sse/SecureTouch/layout/build/fidosui/scorpion/IADAANAA/sklayout.lib(layoutUtils.o)
 .debug_info    0x00026aa3     0x3433 /local/mnt/workspace/CRMBuilds/TZ.BF.4.0.3.c1-00005-M8996AAAAANAZT-1_20170110_230814/b/HK11/trustzone_images/core/securemsm/sse/qsee/SecureDisplay/libgd/build/fidosui/scorpion/IADAANAA/libgd.lib(gd.o)
 .debug_info    0x00029ed6      0x441 /local/mnt/workspace/CRMBuilds/TZ.BF.4.0.3.c1-00005-M8996AAAAANAZT-1_20170110_230814/b/HK11/trustzone_images/core/securemsm/sse/qsee/SecureDisplay/libgd/build/fidosui/scorpion/IADAANAA/libgd.lib(gd_color.o)
 .debug_info    0x0002a317       0x63 /local/mnt/workspace/CRMBuilds/TZ.BF.4.0.3.c1-00005-M8996AAAAANAZT-1_20170110_230814/b/HK11/trustzone_images/core/securemsm/sse/qsee/SecureDisplay/libgd/build/fidosui/scorpion/IADAANAA/libgd.lib(gd_security.o)
 .debug_info    0x0002a37a       0x64 /local/mnt/workspace/CRMBuilds/TZ.BF.4.0.3.c1-00005-M8996AAAAANAZT-1_20170110_230814/b/HK11/trustzone_images/core/securemsm/sse/qsee/SecureDisplay/libgd/build/fidosui/scorpion/IADAANAA/libgd.lib(gdtables.o)
 .debug_info    0x0002a3de      0xe61 /local/mnt/workspace/CRMBuilds/TZ.BF.4.0.3.c1-00005-M8996AAAAANAZT-1_20170110_230814/b/HK11/trustzone_images/core/securemsm/sse/qsee/SecureDisplay/libpng/build/fidosui/scorpion/IADAANAA/libpng.lib(png.o)
 .debug_info    0x0002b23f      0x8c2 /local/mnt/workspace/CRMBuilds/TZ.BF.4.0.3.c1-00005-M8996AAAAANAZT-1_20170110_230814/b/HK11/trustzone_images/core/securemsm/sse/qsee/SecureDisplay/libpng/build/fidosui/scorpion/IADAANAA/libpng.lib(pngerror.o)
 .debug_info    0x0002bb01      0xa60 /local/mnt/workspace/CRMBuilds/TZ.BF.4.0.3.c1-00005-M8996AAAAANAZT-1_20170110_230814/b/HK11/trustzone_images/core/securemsm/sse/qsee/SecureDisplay/libpng/build/fidosui/scorpion/IADAANAA/libpng.lib(pngget.o)
 .debug_info    0x0002c561      0x994 /local/mnt/workspace/CRMBuilds/TZ.BF.4.0.3.c1-00005-M8996AAAAANAZT-1_20170110_230814/b/HK11/trustzone_images/core/securemsm/sse/qsee/SecureDisplay/libpng/build/fidosui/scorpion/IADAANAA/libpng.lib(pngmem.o)
 .debug_info    0x0002cef5      0xd2f /local/mnt/workspace/CRMBuilds/TZ.BF.4.0.3.c1-00005-M8996AAAAANAZT-1_20170110_230814/b/HK11/trustzone_images/core/securemsm/sse/qsee/SecureDisplay/libpng/build/fidosui/scorpion/IADAANAA/libpng.lib(pngread.o)
 .debug_info    0x0002dc24      0x783 /local/mnt/workspace/CRMBuilds/TZ.BF.4.0.3.c1-00005-M8996AAAAANAZT-1_20170110_230814/b/HK11/trustzone_images/core/securemsm/sse/qsee/SecureDisplay/libpng/build/fidosui/scorpion/IADAANAA/libpng.lib(pngrio.o)
 .debug_info    0x0002e3a7     0x13fa /local/mnt/workspace/CRMBuilds/TZ.BF.4.0.3.c1-00005-M8996AAAAANAZT-1_20170110_230814/b/HK11/trustzone_images/core/securemsm/sse/qsee/SecureDisplay/libpng/build/fidosui/scorpion/IADAANAA/libpng.lib(pngrutil.o)
 .debug_info    0x0002f7a1      0x9d1 /local/mnt/workspace/CRMBuilds/TZ.BF.4.0.3.c1-00005-M8996AAAAANAZT-1_20170110_230814/b/HK11/trustzone_images/core/securemsm/sse/qsee/SecureDisplay/libpng/build/fidosui/scorpion/IADAANAA/libpng.lib(pngset.o)
 .debug_info    0x00030172      0x396 /local/mnt/workspace/CRMBuilds/TZ.BF.4.0.3.c1-00005-M8996AAAAANAZT-1_20170110_230814/b/HK11/trustzone_images/core/securemsm/sse/qsee/SecureDisplay/zlib/build/fidosui/scorpion/IADAANAA/zlib.lib(crc32.o)
 .debug_info    0x00030508      0xd29 /local/mnt/workspace/CRMBuilds/TZ.BF.4.0.3.c1-00005-M8996AAAAANAZT-1_20170110_230814/b/HK11/trustzone_images/core/securemsm/sse/qsee/SecureDisplay/zlib/build/fidosui/scorpion/IADAANAA/zlib.lib(inflate.o)
 .debug_info    0x00031231      0x2f3 /local/mnt/workspace/CRMBuilds/TZ.BF.4.0.3.c1-00005-M8996AAAAANAZT-1_20170110_230814/b/HK11/trustzone_images/core/securemsm/sse/qsee/SecureDisplay/zlib/build/fidosui/scorpion/IADAANAA/zlib.lib(inftrees.o)
 .debug_info    0x00031524      0x18c /local/mnt/workspace/CRMBuilds/TZ.BF.4.0.3.c1-00005-M8996AAAAANAZT-1_20170110_230814/b/HK11/trustzone_images/core/securemsm/sse/qsee/SecureDisplay/zlib/build/fidosui/scorpion/IADAANAA/zlib.lib(zutil.o)
 .debug_info    0x000316b0      0x1cd /local/mnt/workspace/CRMBuilds/TZ.BF.4.0.3.c1-00005-M8996AAAAANAZT-1_20170110_230814/b/HK11/trustzone_images/core/securemsm/sse/qsee/SecureDisplay/zlib/build/fidosui/scorpion/IADAANAA/zlib.lib(adler32.o)
 .debug_info    0x0003187d      0x72c /local/mnt/workspace/CRMBuilds/TZ.BF.4.0.3.c1-00005-M8996AAAAANAZT-1_20170110_230814/b/HK11/trustzone_images/core/securemsm/sse/qsee/SecureDisplay/zlib/build/fidosui/scorpion/IADAANAA/zlib.lib(inffast.o)
 .debug_info    0x00031fa9      0x12e /local/mnt/workspace/CRMBuilds/TZ.BF.4.0.3.c1-00005-M8996AAAAANAZT-1_20170110_230814/b/HK11/trustzone_images/core/securemsm/sse/qsee/SecureTouch/drTs/lib/build/fidosui/scorpion/IADAANAA/touch_lib.lib(01_open.o)
 .debug_info    0x000320d7       0x95 /local/mnt/workspace/CRMBuilds/TZ.BF.4.0.3.c1-00005-M8996AAAAANAZT-1_20170110_230814/b/HK11/trustzone_images/core/securemsm/sse/qsee/SecureTouch/drTs/lib/build/fidosui/scorpion/IADAANAA/touch_lib.lib(02_close.o)
 .debug_info    0x0003216c      0x1d6 /local/mnt/workspace/CRMBuilds/TZ.BF.4.0.3.c1-00005-M8996AAAAANAZT-1_20170110_230814/b/HK11/trustzone_images/core/securemsm/sse/qsee/SecureTouch/drTs/lib/build/fidosui/scorpion/IADAANAA/touch_lib.lib(03_getData.o)
 .debug_info    0x00032342      0x60d /local/mnt/workspace/CRMBuilds/TZ.BF.4.0.3.c1-00005-M8996AAAAANAZT-1_20170110_230814/b/HK11/trustzone_images/core/securemsm/trustzone/qsapps/libs/applib/common_applib/build/fidosui/scorpion/IADAANAA/tzapp_entrylib.lib(gpPersistObjCommon.o)
 .debug_info    0x0003294f      0x83e /local/mnt/workspace/CRMBuilds/TZ.BF.4.0.3.c1-00005-M8996AAAAANAZT-1_20170110_230814/b/HK11/trustzone_images/core/securemsm/trustzone/qsapps/libs/applib/common_applib/build/fidosui/scorpion/IADAANAA/tzapp_entrylib.lib(gpPersistentObjects.o)
 .debug_info    0x0003318d     0x1461 /local/mnt/workspace/CRMBuilds/TZ.BF.4.0.3.c1-00005-M8996AAAAANAZT-1_20170110_230814/b/HK11/trustzone_images/core/securemsm/trustzone/qsapps/libs/applib/common_applib/build/fidosui/scorpion/IADAANAA/tzapp_entrylib.lib(gpPersistObjData.o)
 .debug_info    0x000345ee      0x696 /local/mnt/workspace/CRMBuilds/TZ.BF.4.0.3.c1-00005-M8996AAAAANAZT-1_20170110_230814/b/HK11/trustzone_images/core/securemsm/trustzone/qsapps/libs/applib/common_applib/build/fidosui/scorpion/IADAANAA/tzapp_entrylib.lib(gpPersistObjHandler.o)
 .debug_info    0x00034c84      0xd67 /local/mnt/workspace/CRMBuilds/TZ.BF.4.0.3.c1-00005-M8996AAAAANAZT-1_20170110_230814/b/HK11/trustzone_images/core/securemsm/trustzone/qsapps/libs/applib/common_applib/build/fidosui/scorpion/IADAANAA/tzapp_entrylib.lib(gpPersistObjIndex.o)
 .debug_info    0x000359eb      0x9f1 /local/mnt/workspace/CRMBuilds/TZ.BF.4.0.3.c1-00005-M8996AAAAANAZT-1_20170110_230814/b/HK11/trustzone_images/core/securemsm/trustzone/qsapps/libs/applib/common_applib/build/fidosui/scorpion/IADAANAA/tzapp_entrylib.lib(gpPersistObjVersion.o)
 .debug_info    0x000363dc      0x8ef /local/mnt/workspace/CRMBuilds/TZ.BF.4.0.3.c1-00005-M8996AAAAANAZT-1_20170110_230814/b/HK11/trustzone_images/core/securemsm/trustzone/qsapps/libs/applib/common_applib/build/fidosui/scorpion/IADAANAA/tzapp_entrylib.lib(gpPersistObjCrypto.o)
 .debug_info    0x00036ccb      0x48d /local/mnt/workspace/CRMBuilds/TZ.BF.4.0.3.c1-00005-M8996AAAAANAZT-1_20170110_230814/b/HK11/trustzone_images/core/securemsm/trustzone/qsapps/libs/applib/common_applib/build/fidosui/scorpion/IADAANAA/tzapp_entrylib.lib(gpPersistObjFileIO.o)
 .debug_info    0x00037158      0x506 /local/mnt/workspace/CRMBuilds/TZ.BF.4.0.3.c1-00005-M8996AAAAANAZT-1_20170110_230814/b/HK11/trustzone_images/core/securemsm/trustzone/qsapps/libs/applib/common_applib/build/fidosui/scorpion/IADAANAA/tzapp_entrylib.lib(gpFileService.o)
 .debug_info    0x0003765e      0x6d8 /local/mnt/workspace/CRMBuilds/TZ.BF.4.0.3.c1-00005-M8996AAAAANAZT-1_20170110_230814/b/HK11/trustzone_images/core/securemsm/trustzone/qsapps/libs/applib/qsee/build/fidosui/scorpion/IADAANAA/tzapp_entrylib.lib(qsee_core_shim.o)
 .debug_info    0x00037d36      0x5a3 /local/mnt/workspace/CRMBuilds/TZ.BF.4.0.3.c1-00005-M8996AAAAANAZT-1_20170110_230814/b/HK11/trustzone_images/core/securemsm/trustzone/qsapps/libs/applib/qsee/build/fidosui/scorpion/IADAANAA/tzapp_entrylib.lib(stor.o)
 .debug_info    0x000382d9      0xdeb /local/mnt/workspace/CRMBuilds/TZ.BF.4.0.3.c1-00005-M8996AAAAANAZT-1_20170110_230814/b/HK11/trustzone_images/core/securemsm/trustzone/qsapps/libs/applib/qsee/build/fidosui/scorpion/IADAANAA/tzapp_entrylib.lib(stor_gpt.o)
 .debug_info    0x000390c4      0x4a2 /local/mnt/workspace/CRMBuilds/TZ.BF.4.0.3.c1-00005-M8996AAAAANAZT-1_20170110_230814/b/HK11/trustzone_images/core/securemsm/trustzone/qsapps/libs/applib/qsee/build/fidosui/scorpion/IADAANAA/tzapp_entrylib.lib(stor_rpmbw.o)
 .debug_info    0x00039566      0x166 /local/mnt/workspace/CRMBuilds/TZ.BF.4.0.3.c1-00005-M8996AAAAANAZT-1_20170110_230814/b/HK11/trustzone_images/core/securemsm/trustzone/qsapps/libs/applib/qsee/build/fidosui/scorpion/IADAANAA/tzapp_entrylib.lib(qsee_cfg_prop_shim.o)
 .debug_info    0x000396cc      0xc62 /local/mnt/workspace/CRMBuilds/TZ.BF.4.0.3.c1-00005-M8996AAAAANAZT-1_20170110_230814/b/HK11/trustzone_images/core/securemsm/trustzone/qsapps/libs/applib/qsee/build/fidosui/scorpion/IADAANAA/tzapp_entrylib.lib(qsee_cipher.o)
 .debug_info    0x0003a32e      0x81a /local/mnt/workspace/CRMBuilds/TZ.BF.4.0.3.c1-00005-M8996AAAAANAZT-1_20170110_230814/b/HK11/trustzone_images/core/securemsm/trustzone/qsapps/libs/applib/qsee/build/fidosui/scorpion/IADAANAA/tzapp_entrylib.lib(qsee_hmac.o)
 .debug_info    0x0003ab48       0x8c /local/mnt/workspace/CRMBuilds/TZ.BF.4.0.3.c1-00005-M8996AAAAANAZT-1_20170110_230814/b/HK11/trustzone_images/core/securemsm/trustzone/qsapps/libs/applib/qsee/build/fidosui/scorpion/IADAANAA/tzapp_entrylib.lib(gpPersistObjPanic.o)
 .debug_info    0x0003abd4       0xcd /local/mnt/workspace/CRMBuilds/TZ.BF.4.0.3.c1-00005-M8996AAAAANAZT-1_20170110_230814/b/HK11/trustzone_images/core/kernel/libstd/build/fidosui/scorpion/IADAANAA/libstd.lib(timesafe_memcmp.o)
 .debug_info    0x0003aca1      0xa4d /local/mnt/workspace/CRMBuilds/TZ.BF.4.0.3.c1-00005-M8996AAAAANAZT-1_20170110_230814/b/HK11/trustzone_images/core/securemsm/sse/SecureTouch/controller/build/fidosui/scorpion/IADAANAA/drts_controller_msm8996.lib(atmel_mxt_ts.o)
 .debug_info    0x0003b6ee      0xcbd /local/mnt/workspace/CRMBuilds/TZ.BF.4.0.3.c1-00005-M8996AAAAANAZT-1_20170110_230814/b/HK11/trustzone_images/core/securemsm/sse/SecureTouch/controller/build/fidosui/scorpion/IADAANAA/drts_controller_msm8996.lib(synaptics_ts.o)
 .debug_info    0x0003c3ab      0x662 /local/mnt/workspace/CRMBuilds/TZ.BF.4.0.3.c1-00005-M8996AAAAANAZT-1_20170110_230814/b/HK11/trustzone_images/core/securemsm/sse/qsee/SecureTouch/drTs/controller/build/fidosui/scorpion/IADAANAA/touch_controller_i2c_msm8996.lib(atmel_mxt_ts_i2c.o)
 .debug_info    0x0003ca0d      0x697 /local/mnt/workspace/CRMBuilds/TZ.BF.4.0.3.c1-00005-M8996AAAAANAZT-1_20170110_230814/b/HK11/trustzone_images/core/securemsm/sse/qsee/SecureTouch/drTs/controller/build/fidosui/scorpion/IADAANAA/touch_controller_i2c_msm8996.lib(synaptics_ts_i2c.o)
 .debug_info    0x0003d0a4      0xcd0 /local/mnt/workspace/CRMBuilds/TZ.BF.4.0.3.c1-00005-M8996AAAAANAZT-1_20170110_230814/b/HK11/trustzone_images/core/securemsm/trustzone/qsapps/libs/applib/qsee/build/fidosui/scorpion/IADAANAA/tzapp_entrylib.lib(qsee_i2c.o)

.debug_abbrev   0x00000000     0x7d9a
 .debug_abbrev  0x00000000       0x63 /local/mnt/workspace/CRMBuilds/TZ.BF.4.0.3.c1-00005-M8996AAAAANAZT-1_20170110_230814/b/HK11/trustzone_images/apps/securemsm/trustzone/qsapps/fidosui/build/fidosui/scorpion/IADAANAA/metadata.o
 .debug_abbrev  0x00000063      0x13b /local/mnt/workspace/CRMBuilds/TZ.BF.4.0.3.c1-00005-M8996AAAAANAZT-1_20170110_230814/b/HK11/trustzone_images/apps/securemsm/trustzone/qsapps/fidosui/ipc/build/fidosui/scorpion/IADAANAA/src/CFidoSuiToken.o
 .debug_abbrev  0x0000019e       0x8a /local/mnt/workspace/CRMBuilds/TZ.BF.4.0.3.c1-00005-M8996AAAAANAZT-1_20170110_230814/b/HK11/trustzone_images/core/kernel/libstd/build/fidosui/scorpion/IADAANAA/libstd.lib(memscpy.o)
 .debug_abbrev  0x00000228      0x303 /local/mnt/workspace/CRMBuilds/TZ.BF.4.0.3.c1-00005-M8996AAAAANAZT-1_20170110_230814/b/HK11/trustzone_images/core/securemsm/trustzone/qsapps/libs/applib/common_applib/build/fidosui/scorpion/IADAANAA/tzapp_entrylib.lib(common_applib.o)
 .debug_abbrev  0x0000052b      0x23b /local/mnt/workspace/CRMBuilds/TZ.BF.4.0.3.c1-00005-M8996AAAAANAZT-1_20170110_230814/b/HK11/trustzone_images/core/securemsm/trustzone/qsapps/libs/applib/proxy/build/fidosui/scorpion/IADAANAA/tzlib_proxy.lib(prxy_services.o)
 .debug_abbrev  0x00000766      0x181 /local/mnt/workspace/CRMBuilds/TZ.BF.4.0.3.c1-00005-M8996AAAAANAZT-1_20170110_230814/b/HK11/trustzone_images/core/securemsm/trustzone/qsapps/libs/applib/qsee/build/fidosui/scorpion/IADAANAA/tzapp_entrylib.lib(mink_shared_code.o)
 .debug_abbrev  0x000008e7      0x184 /local/mnt/workspace/CRMBuilds/TZ.BF.4.0.3.c1-00005-M8996AAAAANAZT-1_20170110_230814/b/HK11/trustzone_images/core/securemsm/trustzone/qsapps/libs/applib/qsee/build/fidosui/scorpion/IADAANAA/tzapp_entrylib.lib(qsee_env.o)
 .debug_abbrev  0x00000a6b      0x126 /local/mnt/workspace/CRMBuilds/TZ.BF.4.0.3.c1-00005-M8996AAAAANAZT-1_20170110_230814/b/HK11/trustzone_images/core/securemsm/trustzone/qsapps/libs/applib/qsee/build/fidosui/scorpion/IADAANAA/tzapp_entrylib.lib(qsee_prng.o)
 .debug_abbrev  0x00000b91      0x11a /local/mnt/workspace/CRMBuilds/TZ.BF.4.0.3.c1-00005-M8996AAAAANAZT-1_20170110_230814/b/HK11/trustzone_images/core/securemsm/trustzone/qsapps/libs/applib/qsee/build/fidosui/scorpion/IADAANAA/tzapp_entrylib.lib(tzapp_lib_main.o)
 .debug_abbrev  0x00000cab      0x1cd /local/mnt/workspace/CRMBuilds/TZ.BF.4.0.3.c1-00005-M8996AAAAANAZT-1_20170110_230814/b/HK11/trustzone_images/apps/securemsm/trustzone/qsapps/fidosui/app/build/fidosui/scorpion/IADAANAA/fidosui_app.lib(app_main.o)
 .debug_abbrev  0x00000e78       0xf1 /local/mnt/workspace/CRMBuilds/TZ.BF.4.0.3.c1-00005-M8996AAAAANAZT-1_20170110_230814/b/HK11/trustzone_images/apps/securemsm/trustzone/qsapps/fidosui/app/build/fidosui/scorpion/IADAANAA/fidosui_app.lib(01_Initialize.o)
 .debug_abbrev  0x00000f69      0x166 /local/mnt/workspace/CRMBuilds/TZ.BF.4.0.3.c1-00005-M8996AAAAANAZT-1_20170110_230814/b/HK11/trustzone_images/apps/securemsm/trustzone/qsapps/fidosui/app/build/fidosui/scorpion/IADAANAA/fidosui_app.lib(08_ShowMessageSui.o)
 .debug_abbrev  0x000010cf      0x1ec /local/mnt/workspace/CRMBuilds/TZ.BF.4.0.3.c1-00005-M8996AAAAANAZT-1_20170110_230814/b/HK11/trustzone_images/apps/securemsm/trustzone/qsapps/fidosui/app/build/fidosui/scorpion/IADAANAA/fidosui_app.lib(fsSecureUI.o)
 .debug_abbrev  0x000012bb       0xb6 /local/mnt/workspace/CRMBuilds/TZ.BF.4.0.3.c1-00005-M8996AAAAANAZT-1_20170110_230814/b/HK11/trustzone_images/apps/securemsm/trustzone/qsapps/fidosui/app/build/fidosui/scorpion/IADAANAA/fidosui_app.lib(fsLocale.o)
 .debug_abbrev  0x00001371       0x73 /local/mnt/workspace/CRMBuilds/TZ.BF.4.0.3.c1-00005-M8996AAAAANAZT-1_20170110_230814/b/HK11/trustzone_images/apps/securemsm/trustzone/qsapps/fidosui/config/build/fidosui/scorpion/IADAANAA/fidosui_config.lib(config.o)
 .debug_abbrev  0x000013e4       0x83 /local/mnt/workspace/CRMBuilds/TZ.BF.4.0.3.c1-00005-M8996AAAAANAZT-1_20170110_230814/b/HK11/trustzone_images/apps/securemsm/trustzone/qsapps/fidosui/locale/build/fidosui/scorpion/IADAANAA/fidosui_locale.lib(locale.o)
 .debug_abbrev  0x00001467       0x83 /local/mnt/workspace/CRMBuilds/TZ.BF.4.0.3.c1-00005-M8996AAAAANAZT-1_20170110_230814/b/HK11/trustzone_images/core/kernel/libstd/build/fidosui/scorpion/IADAANAA/libstd.lib(secure_memset.o)
 .debug_abbrev  0x000014ea       0xa5 /local/mnt/workspace/CRMBuilds/TZ.BF.4.0.3.c1-00005-M8996AAAAANAZT-1_20170110_230814/b/HK11/trustzone_images/core/securemsm/sse/log/build/fidosui/scorpion/IADAANAA/sselog.lib(sselog.o)
 .debug_abbrev  0x0000158f      0x274 /local/mnt/workspace/CRMBuilds/TZ.BF.4.0.3.c1-00005-M8996AAAAANAZT-1_20170110_230814/b/HK11/trustzone_images/core/securemsm/sse/qsee/SecureUI/build/fidosui/scorpion/IADAANAA/secure_ui.lib(SecureUI.o)
 .debug_abbrev  0x00001803      0x2c6 /local/mnt/workspace/CRMBuilds/TZ.BF.4.0.3.c1-00005-M8996AAAAANAZT-1_20170110_230814/b/HK11/trustzone_images/core/securemsm/sse/qsee/SecureUI/build/fidosui/scorpion/IADAANAA/secure_ui_tui.lib(qsee_tui_dialogs.o)
 .debug_abbrev  0x00001ac9      0x34c /local/mnt/workspace/CRMBuilds/TZ.BF.4.0.3.c1-00005-M8996AAAAANAZT-1_20170110_230814/b/HK11/trustzone_images/core/securemsm/sse/qsee/SecureUI/build/fidosui/scorpion/IADAANAA/secure_ui_tui.lib(layout_manager.o)
 .debug_abbrev  0x00001e15      0x348 /local/mnt/workspace/CRMBuilds/TZ.BF.4.0.3.c1-00005-M8996AAAAANAZT-1_20170110_230814/b/HK11/trustzone_images/core/securemsm/sse/qsee/SecureUI/build/fidosui/scorpion/IADAANAA/secure_ui_tui.lib(secure_display_renderer.o)
 .debug_abbrev  0x0000215d      0x2d5 /local/mnt/workspace/CRMBuilds/TZ.BF.4.0.3.c1-00005-M8996AAAAANAZT-1_20170110_230814/b/HK11/trustzone_images/core/securemsm/sse/qsee/SecureUI/build/fidosui/scorpion/IADAANAA/secure_ui_tui.lib(font_manager.o)
 .debug_abbrev  0x00002432      0x1e3 /local/mnt/workspace/CRMBuilds/TZ.BF.4.0.3.c1-00005-M8996AAAAANAZT-1_20170110_230814/b/HK11/trustzone_images/core/securemsm/sse/qsee/SecureUILib/lib/build/fidosui/scorpion/IADAANAA/secure_ui_lib.lib(SecureUILib.o)
 .debug_abbrev  0x00002615      0x130 /local/mnt/workspace/CRMBuilds/TZ.BF.4.0.3.c1-00005-M8996AAAAANAZT-1_20170110_230814/b/HK11/trustzone_images/core/securemsm/sse/qsee/SecureUILib/lib/build/fidosui/scorpion/IADAANAA/secure_ui_lib.lib(01_startTouch.o)
 .debug_abbrev  0x00002745      0x15e /local/mnt/workspace/CRMBuilds/TZ.BF.4.0.3.c1-00005-M8996AAAAANAZT-1_20170110_230814/b/HK11/trustzone_images/core/securemsm/sse/qsee/SecureUILib/lib/build/fidosui/scorpion/IADAANAA/secure_ui_lib.lib(02_processTouch.o)
 .debug_abbrev  0x000028a3      0x130 /local/mnt/workspace/CRMBuilds/TZ.BF.4.0.3.c1-00005-M8996AAAAANAZT-1_20170110_230814/b/HK11/trustzone_images/core/securemsm/sse/qsee/SecureUILib/lib/build/fidosui/scorpion/IADAANAA/secure_ui_lib.lib(03_stopTouch.o)
 .debug_abbrev  0x000029d3      0x13f /local/mnt/workspace/CRMBuilds/TZ.BF.4.0.3.c1-00005-M8996AAAAANAZT-1_20170110_230814/b/HK11/trustzone_images/core/securemsm/sse/qsee/SecureUILib/lib/build/fidosui/scorpion/IADAANAA/secure_ui_lib.lib(04_prepareRequest.o)
 .debug_abbrev  0x00002b12      0x168 /local/mnt/workspace/CRMBuilds/TZ.BF.4.0.3.c1-00005-M8996AAAAANAZT-1_20170110_230814/b/HK11/trustzone_images/core/securemsm/sse/qsee/SecureUILib/lib/build/fidosui/scorpion/IADAANAA/secure_ui_lib.lib(05_storeIndicator.o)
 .debug_abbrev  0x00002c7a      0x1a9 /local/mnt/workspace/CRMBuilds/TZ.BF.4.0.3.c1-00005-M8996AAAAANAZT-1_20170110_230814/b/HK11/trustzone_images/core/securemsm/trustzone/qsapps/libs/applib/proxy/build/fidosui/scorpion/IADAANAA/tzlib_proxy.lib(prxy_qsee_shim.o)
 .debug_abbrev  0x00002e23      0x19e /local/mnt/workspace/CRMBuilds/TZ.BF.4.0.3.c1-00005-M8996AAAAANAZT-1_20170110_230814/b/HK11/trustzone_images/core/securemsm/trustzone/qsapps/libs/applib/proxy/build/fidosui/scorpion/IADAANAA/tzlib_proxy.lib(prxy_ufdes.o)
 .debug_abbrev  0x00002fc1      0x191 /local/mnt/workspace/CRMBuilds/TZ.BF.4.0.3.c1-00005-M8996AAAAANAZT-1_20170110_230814/b/HK11/trustzone_images/core/securemsm/trustzone/qsapps/libs/applib/proxy/build/fidosui/scorpion/IADAANAA/tzlib_proxy.lib(prxy_secmath.o)
 .debug_abbrev  0x00003152      0x1b5 /local/mnt/workspace/CRMBuilds/TZ.BF.4.0.3.c1-00005-M8996AAAAANAZT-1_20170110_230814/b/HK11/trustzone_images/core/securemsm/trustzone/qsapps/libs/applib/proxy/build/fidosui/scorpion/IADAANAA/tzlib_proxy.lib(prxy_secrsa.o)
 .debug_abbrev  0x00003307      0x1b5 /local/mnt/workspace/CRMBuilds/TZ.BF.4.0.3.c1-00005-M8996AAAAANAZT-1_20170110_230814/b/HK11/trustzone_images/core/securemsm/trustzone/qsapps/libs/applib/proxy/build/fidosui/scorpion/IADAANAA/tzlib_proxy.lib(prxy_ecc.o)
 .debug_abbrev  0x000034bc      0x135 /local/mnt/workspace/CRMBuilds/TZ.BF.4.0.3.c1-00005-M8996AAAAANAZT-1_20170110_230814/b/HK11/trustzone_images/core/securemsm/trustzone/qsapps/libs/applib/qsee/build/fidosui/scorpion/IADAANAA/tzapp_entrylib.lib(qsee_secdisp.o)
 .debug_abbrev  0x000035f1      0x15d /local/mnt/workspace/CRMBuilds/TZ.BF.4.0.3.c1-00005-M8996AAAAANAZT-1_20170110_230814/b/HK11/trustzone_images/core/securemsm/trustzone/qsapps/libs/applib/qsee/build/fidosui/scorpion/IADAANAA/tzapp_entrylib.lib(qsee_nsmem.o)
 .debug_abbrev  0x0000374e       0x52 /local/mnt/workspace/CRMBuilds/TZ.BF.4.0.3.c1-00005-M8996AAAAANAZT-1_20170110_230814/b/HK11/trustzone_images/core/securemsm/trustzone/qsapps/libs/applib/qsee/build/fidosui/scorpion/IADAANAA/tzapp_entrylib.lib(qsee_timer_shim.o)
 .debug_abbrev  0x000037a0      0x1bc /local/mnt/workspace/CRMBuilds/TZ.BF.4.0.3.c1-00005-M8996AAAAANAZT-1_20170110_230814/b/HK11/trustzone_images/core/securemsm/trustzone/qsapps/libs/applib/qsee/build/fidosui/scorpion/IADAANAA/tzapp_entrylib.lib(qsee_hash.o)
 .debug_abbrev  0x0000395c      0x145 /local/mnt/workspace/CRMBuilds/TZ.BF.4.0.3.c1-00005-M8996AAAAANAZT-1_20170110_230814/b/HK11/trustzone_images/core/securemsm/trustzone/qsapps/libs/applib/qsee/build/fidosui/scorpion/IADAANAA/tzapp_entrylib.lib(qsee_shared_buffer.o)
 .debug_abbrev  0x00003aa1      0x17a /local/mnt/workspace/CRMBuilds/TZ.BF.4.0.3.c1-00005-M8996AAAAANAZT-1_20170110_230814/b/HK11/trustzone_images/core/securemsm/trustzone/qsapps/libs/applib/qsee/build/fidosui/scorpion/IADAANAA/tzapp_entrylib.lib(qsee_appmessage.o)
 .debug_abbrev  0x00003c1b      0x1ae /local/mnt/workspace/CRMBuilds/TZ.BF.4.0.3.c1-00005-M8996AAAAANAZT-1_20170110_230814/b/HK11/trustzone_images/core/securemsm/trustzone/qsapps/libs/applib/qsee/build/fidosui/scorpion/IADAANAA/tzapp_entrylib.lib(sfs_api.o)
 .debug_abbrev  0x00003dc9      0x203 /local/mnt/workspace/CRMBuilds/TZ.BF.4.0.3.c1-00005-M8996AAAAANAZT-1_20170110_230814/b/HK11/trustzone_images/apps/securemsm/trustzone/qsapps/fidosui/layouts/build/fidosui/scorpion/IADAANAA/secure_ui_layout.lib(layout_8996_fluid.o)
 .debug_abbrev  0x00003fcc      0x27e /local/mnt/workspace/CRMBuilds/TZ.BF.4.0.3.c1-00005-M8996AAAAANAZT-1_20170110_230814/b/HK11/trustzone_images/core/securemsm/sse/SecureTouch/layout/build/fidosui/scorpion/IADAANAA/sklayout.lib(layoutUtils.o)
 .debug_abbrev  0x0000424a      0x328 /local/mnt/workspace/CRMBuilds/TZ.BF.4.0.3.c1-00005-M8996AAAAANAZT-1_20170110_230814/b/HK11/trustzone_images/core/securemsm/sse/qsee/SecureDisplay/libgd/build/fidosui/scorpion/IADAANAA/libgd.lib(gd.o)
 .debug_abbrev  0x00004572      0x111 /local/mnt/workspace/CRMBuilds/TZ.BF.4.0.3.c1-00005-M8996AAAAANAZT-1_20170110_230814/b/HK11/trustzone_images/core/securemsm/sse/qsee/SecureDisplay/libgd/build/fidosui/scorpion/IADAANAA/libgd.lib(gd_color.o)
 .debug_abbrev  0x00004683       0x4a /local/mnt/workspace/CRMBuilds/TZ.BF.4.0.3.c1-00005-M8996AAAAANAZT-1_20170110_230814/b/HK11/trustzone_images/core/securemsm/sse/qsee/SecureDisplay/libgd/build/fidosui/scorpion/IADAANAA/libgd.lib(gd_security.o)
 .debug_abbrev  0x000046cd       0x62 /local/mnt/workspace/CRMBuilds/TZ.BF.4.0.3.c1-00005-M8996AAAAANAZT-1_20170110_230814/b/HK11/trustzone_images/core/securemsm/sse/qsee/SecureDisplay/libgd/build/fidosui/scorpion/IADAANAA/libgd.lib(gdtables.o)
 .debug_abbrev  0x0000472f      0x1ff /local/mnt/workspace/CRMBuilds/TZ.BF.4.0.3.c1-00005-M8996AAAAANAZT-1_20170110_230814/b/HK11/trustzone_images/core/securemsm/sse/qsee/SecureDisplay/libpng/build/fidosui/scorpion/IADAANAA/libpng.lib(png.o)
 .debug_abbrev  0x0000492e      0x191 /local/mnt/workspace/CRMBuilds/TZ.BF.4.0.3.c1-00005-M8996AAAAANAZT-1_20170110_230814/b/HK11/trustzone_images/core/securemsm/sse/qsee/SecureDisplay/libpng/build/fidosui/scorpion/IADAANAA/libpng.lib(pngerror.o)
 .debug_abbrev  0x00004abf      0x136 /local/mnt/workspace/CRMBuilds/TZ.BF.4.0.3.c1-00005-M8996AAAAANAZT-1_20170110_230814/b/HK11/trustzone_images/core/securemsm/sse/qsee/SecureDisplay/libpng/build/fidosui/scorpion/IADAANAA/libpng.lib(pngget.o)
 .debug_abbrev  0x00004bf5      0x17c /local/mnt/workspace/CRMBuilds/TZ.BF.4.0.3.c1-00005-M8996AAAAANAZT-1_20170110_230814/b/HK11/trustzone_images/core/securemsm/sse/qsee/SecureDisplay/libpng/build/fidosui/scorpion/IADAANAA/libpng.lib(pngmem.o)
 .debug_abbrev  0x00004d71      0x1cb /local/mnt/workspace/CRMBuilds/TZ.BF.4.0.3.c1-00005-M8996AAAAANAZT-1_20170110_230814/b/HK11/trustzone_images/core/securemsm/sse/qsee/SecureDisplay/libpng/build/fidosui/scorpion/IADAANAA/libpng.lib(pngread.o)
 .debug_abbrev  0x00004f3c       0xee /local/mnt/workspace/CRMBuilds/TZ.BF.4.0.3.c1-00005-M8996AAAAANAZT-1_20170110_230814/b/HK11/trustzone_images/core/securemsm/sse/qsee/SecureDisplay/libpng/build/fidosui/scorpion/IADAANAA/libpng.lib(pngrio.o)
 .debug_abbrev  0x0000502a      0x2a1 /local/mnt/workspace/CRMBuilds/TZ.BF.4.0.3.c1-00005-M8996AAAAANAZT-1_20170110_230814/b/HK11/trustzone_images/core/securemsm/sse/qsee/SecureDisplay/libpng/build/fidosui/scorpion/IADAANAA/libpng.lib(pngrutil.o)
 .debug_abbrev  0x000052cb      0x13f /local/mnt/workspace/CRMBuilds/TZ.BF.4.0.3.c1-00005-M8996AAAAANAZT-1_20170110_230814/b/HK11/trustzone_images/core/securemsm/sse/qsee/SecureDisplay/libpng/build/fidosui/scorpion/IADAANAA/libpng.lib(pngset.o)
 .debug_abbrev  0x0000540a      0x19e /local/mnt/workspace/CRMBuilds/TZ.BF.4.0.3.c1-00005-M8996AAAAANAZT-1_20170110_230814/b/HK11/trustzone_images/core/securemsm/sse/qsee/SecureDisplay/zlib/build/fidosui/scorpion/IADAANAA/zlib.lib(crc32.o)
 .debug_abbrev  0x000055a8      0x233 /local/mnt/workspace/CRMBuilds/TZ.BF.4.0.3.c1-00005-M8996AAAAANAZT-1_20170110_230814/b/HK11/trustzone_images/core/securemsm/sse/qsee/SecureDisplay/zlib/build/fidosui/scorpion/IADAANAA/zlib.lib(inflate.o)
 .debug_abbrev  0x000057db      0x11b /local/mnt/workspace/CRMBuilds/TZ.BF.4.0.3.c1-00005-M8996AAAAANAZT-1_20170110_230814/b/HK11/trustzone_images/core/securemsm/sse/qsee/SecureDisplay/zlib/build/fidosui/scorpion/IADAANAA/zlib.lib(inftrees.o)
 .debug_abbrev  0x000058f6      0x110 /local/mnt/workspace/CRMBuilds/TZ.BF.4.0.3.c1-00005-M8996AAAAANAZT-1_20170110_230814/b/HK11/trustzone_images/core/securemsm/sse/qsee/SecureDisplay/zlib/build/fidosui/scorpion/IADAANAA/zlib.lib(zutil.o)
 .debug_abbrev  0x00005a06       0x9c /local/mnt/workspace/CRMBuilds/TZ.BF.4.0.3.c1-00005-M8996AAAAANAZT-1_20170110_230814/b/HK11/trustzone_images/core/securemsm/sse/qsee/SecureDisplay/zlib/build/fidosui/scorpion/IADAANAA/zlib.lib(adler32.o)
 .debug_abbrev  0x00005aa2      0x13a /local/mnt/workspace/CRMBuilds/TZ.BF.4.0.3.c1-00005-M8996AAAAANAZT-1_20170110_230814/b/HK11/trustzone_images/core/securemsm/sse/qsee/SecureDisplay/zlib/build/fidosui/scorpion/IADAANAA/zlib.lib(inffast.o)
 .debug_abbrev  0x00005bdc       0xdd /local/mnt/workspace/CRMBuilds/TZ.BF.4.0.3.c1-00005-M8996AAAAANAZT-1_20170110_230814/b/HK11/trustzone_images/core/securemsm/sse/qsee/SecureTouch/drTs/lib/build/fidosui/scorpion/IADAANAA/touch_lib.lib(01_open.o)
 .debug_abbrev  0x00005cb9       0x8c /local/mnt/workspace/CRMBuilds/TZ.BF.4.0.3.c1-00005-M8996AAAAANAZT-1_20170110_230814/b/HK11/trustzone_images/core/securemsm/sse/qsee/SecureTouch/drTs/lib/build/fidosui/scorpion/IADAANAA/touch_lib.lib(02_close.o)
 .debug_abbrev  0x00005d45       0xec /local/mnt/workspace/CRMBuilds/TZ.BF.4.0.3.c1-00005-M8996AAAAANAZT-1_20170110_230814/b/HK11/trustzone_images/core/securemsm/sse/qsee/SecureTouch/drTs/lib/build/fidosui/scorpion/IADAANAA/touch_lib.lib(03_getData.o)
 .debug_abbrev  0x00005e31      0x182 /local/mnt/workspace/CRMBuilds/TZ.BF.4.0.3.c1-00005-M8996AAAAANAZT-1_20170110_230814/b/HK11/trustzone_images/core/securemsm/trustzone/qsapps/libs/applib/common_applib/build/fidosui/scorpion/IADAANAA/tzapp_entrylib.lib(gpPersistObjCommon.o)
 .debug_abbrev  0x00005fb3      0x150 /local/mnt/workspace/CRMBuilds/TZ.BF.4.0.3.c1-00005-M8996AAAAANAZT-1_20170110_230814/b/HK11/trustzone_images/core/securemsm/trustzone/qsapps/libs/applib/common_applib/build/fidosui/scorpion/IADAANAA/tzapp_entrylib.lib(gpPersistentObjects.o)
 .debug_abbrev  0x00006103      0x1eb /local/mnt/workspace/CRMBuilds/TZ.BF.4.0.3.c1-00005-M8996AAAAANAZT-1_20170110_230814/b/HK11/trustzone_images/core/securemsm/trustzone/qsapps/libs/applib/common_applib/build/fidosui/scorpion/IADAANAA/tzapp_entrylib.lib(gpPersistObjData.o)
 .debug_abbrev  0x000062ee      0x18d /local/mnt/workspace/CRMBuilds/TZ.BF.4.0.3.c1-00005-M8996AAAAANAZT-1_20170110_230814/b/HK11/trustzone_images/core/securemsm/trustzone/qsapps/libs/applib/common_applib/build/fidosui/scorpion/IADAANAA/tzapp_entrylib.lib(gpPersistObjHandler.o)
 .debug_abbrev  0x0000647b      0x21c /local/mnt/workspace/CRMBuilds/TZ.BF.4.0.3.c1-00005-M8996AAAAANAZT-1_20170110_230814/b/HK11/trustzone_images/core/securemsm/trustzone/qsapps/libs/applib/common_applib/build/fidosui/scorpion/IADAANAA/tzapp_entrylib.lib(gpPersistObjIndex.o)
 .debug_abbrev  0x00006697      0x21e /local/mnt/workspace/CRMBuilds/TZ.BF.4.0.3.c1-00005-M8996AAAAANAZT-1_20170110_230814/b/HK11/trustzone_images/core/securemsm/trustzone/qsapps/libs/applib/common_applib/build/fidosui/scorpion/IADAANAA/tzapp_entrylib.lib(gpPersistObjVersion.o)
 .debug_abbrev  0x000068b5      0x1e5 /local/mnt/workspace/CRMBuilds/TZ.BF.4.0.3.c1-00005-M8996AAAAANAZT-1_20170110_230814/b/HK11/trustzone_images/core/securemsm/trustzone/qsapps/libs/applib/common_applib/build/fidosui/scorpion/IADAANAA/tzapp_entrylib.lib(gpPersistObjCrypto.o)
 .debug_abbrev  0x00006a9a       0xdf /local/mnt/workspace/CRMBuilds/TZ.BF.4.0.3.c1-00005-M8996AAAAANAZT-1_20170110_230814/b/HK11/trustzone_images/core/securemsm/trustzone/qsapps/libs/applib/common_applib/build/fidosui/scorpion/IADAANAA/tzapp_entrylib.lib(gpPersistObjFileIO.o)
 .debug_abbrev  0x00006b79      0x10b /local/mnt/workspace/CRMBuilds/TZ.BF.4.0.3.c1-00005-M8996AAAAANAZT-1_20170110_230814/b/HK11/trustzone_images/core/securemsm/trustzone/qsapps/libs/applib/common_applib/build/fidosui/scorpion/IADAANAA/tzapp_entrylib.lib(gpFileService.o)
 .debug_abbrev  0x00006c84       0xf9 /local/mnt/workspace/CRMBuilds/TZ.BF.4.0.3.c1-00005-M8996AAAAANAZT-1_20170110_230814/b/HK11/trustzone_images/core/securemsm/trustzone/qsapps/libs/applib/qsee/build/fidosui/scorpion/IADAANAA/tzapp_entrylib.lib(qsee_core_shim.o)
 .debug_abbrev  0x00006d7d      0x160 /local/mnt/workspace/CRMBuilds/TZ.BF.4.0.3.c1-00005-M8996AAAAANAZT-1_20170110_230814/b/HK11/trustzone_images/core/securemsm/trustzone/qsapps/libs/applib/qsee/build/fidosui/scorpion/IADAANAA/tzapp_entrylib.lib(stor.o)
 .debug_abbrev  0x00006edd      0x18e /local/mnt/workspace/CRMBuilds/TZ.BF.4.0.3.c1-00005-M8996AAAAANAZT-1_20170110_230814/b/HK11/trustzone_images/core/securemsm/trustzone/qsapps/libs/applib/qsee/build/fidosui/scorpion/IADAANAA/tzapp_entrylib.lib(stor_gpt.o)
 .debug_abbrev  0x0000706b       0xd3 /local/mnt/workspace/CRMBuilds/TZ.BF.4.0.3.c1-00005-M8996AAAAANAZT-1_20170110_230814/b/HK11/trustzone_images/core/securemsm/trustzone/qsapps/libs/applib/qsee/build/fidosui/scorpion/IADAANAA/tzapp_entrylib.lib(stor_rpmbw.o)
 .debug_abbrev  0x0000713e       0xc1 /local/mnt/workspace/CRMBuilds/TZ.BF.4.0.3.c1-00005-M8996AAAAANAZT-1_20170110_230814/b/HK11/trustzone_images/core/securemsm/trustzone/qsapps/libs/applib/qsee/build/fidosui/scorpion/IADAANAA/tzapp_entrylib.lib(qsee_cfg_prop_shim.o)
 .debug_abbrev  0x000071ff      0x1d3 /local/mnt/workspace/CRMBuilds/TZ.BF.4.0.3.c1-00005-M8996AAAAANAZT-1_20170110_230814/b/HK11/trustzone_images/core/securemsm/trustzone/qsapps/libs/applib/qsee/build/fidosui/scorpion/IADAANAA/tzapp_entrylib.lib(qsee_cipher.o)
 .debug_abbrev  0x000073d2      0x1a3 /local/mnt/workspace/CRMBuilds/TZ.BF.4.0.3.c1-00005-M8996AAAAANAZT-1_20170110_230814/b/HK11/trustzone_images/core/securemsm/trustzone/qsapps/libs/applib/qsee/build/fidosui/scorpion/IADAANAA/tzapp_entrylib.lib(qsee_hmac.o)
 .debug_abbrev  0x00007575       0x84 /local/mnt/workspace/CRMBuilds/TZ.BF.4.0.3.c1-00005-M8996AAAAANAZT-1_20170110_230814/b/HK11/trustzone_images/core/securemsm/trustzone/qsapps/libs/applib/qsee/build/fidosui/scorpion/IADAANAA/tzapp_entrylib.lib(gpPersistObjPanic.o)
 .debug_abbrev  0x000075f9       0x83 /local/mnt/workspace/CRMBuilds/TZ.BF.4.0.3.c1-00005-M8996AAAAANAZT-1_20170110_230814/b/HK11/trustzone_images/core/kernel/libstd/build/fidosui/scorpion/IADAANAA/libstd.lib(timesafe_memcmp.o)
 .debug_abbrev  0x0000767c      0x207 /local/mnt/workspace/CRMBuilds/TZ.BF.4.0.3.c1-00005-M8996AAAAANAZT-1_20170110_230814/b/HK11/trustzone_images/core/securemsm/sse/SecureTouch/controller/build/fidosui/scorpion/IADAANAA/drts_controller_msm8996.lib(atmel_mxt_ts.o)
 .debug_abbrev  0x00007883      0x20d /local/mnt/workspace/CRMBuilds/TZ.BF.4.0.3.c1-00005-M8996AAAAANAZT-1_20170110_230814/b/HK11/trustzone_images/core/securemsm/sse/SecureTouch/controller/build/fidosui/scorpion/IADAANAA/drts_controller_msm8996.lib(synaptics_ts.o)
 .debug_abbrev  0x00007a90       0xbc /local/mnt/workspace/CRMBuilds/TZ.BF.4.0.3.c1-00005-M8996AAAAANAZT-1_20170110_230814/b/HK11/trustzone_images/core/securemsm/sse/qsee/SecureTouch/drTs/controller/build/fidosui/scorpion/IADAANAA/touch_controller_i2c_msm8996.lib(atmel_mxt_ts_i2c.o)
 .debug_abbrev  0x00007b4c       0xbc /local/mnt/workspace/CRMBuilds/TZ.BF.4.0.3.c1-00005-M8996AAAAANAZT-1_20170110_230814/b/HK11/trustzone_images/core/securemsm/sse/qsee/SecureTouch/drTs/controller/build/fidosui/scorpion/IADAANAA/touch_controller_i2c_msm8996.lib(synaptics_ts_i2c.o)
 .debug_abbrev  0x00007c08      0x192 /local/mnt/workspace/CRMBuilds/TZ.BF.4.0.3.c1-00005-M8996AAAAANAZT-1_20170110_230814/b/HK11/trustzone_images/core/securemsm/trustzone/qsapps/libs/applib/qsee/build/fidosui/scorpion/IADAANAA/tzapp_entrylib.lib(qsee_i2c.o)

.debug_line     0x00000000    0x24909
 .debug_line    0x00000000       0xe0 /local/mnt/workspace/CRMBuilds/TZ.BF.4.0.3.c1-00005-M8996AAAAANAZT-1_20170110_230814/b/HK11/trustzone_images/apps/securemsm/trustzone/qsapps/fidosui/build/fidosui/scorpion/IADAANAA/metadata.o
 .debug_line    0x000000e0      0x226 /local/mnt/workspace/CRMBuilds/TZ.BF.4.0.3.c1-00005-M8996AAAAANAZT-1_20170110_230814/b/HK11/trustzone_images/apps/securemsm/trustzone/qsapps/fidosui/ipc/build/fidosui/scorpion/IADAANAA/src/CFidoSuiToken.o
 .debug_line    0x00000306      0x10f /local/mnt/workspace/CRMBuilds/TZ.BF.4.0.3.c1-00005-M8996AAAAANAZT-1_20170110_230814/b/HK11/trustzone_images/core/kernel/libstd/build/fidosui/scorpion/IADAANAA/libstd.lib(memscpy.o)
 .debug_line    0x00000415      0x7c6 /local/mnt/workspace/CRMBuilds/TZ.BF.4.0.3.c1-00005-M8996AAAAANAZT-1_20170110_230814/b/HK11/trustzone_images/core/securemsm/trustzone/qsapps/libs/applib/common_applib/build/fidosui/scorpion/IADAANAA/tzapp_entrylib.lib(common_applib.o)
 .debug_line    0x00000bdb      0xc37 /local/mnt/workspace/CRMBuilds/TZ.BF.4.0.3.c1-00005-M8996AAAAANAZT-1_20170110_230814/b/HK11/trustzone_images/core/securemsm/trustzone/qsapps/libs/applib/proxy/build/fidosui/scorpion/IADAANAA/tzlib_proxy.lib(prxy_services.o)
 .debug_line    0x00001812      0x36c /local/mnt/workspace/CRMBuilds/TZ.BF.4.0.3.c1-00005-M8996AAAAANAZT-1_20170110_230814/b/HK11/trustzone_images/core/securemsm/trustzone/qsapps/libs/applib/qsee/build/fidosui/scorpion/IADAANAA/tzapp_entrylib.lib(mink_shared_code.o)
 .debug_line    0x00001b7e      0x2f9 /local/mnt/workspace/CRMBuilds/TZ.BF.4.0.3.c1-00005-M8996AAAAANAZT-1_20170110_230814/b/HK11/trustzone_images/core/securemsm/trustzone/qsapps/libs/applib/qsee/build/fidosui/scorpion/IADAANAA/tzapp_entrylib.lib(qsee_env.o)
 .debug_line    0x00001e77      0x28b /local/mnt/workspace/CRMBuilds/TZ.BF.4.0.3.c1-00005-M8996AAAAANAZT-1_20170110_230814/b/HK11/trustzone_images/core/securemsm/trustzone/qsapps/libs/applib/qsee/build/fidosui/scorpion/IADAANAA/tzapp_entrylib.lib(qsee_prng.o)
 .debug_line    0x00002102      0x218 /local/mnt/workspace/CRMBuilds/TZ.BF.4.0.3.c1-00005-M8996AAAAANAZT-1_20170110_230814/b/HK11/trustzone_images/core/securemsm/trustzone/qsapps/libs/applib/qsee/build/fidosui/scorpion/IADAANAA/tzapp_entrylib.lib(tzapp_lib_main.o)
 .debug_line    0x0000231a      0x659 /local/mnt/workspace/CRMBuilds/TZ.BF.4.0.3.c1-00005-M8996AAAAANAZT-1_20170110_230814/b/HK11/trustzone_images/apps/securemsm/trustzone/qsapps/fidosui/app/build/fidosui/scorpion/IADAANAA/fidosui_app.lib(app_main.o)
 .debug_line    0x00002973      0x29a /local/mnt/workspace/CRMBuilds/TZ.BF.4.0.3.c1-00005-M8996AAAAANAZT-1_20170110_230814/b/HK11/trustzone_images/apps/securemsm/trustzone/qsapps/fidosui/app/build/fidosui/scorpion/IADAANAA/fidosui_app.lib(01_Initialize.o)
 .debug_line    0x00002c0d      0x6e7 /local/mnt/workspace/CRMBuilds/TZ.BF.4.0.3.c1-00005-M8996AAAAANAZT-1_20170110_230814/b/HK11/trustzone_images/apps/securemsm/trustzone/qsapps/fidosui/app/build/fidosui/scorpion/IADAANAA/fidosui_app.lib(08_ShowMessageSui.o)
 .debug_line    0x000032f4      0x5cb /local/mnt/workspace/CRMBuilds/TZ.BF.4.0.3.c1-00005-M8996AAAAANAZT-1_20170110_230814/b/HK11/trustzone_images/apps/securemsm/trustzone/qsapps/fidosui/app/build/fidosui/scorpion/IADAANAA/fidosui_app.lib(fsSecureUI.o)
 .debug_line    0x000038bf      0x212 /local/mnt/workspace/CRMBuilds/TZ.BF.4.0.3.c1-00005-M8996AAAAANAZT-1_20170110_230814/b/HK11/trustzone_images/apps/securemsm/trustzone/qsapps/fidosui/app/build/fidosui/scorpion/IADAANAA/fidosui_app.lib(fsLocale.o)
 .debug_line    0x00003ad1      0x1cb /local/mnt/workspace/CRMBuilds/TZ.BF.4.0.3.c1-00005-M8996AAAAANAZT-1_20170110_230814/b/HK11/trustzone_images/apps/securemsm/trustzone/qsapps/fidosui/config/build/fidosui/scorpion/IADAANAA/fidosui_config.lib(config.o)
 .debug_line    0x00003c9c      0x1cb /local/mnt/workspace/CRMBuilds/TZ.BF.4.0.3.c1-00005-M8996AAAAANAZT-1_20170110_230814/b/HK11/trustzone_images/apps/securemsm/trustzone/qsapps/fidosui/locale/build/fidosui/scorpion/IADAANAA/fidosui_locale.lib(locale.o)
 .debug_line    0x00003e67      0x116 /local/mnt/workspace/CRMBuilds/TZ.BF.4.0.3.c1-00005-M8996AAAAANAZT-1_20170110_230814/b/HK11/trustzone_images/core/kernel/libstd/build/fidosui/scorpion/IADAANAA/libstd.lib(secure_memset.o)
 .debug_line    0x00003f7d      0x12f /local/mnt/workspace/CRMBuilds/TZ.BF.4.0.3.c1-00005-M8996AAAAANAZT-1_20170110_230814/b/HK11/trustzone_images/core/securemsm/sse/log/build/fidosui/scorpion/IADAANAA/sselog.lib(sselog.o)
 .debug_line    0x000040ac      0xd74 /local/mnt/workspace/CRMBuilds/TZ.BF.4.0.3.c1-00005-M8996AAAAANAZT-1_20170110_230814/b/HK11/trustzone_images/core/securemsm/sse/qsee/SecureUI/build/fidosui/scorpion/IADAANAA/secure_ui.lib(SecureUI.o)
 .debug_line    0x00004e20     0x1593 /local/mnt/workspace/CRMBuilds/TZ.BF.4.0.3.c1-00005-M8996AAAAANAZT-1_20170110_230814/b/HK11/trustzone_images/core/securemsm/sse/qsee/SecureUI/build/fidosui/scorpion/IADAANAA/secure_ui_tui.lib(qsee_tui_dialogs.o)
 .debug_line    0x000063b3      0xec6 /local/mnt/workspace/CRMBuilds/TZ.BF.4.0.3.c1-00005-M8996AAAAANAZT-1_20170110_230814/b/HK11/trustzone_images/core/securemsm/sse/qsee/SecureUI/build/fidosui/scorpion/IADAANAA/secure_ui_tui.lib(layout_manager.o)
 .debug_line    0x00007279     0x1241 /local/mnt/workspace/CRMBuilds/TZ.BF.4.0.3.c1-00005-M8996AAAAANAZT-1_20170110_230814/b/HK11/trustzone_images/core/securemsm/sse/qsee/SecureUI/build/fidosui/scorpion/IADAANAA/secure_ui_tui.lib(secure_display_renderer.o)
 .debug_line    0x000084ba     0x108f /local/mnt/workspace/CRMBuilds/TZ.BF.4.0.3.c1-00005-M8996AAAAANAZT-1_20170110_230814/b/HK11/trustzone_images/core/securemsm/sse/qsee/SecureUI/build/fidosui/scorpion/IADAANAA/secure_ui_tui.lib(font_manager.o)
 .debug_line    0x00009549      0x4d7 /local/mnt/workspace/CRMBuilds/TZ.BF.4.0.3.c1-00005-M8996AAAAANAZT-1_20170110_230814/b/HK11/trustzone_images/core/securemsm/sse/qsee/SecureUILib/lib/build/fidosui/scorpion/IADAANAA/secure_ui_lib.lib(SecureUILib.o)
 .debug_line    0x00009a20      0x3e8 /local/mnt/workspace/CRMBuilds/TZ.BF.4.0.3.c1-00005-M8996AAAAANAZT-1_20170110_230814/b/HK11/trustzone_images/core/securemsm/sse/qsee/SecureUILib/lib/build/fidosui/scorpion/IADAANAA/secure_ui_lib.lib(01_startTouch.o)
 .debug_line    0x00009e08      0x4cb /local/mnt/workspace/CRMBuilds/TZ.BF.4.0.3.c1-00005-M8996AAAAANAZT-1_20170110_230814/b/HK11/trustzone_images/core/securemsm/sse/qsee/SecureUILib/lib/build/fidosui/scorpion/IADAANAA/secure_ui_lib.lib(02_processTouch.o)
 .debug_line    0x0000a2d3      0x3f5 /local/mnt/workspace/CRMBuilds/TZ.BF.4.0.3.c1-00005-M8996AAAAANAZT-1_20170110_230814/b/HK11/trustzone_images/core/securemsm/sse/qsee/SecureUILib/lib/build/fidosui/scorpion/IADAANAA/secure_ui_lib.lib(03_stopTouch.o)
 .debug_line    0x0000a6c8      0x47f /local/mnt/workspace/CRMBuilds/TZ.BF.4.0.3.c1-00005-M8996AAAAANAZT-1_20170110_230814/b/HK11/trustzone_images/core/securemsm/sse/qsee/SecureUILib/lib/build/fidosui/scorpion/IADAANAA/secure_ui_lib.lib(04_prepareRequest.o)
 .debug_line    0x0000ab47      0x485 /local/mnt/workspace/CRMBuilds/TZ.BF.4.0.3.c1-00005-M8996AAAAANAZT-1_20170110_230814/b/HK11/trustzone_images/core/securemsm/sse/qsee/SecureUILib/lib/build/fidosui/scorpion/IADAANAA/secure_ui_lib.lib(05_storeIndicator.o)
 .debug_line    0x0000afcc      0x620 /local/mnt/workspace/CRMBuilds/TZ.BF.4.0.3.c1-00005-M8996AAAAANAZT-1_20170110_230814/b/HK11/trustzone_images/core/securemsm/trustzone/qsapps/libs/applib/proxy/build/fidosui/scorpion/IADAANAA/tzlib_proxy.lib(prxy_qsee_shim.o)
 .debug_line    0x0000b5ec      0x9fa /local/mnt/workspace/CRMBuilds/TZ.BF.4.0.3.c1-00005-M8996AAAAANAZT-1_20170110_230814/b/HK11/trustzone_images/core/securemsm/trustzone/qsapps/libs/applib/proxy/build/fidosui/scorpion/IADAANAA/tzlib_proxy.lib(prxy_ufdes.o)
 .debug_line    0x0000bfe6      0x9d4 /local/mnt/workspace/CRMBuilds/TZ.BF.4.0.3.c1-00005-M8996AAAAANAZT-1_20170110_230814/b/HK11/trustzone_images/core/securemsm/trustzone/qsapps/libs/applib/proxy/build/fidosui/scorpion/IADAANAA/tzlib_proxy.lib(prxy_secmath.o)
 .debug_line    0x0000c9ba      0xa8f /local/mnt/workspace/CRMBuilds/TZ.BF.4.0.3.c1-00005-M8996AAAAANAZT-1_20170110_230814/b/HK11/trustzone_images/core/securemsm/trustzone/qsapps/libs/applib/proxy/build/fidosui/scorpion/IADAANAA/tzlib_proxy.lib(prxy_secrsa.o)
 .debug_line    0x0000d449      0xafc /local/mnt/workspace/CRMBuilds/TZ.BF.4.0.3.c1-00005-M8996AAAAANAZT-1_20170110_230814/b/HK11/trustzone_images/core/securemsm/trustzone/qsapps/libs/applib/proxy/build/fidosui/scorpion/IADAANAA/tzlib_proxy.lib(prxy_ecc.o)
 .debug_line    0x0000df45      0x2da /local/mnt/workspace/CRMBuilds/TZ.BF.4.0.3.c1-00005-M8996AAAAANAZT-1_20170110_230814/b/HK11/trustzone_images/core/securemsm/trustzone/qsapps/libs/applib/qsee/build/fidosui/scorpion/IADAANAA/tzapp_entrylib.lib(qsee_secdisp.o)
 .debug_line    0x0000e21f      0x336 /local/mnt/workspace/CRMBuilds/TZ.BF.4.0.3.c1-00005-M8996AAAAANAZT-1_20170110_230814/b/HK11/trustzone_images/core/securemsm/trustzone/qsapps/libs/applib/qsee/build/fidosui/scorpion/IADAANAA/tzapp_entrylib.lib(qsee_nsmem.o)
 .debug_line    0x0000e555       0xeb /local/mnt/workspace/CRMBuilds/TZ.BF.4.0.3.c1-00005-M8996AAAAANAZT-1_20170110_230814/b/HK11/trustzone_images/core/securemsm/trustzone/qsapps/libs/applib/qsee/build/fidosui/scorpion/IADAANAA/tzapp_entrylib.lib(qsee_timer_shim.o)
 .debug_line    0x0000e640      0x566 /local/mnt/workspace/CRMBuilds/TZ.BF.4.0.3.c1-00005-M8996AAAAANAZT-1_20170110_230814/b/HK11/trustzone_images/core/securemsm/trustzone/qsapps/libs/applib/qsee/build/fidosui/scorpion/IADAANAA/tzapp_entrylib.lib(qsee_hash.o)
 .debug_line    0x0000eba6      0x2d4 /local/mnt/workspace/CRMBuilds/TZ.BF.4.0.3.c1-00005-M8996AAAAANAZT-1_20170110_230814/b/HK11/trustzone_images/core/securemsm/trustzone/qsapps/libs/applib/qsee/build/fidosui/scorpion/IADAANAA/tzapp_entrylib.lib(qsee_shared_buffer.o)
 .debug_line    0x0000ee7a      0x310 /local/mnt/workspace/CRMBuilds/TZ.BF.4.0.3.c1-00005-M8996AAAAANAZT-1_20170110_230814/b/HK11/trustzone_images/core/securemsm/trustzone/qsapps/libs/applib/qsee/build/fidosui/scorpion/IADAANAA/tzapp_entrylib.lib(qsee_appmessage.o)
 .debug_line    0x0000f18a      0x4fa /local/mnt/workspace/CRMBuilds/TZ.BF.4.0.3.c1-00005-M8996AAAAANAZT-1_20170110_230814/b/HK11/trustzone_images/core/securemsm/trustzone/qsapps/libs/applib/qsee/build/fidosui/scorpion/IADAANAA/tzapp_entrylib.lib(sfs_api.o)
 .debug_line    0x0000f684     0x9640 /local/mnt/workspace/CRMBuilds/TZ.BF.4.0.3.c1-00005-M8996AAAAANAZT-1_20170110_230814/b/HK11/trustzone_images/apps/securemsm/trustzone/qsapps/fidosui/layouts/build/fidosui/scorpion/IADAANAA/secure_ui_layout.lib(layout_8996_fluid.o)
 .debug_line    0x00018cc4      0x785 /local/mnt/workspace/CRMBuilds/TZ.BF.4.0.3.c1-00005-M8996AAAAANAZT-1_20170110_230814/b/HK11/trustzone_images/core/securemsm/sse/SecureTouch/layout/build/fidosui/scorpion/IADAANAA/sklayout.lib(layoutUtils.o)
 .debug_line    0x00019449     0x16dd /local/mnt/workspace/CRMBuilds/TZ.BF.4.0.3.c1-00005-M8996AAAAANAZT-1_20170110_230814/b/HK11/trustzone_images/core/securemsm/sse/qsee/SecureDisplay/libgd/build/fidosui/scorpion/IADAANAA/libgd.lib(gd.o)
 .debug_line    0x0001ab26      0x208 /local/mnt/workspace/CRMBuilds/TZ.BF.4.0.3.c1-00005-M8996AAAAANAZT-1_20170110_230814/b/HK11/trustzone_images/core/securemsm/sse/qsee/SecureDisplay/libgd/build/fidosui/scorpion/IADAANAA/libgd.lib(gd_color.o)
 .debug_line    0x0001ad2e       0xdc /local/mnt/workspace/CRMBuilds/TZ.BF.4.0.3.c1-00005-M8996AAAAANAZT-1_20170110_230814/b/HK11/trustzone_images/core/securemsm/sse/qsee/SecureDisplay/libgd/build/fidosui/scorpion/IADAANAA/libgd.lib(gd_security.o)
 .debug_line    0x0001ae0a       0xc3 /local/mnt/workspace/CRMBuilds/TZ.BF.4.0.3.c1-00005-M8996AAAAANAZT-1_20170110_230814/b/HK11/trustzone_images/core/securemsm/sse/qsee/SecureDisplay/libgd/build/fidosui/scorpion/IADAANAA/libgd.lib(gdtables.o)
 .debug_line    0x0001aecd      0x466 /local/mnt/workspace/CRMBuilds/TZ.BF.4.0.3.c1-00005-M8996AAAAANAZT-1_20170110_230814/b/HK11/trustzone_images/core/securemsm/sse/qsee/SecureDisplay/libpng/build/fidosui/scorpion/IADAANAA/libpng.lib(png.o)
 .debug_line    0x0001b333      0x2f3 /local/mnt/workspace/CRMBuilds/TZ.BF.4.0.3.c1-00005-M8996AAAAANAZT-1_20170110_230814/b/HK11/trustzone_images/core/securemsm/sse/qsee/SecureDisplay/libpng/build/fidosui/scorpion/IADAANAA/libpng.lib(pngerror.o)
 .debug_line    0x0001b626      0x2f5 /local/mnt/workspace/CRMBuilds/TZ.BF.4.0.3.c1-00005-M8996AAAAANAZT-1_20170110_230814/b/HK11/trustzone_images/core/securemsm/sse/qsee/SecureDisplay/libpng/build/fidosui/scorpion/IADAANAA/libpng.lib(pngget.o)
 .debug_line    0x0001b91b      0x2fd /local/mnt/workspace/CRMBuilds/TZ.BF.4.0.3.c1-00005-M8996AAAAANAZT-1_20170110_230814/b/HK11/trustzone_images/core/securemsm/sse/qsee/SecureDisplay/libpng/build/fidosui/scorpion/IADAANAA/libpng.lib(pngmem.o)
 .debug_line    0x0001bc18      0x414 /local/mnt/workspace/CRMBuilds/TZ.BF.4.0.3.c1-00005-M8996AAAAANAZT-1_20170110_230814/b/HK11/trustzone_images/core/securemsm/sse/qsee/SecureDisplay/libpng/build/fidosui/scorpion/IADAANAA/libpng.lib(pngread.o)
 .debug_line    0x0001c02c      0x2ac /local/mnt/workspace/CRMBuilds/TZ.BF.4.0.3.c1-00005-M8996AAAAANAZT-1_20170110_230814/b/HK11/trustzone_images/core/securemsm/sse/qsee/SecureDisplay/libpng/build/fidosui/scorpion/IADAANAA/libpng.lib(pngrio.o)
 .debug_line    0x0001c2d8      0x6dd /local/mnt/workspace/CRMBuilds/TZ.BF.4.0.3.c1-00005-M8996AAAAANAZT-1_20170110_230814/b/HK11/trustzone_images/core/securemsm/sse/qsee/SecureDisplay/libpng/build/fidosui/scorpion/IADAANAA/libpng.lib(pngrutil.o)
 .debug_line    0x0001c9b5      0x325 /local/mnt/workspace/CRMBuilds/TZ.BF.4.0.3.c1-00005-M8996AAAAANAZT-1_20170110_230814/b/HK11/trustzone_images/core/securemsm/sse/qsee/SecureDisplay/libpng/build/fidosui/scorpion/IADAANAA/libpng.lib(pngset.o)
 .debug_line    0x0001ccda      0x285 /local/mnt/workspace/CRMBuilds/TZ.BF.4.0.3.c1-00005-M8996AAAAANAZT-1_20170110_230814/b/HK11/trustzone_images/core/securemsm/sse/qsee/SecureDisplay/zlib/build/fidosui/scorpion/IADAANAA/zlib.lib(crc32.o)
 .debug_line    0x0001cf5f      0xade /local/mnt/workspace/CRMBuilds/TZ.BF.4.0.3.c1-00005-M8996AAAAANAZT-1_20170110_230814/b/HK11/trustzone_images/core/securemsm/sse/qsee/SecureDisplay/zlib/build/fidosui/scorpion/IADAANAA/zlib.lib(inflate.o)
 .debug_line    0x0001da3d      0x2b9 /local/mnt/workspace/CRMBuilds/TZ.BF.4.0.3.c1-00005-M8996AAAAANAZT-1_20170110_230814/b/HK11/trustzone_images/core/securemsm/sse/qsee/SecureDisplay/zlib/build/fidosui/scorpion/IADAANAA/zlib.lib(inftrees.o)
 .debug_line    0x0001dcf6      0x18e /local/mnt/workspace/CRMBuilds/TZ.BF.4.0.3.c1-00005-M8996AAAAANAZT-1_20170110_230814/b/HK11/trustzone_images/core/securemsm/sse/qsee/SecureDisplay/zlib/build/fidosui/scorpion/IADAANAA/zlib.lib(zutil.o)
 .debug_line    0x0001de84      0x26c /local/mnt/workspace/CRMBuilds/TZ.BF.4.0.3.c1-00005-M8996AAAAANAZT-1_20170110_230814/b/HK11/trustzone_images/core/securemsm/sse/qsee/SecureDisplay/zlib/build/fidosui/scorpion/IADAANAA/zlib.lib(adler32.o)
 .debug_line    0x0001e0f0      0x37b /local/mnt/workspace/CRMBuilds/TZ.BF.4.0.3.c1-00005-M8996AAAAANAZT-1_20170110_230814/b/HK11/trustzone_images/core/securemsm/sse/qsee/SecureDisplay/zlib/build/fidosui/scorpion/IADAANAA/zlib.lib(inffast.o)
 .debug_line    0x0001e46b      0x1fe /local/mnt/workspace/CRMBuilds/TZ.BF.4.0.3.c1-00005-M8996AAAAANAZT-1_20170110_230814/b/HK11/trustzone_images/core/securemsm/sse/qsee/SecureTouch/drTs/lib/build/fidosui/scorpion/IADAANAA/touch_lib.lib(01_open.o)
 .debug_line    0x0001e669      0x14b /local/mnt/workspace/CRMBuilds/TZ.BF.4.0.3.c1-00005-M8996AAAAANAZT-1_20170110_230814/b/HK11/trustzone_images/core/securemsm/sse/qsee/SecureTouch/drTs/lib/build/fidosui/scorpion/IADAANAA/touch_lib.lib(02_close.o)
 .debug_line    0x0001e7b4      0x238 /local/mnt/workspace/CRMBuilds/TZ.BF.4.0.3.c1-00005-M8996AAAAANAZT-1_20170110_230814/b/HK11/trustzone_images/core/securemsm/sse/qsee/SecureTouch/drTs/lib/build/fidosui/scorpion/IADAANAA/touch_lib.lib(03_getData.o)
 .debug_line    0x0001e9ec      0x46c /local/mnt/workspace/CRMBuilds/TZ.BF.4.0.3.c1-00005-M8996AAAAANAZT-1_20170110_230814/b/HK11/trustzone_images/core/securemsm/trustzone/qsapps/libs/applib/common_applib/build/fidosui/scorpion/IADAANAA/tzapp_entrylib.lib(gpPersistObjCommon.o)
 .debug_line    0x0001ee58      0x504 /local/mnt/workspace/CRMBuilds/TZ.BF.4.0.3.c1-00005-M8996AAAAANAZT-1_20170110_230814/b/HK11/trustzone_images/core/securemsm/trustzone/qsapps/libs/applib/common_applib/build/fidosui/scorpion/IADAANAA/tzapp_entrylib.lib(gpPersistentObjects.o)
 .debug_line    0x0001f35c      0x9a9 /local/mnt/workspace/CRMBuilds/TZ.BF.4.0.3.c1-00005-M8996AAAAANAZT-1_20170110_230814/b/HK11/trustzone_images/core/securemsm/trustzone/qsapps/libs/applib/common_applib/build/fidosui/scorpion/IADAANAA/tzapp_entrylib.lib(gpPersistObjData.o)
 .debug_line    0x0001fd05      0x452 /local/mnt/workspace/CRMBuilds/TZ.BF.4.0.3.c1-00005-M8996AAAAANAZT-1_20170110_230814/b/HK11/trustzone_images/core/securemsm/trustzone/qsapps/libs/applib/common_applib/build/fidosui/scorpion/IADAANAA/tzapp_entrylib.lib(gpPersistObjHandler.o)
 .debug_line    0x00020157      0x5e9 /local/mnt/workspace/CRMBuilds/TZ.BF.4.0.3.c1-00005-M8996AAAAANAZT-1_20170110_230814/b/HK11/trustzone_images/core/securemsm/trustzone/qsapps/libs/applib/common_applib/build/fidosui/scorpion/IADAANAA/tzapp_entrylib.lib(gpPersistObjIndex.o)
 .debug_line    0x00020740      0x5c4 /local/mnt/workspace/CRMBuilds/TZ.BF.4.0.3.c1-00005-M8996AAAAANAZT-1_20170110_230814/b/HK11/trustzone_images/core/securemsm/trustzone/qsapps/libs/applib/common_applib/build/fidosui/scorpion/IADAANAA/tzapp_entrylib.lib(gpPersistObjVersion.o)
 .debug_line    0x00020d04      0x4bd /local/mnt/workspace/CRMBuilds/TZ.BF.4.0.3.c1-00005-M8996AAAAANAZT-1_20170110_230814/b/HK11/trustzone_images/core/securemsm/trustzone/qsapps/libs/applib/common_applib/build/fidosui/scorpion/IADAANAA/tzapp_entrylib.lib(gpPersistObjCrypto.o)
 .debug_line    0x000211c1      0x314 /local/mnt/workspace/CRMBuilds/TZ.BF.4.0.3.c1-00005-M8996AAAAANAZT-1_20170110_230814/b/HK11/trustzone_images/core/securemsm/trustzone/qsapps/libs/applib/common_applib/build/fidosui/scorpion/IADAANAA/tzapp_entrylib.lib(gpPersistObjFileIO.o)
 .debug_line    0x000214d5      0x38e /local/mnt/workspace/CRMBuilds/TZ.BF.4.0.3.c1-00005-M8996AAAAANAZT-1_20170110_230814/b/HK11/trustzone_images/core/securemsm/trustzone/qsapps/libs/applib/common_applib/build/fidosui/scorpion/IADAANAA/tzapp_entrylib.lib(gpFileService.o)
 .debug_line    0x00021863      0x2dd /local/mnt/workspace/CRMBuilds/TZ.BF.4.0.3.c1-00005-M8996AAAAANAZT-1_20170110_230814/b/HK11/trustzone_images/core/securemsm/trustzone/qsapps/libs/applib/qsee/build/fidosui/scorpion/IADAANAA/tzapp_entrylib.lib(qsee_core_shim.o)
 .debug_line    0x00021b40      0x30d /local/mnt/workspace/CRMBuilds/TZ.BF.4.0.3.c1-00005-M8996AAAAANAZT-1_20170110_230814/b/HK11/trustzone_images/core/securemsm/trustzone/qsapps/libs/applib/qsee/build/fidosui/scorpion/IADAANAA/tzapp_entrylib.lib(stor.o)
 .debug_line    0x00021e4d      0x676 /local/mnt/workspace/CRMBuilds/TZ.BF.4.0.3.c1-00005-M8996AAAAANAZT-1_20170110_230814/b/HK11/trustzone_images/core/securemsm/trustzone/qsapps/libs/applib/qsee/build/fidosui/scorpion/IADAANAA/tzapp_entrylib.lib(stor_gpt.o)
 .debug_line    0x000224c3      0x2a2 /local/mnt/workspace/CRMBuilds/TZ.BF.4.0.3.c1-00005-M8996AAAAANAZT-1_20170110_230814/b/HK11/trustzone_images/core/securemsm/trustzone/qsapps/libs/applib/qsee/build/fidosui/scorpion/IADAANAA/tzapp_entrylib.lib(stor_rpmbw.o)
 .debug_line    0x00022765      0x1d7 /local/mnt/workspace/CRMBuilds/TZ.BF.4.0.3.c1-00005-M8996AAAAANAZT-1_20170110_230814/b/HK11/trustzone_images/core/securemsm/trustzone/qsapps/libs/applib/qsee/build/fidosui/scorpion/IADAANAA/tzapp_entrylib.lib(qsee_cfg_prop_shim.o)
 .debug_line    0x0002293c      0x5a4 /local/mnt/workspace/CRMBuilds/TZ.BF.4.0.3.c1-00005-M8996AAAAANAZT-1_20170110_230814/b/HK11/trustzone_images/core/securemsm/trustzone/qsapps/libs/applib/qsee/build/fidosui/scorpion/IADAANAA/tzapp_entrylib.lib(qsee_cipher.o)
 .debug_line    0x00022ee0      0x42f /local/mnt/workspace/CRMBuilds/TZ.BF.4.0.3.c1-00005-M8996AAAAANAZT-1_20170110_230814/b/HK11/trustzone_images/core/securemsm/trustzone/qsapps/libs/applib/qsee/build/fidosui/scorpion/IADAANAA/tzapp_entrylib.lib(qsee_hmac.o)
 .debug_line    0x0002330f      0x1cc /local/mnt/workspace/CRMBuilds/TZ.BF.4.0.3.c1-00005-M8996AAAAANAZT-1_20170110_230814/b/HK11/trustzone_images/core/securemsm/trustzone/qsapps/libs/applib/qsee/build/fidosui/scorpion/IADAANAA/tzapp_entrylib.lib(gpPersistObjPanic.o)
 .debug_line    0x000234db      0x11e /local/mnt/workspace/CRMBuilds/TZ.BF.4.0.3.c1-00005-M8996AAAAANAZT-1_20170110_230814/b/HK11/trustzone_images/core/kernel/libstd/build/fidosui/scorpion/IADAANAA/libstd.lib(timesafe_memcmp.o)
 .debug_line    0x000235f9      0x42b /local/mnt/workspace/CRMBuilds/TZ.BF.4.0.3.c1-00005-M8996AAAAANAZT-1_20170110_230814/b/HK11/trustzone_images/core/securemsm/sse/SecureTouch/controller/build/fidosui/scorpion/IADAANAA/drts_controller_msm8996.lib(atmel_mxt_ts.o)
 .debug_line    0x00023a24      0x4d4 /local/mnt/workspace/CRMBuilds/TZ.BF.4.0.3.c1-00005-M8996AAAAANAZT-1_20170110_230814/b/HK11/trustzone_images/core/securemsm/sse/SecureTouch/controller/build/fidosui/scorpion/IADAANAA/drts_controller_msm8996.lib(synaptics_ts.o)
 .debug_line    0x00023ef8      0x2b1 /local/mnt/workspace/CRMBuilds/TZ.BF.4.0.3.c1-00005-M8996AAAAANAZT-1_20170110_230814/b/HK11/trustzone_images/core/securemsm/sse/qsee/SecureTouch/drTs/controller/build/fidosui/scorpion/IADAANAA/touch_controller_i2c_msm8996.lib(atmel_mxt_ts_i2c.o)
 .debug_line    0x000241a9      0x29e /local/mnt/workspace/CRMBuilds/TZ.BF.4.0.3.c1-00005-M8996AAAAANAZT-1_20170110_230814/b/HK11/trustzone_images/core/securemsm/sse/qsee/SecureTouch/drTs/controller/build/fidosui/scorpion/IADAANAA/touch_controller_i2c_msm8996.lib(synaptics_ts_i2c.o)
 .debug_line    0x00024447      0x4c2 /local/mnt/workspace/CRMBuilds/TZ.BF.4.0.3.c1-00005-M8996AAAAANAZT-1_20170110_230814/b/HK11/trustzone_images/core/securemsm/trustzone/qsapps/libs/applib/qsee/build/fidosui/scorpion/IADAANAA/tzapp_entrylib.lib(qsee_i2c.o)

.debug_pubnames
                0x00000000     0x67f2
 .debug_pubnames
                0x00000000       0x5a /local/mnt/workspace/CRMBuilds/TZ.BF.4.0.3.c1-00005-M8996AAAAANAZT-1_20170110_230814/b/HK11/trustzone_images/apps/securemsm/trustzone/qsapps/fidosui/build/fidosui/scorpion/IADAANAA/metadata.o
 .debug_pubnames
                0x0000005a       0x59 /local/mnt/workspace/CRMBuilds/TZ.BF.4.0.3.c1-00005-M8996AAAAANAZT-1_20170110_230814/b/HK11/trustzone_images/apps/securemsm/trustzone/qsapps/fidosui/ipc/build/fidosui/scorpion/IADAANAA/src/CFidoSuiToken.o
 .debug_pubnames
                0x000000b3       0x1e /local/mnt/workspace/CRMBuilds/TZ.BF.4.0.3.c1-00005-M8996AAAAANAZT-1_20170110_230814/b/HK11/trustzone_images/core/kernel/libstd/build/fidosui/scorpion/IADAANAA/libstd.lib(memscpy.o)
 .debug_pubnames
                0x000000d1      0x4ee /local/mnt/workspace/CRMBuilds/TZ.BF.4.0.3.c1-00005-M8996AAAAANAZT-1_20170110_230814/b/HK11/trustzone_images/core/securemsm/trustzone/qsapps/libs/applib/common_applib/build/fidosui/scorpion/IADAANAA/tzapp_entrylib.lib(common_applib.o)
 .debug_pubnames
                0x000005bf      0x1cd /local/mnt/workspace/CRMBuilds/TZ.BF.4.0.3.c1-00005-M8996AAAAANAZT-1_20170110_230814/b/HK11/trustzone_images/core/securemsm/trustzone/qsapps/libs/applib/proxy/build/fidosui/scorpion/IADAANAA/tzlib_proxy.lib(prxy_services.o)
 .debug_pubnames
                0x0000078c       0x9c /local/mnt/workspace/CRMBuilds/TZ.BF.4.0.3.c1-00005-M8996AAAAANAZT-1_20170110_230814/b/HK11/trustzone_images/core/securemsm/trustzone/qsapps/libs/applib/qsee/build/fidosui/scorpion/IADAANAA/tzapp_entrylib.lib(mink_shared_code.o)
 .debug_pubnames
                0x00000828      0x1e5 /local/mnt/workspace/CRMBuilds/TZ.BF.4.0.3.c1-00005-M8996AAAAANAZT-1_20170110_230814/b/HK11/trustzone_images/core/securemsm/trustzone/qsapps/libs/applib/qsee/build/fidosui/scorpion/IADAANAA/tzapp_entrylib.lib(qsee_env.o)
 .debug_pubnames
                0x00000a0d       0x4b /local/mnt/workspace/CRMBuilds/TZ.BF.4.0.3.c1-00005-M8996AAAAANAZT-1_20170110_230814/b/HK11/trustzone_images/core/securemsm/trustzone/qsapps/libs/applib/qsee/build/fidosui/scorpion/IADAANAA/tzapp_entrylib.lib(qsee_prng.o)
 .debug_pubnames
                0x00000a58       0xbf /local/mnt/workspace/CRMBuilds/TZ.BF.4.0.3.c1-00005-M8996AAAAANAZT-1_20170110_230814/b/HK11/trustzone_images/core/securemsm/trustzone/qsapps/libs/applib/qsee/build/fidosui/scorpion/IADAANAA/tzapp_entrylib.lib(tzapp_lib_main.o)
 .debug_pubnames
                0x00000b17       0xd4 /local/mnt/workspace/CRMBuilds/TZ.BF.4.0.3.c1-00005-M8996AAAAANAZT-1_20170110_230814/b/HK11/trustzone_images/apps/securemsm/trustzone/qsapps/fidosui/app/build/fidosui/scorpion/IADAANAA/fidosui_app.lib(app_main.o)
 .debug_pubnames
                0x00000beb       0x2b /local/mnt/workspace/CRMBuilds/TZ.BF.4.0.3.c1-00005-M8996AAAAANAZT-1_20170110_230814/b/HK11/trustzone_images/apps/securemsm/trustzone/qsapps/fidosui/app/build/fidosui/scorpion/IADAANAA/fidosui_app.lib(01_Initialize.o)
 .debug_pubnames
                0x00000c16       0x98 /local/mnt/workspace/CRMBuilds/TZ.BF.4.0.3.c1-00005-M8996AAAAANAZT-1_20170110_230814/b/HK11/trustzone_images/apps/securemsm/trustzone/qsapps/fidosui/app/build/fidosui/scorpion/IADAANAA/fidosui_app.lib(08_ShowMessageSui.o)
 .debug_pubnames
                0x00000cae       0x73 /local/mnt/workspace/CRMBuilds/TZ.BF.4.0.3.c1-00005-M8996AAAAANAZT-1_20170110_230814/b/HK11/trustzone_images/apps/securemsm/trustzone/qsapps/fidosui/app/build/fidosui/scorpion/IADAANAA/fidosui_app.lib(fsSecureUI.o)
 .debug_pubnames
                0x00000d21       0x35 /local/mnt/workspace/CRMBuilds/TZ.BF.4.0.3.c1-00005-M8996AAAAANAZT-1_20170110_230814/b/HK11/trustzone_images/apps/securemsm/trustzone/qsapps/fidosui/app/build/fidosui/scorpion/IADAANAA/fidosui_app.lib(fsLocale.o)
 .debug_pubnames
                0x00000d56       0x1f /local/mnt/workspace/CRMBuilds/TZ.BF.4.0.3.c1-00005-M8996AAAAANAZT-1_20170110_230814/b/HK11/trustzone_images/apps/securemsm/trustzone/qsapps/fidosui/config/build/fidosui/scorpion/IADAANAA/fidosui_config.lib(config.o)
 .debug_pubnames
                0x00000d75       0x36 /local/mnt/workspace/CRMBuilds/TZ.BF.4.0.3.c1-00005-M8996AAAAANAZT-1_20170110_230814/b/HK11/trustzone_images/apps/securemsm/trustzone/qsapps/fidosui/locale/build/fidosui/scorpion/IADAANAA/fidosui_locale.lib(locale.o)
 .debug_pubnames
                0x00000dab       0x24 /local/mnt/workspace/CRMBuilds/TZ.BF.4.0.3.c1-00005-M8996AAAAANAZT-1_20170110_230814/b/HK11/trustzone_images/core/kernel/libstd/build/fidosui/scorpion/IADAANAA/libstd.lib(secure_memset.o)
 .debug_pubnames
                0x00000dcf       0x1e /local/mnt/workspace/CRMBuilds/TZ.BF.4.0.3.c1-00005-M8996AAAAANAZT-1_20170110_230814/b/HK11/trustzone_images/core/securemsm/sse/log/build/fidosui/scorpion/IADAANAA/sselog.lib(sselog.o)
 .debug_pubnames
                0x00000ded      0x3a3 /local/mnt/workspace/CRMBuilds/TZ.BF.4.0.3.c1-00005-M8996AAAAANAZT-1_20170110_230814/b/HK11/trustzone_images/core/securemsm/sse/qsee/SecureUI/build/fidosui/scorpion/IADAANAA/secure_ui.lib(SecureUI.o)
 .debug_pubnames
                0x00001190      0x371 /local/mnt/workspace/CRMBuilds/TZ.BF.4.0.3.c1-00005-M8996AAAAANAZT-1_20170110_230814/b/HK11/trustzone_images/core/securemsm/sse/qsee/SecureUI/build/fidosui/scorpion/IADAANAA/secure_ui_tui.lib(qsee_tui_dialogs.o)
 .debug_pubnames
                0x00001501      0x46c /local/mnt/workspace/CRMBuilds/TZ.BF.4.0.3.c1-00005-M8996AAAAANAZT-1_20170110_230814/b/HK11/trustzone_images/core/securemsm/sse/qsee/SecureUI/build/fidosui/scorpion/IADAANAA/secure_ui_tui.lib(layout_manager.o)
 .debug_pubnames
                0x0000196d      0x1a0 /local/mnt/workspace/CRMBuilds/TZ.BF.4.0.3.c1-00005-M8996AAAAANAZT-1_20170110_230814/b/HK11/trustzone_images/core/securemsm/sse/qsee/SecureUI/build/fidosui/scorpion/IADAANAA/secure_ui_tui.lib(secure_display_renderer.o)
 .debug_pubnames
                0x00001b0d      0x38d /local/mnt/workspace/CRMBuilds/TZ.BF.4.0.3.c1-00005-M8996AAAAANAZT-1_20170110_230814/b/HK11/trustzone_images/core/securemsm/sse/qsee/SecureUI/build/fidosui/scorpion/IADAANAA/secure_ui_tui.lib(font_manager.o)
 .debug_pubnames
                0x00001e9a       0xd4 /local/mnt/workspace/CRMBuilds/TZ.BF.4.0.3.c1-00005-M8996AAAAANAZT-1_20170110_230814/b/HK11/trustzone_images/core/securemsm/sse/qsee/SecureUILib/lib/build/fidosui/scorpion/IADAANAA/secure_ui_lib.lib(SecureUILib.o)
 .debug_pubnames
                0x00001f6e       0x2b /local/mnt/workspace/CRMBuilds/TZ.BF.4.0.3.c1-00005-M8996AAAAANAZT-1_20170110_230814/b/HK11/trustzone_images/core/securemsm/sse/qsee/SecureUILib/lib/build/fidosui/scorpion/IADAANAA/secure_ui_lib.lib(01_startTouch.o)
 .debug_pubnames
                0x00001f99       0x2d /local/mnt/workspace/CRMBuilds/TZ.BF.4.0.3.c1-00005-M8996AAAAANAZT-1_20170110_230814/b/HK11/trustzone_images/core/securemsm/sse/qsee/SecureUILib/lib/build/fidosui/scorpion/IADAANAA/secure_ui_lib.lib(02_processTouch.o)
 .debug_pubnames
                0x00001fc6       0x3d /local/mnt/workspace/CRMBuilds/TZ.BF.4.0.3.c1-00005-M8996AAAAANAZT-1_20170110_230814/b/HK11/trustzone_images/core/securemsm/sse/qsee/SecureUILib/lib/build/fidosui/scorpion/IADAANAA/secure_ui_lib.lib(03_stopTouch.o)
 .debug_pubnames
                0x00002003       0x2f /local/mnt/workspace/CRMBuilds/TZ.BF.4.0.3.c1-00005-M8996AAAAANAZT-1_20170110_230814/b/HK11/trustzone_images/core/securemsm/sse/qsee/SecureUILib/lib/build/fidosui/scorpion/IADAANAA/secure_ui_lib.lib(04_prepareRequest.o)
 .debug_pubnames
                0x00002032       0x2f /local/mnt/workspace/CRMBuilds/TZ.BF.4.0.3.c1-00005-M8996AAAAANAZT-1_20170110_230814/b/HK11/trustzone_images/core/securemsm/sse/qsee/SecureUILib/lib/build/fidosui/scorpion/IADAANAA/secure_ui_lib.lib(05_storeIndicator.o)
 .debug_pubnames
                0x00002061      0x3e8 /local/mnt/workspace/CRMBuilds/TZ.BF.4.0.3.c1-00005-M8996AAAAANAZT-1_20170110_230814/b/HK11/trustzone_images/core/securemsm/trustzone/qsapps/libs/applib/proxy/build/fidosui/scorpion/IADAANAA/tzlib_proxy.lib(prxy_qsee_shim.o)
 .debug_pubnames
                0x00002449       0x72 /local/mnt/workspace/CRMBuilds/TZ.BF.4.0.3.c1-00005-M8996AAAAANAZT-1_20170110_230814/b/HK11/trustzone_images/core/securemsm/trustzone/qsapps/libs/applib/proxy/build/fidosui/scorpion/IADAANAA/tzlib_proxy.lib(prxy_ufdes.o)
 .debug_pubnames
                0x000024bb       0x55 /local/mnt/workspace/CRMBuilds/TZ.BF.4.0.3.c1-00005-M8996AAAAANAZT-1_20170110_230814/b/HK11/trustzone_images/core/securemsm/trustzone/qsapps/libs/applib/proxy/build/fidosui/scorpion/IADAANAA/tzlib_proxy.lib(prxy_secmath.o)
 .debug_pubnames
                0x00002510       0xee /local/mnt/workspace/CRMBuilds/TZ.BF.4.0.3.c1-00005-M8996AAAAANAZT-1_20170110_230814/b/HK11/trustzone_images/core/securemsm/trustzone/qsapps/libs/applib/proxy/build/fidosui/scorpion/IADAANAA/tzlib_proxy.lib(prxy_secrsa.o)
 .debug_pubnames
                0x000025fe      0x1ef /local/mnt/workspace/CRMBuilds/TZ.BF.4.0.3.c1-00005-M8996AAAAANAZT-1_20170110_230814/b/HK11/trustzone_images/core/securemsm/trustzone/qsapps/libs/applib/proxy/build/fidosui/scorpion/IADAANAA/tzlib_proxy.lib(prxy_ecc.o)
 .debug_pubnames
                0x000027ed       0xaa /local/mnt/workspace/CRMBuilds/TZ.BF.4.0.3.c1-00005-M8996AAAAANAZT-1_20170110_230814/b/HK11/trustzone_images/core/securemsm/trustzone/qsapps/libs/applib/qsee/build/fidosui/scorpion/IADAANAA/tzapp_entrylib.lib(qsee_secdisp.o)
 .debug_pubnames
                0x00002897       0xd6 /local/mnt/workspace/CRMBuilds/TZ.BF.4.0.3.c1-00005-M8996AAAAANAZT-1_20170110_230814/b/HK11/trustzone_images/core/securemsm/trustzone/qsapps/libs/applib/qsee/build/fidosui/scorpion/IADAANAA/tzapp_entrylib.lib(qsee_nsmem.o)
 .debug_pubnames
                0x0000296d       0x4b /local/mnt/workspace/CRMBuilds/TZ.BF.4.0.3.c1-00005-M8996AAAAANAZT-1_20170110_230814/b/HK11/trustzone_images/core/securemsm/trustzone/qsapps/libs/applib/qsee/build/fidosui/scorpion/IADAANAA/tzapp_entrylib.lib(qsee_timer_shim.o)
 .debug_pubnames
                0x000029b8      0x1f7 /local/mnt/workspace/CRMBuilds/TZ.BF.4.0.3.c1-00005-M8996AAAAANAZT-1_20170110_230814/b/HK11/trustzone_images/core/securemsm/trustzone/qsapps/libs/applib/qsee/build/fidosui/scorpion/IADAANAA/tzapp_entrylib.lib(qsee_hash.o)
 .debug_pubnames
                0x00002baf       0xb6 /local/mnt/workspace/CRMBuilds/TZ.BF.4.0.3.c1-00005-M8996AAAAANAZT-1_20170110_230814/b/HK11/trustzone_images/core/securemsm/trustzone/qsapps/libs/applib/qsee/build/fidosui/scorpion/IADAANAA/tzapp_entrylib.lib(qsee_shared_buffer.o)
 .debug_pubnames
                0x00002c65       0xe2 /local/mnt/workspace/CRMBuilds/TZ.BF.4.0.3.c1-00005-M8996AAAAANAZT-1_20170110_230814/b/HK11/trustzone_images/core/securemsm/trustzone/qsapps/libs/applib/qsee/build/fidosui/scorpion/IADAANAA/tzapp_entrylib.lib(qsee_appmessage.o)
 .debug_pubnames
                0x00002d47      0x149 /local/mnt/workspace/CRMBuilds/TZ.BF.4.0.3.c1-00005-M8996AAAAANAZT-1_20170110_230814/b/HK11/trustzone_images/core/securemsm/trustzone/qsapps/libs/applib/qsee/build/fidosui/scorpion/IADAANAA/tzapp_entrylib.lib(sfs_api.o)
 .debug_pubnames
                0x00002e90      0x78b /local/mnt/workspace/CRMBuilds/TZ.BF.4.0.3.c1-00005-M8996AAAAANAZT-1_20170110_230814/b/HK11/trustzone_images/apps/securemsm/trustzone/qsapps/fidosui/layouts/build/fidosui/scorpion/IADAANAA/secure_ui_layout.lib(layout_8996_fluid.o)
 .debug_pubnames
                0x0000361b       0xc7 /local/mnt/workspace/CRMBuilds/TZ.BF.4.0.3.c1-00005-M8996AAAAANAZT-1_20170110_230814/b/HK11/trustzone_images/core/securemsm/sse/SecureTouch/layout/build/fidosui/scorpion/IADAANAA/sklayout.lib(layoutUtils.o)
 .debug_pubnames
                0x000036e2      0x6dd /local/mnt/workspace/CRMBuilds/TZ.BF.4.0.3.c1-00005-M8996AAAAANAZT-1_20170110_230814/b/HK11/trustzone_images/core/securemsm/sse/qsee/SecureDisplay/libgd/build/fidosui/scorpion/IADAANAA/libgd.lib(gd.o)
 .debug_pubnames
                0x00003dbf       0x23 /local/mnt/workspace/CRMBuilds/TZ.BF.4.0.3.c1-00005-M8996AAAAANAZT-1_20170110_230814/b/HK11/trustzone_images/core/securemsm/sse/qsee/SecureDisplay/libgd/build/fidosui/scorpion/IADAANAA/libgd.lib(gd_color.o)
 .debug_pubnames
                0x00003de2       0x20 /local/mnt/workspace/CRMBuilds/TZ.BF.4.0.3.c1-00005-M8996AAAAANAZT-1_20170110_230814/b/HK11/trustzone_images/core/securemsm/sse/qsee/SecureDisplay/libgd/build/fidosui/scorpion/IADAANAA/libgd.lib(gd_security.o)
 .debug_pubnames
                0x00003e02       0x28 /local/mnt/workspace/CRMBuilds/TZ.BF.4.0.3.c1-00005-M8996AAAAANAZT-1_20170110_230814/b/HK11/trustzone_images/core/securemsm/sse/qsee/SecureDisplay/libgd/build/fidosui/scorpion/IADAANAA/libgd.lib(gdtables.o)
 .debug_pubnames
                0x00003e2a      0x1e8 /local/mnt/workspace/CRMBuilds/TZ.BF.4.0.3.c1-00005-M8996AAAAANAZT-1_20170110_230814/b/HK11/trustzone_images/core/securemsm/sse/qsee/SecureDisplay/libpng/build/fidosui/scorpion/IADAANAA/libpng.lib(png.o)
 .debug_pubnames
                0x00004012       0x94 /local/mnt/workspace/CRMBuilds/TZ.BF.4.0.3.c1-00005-M8996AAAAANAZT-1_20170110_230814/b/HK11/trustzone_images/core/securemsm/sse/qsee/SecureDisplay/libpng/build/fidosui/scorpion/IADAANAA/libpng.lib(pngerror.o)
 .debug_pubnames
                0x000040a6       0xaa /local/mnt/workspace/CRMBuilds/TZ.BF.4.0.3.c1-00005-M8996AAAAANAZT-1_20170110_230814/b/HK11/trustzone_images/core/securemsm/sse/qsee/SecureDisplay/libpng/build/fidosui/scorpion/IADAANAA/libpng.lib(pngget.o)
 .debug_pubnames
                0x00004150       0xd3 /local/mnt/workspace/CRMBuilds/TZ.BF.4.0.3.c1-00005-M8996AAAAANAZT-1_20170110_230814/b/HK11/trustzone_images/core/securemsm/sse/qsee/SecureDisplay/libpng/build/fidosui/scorpion/IADAANAA/libpng.lib(pngmem.o)
 .debug_pubnames
                0x00004223      0x13b /local/mnt/workspace/CRMBuilds/TZ.BF.4.0.3.c1-00005-M8996AAAAANAZT-1_20170110_230814/b/HK11/trustzone_images/core/securemsm/sse/qsee/SecureDisplay/libpng/build/fidosui/scorpion/IADAANAA/libpng.lib(pngread.o)
 .debug_pubnames
                0x0000435e       0x38 /local/mnt/workspace/CRMBuilds/TZ.BF.4.0.3.c1-00005-M8996AAAAANAZT-1_20170110_230814/b/HK11/trustzone_images/core/securemsm/sse/qsee/SecureDisplay/libpng/build/fidosui/scorpion/IADAANAA/libpng.lib(pngrio.o)
 .debug_pubnames
                0x00004396      0x2bb /local/mnt/workspace/CRMBuilds/TZ.BF.4.0.3.c1-00005-M8996AAAAANAZT-1_20170110_230814/b/HK11/trustzone_images/core/securemsm/sse/qsee/SecureDisplay/libpng/build/fidosui/scorpion/IADAANAA/libpng.lib(pngrutil.o)
 .debug_pubnames
                0x00004651       0x6c /local/mnt/workspace/CRMBuilds/TZ.BF.4.0.3.c1-00005-M8996AAAAANAZT-1_20170110_230814/b/HK11/trustzone_images/core/securemsm/sse/qsee/SecureDisplay/libpng/build/fidosui/scorpion/IADAANAA/libpng.lib(pngset.o)
 .debug_pubnames
                0x000046bd       0xbf /local/mnt/workspace/CRMBuilds/TZ.BF.4.0.3.c1-00005-M8996AAAAANAZT-1_20170110_230814/b/HK11/trustzone_images/core/securemsm/sse/qsee/SecureDisplay/zlib/build/fidosui/scorpion/IADAANAA/zlib.lib(crc32.o)
 .debug_pubnames
                0x0000477c      0x18b /local/mnt/workspace/CRMBuilds/TZ.BF.4.0.3.c1-00005-M8996AAAAANAZT-1_20170110_230814/b/HK11/trustzone_images/core/securemsm/sse/qsee/SecureDisplay/zlib/build/fidosui/scorpion/IADAANAA/zlib.lib(inflate.o)
 .debug_pubnames
                0x00004907       0x60 /local/mnt/workspace/CRMBuilds/TZ.BF.4.0.3.c1-00005-M8996AAAAANAZT-1_20170110_230814/b/HK11/trustzone_images/core/securemsm/sse/qsee/SecureDisplay/zlib/build/fidosui/scorpion/IADAANAA/zlib.lib(inftrees.o)
 .debug_pubnames
                0x00004967       0x66 /local/mnt/workspace/CRMBuilds/TZ.BF.4.0.3.c1-00005-M8996AAAAANAZT-1_20170110_230814/b/HK11/trustzone_images/core/securemsm/sse/qsee/SecureDisplay/zlib/build/fidosui/scorpion/IADAANAA/zlib.lib(zutil.o)
 .debug_pubnames
                0x000049cd       0x5d /local/mnt/workspace/CRMBuilds/TZ.BF.4.0.3.c1-00005-M8996AAAAANAZT-1_20170110_230814/b/HK11/trustzone_images/core/securemsm/sse/qsee/SecureDisplay/zlib/build/fidosui/scorpion/IADAANAA/zlib.lib(adler32.o)
 .debug_pubnames
                0x00004a2a       0x23 /local/mnt/workspace/CRMBuilds/TZ.BF.4.0.3.c1-00005-M8996AAAAANAZT-1_20170110_230814/b/HK11/trustzone_images/core/securemsm/sse/qsee/SecureDisplay/zlib/build/fidosui/scorpion/IADAANAA/zlib.lib(inffast.o)
 .debug_pubnames
                0x00004a4d       0x40 /local/mnt/workspace/CRMBuilds/TZ.BF.4.0.3.c1-00005-M8996AAAAANAZT-1_20170110_230814/b/HK11/trustzone_images/core/securemsm/sse/qsee/SecureTouch/drTs/lib/build/fidosui/scorpion/IADAANAA/touch_lib.lib(01_open.o)
 .debug_pubnames
                0x00004a8d       0x21 /local/mnt/workspace/CRMBuilds/TZ.BF.4.0.3.c1-00005-M8996AAAAANAZT-1_20170110_230814/b/HK11/trustzone_images/core/securemsm/sse/qsee/SecureTouch/drTs/lib/build/fidosui/scorpion/IADAANAA/touch_lib.lib(02_close.o)
 .debug_pubnames
                0x00004aae       0x47 /local/mnt/workspace/CRMBuilds/TZ.BF.4.0.3.c1-00005-M8996AAAAANAZT-1_20170110_230814/b/HK11/trustzone_images/core/securemsm/sse/qsee/SecureTouch/drTs/lib/build/fidosui/scorpion/IADAANAA/touch_lib.lib(03_getData.o)
 .debug_pubnames
                0x00004af5      0x113 /local/mnt/workspace/CRMBuilds/TZ.BF.4.0.3.c1-00005-M8996AAAAANAZT-1_20170110_230814/b/HK11/trustzone_images/core/securemsm/trustzone/qsapps/libs/applib/common_applib/build/fidosui/scorpion/IADAANAA/tzapp_entrylib.lib(gpPersistObjCommon.o)
 .debug_pubnames
                0x00004c08      0x1df /local/mnt/workspace/CRMBuilds/TZ.BF.4.0.3.c1-00005-M8996AAAAANAZT-1_20170110_230814/b/HK11/trustzone_images/core/securemsm/trustzone/qsapps/libs/applib/common_applib/build/fidosui/scorpion/IADAANAA/tzapp_entrylib.lib(gpPersistentObjects.o)
 .debug_pubnames
                0x00004de7      0x39d /local/mnt/workspace/CRMBuilds/TZ.BF.4.0.3.c1-00005-M8996AAAAANAZT-1_20170110_230814/b/HK11/trustzone_images/core/securemsm/trustzone/qsapps/libs/applib/common_applib/build/fidosui/scorpion/IADAANAA/tzapp_entrylib.lib(gpPersistObjData.o)
 .debug_pubnames
                0x00005184      0x123 /local/mnt/workspace/CRMBuilds/TZ.BF.4.0.3.c1-00005-M8996AAAAANAZT-1_20170110_230814/b/HK11/trustzone_images/core/securemsm/trustzone/qsapps/libs/applib/common_applib/build/fidosui/scorpion/IADAANAA/tzapp_entrylib.lib(gpPersistObjHandler.o)
 .debug_pubnames
                0x000052a7      0x232 /local/mnt/workspace/CRMBuilds/TZ.BF.4.0.3.c1-00005-M8996AAAAANAZT-1_20170110_230814/b/HK11/trustzone_images/core/securemsm/trustzone/qsapps/libs/applib/common_applib/build/fidosui/scorpion/IADAANAA/tzapp_entrylib.lib(gpPersistObjIndex.o)
 .debug_pubnames
                0x000054d9      0x2b4 /local/mnt/workspace/CRMBuilds/TZ.BF.4.0.3.c1-00005-M8996AAAAANAZT-1_20170110_230814/b/HK11/trustzone_images/core/securemsm/trustzone/qsapps/libs/applib/common_applib/build/fidosui/scorpion/IADAANAA/tzapp_entrylib.lib(gpPersistObjVersion.o)
 .debug_pubnames
                0x0000578d      0x13b /local/mnt/workspace/CRMBuilds/TZ.BF.4.0.3.c1-00005-M8996AAAAANAZT-1_20170110_230814/b/HK11/trustzone_images/core/securemsm/trustzone/qsapps/libs/applib/common_applib/build/fidosui/scorpion/IADAANAA/tzapp_entrylib.lib(gpPersistObjCrypto.o)
 .debug_pubnames
                0x000058c8       0xcc /local/mnt/workspace/CRMBuilds/TZ.BF.4.0.3.c1-00005-M8996AAAAANAZT-1_20170110_230814/b/HK11/trustzone_images/core/securemsm/trustzone/qsapps/libs/applib/common_applib/build/fidosui/scorpion/IADAANAA/tzapp_entrylib.lib(gpPersistObjFileIO.o)
 .debug_pubnames
                0x00005994       0x53 /local/mnt/workspace/CRMBuilds/TZ.BF.4.0.3.c1-00005-M8996AAAAANAZT-1_20170110_230814/b/HK11/trustzone_images/core/securemsm/trustzone/qsapps/libs/applib/common_applib/build/fidosui/scorpion/IADAANAA/tzapp_entrylib.lib(gpFileService.o)
 .debug_pubnames
                0x000059e7      0x147 /local/mnt/workspace/CRMBuilds/TZ.BF.4.0.3.c1-00005-M8996AAAAANAZT-1_20170110_230814/b/HK11/trustzone_images/core/securemsm/trustzone/qsapps/libs/applib/qsee/build/fidosui/scorpion/IADAANAA/tzapp_entrylib.lib(qsee_core_shim.o)
 .debug_pubnames
                0x00005b2e      0x145 /local/mnt/workspace/CRMBuilds/TZ.BF.4.0.3.c1-00005-M8996AAAAANAZT-1_20170110_230814/b/HK11/trustzone_images/core/securemsm/trustzone/qsapps/libs/applib/qsee/build/fidosui/scorpion/IADAANAA/tzapp_entrylib.lib(stor.o)
 .debug_pubnames
                0x00005c73      0x196 /local/mnt/workspace/CRMBuilds/TZ.BF.4.0.3.c1-00005-M8996AAAAANAZT-1_20170110_230814/b/HK11/trustzone_images/core/securemsm/trustzone/qsapps/libs/applib/qsee/build/fidosui/scorpion/IADAANAA/tzapp_entrylib.lib(stor_gpt.o)
 .debug_pubnames
                0x00005e09      0x100 /local/mnt/workspace/CRMBuilds/TZ.BF.4.0.3.c1-00005-M8996AAAAANAZT-1_20170110_230814/b/HK11/trustzone_images/core/securemsm/trustzone/qsapps/libs/applib/qsee/build/fidosui/scorpion/IADAANAA/tzapp_entrylib.lib(stor_rpmbw.o)
 .debug_pubnames
                0x00005f09       0x2a /local/mnt/workspace/CRMBuilds/TZ.BF.4.0.3.c1-00005-M8996AAAAANAZT-1_20170110_230814/b/HK11/trustzone_images/core/securemsm/trustzone/qsapps/libs/applib/qsee/build/fidosui/scorpion/IADAANAA/tzapp_entrylib.lib(qsee_cfg_prop_shim.o)
 .debug_pubnames
                0x00005f33      0x233 /local/mnt/workspace/CRMBuilds/TZ.BF.4.0.3.c1-00005-M8996AAAAANAZT-1_20170110_230814/b/HK11/trustzone_images/core/securemsm/trustzone/qsapps/libs/applib/qsee/build/fidosui/scorpion/IADAANAA/tzapp_entrylib.lib(qsee_cipher.o)
 .debug_pubnames
                0x00006166      0x152 /local/mnt/workspace/CRMBuilds/TZ.BF.4.0.3.c1-00005-M8996AAAAANAZT-1_20170110_230814/b/HK11/trustzone_images/core/securemsm/trustzone/qsapps/libs/applib/qsee/build/fidosui/scorpion/IADAANAA/tzapp_entrylib.lib(qsee_hmac.o)
 .debug_pubnames
                0x000062b8       0x3e /local/mnt/workspace/CRMBuilds/TZ.BF.4.0.3.c1-00005-M8996AAAAANAZT-1_20170110_230814/b/HK11/trustzone_images/core/securemsm/trustzone/qsapps/libs/applib/qsee/build/fidosui/scorpion/IADAANAA/tzapp_entrylib.lib(gpPersistObjPanic.o)
 .debug_pubnames
                0x000062f6       0x26 /local/mnt/workspace/CRMBuilds/TZ.BF.4.0.3.c1-00005-M8996AAAAANAZT-1_20170110_230814/b/HK11/trustzone_images/core/kernel/libstd/build/fidosui/scorpion/IADAANAA/libstd.lib(timesafe_memcmp.o)
 .debug_pubnames
                0x0000631c      0x159 /local/mnt/workspace/CRMBuilds/TZ.BF.4.0.3.c1-00005-M8996AAAAANAZT-1_20170110_230814/b/HK11/trustzone_images/core/securemsm/sse/SecureTouch/controller/build/fidosui/scorpion/IADAANAA/drts_controller_msm8996.lib(atmel_mxt_ts.o)
 .debug_pubnames
                0x00006475       0xfa /local/mnt/workspace/CRMBuilds/TZ.BF.4.0.3.c1-00005-M8996AAAAANAZT-1_20170110_230814/b/HK11/trustzone_images/core/securemsm/sse/SecureTouch/controller/build/fidosui/scorpion/IADAANAA/drts_controller_msm8996.lib(synaptics_ts.o)
 .debug_pubnames
                0x0000656f       0x80 /local/mnt/workspace/CRMBuilds/TZ.BF.4.0.3.c1-00005-M8996AAAAANAZT-1_20170110_230814/b/HK11/trustzone_images/core/securemsm/sse/qsee/SecureTouch/drTs/controller/build/fidosui/scorpion/IADAANAA/touch_controller_i2c_msm8996.lib(atmel_mxt_ts_i2c.o)
 .debug_pubnames
                0x000065ef       0xa6 /local/mnt/workspace/CRMBuilds/TZ.BF.4.0.3.c1-00005-M8996AAAAANAZT-1_20170110_230814/b/HK11/trustzone_images/core/securemsm/sse/qsee/SecureTouch/drTs/controller/build/fidosui/scorpion/IADAANAA/touch_controller_i2c_msm8996.lib(synaptics_ts_i2c.o)
 .debug_pubnames
                0x00006695      0x15d /local/mnt/workspace/CRMBuilds/TZ.BF.4.0.3.c1-00005-M8996AAAAANAZT-1_20170110_230814/b/HK11/trustzone_images/core/securemsm/trustzone/qsapps/libs/applib/qsee/build/fidosui/scorpion/IADAANAA/tzapp_entrylib.lib(qsee_i2c.o)

.debug_pubtypes
                0x00000000     0xdb24
 .debug_pubtypes
                0x00000000       0x2c /local/mnt/workspace/CRMBuilds/TZ.BF.4.0.3.c1-00005-M8996AAAAANAZT-1_20170110_230814/b/HK11/trustzone_images/apps/securemsm/trustzone/qsapps/fidosui/build/fidosui/scorpion/IADAANAA/metadata.o
 .debug_pubtypes
                0x0000002c       0xde /local/mnt/workspace/CRMBuilds/TZ.BF.4.0.3.c1-00005-M8996AAAAANAZT-1_20170110_230814/b/HK11/trustzone_images/apps/securemsm/trustzone/qsapps/fidosui/ipc/build/fidosui/scorpion/IADAANAA/src/CFidoSuiToken.o
 .debug_pubtypes
                0x0000010a       0x2e /local/mnt/workspace/CRMBuilds/TZ.BF.4.0.3.c1-00005-M8996AAAAANAZT-1_20170110_230814/b/HK11/trustzone_images/core/kernel/libstd/build/fidosui/scorpion/IADAANAA/libstd.lib(memscpy.o)
 .debug_pubtypes
                0x00000138      0x4a5 /local/mnt/workspace/CRMBuilds/TZ.BF.4.0.3.c1-00005-M8996AAAAANAZT-1_20170110_230814/b/HK11/trustzone_images/core/securemsm/trustzone/qsapps/libs/applib/common_applib/build/fidosui/scorpion/IADAANAA/tzapp_entrylib.lib(common_applib.o)
 .debug_pubtypes
                0x000005dd     0x10f1 /local/mnt/workspace/CRMBuilds/TZ.BF.4.0.3.c1-00005-M8996AAAAANAZT-1_20170110_230814/b/HK11/trustzone_images/core/securemsm/trustzone/qsapps/libs/applib/proxy/build/fidosui/scorpion/IADAANAA/tzlib_proxy.lib(prxy_services.o)
 .debug_pubtypes
                0x000016ce       0xf8 /local/mnt/workspace/CRMBuilds/TZ.BF.4.0.3.c1-00005-M8996AAAAANAZT-1_20170110_230814/b/HK11/trustzone_images/core/securemsm/trustzone/qsapps/libs/applib/qsee/build/fidosui/scorpion/IADAANAA/tzapp_entrylib.lib(mink_shared_code.o)
 .debug_pubtypes
                0x000017c6       0xfc /local/mnt/workspace/CRMBuilds/TZ.BF.4.0.3.c1-00005-M8996AAAAANAZT-1_20170110_230814/b/HK11/trustzone_images/core/securemsm/trustzone/qsapps/libs/applib/qsee/build/fidosui/scorpion/IADAANAA/tzapp_entrylib.lib(qsee_env.o)
 .debug_pubtypes
                0x000018c2       0xe1 /local/mnt/workspace/CRMBuilds/TZ.BF.4.0.3.c1-00005-M8996AAAAANAZT-1_20170110_230814/b/HK11/trustzone_images/core/securemsm/trustzone/qsapps/libs/applib/qsee/build/fidosui/scorpion/IADAANAA/tzapp_entrylib.lib(qsee_prng.o)
 .debug_pubtypes
                0x000019a3       0xeb /local/mnt/workspace/CRMBuilds/TZ.BF.4.0.3.c1-00005-M8996AAAAANAZT-1_20170110_230814/b/HK11/trustzone_images/core/securemsm/trustzone/qsapps/libs/applib/qsee/build/fidosui/scorpion/IADAANAA/tzapp_entrylib.lib(tzapp_lib_main.o)
 .debug_pubtypes
                0x00001a8e      0x284 /local/mnt/workspace/CRMBuilds/TZ.BF.4.0.3.c1-00005-M8996AAAAANAZT-1_20170110_230814/b/HK11/trustzone_images/apps/securemsm/trustzone/qsapps/fidosui/app/build/fidosui/scorpion/IADAANAA/fidosui_app.lib(app_main.o)
 .debug_pubtypes
                0x00001d12      0x160 /local/mnt/workspace/CRMBuilds/TZ.BF.4.0.3.c1-00005-M8996AAAAANAZT-1_20170110_230814/b/HK11/trustzone_images/apps/securemsm/trustzone/qsapps/fidosui/app/build/fidosui/scorpion/IADAANAA/fidosui_app.lib(01_Initialize.o)
 .debug_pubtypes
                0x00001e72      0x1f4 /local/mnt/workspace/CRMBuilds/TZ.BF.4.0.3.c1-00005-M8996AAAAANAZT-1_20170110_230814/b/HK11/trustzone_images/apps/securemsm/trustzone/qsapps/fidosui/app/build/fidosui/scorpion/IADAANAA/fidosui_app.lib(08_ShowMessageSui.o)
 .debug_pubtypes
                0x00002066      0x581 /local/mnt/workspace/CRMBuilds/TZ.BF.4.0.3.c1-00005-M8996AAAAANAZT-1_20170110_230814/b/HK11/trustzone_images/apps/securemsm/trustzone/qsapps/fidosui/app/build/fidosui/scorpion/IADAANAA/fidosui_app.lib(fsSecureUI.o)
 .debug_pubtypes
                0x000025e7       0x60 /local/mnt/workspace/CRMBuilds/TZ.BF.4.0.3.c1-00005-M8996AAAAANAZT-1_20170110_230814/b/HK11/trustzone_images/apps/securemsm/trustzone/qsapps/fidosui/app/build/fidosui/scorpion/IADAANAA/fidosui_app.lib(fsLocale.o)
 .debug_pubtypes
                0x00002647       0x71 /local/mnt/workspace/CRMBuilds/TZ.BF.4.0.3.c1-00005-M8996AAAAANAZT-1_20170110_230814/b/HK11/trustzone_images/apps/securemsm/trustzone/qsapps/fidosui/config/build/fidosui/scorpion/IADAANAA/fidosui_config.lib(config.o)
 .debug_pubtypes
                0x000026b8       0x68 /local/mnt/workspace/CRMBuilds/TZ.BF.4.0.3.c1-00005-M8996AAAAANAZT-1_20170110_230814/b/HK11/trustzone_images/apps/securemsm/trustzone/qsapps/fidosui/locale/build/fidosui/scorpion/IADAANAA/fidosui_locale.lib(locale.o)
 .debug_pubtypes
                0x00002720       0x54 /local/mnt/workspace/CRMBuilds/TZ.BF.4.0.3.c1-00005-M8996AAAAANAZT-1_20170110_230814/b/HK11/trustzone_images/core/kernel/libstd/build/fidosui/scorpion/IADAANAA/libstd.lib(secure_memset.o)
 .debug_pubtypes
                0x00002774       0x4a /local/mnt/workspace/CRMBuilds/TZ.BF.4.0.3.c1-00005-M8996AAAAANAZT-1_20170110_230814/b/HK11/trustzone_images/core/securemsm/sse/log/build/fidosui/scorpion/IADAANAA/sselog.lib(sselog.o)
 .debug_pubtypes
                0x000027be      0x23f /local/mnt/workspace/CRMBuilds/TZ.BF.4.0.3.c1-00005-M8996AAAAANAZT-1_20170110_230814/b/HK11/trustzone_images/core/securemsm/sse/qsee/SecureUI/build/fidosui/scorpion/IADAANAA/secure_ui.lib(SecureUI.o)
 .debug_pubtypes
                0x000029fd      0x5ce /local/mnt/workspace/CRMBuilds/TZ.BF.4.0.3.c1-00005-M8996AAAAANAZT-1_20170110_230814/b/HK11/trustzone_images/core/securemsm/sse/qsee/SecureUI/build/fidosui/scorpion/IADAANAA/secure_ui_tui.lib(qsee_tui_dialogs.o)
 .debug_pubtypes
                0x00002fcb      0x44d /local/mnt/workspace/CRMBuilds/TZ.BF.4.0.3.c1-00005-M8996AAAAANAZT-1_20170110_230814/b/HK11/trustzone_images/core/securemsm/sse/qsee/SecureUI/build/fidosui/scorpion/IADAANAA/secure_ui_tui.lib(layout_manager.o)
 .debug_pubtypes
                0x00003418      0x62c /local/mnt/workspace/CRMBuilds/TZ.BF.4.0.3.c1-00005-M8996AAAAANAZT-1_20170110_230814/b/HK11/trustzone_images/core/securemsm/sse/qsee/SecureUI/build/fidosui/scorpion/IADAANAA/secure_ui_tui.lib(secure_display_renderer.o)
 .debug_pubtypes
                0x00003a44      0x368 /local/mnt/workspace/CRMBuilds/TZ.BF.4.0.3.c1-00005-M8996AAAAANAZT-1_20170110_230814/b/HK11/trustzone_images/core/securemsm/sse/qsee/SecureUI/build/fidosui/scorpion/IADAANAA/secure_ui_tui.lib(font_manager.o)
 .debug_pubtypes
                0x00003dac      0x297 /local/mnt/workspace/CRMBuilds/TZ.BF.4.0.3.c1-00005-M8996AAAAANAZT-1_20170110_230814/b/HK11/trustzone_images/core/securemsm/sse/qsee/SecureUILib/lib/build/fidosui/scorpion/IADAANAA/secure_ui_lib.lib(SecureUILib.o)
 .debug_pubtypes
                0x00004043      0x1b9 /local/mnt/workspace/CRMBuilds/TZ.BF.4.0.3.c1-00005-M8996AAAAANAZT-1_20170110_230814/b/HK11/trustzone_images/core/securemsm/sse/qsee/SecureUILib/lib/build/fidosui/scorpion/IADAANAA/secure_ui_lib.lib(01_startTouch.o)
 .debug_pubtypes
                0x000041fc      0x1f2 /local/mnt/workspace/CRMBuilds/TZ.BF.4.0.3.c1-00005-M8996AAAAANAZT-1_20170110_230814/b/HK11/trustzone_images/core/securemsm/sse/qsee/SecureUILib/lib/build/fidosui/scorpion/IADAANAA/secure_ui_lib.lib(02_processTouch.o)
 .debug_pubtypes
                0x000043ee      0x1c3 /local/mnt/workspace/CRMBuilds/TZ.BF.4.0.3.c1-00005-M8996AAAAANAZT-1_20170110_230814/b/HK11/trustzone_images/core/securemsm/sse/qsee/SecureUILib/lib/build/fidosui/scorpion/IADAANAA/secure_ui_lib.lib(03_stopTouch.o)
 .debug_pubtypes
                0x000045b1      0x1b9 /local/mnt/workspace/CRMBuilds/TZ.BF.4.0.3.c1-00005-M8996AAAAANAZT-1_20170110_230814/b/HK11/trustzone_images/core/securemsm/sse/qsee/SecureUILib/lib/build/fidosui/scorpion/IADAANAA/secure_ui_lib.lib(04_prepareRequest.o)
 .debug_pubtypes
                0x0000476a      0x1e2 /local/mnt/workspace/CRMBuilds/TZ.BF.4.0.3.c1-00005-M8996AAAAANAZT-1_20170110_230814/b/HK11/trustzone_images/core/securemsm/sse/qsee/SecureUILib/lib/build/fidosui/scorpion/IADAANAA/secure_ui_lib.lib(05_storeIndicator.o)
 .debug_pubtypes
                0x0000494c      0x3b4 /local/mnt/workspace/CRMBuilds/TZ.BF.4.0.3.c1-00005-M8996AAAAANAZT-1_20170110_230814/b/HK11/trustzone_images/core/securemsm/trustzone/qsapps/libs/applib/proxy/build/fidosui/scorpion/IADAANAA/tzlib_proxy.lib(prxy_qsee_shim.o)
 .debug_pubtypes
                0x00004d00     0x10c1 /local/mnt/workspace/CRMBuilds/TZ.BF.4.0.3.c1-00005-M8996AAAAANAZT-1_20170110_230814/b/HK11/trustzone_images/core/securemsm/trustzone/qsapps/libs/applib/proxy/build/fidosui/scorpion/IADAANAA/tzlib_proxy.lib(prxy_ufdes.o)
 .debug_pubtypes
                0x00005dc1     0x10c1 /local/mnt/workspace/CRMBuilds/TZ.BF.4.0.3.c1-00005-M8996AAAAANAZT-1_20170110_230814/b/HK11/trustzone_images/core/securemsm/trustzone/qsapps/libs/applib/proxy/build/fidosui/scorpion/IADAANAA/tzlib_proxy.lib(prxy_secmath.o)
 .debug_pubtypes
                0x00006e82     0x10c1 /local/mnt/workspace/CRMBuilds/TZ.BF.4.0.3.c1-00005-M8996AAAAANAZT-1_20170110_230814/b/HK11/trustzone_images/core/securemsm/trustzone/qsapps/libs/applib/proxy/build/fidosui/scorpion/IADAANAA/tzlib_proxy.lib(prxy_secrsa.o)
 .debug_pubtypes
                0x00007f43     0x10c1 /local/mnt/workspace/CRMBuilds/TZ.BF.4.0.3.c1-00005-M8996AAAAANAZT-1_20170110_230814/b/HK11/trustzone_images/core/securemsm/trustzone/qsapps/libs/applib/proxy/build/fidosui/scorpion/IADAANAA/tzlib_proxy.lib(prxy_ecc.o)
 .debug_pubtypes
                0x00009004       0xcd /local/mnt/workspace/CRMBuilds/TZ.BF.4.0.3.c1-00005-M8996AAAAANAZT-1_20170110_230814/b/HK11/trustzone_images/core/securemsm/trustzone/qsapps/libs/applib/qsee/build/fidosui/scorpion/IADAANAA/tzapp_entrylib.lib(qsee_secdisp.o)
 .debug_pubtypes
                0x000090d1       0xf5 /local/mnt/workspace/CRMBuilds/TZ.BF.4.0.3.c1-00005-M8996AAAAANAZT-1_20170110_230814/b/HK11/trustzone_images/core/securemsm/trustzone/qsapps/libs/applib/qsee/build/fidosui/scorpion/IADAANAA/tzapp_entrylib.lib(qsee_nsmem.o)
 .debug_pubtypes
                0x000091c6       0x2d /local/mnt/workspace/CRMBuilds/TZ.BF.4.0.3.c1-00005-M8996AAAAANAZT-1_20170110_230814/b/HK11/trustzone_images/core/securemsm/trustzone/qsapps/libs/applib/qsee/build/fidosui/scorpion/IADAANAA/tzapp_entrylib.lib(qsee_timer_shim.o)
 .debug_pubtypes
                0x000091f3      0x18c /local/mnt/workspace/CRMBuilds/TZ.BF.4.0.3.c1-00005-M8996AAAAANAZT-1_20170110_230814/b/HK11/trustzone_images/core/securemsm/trustzone/qsapps/libs/applib/qsee/build/fidosui/scorpion/IADAANAA/tzapp_entrylib.lib(qsee_hash.o)
 .debug_pubtypes
                0x0000937f       0xeb /local/mnt/workspace/CRMBuilds/TZ.BF.4.0.3.c1-00005-M8996AAAAANAZT-1_20170110_230814/b/HK11/trustzone_images/core/securemsm/trustzone/qsapps/libs/applib/qsee/build/fidosui/scorpion/IADAANAA/tzapp_entrylib.lib(qsee_shared_buffer.o)
 .debug_pubtypes
                0x0000946a       0xea /local/mnt/workspace/CRMBuilds/TZ.BF.4.0.3.c1-00005-M8996AAAAANAZT-1_20170110_230814/b/HK11/trustzone_images/core/securemsm/trustzone/qsapps/libs/applib/qsee/build/fidosui/scorpion/IADAANAA/tzapp_entrylib.lib(qsee_appmessage.o)
 .debug_pubtypes
                0x00009554      0x118 /local/mnt/workspace/CRMBuilds/TZ.BF.4.0.3.c1-00005-M8996AAAAANAZT-1_20170110_230814/b/HK11/trustzone_images/core/securemsm/trustzone/qsapps/libs/applib/qsee/build/fidosui/scorpion/IADAANAA/tzapp_entrylib.lib(sfs_api.o)
 .debug_pubtypes
                0x0000966c      0x394 /local/mnt/workspace/CRMBuilds/TZ.BF.4.0.3.c1-00005-M8996AAAAANAZT-1_20170110_230814/b/HK11/trustzone_images/apps/securemsm/trustzone/qsapps/fidosui/layouts/build/fidosui/scorpion/IADAANAA/secure_ui_layout.lib(layout_8996_fluid.o)
 .debug_pubtypes
                0x00009a00      0x3cf /local/mnt/workspace/CRMBuilds/TZ.BF.4.0.3.c1-00005-M8996AAAAANAZT-1_20170110_230814/b/HK11/trustzone_images/core/securemsm/sse/SecureTouch/layout/build/fidosui/scorpion/IADAANAA/sklayout.lib(layoutUtils.o)
 .debug_pubtypes
                0x00009dcf      0x144 /local/mnt/workspace/CRMBuilds/TZ.BF.4.0.3.c1-00005-M8996AAAAANAZT-1_20170110_230814/b/HK11/trustzone_images/core/securemsm/sse/qsee/SecureDisplay/libgd/build/fidosui/scorpion/IADAANAA/libgd.lib(gd.o)
 .debug_pubtypes
                0x00009f13       0xb2 /local/mnt/workspace/CRMBuilds/TZ.BF.4.0.3.c1-00005-M8996AAAAANAZT-1_20170110_230814/b/HK11/trustzone_images/core/securemsm/sse/qsee/SecureDisplay/libgd/build/fidosui/scorpion/IADAANAA/libgd.lib(gd_color.o)
 .debug_pubtypes
                0x00009fc5       0x1a /local/mnt/workspace/CRMBuilds/TZ.BF.4.0.3.c1-00005-M8996AAAAANAZT-1_20170110_230814/b/HK11/trustzone_images/core/securemsm/sse/qsee/SecureDisplay/libgd/build/fidosui/scorpion/IADAANAA/libgd.lib(gd_security.o)
 .debug_pubtypes
                0x00009fdf       0x1a /local/mnt/workspace/CRMBuilds/TZ.BF.4.0.3.c1-00005-M8996AAAAANAZT-1_20170110_230814/b/HK11/trustzone_images/core/securemsm/sse/qsee/SecureDisplay/libgd/build/fidosui/scorpion/IADAANAA/libgd.lib(gdtables.o)
 .debug_pubtypes
                0x00009ff9      0x313 /local/mnt/workspace/CRMBuilds/TZ.BF.4.0.3.c1-00005-M8996AAAAANAZT-1_20170110_230814/b/HK11/trustzone_images/core/securemsm/sse/qsee/SecureDisplay/libpng/build/fidosui/scorpion/IADAANAA/libpng.lib(png.o)
 .debug_pubtypes
                0x0000a30c      0x2d7 /local/mnt/workspace/CRMBuilds/TZ.BF.4.0.3.c1-00005-M8996AAAAANAZT-1_20170110_230814/b/HK11/trustzone_images/core/securemsm/sse/qsee/SecureDisplay/libpng/build/fidosui/scorpion/IADAANAA/libpng.lib(pngerror.o)
 .debug_pubtypes
                0x0000a5e3      0x2fa /local/mnt/workspace/CRMBuilds/TZ.BF.4.0.3.c1-00005-M8996AAAAANAZT-1_20170110_230814/b/HK11/trustzone_images/core/securemsm/sse/qsee/SecureDisplay/libpng/build/fidosui/scorpion/IADAANAA/libpng.lib(pngget.o)
 .debug_pubtypes
                0x0000a8dd      0x2c9 /local/mnt/workspace/CRMBuilds/TZ.BF.4.0.3.c1-00005-M8996AAAAANAZT-1_20170110_230814/b/HK11/trustzone_images/core/securemsm/sse/qsee/SecureDisplay/libpng/build/fidosui/scorpion/IADAANAA/libpng.lib(pngmem.o)
 .debug_pubtypes
                0x0000aba6      0x30e /local/mnt/workspace/CRMBuilds/TZ.BF.4.0.3.c1-00005-M8996AAAAANAZT-1_20170110_230814/b/HK11/trustzone_images/core/securemsm/sse/qsee/SecureDisplay/libpng/build/fidosui/scorpion/IADAANAA/libpng.lib(pngread.o)
 .debug_pubtypes
                0x0000aeb4      0x2b2 /local/mnt/workspace/CRMBuilds/TZ.BF.4.0.3.c1-00005-M8996AAAAANAZT-1_20170110_230814/b/HK11/trustzone_images/core/securemsm/sse/qsee/SecureDisplay/libpng/build/fidosui/scorpion/IADAANAA/libpng.lib(pngrio.o)
 .debug_pubtypes
                0x0000b166      0x2f6 /local/mnt/workspace/CRMBuilds/TZ.BF.4.0.3.c1-00005-M8996AAAAANAZT-1_20170110_230814/b/HK11/trustzone_images/core/securemsm/sse/qsee/SecureDisplay/libpng/build/fidosui/scorpion/IADAANAA/libpng.lib(pngrutil.o)
 .debug_pubtypes
                0x0000b45c      0x30b /local/mnt/workspace/CRMBuilds/TZ.BF.4.0.3.c1-00005-M8996AAAAANAZT-1_20170110_230814/b/HK11/trustzone_images/core/securemsm/sse/qsee/SecureDisplay/libpng/build/fidosui/scorpion/IADAANAA/libpng.lib(pngset.o)
 .debug_pubtypes
                0x0000b767       0x7f /local/mnt/workspace/CRMBuilds/TZ.BF.4.0.3.c1-00005-M8996AAAAANAZT-1_20170110_230814/b/HK11/trustzone_images/core/securemsm/sse/qsee/SecureDisplay/zlib/build/fidosui/scorpion/IADAANAA/zlib.lib(crc32.o)
 .debug_pubtypes
                0x0000b7e6      0x14d /local/mnt/workspace/CRMBuilds/TZ.BF.4.0.3.c1-00005-M8996AAAAANAZT-1_20170110_230814/b/HK11/trustzone_images/core/securemsm/sse/qsee/SecureDisplay/zlib/build/fidosui/scorpion/IADAANAA/zlib.lib(inflate.o)
 .debug_pubtypes
                0x0000b933       0x6f /local/mnt/workspace/CRMBuilds/TZ.BF.4.0.3.c1-00005-M8996AAAAANAZT-1_20170110_230814/b/HK11/trustzone_images/core/securemsm/sse/qsee/SecureDisplay/zlib/build/fidosui/scorpion/IADAANAA/zlib.lib(inftrees.o)
 .debug_pubtypes
                0x0000b9a2       0x5f /local/mnt/workspace/CRMBuilds/TZ.BF.4.0.3.c1-00005-M8996AAAAANAZT-1_20170110_230814/b/HK11/trustzone_images/core/securemsm/sse/qsee/SecureDisplay/zlib/build/fidosui/scorpion/IADAANAA/zlib.lib(zutil.o)
 .debug_pubtypes
                0x0000ba01       0x7e /local/mnt/workspace/CRMBuilds/TZ.BF.4.0.3.c1-00005-M8996AAAAANAZT-1_20170110_230814/b/HK11/trustzone_images/core/securemsm/sse/qsee/SecureDisplay/zlib/build/fidosui/scorpion/IADAANAA/zlib.lib(adler32.o)
 .debug_pubtypes
                0x0000ba7f      0x140 /local/mnt/workspace/CRMBuilds/TZ.BF.4.0.3.c1-00005-M8996AAAAANAZT-1_20170110_230814/b/HK11/trustzone_images/core/securemsm/sse/qsee/SecureDisplay/zlib/build/fidosui/scorpion/IADAANAA/zlib.lib(inffast.o)
 .debug_pubtypes
                0x0000bbbf       0x58 /local/mnt/workspace/CRMBuilds/TZ.BF.4.0.3.c1-00005-M8996AAAAANAZT-1_20170110_230814/b/HK11/trustzone_images/core/securemsm/sse/qsee/SecureTouch/drTs/lib/build/fidosui/scorpion/IADAANAA/touch_lib.lib(01_open.o)
 .debug_pubtypes
                0x0000bc17       0x4b /local/mnt/workspace/CRMBuilds/TZ.BF.4.0.3.c1-00005-M8996AAAAANAZT-1_20170110_230814/b/HK11/trustzone_images/core/securemsm/sse/qsee/SecureTouch/drTs/lib/build/fidosui/scorpion/IADAANAA/touch_lib.lib(02_close.o)
 .debug_pubtypes
                0x0000bc62       0x97 /local/mnt/workspace/CRMBuilds/TZ.BF.4.0.3.c1-00005-M8996AAAAANAZT-1_20170110_230814/b/HK11/trustzone_images/core/securemsm/sse/qsee/SecureTouch/drTs/lib/build/fidosui/scorpion/IADAANAA/touch_lib.lib(03_getData.o)
 .debug_pubtypes
                0x0000bcf9      0x11c /local/mnt/workspace/CRMBuilds/TZ.BF.4.0.3.c1-00005-M8996AAAAANAZT-1_20170110_230814/b/HK11/trustzone_images/core/securemsm/trustzone/qsapps/libs/applib/common_applib/build/fidosui/scorpion/IADAANAA/tzapp_entrylib.lib(gpPersistObjCommon.o)
 .debug_pubtypes
                0x0000be15      0x158 /local/mnt/workspace/CRMBuilds/TZ.BF.4.0.3.c1-00005-M8996AAAAANAZT-1_20170110_230814/b/HK11/trustzone_images/core/securemsm/trustzone/qsapps/libs/applib/common_applib/build/fidosui/scorpion/IADAANAA/tzapp_entrylib.lib(gpPersistentObjects.o)
 .debug_pubtypes
                0x0000bf6d      0x15b /local/mnt/workspace/CRMBuilds/TZ.BF.4.0.3.c1-00005-M8996AAAAANAZT-1_20170110_230814/b/HK11/trustzone_images/core/securemsm/trustzone/qsapps/libs/applib/common_applib/build/fidosui/scorpion/IADAANAA/tzapp_entrylib.lib(gpPersistObjData.o)
 .debug_pubtypes
                0x0000c0c8      0x119 /local/mnt/workspace/CRMBuilds/TZ.BF.4.0.3.c1-00005-M8996AAAAANAZT-1_20170110_230814/b/HK11/trustzone_images/core/securemsm/trustzone/qsapps/libs/applib/common_applib/build/fidosui/scorpion/IADAANAA/tzapp_entrylib.lib(gpPersistObjHandler.o)
 .debug_pubtypes
                0x0000c1e1      0x156 /local/mnt/workspace/CRMBuilds/TZ.BF.4.0.3.c1-00005-M8996AAAAANAZT-1_20170110_230814/b/HK11/trustzone_images/core/securemsm/trustzone/qsapps/libs/applib/common_applib/build/fidosui/scorpion/IADAANAA/tzapp_entrylib.lib(gpPersistObjIndex.o)
 .debug_pubtypes
                0x0000c337      0x13e /local/mnt/workspace/CRMBuilds/TZ.BF.4.0.3.c1-00005-M8996AAAAANAZT-1_20170110_230814/b/HK11/trustzone_images/core/securemsm/trustzone/qsapps/libs/applib/common_applib/build/fidosui/scorpion/IADAANAA/tzapp_entrylib.lib(gpPersistObjVersion.o)
 .debug_pubtypes
                0x0000c475       0xcc /local/mnt/workspace/CRMBuilds/TZ.BF.4.0.3.c1-00005-M8996AAAAANAZT-1_20170110_230814/b/HK11/trustzone_images/core/securemsm/trustzone/qsapps/libs/applib/common_applib/build/fidosui/scorpion/IADAANAA/tzapp_entrylib.lib(gpPersistObjCrypto.o)
 .debug_pubtypes
                0x0000c541       0xb8 /local/mnt/workspace/CRMBuilds/TZ.BF.4.0.3.c1-00005-M8996AAAAANAZT-1_20170110_230814/b/HK11/trustzone_images/core/securemsm/trustzone/qsapps/libs/applib/common_applib/build/fidosui/scorpion/IADAANAA/tzapp_entrylib.lib(gpPersistObjFileIO.o)
 .debug_pubtypes
                0x0000c5f9      0x233 /local/mnt/workspace/CRMBuilds/TZ.BF.4.0.3.c1-00005-M8996AAAAANAZT-1_20170110_230814/b/HK11/trustzone_images/core/securemsm/trustzone/qsapps/libs/applib/common_applib/build/fidosui/scorpion/IADAANAA/tzapp_entrylib.lib(gpFileService.o)
 .debug_pubtypes
                0x0000c82c      0x13f /local/mnt/workspace/CRMBuilds/TZ.BF.4.0.3.c1-00005-M8996AAAAANAZT-1_20170110_230814/b/HK11/trustzone_images/core/securemsm/trustzone/qsapps/libs/applib/qsee/build/fidosui/scorpion/IADAANAA/tzapp_entrylib.lib(qsee_core_shim.o)
 .debug_pubtypes
                0x0000c96b      0x19f /local/mnt/workspace/CRMBuilds/TZ.BF.4.0.3.c1-00005-M8996AAAAANAZT-1_20170110_230814/b/HK11/trustzone_images/core/securemsm/trustzone/qsapps/libs/applib/qsee/build/fidosui/scorpion/IADAANAA/tzapp_entrylib.lib(stor.o)
 .debug_pubtypes
                0x0000cb0a      0x32f /local/mnt/workspace/CRMBuilds/TZ.BF.4.0.3.c1-00005-M8996AAAAANAZT-1_20170110_230814/b/HK11/trustzone_images/core/securemsm/trustzone/qsapps/libs/applib/qsee/build/fidosui/scorpion/IADAANAA/tzapp_entrylib.lib(stor_gpt.o)
 .debug_pubtypes
                0x0000ce39      0x193 /local/mnt/workspace/CRMBuilds/TZ.BF.4.0.3.c1-00005-M8996AAAAANAZT-1_20170110_230814/b/HK11/trustzone_images/core/securemsm/trustzone/qsapps/libs/applib/qsee/build/fidosui/scorpion/IADAANAA/tzapp_entrylib.lib(stor_rpmbw.o)
 .debug_pubtypes
                0x0000cfcc       0x81 /local/mnt/workspace/CRMBuilds/TZ.BF.4.0.3.c1-00005-M8996AAAAANAZT-1_20170110_230814/b/HK11/trustzone_images/core/securemsm/trustzone/qsapps/libs/applib/qsee/build/fidosui/scorpion/IADAANAA/tzapp_entrylib.lib(qsee_cfg_prop_shim.o)
 .debug_pubtypes
                0x0000d04d      0x167 /local/mnt/workspace/CRMBuilds/TZ.BF.4.0.3.c1-00005-M8996AAAAANAZT-1_20170110_230814/b/HK11/trustzone_images/core/securemsm/trustzone/qsapps/libs/applib/qsee/build/fidosui/scorpion/IADAANAA/tzapp_entrylib.lib(qsee_cipher.o)
 .debug_pubtypes
                0x0000d1b4      0x157 /local/mnt/workspace/CRMBuilds/TZ.BF.4.0.3.c1-00005-M8996AAAAANAZT-1_20170110_230814/b/HK11/trustzone_images/core/securemsm/trustzone/qsapps/libs/applib/qsee/build/fidosui/scorpion/IADAANAA/tzapp_entrylib.lib(qsee_hmac.o)
 .debug_pubtypes
                0x0000d30b       0x3f /local/mnt/workspace/CRMBuilds/TZ.BF.4.0.3.c1-00005-M8996AAAAANAZT-1_20170110_230814/b/HK11/trustzone_images/core/securemsm/trustzone/qsapps/libs/applib/qsee/build/fidosui/scorpion/IADAANAA/tzapp_entrylib.lib(gpPersistObjPanic.o)
 .debug_pubtypes
                0x0000d34a       0x54 /local/mnt/workspace/CRMBuilds/TZ.BF.4.0.3.c1-00005-M8996AAAAANAZT-1_20170110_230814/b/HK11/trustzone_images/core/kernel/libstd/build/fidosui/scorpion/IADAANAA/libstd.lib(timesafe_memcmp.o)
 .debug_pubtypes
                0x0000d39e      0x138 /local/mnt/workspace/CRMBuilds/TZ.BF.4.0.3.c1-00005-M8996AAAAANAZT-1_20170110_230814/b/HK11/trustzone_images/core/securemsm/sse/SecureTouch/controller/build/fidosui/scorpion/IADAANAA/drts_controller_msm8996.lib(atmel_mxt_ts.o)
 .debug_pubtypes
                0x0000d4d6      0x15d /local/mnt/workspace/CRMBuilds/TZ.BF.4.0.3.c1-00005-M8996AAAAANAZT-1_20170110_230814/b/HK11/trustzone_images/core/securemsm/sse/SecureTouch/controller/build/fidosui/scorpion/IADAANAA/drts_controller_msm8996.lib(synaptics_ts.o)
 .debug_pubtypes
                0x0000d633      0x15b /local/mnt/workspace/CRMBuilds/TZ.BF.4.0.3.c1-00005-M8996AAAAANAZT-1_20170110_230814/b/HK11/trustzone_images/core/securemsm/sse/qsee/SecureTouch/drTs/controller/build/fidosui/scorpion/IADAANAA/touch_controller_i2c_msm8996.lib(atmel_mxt_ts_i2c.o)
 .debug_pubtypes
                0x0000d78e      0x15b /local/mnt/workspace/CRMBuilds/TZ.BF.4.0.3.c1-00005-M8996AAAAANAZT-1_20170110_230814/b/HK11/trustzone_images/core/securemsm/sse/qsee/SecureTouch/drTs/controller/build/fidosui/scorpion/IADAANAA/touch_controller_i2c_msm8996.lib(synaptics_ts_i2c.o)
 .debug_pubtypes
                0x0000d8e9      0x23b /local/mnt/workspace/CRMBuilds/TZ.BF.4.0.3.c1-00005-M8996AAAAANAZT-1_20170110_230814/b/HK11/trustzone_images/core/securemsm/trustzone/qsapps/libs/applib/qsee/build/fidosui/scorpion/IADAANAA/tzapp_entrylib.lib(qsee_i2c.o)

.debug_str      0x00000000    0x12fa4
 .debug_str     0x00000000      0x19a /local/mnt/workspace/CRMBuilds/TZ.BF.4.0.3.c1-00005-M8996AAAAANAZT-1_20170110_230814/b/HK11/trustzone_images/apps/securemsm/trustzone/qsapps/fidosui/build/fidosui/scorpion/IADAANAA/metadata.o
                                0x1ac (size before relaxing)
 .debug_str     0x0000019a      0x1e9 /local/mnt/workspace/CRMBuilds/TZ.BF.4.0.3.c1-00005-M8996AAAAANAZT-1_20170110_230814/b/HK11/trustzone_images/apps/securemsm/trustzone/qsapps/fidosui/ipc/build/fidosui/scorpion/IADAANAA/src/CFidoSuiToken.o
                                0x26c (size before relaxing)
 .debug_str     0x00000383       0xb1 /local/mnt/workspace/CRMBuilds/TZ.BF.4.0.3.c1-00005-M8996AAAAANAZT-1_20170110_230814/b/HK11/trustzone_images/core/kernel/libstd/build/fidosui/scorpion/IADAANAA/libstd.lib(memscpy.o)
                                0x15d (size before relaxing)
 .debug_str     0x00000434      0xd46 /local/mnt/workspace/CRMBuilds/TZ.BF.4.0.3.c1-00005-M8996AAAAANAZT-1_20170110_230814/b/HK11/trustzone_images/core/securemsm/trustzone/qsapps/libs/applib/common_applib/build/fidosui/scorpion/IADAANAA/tzapp_entrylib.lib(common_applib.o)
                                0xfb1 (size before relaxing)
 .debug_str     0x0000117a     0x2104 /local/mnt/workspace/CRMBuilds/TZ.BF.4.0.3.c1-00005-M8996AAAAANAZT-1_20170110_230814/b/HK11/trustzone_images/core/securemsm/trustzone/qsapps/libs/applib/proxy/build/fidosui/scorpion/IADAANAA/tzlib_proxy.lib(prxy_services.o)
                               0x2d35 (size before relaxing)
 .debug_str     0x0000327e      0x166 /local/mnt/workspace/CRMBuilds/TZ.BF.4.0.3.c1-00005-M8996AAAAANAZT-1_20170110_230814/b/HK11/trustzone_images/core/securemsm/trustzone/qsapps/libs/applib/qsee/build/fidosui/scorpion/IADAANAA/tzapp_entrylib.lib(mink_shared_code.o)
                                0x2f1 (size before relaxing)
 .debug_str     0x000033e4      0x1f6 /local/mnt/workspace/CRMBuilds/TZ.BF.4.0.3.c1-00005-M8996AAAAANAZT-1_20170110_230814/b/HK11/trustzone_images/core/securemsm/trustzone/qsapps/libs/applib/qsee/build/fidosui/scorpion/IADAANAA/tzapp_entrylib.lib(qsee_env.o)
                                0x3b5 (size before relaxing)
 .debug_str     0x000035da       0xd3 /local/mnt/workspace/CRMBuilds/TZ.BF.4.0.3.c1-00005-M8996AAAAANAZT-1_20170110_230814/b/HK11/trustzone_images/core/securemsm/trustzone/qsapps/libs/applib/qsee/build/fidosui/scorpion/IADAANAA/tzapp_entrylib.lib(qsee_prng.o)
                                0x279 (size before relaxing)
 .debug_str     0x000036ad      0x306 /local/mnt/workspace/CRMBuilds/TZ.BF.4.0.3.c1-00005-M8996AAAAANAZT-1_20170110_230814/b/HK11/trustzone_images/core/securemsm/trustzone/qsapps/libs/applib/qsee/build/fidosui/scorpion/IADAANAA/tzapp_entrylib.lib(tzapp_lib_main.o)
                                0x472 (size before relaxing)
 .debug_str     0x000039b3      0x367 /local/mnt/workspace/CRMBuilds/TZ.BF.4.0.3.c1-00005-M8996AAAAANAZT-1_20170110_230814/b/HK11/trustzone_images/apps/securemsm/trustzone/qsapps/fidosui/app/build/fidosui/scorpion/IADAANAA/fidosui_app.lib(app_main.o)
                                0xaf2 (size before relaxing)
 .debug_str     0x00003d1a       0xd3 /local/mnt/workspace/CRMBuilds/TZ.BF.4.0.3.c1-00005-M8996AAAAANAZT-1_20170110_230814/b/HK11/trustzone_images/apps/securemsm/trustzone/qsapps/fidosui/app/build/fidosui/scorpion/IADAANAA/fidosui_app.lib(01_Initialize.o)
                                0x329 (size before relaxing)
 .debug_str     0x00003ded      0x3a1 /local/mnt/workspace/CRMBuilds/TZ.BF.4.0.3.c1-00005-M8996AAAAANAZT-1_20170110_230814/b/HK11/trustzone_images/apps/securemsm/trustzone/qsapps/fidosui/app/build/fidosui/scorpion/IADAANAA/fidosui_app.lib(08_ShowMessageSui.o)
                                0xc3e (size before relaxing)
 .debug_str     0x0000418e     0x12a1 /local/mnt/workspace/CRMBuilds/TZ.BF.4.0.3.c1-00005-M8996AAAAANAZT-1_20170110_230814/b/HK11/trustzone_images/apps/securemsm/trustzone/qsapps/fidosui/app/build/fidosui/scorpion/IADAANAA/fidosui_app.lib(fsSecureUI.o)
                               0x1bf4 (size before relaxing)
 .debug_str     0x0000542f       0xbe /local/mnt/workspace/CRMBuilds/TZ.BF.4.0.3.c1-00005-M8996AAAAANAZT-1_20170110_230814/b/HK11/trustzone_images/apps/securemsm/trustzone/qsapps/fidosui/app/build/fidosui/scorpion/IADAANAA/fidosui_app.lib(fsLocale.o)
                                0x1d5 (size before relaxing)
 .debug_str     0x000054ed       0xe4 /local/mnt/workspace/CRMBuilds/TZ.BF.4.0.3.c1-00005-M8996AAAAANAZT-1_20170110_230814/b/HK11/trustzone_images/apps/securemsm/trustzone/qsapps/fidosui/config/build/fidosui/scorpion/IADAANAA/fidosui_config.lib(config.o)
                                0x1bd (size before relaxing)
 .debug_str     0x000055d1       0xde /local/mnt/workspace/CRMBuilds/TZ.BF.4.0.3.c1-00005-M8996AAAAANAZT-1_20170110_230814/b/HK11/trustzone_images/apps/securemsm/trustzone/qsapps/fidosui/locale/build/fidosui/scorpion/IADAANAA/fidosui_locale.lib(locale.o)
                                0x1f7 (size before relaxing)
 .debug_str     0x000056af       0xa9 /local/mnt/workspace/CRMBuilds/TZ.BF.4.0.3.c1-00005-M8996AAAAANAZT-1_20170110_230814/b/HK11/trustzone_images/core/kernel/libstd/build/fidosui/scorpion/IADAANAA/libstd.lib(secure_memset.o)
                                0x179 (size before relaxing)
 .debug_str     0x00005758       0x94 /local/mnt/workspace/CRMBuilds/TZ.BF.4.0.3.c1-00005-M8996AAAAANAZT-1_20170110_230814/b/HK11/trustzone_images/core/securemsm/sse/log/build/fidosui/scorpion/IADAANAA/sselog.lib(sselog.o)
                                0x173 (size before relaxing)
 .debug_str     0x000057ec      0xefa /local/mnt/workspace/CRMBuilds/TZ.BF.4.0.3.c1-00005-M8996AAAAANAZT-1_20170110_230814/b/HK11/trustzone_images/core/securemsm/sse/qsee/SecureUI/build/fidosui/scorpion/IADAANAA/secure_ui.lib(SecureUI.o)
                               0x1115 (size before relaxing)
 .debug_str     0x000066e6      0x6e7 /local/mnt/workspace/CRMBuilds/TZ.BF.4.0.3.c1-00005-M8996AAAAANAZT-1_20170110_230814/b/HK11/trustzone_images/core/securemsm/sse/qsee/SecureUI/build/fidosui/scorpion/IADAANAA/secure_ui_tui.lib(qsee_tui_dialogs.o)
                               0x1e50 (size before relaxing)
 .debug_str     0x00006dcd      0x850 /local/mnt/workspace/CRMBuilds/TZ.BF.4.0.3.c1-00005-M8996AAAAANAZT-1_20170110_230814/b/HK11/trustzone_images/core/securemsm/sse/qsee/SecureUI/build/fidosui/scorpion/IADAANAA/secure_ui_tui.lib(layout_manager.o)
                               0x1816 (size before relaxing)
 .debug_str     0x0000761d      0xbfb /local/mnt/workspace/CRMBuilds/TZ.BF.4.0.3.c1-00005-M8996AAAAANAZT-1_20170110_230814/b/HK11/trustzone_images/core/securemsm/sse/qsee/SecureUI/build/fidosui/scorpion/IADAANAA/secure_ui_tui.lib(secure_display_renderer.o)
                               0x1bfc (size before relaxing)
 .debug_str     0x00008218      0x9e2 /local/mnt/workspace/CRMBuilds/TZ.BF.4.0.3.c1-00005-M8996AAAAANAZT-1_20170110_230814/b/HK11/trustzone_images/core/securemsm/sse/qsee/SecureUI/build/fidosui/scorpion/IADAANAA/secure_ui_tui.lib(font_manager.o)
                               0x114e (size before relaxing)
 .debug_str     0x00008bfa      0x2ae /local/mnt/workspace/CRMBuilds/TZ.BF.4.0.3.c1-00005-M8996AAAAANAZT-1_20170110_230814/b/HK11/trustzone_images/core/securemsm/sse/qsee/SecureUILib/lib/build/fidosui/scorpion/IADAANAA/secure_ui_lib.lib(SecureUILib.o)
                                0xbde (size before relaxing)
 .debug_str     0x00008ea8       0xc3 /local/mnt/workspace/CRMBuilds/TZ.BF.4.0.3.c1-00005-M8996AAAAANAZT-1_20170110_230814/b/HK11/trustzone_images/core/securemsm/sse/qsee/SecureUILib/lib/build/fidosui/scorpion/IADAANAA/secure_ui_lib.lib(01_startTouch.o)
                                0x48f (size before relaxing)
 .debug_str     0x00008f6b       0xd9 /local/mnt/workspace/CRMBuilds/TZ.BF.4.0.3.c1-00005-M8996AAAAANAZT-1_20170110_230814/b/HK11/trustzone_images/core/securemsm/sse/qsee/SecureUILib/lib/build/fidosui/scorpion/IADAANAA/secure_ui_lib.lib(02_processTouch.o)
                                0x4f9 (size before relaxing)
 .debug_str     0x00009044       0xd0 /local/mnt/workspace/CRMBuilds/TZ.BF.4.0.3.c1-00005-M8996AAAAANAZT-1_20170110_230814/b/HK11/trustzone_images/core/securemsm/sse/qsee/SecureUILib/lib/build/fidosui/scorpion/IADAANAA/secure_ui_lib.lib(03_stopTouch.o)
                                0x4a6 (size before relaxing)
 .debug_str     0x00009114      0x173 /local/mnt/workspace/CRMBuilds/TZ.BF.4.0.3.c1-00005-M8996AAAAANAZT-1_20170110_230814/b/HK11/trustzone_images/core/securemsm/sse/qsee/SecureUILib/lib/build/fidosui/scorpion/IADAANAA/secure_ui_lib.lib(04_prepareRequest.o)
                                0x544 (size before relaxing)
 .debug_str     0x00009287       0xd6 /local/mnt/workspace/CRMBuilds/TZ.BF.4.0.3.c1-00005-M8996AAAAANAZT-1_20170110_230814/b/HK11/trustzone_images/core/securemsm/sse/qsee/SecureUILib/lib/build/fidosui/scorpion/IADAANAA/secure_ui_lib.lib(05_storeIndicator.o)
                                0x5d9 (size before relaxing)
 .debug_str     0x0000935d      0x794 /local/mnt/workspace/CRMBuilds/TZ.BF.4.0.3.c1-00005-M8996AAAAANAZT-1_20170110_230814/b/HK11/trustzone_images/core/securemsm/trustzone/qsapps/libs/applib/proxy/build/fidosui/scorpion/IADAANAA/tzlib_proxy.lib(prxy_qsee_shim.o)
                               0x15eb (size before relaxing)
 .debug_str     0x00009af1       0xab /local/mnt/workspace/CRMBuilds/TZ.BF.4.0.3.c1-00005-M8996AAAAANAZT-1_20170110_230814/b/HK11/trustzone_images/core/securemsm/trustzone/qsapps/libs/applib/proxy/build/fidosui/scorpion/IADAANAA/tzlib_proxy.lib(prxy_ufdes.o)
                               0x2b2f (size before relaxing)
 .debug_str     0x00009b9c       0xad /local/mnt/workspace/CRMBuilds/TZ.BF.4.0.3.c1-00005-M8996AAAAANAZT-1_20170110_230814/b/HK11/trustzone_images/core/securemsm/trustzone/qsapps/libs/applib/proxy/build/fidosui/scorpion/IADAANAA/tzlib_proxy.lib(prxy_secmath.o)
                               0x2af9 (size before relaxing)
 .debug_str     0x00009c49      0x1c0 /local/mnt/workspace/CRMBuilds/TZ.BF.4.0.3.c1-00005-M8996AAAAANAZT-1_20170110_230814/b/HK11/trustzone_images/core/securemsm/trustzone/qsapps/libs/applib/proxy/build/fidosui/scorpion/IADAANAA/tzlib_proxy.lib(prxy_secrsa.o)
                               0x2d16 (size before relaxing)
 .debug_str     0x00009e09       0xa9 /local/mnt/workspace/CRMBuilds/TZ.BF.4.0.3.c1-00005-M8996AAAAANAZT-1_20170110_230814/b/HK11/trustzone_images/core/securemsm/trustzone/qsapps/libs/applib/proxy/build/fidosui/scorpion/IADAANAA/tzlib_proxy.lib(prxy_ecc.o)
                               0x2cb5 (size before relaxing)
 .debug_str     0x00009eb2      0x154 /local/mnt/workspace/CRMBuilds/TZ.BF.4.0.3.c1-00005-M8996AAAAANAZT-1_20170110_230814/b/HK11/trustzone_images/core/securemsm/trustzone/qsapps/libs/applib/qsee/build/fidosui/scorpion/IADAANAA/tzapp_entrylib.lib(qsee_secdisp.o)
                                0x2b5 (size before relaxing)
 .debug_str     0x0000a006      0x184 /local/mnt/workspace/CRMBuilds/TZ.BF.4.0.3.c1-00005-M8996AAAAANAZT-1_20170110_230814/b/HK11/trustzone_images/core/securemsm/trustzone/qsapps/libs/applib/qsee/build/fidosui/scorpion/IADAANAA/tzapp_entrylib.lib(qsee_nsmem.o)
                                0x330 (size before relaxing)
 .debug_str     0x0000a18a       0xdc /local/mnt/workspace/CRMBuilds/TZ.BF.4.0.3.c1-00005-M8996AAAAANAZT-1_20170110_230814/b/HK11/trustzone_images/core/securemsm/trustzone/qsapps/libs/applib/qsee/build/fidosui/scorpion/IADAANAA/tzapp_entrylib.lib(qsee_timer_shim.o)
                                0x187 (size before relaxing)
 .debug_str     0x0000a266      0x3f6 /local/mnt/workspace/CRMBuilds/TZ.BF.4.0.3.c1-00005-M8996AAAAANAZT-1_20170110_230814/b/HK11/trustzone_images/core/securemsm/trustzone/qsapps/libs/applib/qsee/build/fidosui/scorpion/IADAANAA/tzapp_entrylib.lib(qsee_hash.o)
                                0x633 (size before relaxing)
 .debug_str     0x0000a65c      0x156 /local/mnt/workspace/CRMBuilds/TZ.BF.4.0.3.c1-00005-M8996AAAAANAZT-1_20170110_230814/b/HK11/trustzone_images/core/securemsm/trustzone/qsapps/libs/applib/qsee/build/fidosui/scorpion/IADAANAA/tzapp_entrylib.lib(qsee_shared_buffer.o)
                                0x307 (size before relaxing)
 .debug_str     0x0000a7b2      0x305 /local/mnt/workspace/CRMBuilds/TZ.BF.4.0.3.c1-00005-M8996AAAAANAZT-1_20170110_230814/b/HK11/trustzone_images/core/securemsm/trustzone/qsapps/libs/applib/qsee/build/fidosui/scorpion/IADAANAA/tzapp_entrylib.lib(qsee_appmessage.o)
                                0x491 (size before relaxing)
 .debug_str     0x0000aab7      0x347 /local/mnt/workspace/CRMBuilds/TZ.BF.4.0.3.c1-00005-M8996AAAAANAZT-1_20170110_230814/b/HK11/trustzone_images/core/securemsm/trustzone/qsapps/libs/applib/qsee/build/fidosui/scorpion/IADAANAA/tzapp_entrylib.lib(sfs_api.o)
                                0xb7d (size before relaxing)
 .debug_str     0x0000adfe     0x1389 /local/mnt/workspace/CRMBuilds/TZ.BF.4.0.3.c1-00005-M8996AAAAANAZT-1_20170110_230814/b/HK11/trustzone_images/apps/securemsm/trustzone/qsapps/fidosui/layouts/build/fidosui/scorpion/IADAANAA/secure_ui_layout.lib(layout_8996_fluid.o)
                               0x2039 (size before relaxing)
 .debug_str     0x0000c187      0x230 /local/mnt/workspace/CRMBuilds/TZ.BF.4.0.3.c1-00005-M8996AAAAANAZT-1_20170110_230814/b/HK11/trustzone_images/core/securemsm/sse/SecureTouch/layout/build/fidosui/scorpion/IADAANAA/sklayout.lib(layoutUtils.o)
                               0x1063 (size before relaxing)
 .debug_str     0x0000c3b7      0x954 /local/mnt/workspace/CRMBuilds/TZ.BF.4.0.3.c1-00005-M8996AAAAANAZT-1_20170110_230814/b/HK11/trustzone_images/core/securemsm/sse/qsee/SecureDisplay/libgd/build/fidosui/scorpion/IADAANAA/libgd.lib(gd.o)
                                0xe81 (size before relaxing)
 .debug_str     0x0000cd0b       0xbd /local/mnt/workspace/CRMBuilds/TZ.BF.4.0.3.c1-00005-M8996AAAAANAZT-1_20170110_230814/b/HK11/trustzone_images/core/securemsm/sse/qsee/SecureDisplay/libgd/build/fidosui/scorpion/IADAANAA/libgd.lib(gd_color.o)
                                0x4ab (size before relaxing)
 .debug_str     0x0000cdc8       0xb0 /local/mnt/workspace/CRMBuilds/TZ.BF.4.0.3.c1-00005-M8996AAAAANAZT-1_20170110_230814/b/HK11/trustzone_images/core/securemsm/sse/qsee/SecureDisplay/libgd/build/fidosui/scorpion/IADAANAA/libgd.lib(gd_security.o)
                                0x14c (size before relaxing)
 .debug_str     0x0000ce78       0xb1 /local/mnt/workspace/CRMBuilds/TZ.BF.4.0.3.c1-00005-M8996AAAAANAZT-1_20170110_230814/b/HK11/trustzone_images/core/securemsm/sse/qsee/SecureDisplay/libgd/build/fidosui/scorpion/IADAANAA/libgd.lib(gdtables.o)
                                0x152 (size before relaxing)
 .debug_str     0x0000cf29      0x32c /local/mnt/workspace/CRMBuilds/TZ.BF.4.0.3.c1-00005-M8996AAAAANAZT-1_20170110_230814/b/HK11/trustzone_images/core/securemsm/sse/qsee/SecureDisplay/libpng/build/fidosui/scorpion/IADAANAA/libpng.lib(png.o)
                                0x8ab (size before relaxing)
 .debug_str     0x0000d255      0x139 /local/mnt/workspace/CRMBuilds/TZ.BF.4.0.3.c1-00005-M8996AAAAANAZT-1_20170110_230814/b/HK11/trustzone_images/core/securemsm/sse/qsee/SecureDisplay/libpng/build/fidosui/scorpion/IADAANAA/libpng.lib(pngerror.o)
                                0x6c9 (size before relaxing)
 .debug_str     0x0000d38e      0x12f /local/mnt/workspace/CRMBuilds/TZ.BF.4.0.3.c1-00005-M8996AAAAANAZT-1_20170110_230814/b/HK11/trustzone_images/core/securemsm/sse/qsee/SecureDisplay/libpng/build/fidosui/scorpion/IADAANAA/libpng.lib(pngget.o)
                                0x6f7 (size before relaxing)
 .debug_str     0x0000d4bd      0x148 /local/mnt/workspace/CRMBuilds/TZ.BF.4.0.3.c1-00005-M8996AAAAANAZT-1_20170110_230814/b/HK11/trustzone_images/core/securemsm/sse/qsee/SecureDisplay/libpng/build/fidosui/scorpion/IADAANAA/libpng.lib(pngmem.o)
                                0x6c5 (size before relaxing)
 .debug_str     0x0000d605      0x1e2 /local/mnt/workspace/CRMBuilds/TZ.BF.4.0.3.c1-00005-M8996AAAAANAZT-1_20170110_230814/b/HK11/trustzone_images/core/securemsm/sse/qsee/SecureDisplay/libpng/build/fidosui/scorpion/IADAANAA/libpng.lib(pngread.o)
                                0x7f9 (size before relaxing)
 .debug_str     0x0000d7e7       0xc0 /local/mnt/workspace/CRMBuilds/TZ.BF.4.0.3.c1-00005-M8996AAAAANAZT-1_20170110_230814/b/HK11/trustzone_images/core/securemsm/sse/qsee/SecureDisplay/libpng/build/fidosui/scorpion/IADAANAA/libpng.lib(pngrio.o)
                                0x629 (size before relaxing)
 .debug_str     0x0000d8a7      0x382 /local/mnt/workspace/CRMBuilds/TZ.BF.4.0.3.c1-00005-M8996AAAAANAZT-1_20170110_230814/b/HK11/trustzone_images/core/securemsm/sse/qsee/SecureDisplay/libpng/build/fidosui/scorpion/IADAANAA/libpng.lib(pngrutil.o)
                                0x9bf (size before relaxing)
 .debug_str     0x0000dc29      0x11d /local/mnt/workspace/CRMBuilds/TZ.BF.4.0.3.c1-00005-M8996AAAAANAZT-1_20170110_230814/b/HK11/trustzone_images/core/securemsm/sse/qsee/SecureDisplay/libpng/build/fidosui/scorpion/IADAANAA/libpng.lib(pngset.o)
                                0x6f7 (size before relaxing)
 .debug_str     0x0000dd46      0x14a /local/mnt/workspace/CRMBuilds/TZ.BF.4.0.3.c1-00005-M8996AAAAANAZT-1_20170110_230814/b/HK11/trustzone_images/core/securemsm/sse/qsee/SecureDisplay/zlib/build/fidosui/scorpion/IADAANAA/zlib.lib(crc32.o)
                                0x259 (size before relaxing)
 .debug_str     0x0000de90      0x3ad /local/mnt/workspace/CRMBuilds/TZ.BF.4.0.3.c1-00005-M8996AAAAANAZT-1_20170110_230814/b/HK11/trustzone_images/core/securemsm/sse/qsee/SecureDisplay/zlib/build/fidosui/scorpion/IADAANAA/zlib.lib(inflate.o)
                                0x646 (size before relaxing)
 .debug_str     0x0000e23d      0x108 /local/mnt/workspace/CRMBuilds/TZ.BF.4.0.3.c1-00005-M8996AAAAANAZT-1_20170110_230814/b/HK11/trustzone_images/core/securemsm/sse/qsee/SecureDisplay/zlib/build/fidosui/scorpion/IADAANAA/zlib.lib(inftrees.o)
                                0x253 (size before relaxing)
 .debug_str     0x0000e345       0xe7 /local/mnt/workspace/CRMBuilds/TZ.BF.4.0.3.c1-00005-M8996AAAAANAZT-1_20170110_230814/b/HK11/trustzone_images/core/securemsm/sse/qsee/SecureDisplay/zlib/build/fidosui/scorpion/IADAANAA/zlib.lib(zutil.o)
                                0x1d9 (size before relaxing)
 .debug_str     0x0000e42c       0xf8 /local/mnt/workspace/CRMBuilds/TZ.BF.4.0.3.c1-00005-M8996AAAAANAZT-1_20170110_230814/b/HK11/trustzone_images/core/securemsm/sse/qsee/SecureDisplay/zlib/build/fidosui/scorpion/IADAANAA/zlib.lib(adler32.o)
                                0x1ed (size before relaxing)
 .debug_str     0x0000e524       0xca /local/mnt/workspace/CRMBuilds/TZ.BF.4.0.3.c1-00005-M8996AAAAANAZT-1_20170110_230814/b/HK11/trustzone_images/core/securemsm/sse/qsee/SecureDisplay/zlib/build/fidosui/scorpion/IADAANAA/zlib.lib(inffast.o)
                                0x4bf (size before relaxing)
 .debug_str     0x0000e5ee       0xd3 /local/mnt/workspace/CRMBuilds/TZ.BF.4.0.3.c1-00005-M8996AAAAANAZT-1_20170110_230814/b/HK11/trustzone_images/core/securemsm/sse/qsee/SecureTouch/drTs/lib/build/fidosui/scorpion/IADAANAA/touch_lib.lib(01_open.o)
                                0x1d8 (size before relaxing)
 .debug_str     0x0000e6c1       0xb4 /local/mnt/workspace/CRMBuilds/TZ.BF.4.0.3.c1-00005-M8996AAAAANAZT-1_20170110_230814/b/HK11/trustzone_images/core/securemsm/sse/qsee/SecureTouch/drTs/lib/build/fidosui/scorpion/IADAANAA/touch_lib.lib(02_close.o)
                                0x187 (size before relaxing)
 .debug_str     0x0000e775       0xd4 /local/mnt/workspace/CRMBuilds/TZ.BF.4.0.3.c1-00005-M8996AAAAANAZT-1_20170110_230814/b/HK11/trustzone_images/core/securemsm/sse/qsee/SecureTouch/drTs/lib/build/fidosui/scorpion/IADAANAA/touch_lib.lib(03_getData.o)
                                0x218 (size before relaxing)
 .debug_str     0x0000e849      0x2f2 /local/mnt/workspace/CRMBuilds/TZ.BF.4.0.3.c1-00005-M8996AAAAANAZT-1_20170110_230814/b/HK11/trustzone_images/core/securemsm/trustzone/qsapps/libs/applib/common_applib/build/fidosui/scorpion/IADAANAA/tzapp_entrylib.lib(gpPersistObjCommon.o)
                                0x539 (size before relaxing)
 .debug_str     0x0000eb3b      0x298 /local/mnt/workspace/CRMBuilds/TZ.BF.4.0.3.c1-00005-M8996AAAAANAZT-1_20170110_230814/b/HK11/trustzone_images/core/securemsm/trustzone/qsapps/libs/applib/common_applib/build/fidosui/scorpion/IADAANAA/tzapp_entrylib.lib(gpPersistentObjects.o)
                                0x5ea (size before relaxing)
 .debug_str     0x0000edd3      0x437 /local/mnt/workspace/CRMBuilds/TZ.BF.4.0.3.c1-00005-M8996AAAAANAZT-1_20170110_230814/b/HK11/trustzone_images/core/securemsm/trustzone/qsapps/libs/applib/common_applib/build/fidosui/scorpion/IADAANAA/tzapp_entrylib.lib(gpPersistObjData.o)
                                0x744 (size before relaxing)
 .debug_str     0x0000f20a      0x206 /local/mnt/workspace/CRMBuilds/TZ.BF.4.0.3.c1-00005-M8996AAAAANAZT-1_20170110_230814/b/HK11/trustzone_images/core/securemsm/trustzone/qsapps/libs/applib/common_applib/build/fidosui/scorpion/IADAANAA/tzapp_entrylib.lib(gpPersistObjHandler.o)
                                0x4b1 (size before relaxing)
 .debug_str     0x0000f410      0x2b8 /local/mnt/workspace/CRMBuilds/TZ.BF.4.0.3.c1-00005-M8996AAAAANAZT-1_20170110_230814/b/HK11/trustzone_images/core/securemsm/trustzone/qsapps/libs/applib/common_applib/build/fidosui/scorpion/IADAANAA/tzapp_entrylib.lib(gpPersistObjIndex.o)
                                0x602 (size before relaxing)
 .debug_str     0x0000f6c8      0x443 /local/mnt/workspace/CRMBuilds/TZ.BF.4.0.3.c1-00005-M8996AAAAANAZT-1_20170110_230814/b/HK11/trustzone_images/core/securemsm/trustzone/qsapps/libs/applib/common_applib/build/fidosui/scorpion/IADAANAA/tzapp_entrylib.lib(gpPersistObjVersion.o)
                                0x6e4 (size before relaxing)
 .debug_str     0x0000fb0b      0x441 /local/mnt/workspace/CRMBuilds/TZ.BF.4.0.3.c1-00005-M8996AAAAANAZT-1_20170110_230814/b/HK11/trustzone_images/core/securemsm/trustzone/qsapps/libs/applib/common_applib/build/fidosui/scorpion/IADAANAA/tzapp_entrylib.lib(gpPersistObjCrypto.o)
                                0x63e (size before relaxing)
 .debug_str     0x0000ff4c      0x155 /local/mnt/workspace/CRMBuilds/TZ.BF.4.0.3.c1-00005-M8996AAAAANAZT-1_20170110_230814/b/HK11/trustzone_images/core/securemsm/trustzone/qsapps/libs/applib/common_applib/build/fidosui/scorpion/IADAANAA/tzapp_entrylib.lib(gpPersistObjFileIO.o)
                                0x2ff (size before relaxing)
 .debug_str     0x000100a1      0x31b /local/mnt/workspace/CRMBuilds/TZ.BF.4.0.3.c1-00005-M8996AAAAANAZT-1_20170110_230814/b/HK11/trustzone_images/core/securemsm/trustzone/qsapps/libs/applib/common_applib/build/fidosui/scorpion/IADAANAA/tzapp_entrylib.lib(gpFileService.o)
                                0x446 (size before relaxing)
 .debug_str     0x000103bc      0x74e /local/mnt/workspace/CRMBuilds/TZ.BF.4.0.3.c1-00005-M8996AAAAANAZT-1_20170110_230814/b/HK11/trustzone_images/core/securemsm/trustzone/qsapps/libs/applib/qsee/build/fidosui/scorpion/IADAANAA/tzapp_entrylib.lib(qsee_core_shim.o)
                                0x87a (size before relaxing)
 .debug_str     0x00010b0a      0x36b /local/mnt/workspace/CRMBuilds/TZ.BF.4.0.3.c1-00005-M8996AAAAANAZT-1_20170110_230814/b/HK11/trustzone_images/core/securemsm/trustzone/qsapps/libs/applib/qsee/build/fidosui/scorpion/IADAANAA/tzapp_entrylib.lib(stor.o)
                                0x5af (size before relaxing)
 .debug_str     0x00010e75      0x4d5 /local/mnt/workspace/CRMBuilds/TZ.BF.4.0.3.c1-00005-M8996AAAAANAZT-1_20170110_230814/b/HK11/trustzone_images/core/securemsm/trustzone/qsapps/libs/applib/qsee/build/fidosui/scorpion/IADAANAA/tzapp_entrylib.lib(stor_gpt.o)
                                0x870 (size before relaxing)
 .debug_str     0x0001134a      0x170 /local/mnt/workspace/CRMBuilds/TZ.BF.4.0.3.c1-00005-M8996AAAAANAZT-1_20170110_230814/b/HK11/trustzone_images/core/securemsm/trustzone/qsapps/libs/applib/qsee/build/fidosui/scorpion/IADAANAA/tzapp_entrylib.lib(stor_rpmbw.o)
                                0x4ff (size before relaxing)
 .debug_str     0x000114ba      0x11c /local/mnt/workspace/CRMBuilds/TZ.BF.4.0.3.c1-00005-M8996AAAAANAZT-1_20170110_230814/b/HK11/trustzone_images/core/securemsm/trustzone/qsapps/libs/applib/qsee/build/fidosui/scorpion/IADAANAA/tzapp_entrylib.lib(qsee_cfg_prop_shim.o)
                                0x2c7 (size before relaxing)
 .debug_str     0x000115d6      0x295 /local/mnt/workspace/CRMBuilds/TZ.BF.4.0.3.c1-00005-M8996AAAAANAZT-1_20170110_230814/b/HK11/trustzone_images/core/securemsm/trustzone/qsapps/libs/applib/qsee/build/fidosui/scorpion/IADAANAA/tzapp_entrylib.lib(qsee_cipher.o)
                                0x6f9 (size before relaxing)
 .debug_str     0x0001186b      0x232 /local/mnt/workspace/CRMBuilds/TZ.BF.4.0.3.c1-00005-M8996AAAAANAZT-1_20170110_230814/b/HK11/trustzone_images/core/securemsm/trustzone/qsapps/libs/applib/qsee/build/fidosui/scorpion/IADAANAA/tzapp_entrylib.lib(qsee_hmac.o)
                                0x4a6 (size before relaxing)
 .debug_str     0x00011a9d       0xdf /local/mnt/workspace/CRMBuilds/TZ.BF.4.0.3.c1-00005-M8996AAAAANAZT-1_20170110_230814/b/HK11/trustzone_images/core/securemsm/trustzone/qsapps/libs/applib/qsee/build/fidosui/scorpion/IADAANAA/tzapp_entrylib.lib(gpPersistObjPanic.o)
                                0x19b (size before relaxing)
 .debug_str     0x00011b7c       0xab /local/mnt/workspace/CRMBuilds/TZ.BF.4.0.3.c1-00005-M8996AAAAANAZT-1_20170110_230814/b/HK11/trustzone_images/core/kernel/libstd/build/fidosui/scorpion/IADAANAA/libstd.lib(timesafe_memcmp.o)
                                0x17a (size before relaxing)
 .debug_str     0x00011c27      0x34a /local/mnt/workspace/CRMBuilds/TZ.BF.4.0.3.c1-00005-M8996AAAAANAZT-1_20170110_230814/b/HK11/trustzone_images/core/securemsm/sse/SecureTouch/controller/build/fidosui/scorpion/IADAANAA/drts_controller_msm8996.lib(atmel_mxt_ts.o)
                                0x575 (size before relaxing)
 .debug_str     0x00011f71      0x5e1 /local/mnt/workspace/CRMBuilds/TZ.BF.4.0.3.c1-00005-M8996AAAAANAZT-1_20170110_230814/b/HK11/trustzone_images/core/securemsm/sse/SecureTouch/controller/build/fidosui/scorpion/IADAANAA/drts_controller_msm8996.lib(synaptics_ts.o)
                                0x799 (size before relaxing)
 .debug_str     0x00012552      0x5e2 /local/mnt/workspace/CRMBuilds/TZ.BF.4.0.3.c1-00005-M8996AAAAANAZT-1_20170110_230814/b/HK11/trustzone_images/core/securemsm/sse/qsee/SecureTouch/drTs/controller/build/fidosui/scorpion/IADAANAA/touch_controller_i2c_msm8996.lib(atmel_mxt_ts_i2c.o)
                                0xcac (size before relaxing)
 .debug_str     0x00012b34      0x112 /local/mnt/workspace/CRMBuilds/TZ.BF.4.0.3.c1-00005-M8996AAAAANAZT-1_20170110_230814/b/HK11/trustzone_images/core/securemsm/sse/qsee/SecureTouch/drTs/controller/build/fidosui/scorpion/IADAANAA/touch_controller_i2c_msm8996.lib(synaptics_ts_i2c.o)
                                0xcd8 (size before relaxing)
 .debug_str     0x00012c46      0x35e /local/mnt/workspace/CRMBuilds/TZ.BF.4.0.3.c1-00005-M8996AAAAANAZT-1_20170110_230814/b/HK11/trustzone_images/core/securemsm/trustzone/qsapps/libs/applib/qsee/build/fidosui/scorpion/IADAANAA/tzapp_entrylib.lib(qsee_i2c.o)
                                0xa46 (size before relaxing)

.debug_loc      0x00000000    0x1dfc8
 .debug_loc     0x00000000        0x0 /local/mnt/workspace/CRMBuilds/TZ.BF.4.0.3.c1-00005-M8996AAAAANAZT-1_20170110_230814/b/HK11/trustzone_images/apps/securemsm/trustzone/qsapps/fidosui/build/fidosui/scorpion/IADAANAA/metadata.o
 .debug_loc     0x00000000      0x176 /local/mnt/workspace/CRMBuilds/TZ.BF.4.0.3.c1-00005-M8996AAAAANAZT-1_20170110_230814/b/HK11/trustzone_images/apps/securemsm/trustzone/qsapps/fidosui/ipc/build/fidosui/scorpion/IADAANAA/src/CFidoSuiToken.o
 .debug_loc     0x00000176       0x62 /local/mnt/workspace/CRMBuilds/TZ.BF.4.0.3.c1-00005-M8996AAAAANAZT-1_20170110_230814/b/HK11/trustzone_images/core/kernel/libstd/build/fidosui/scorpion/IADAANAA/libstd.lib(memscpy.o)
 .debug_loc     0x000001d8      0x6b4 /local/mnt/workspace/CRMBuilds/TZ.BF.4.0.3.c1-00005-M8996AAAAANAZT-1_20170110_230814/b/HK11/trustzone_images/core/securemsm/trustzone/qsapps/libs/applib/common_applib/build/fidosui/scorpion/IADAANAA/tzapp_entrylib.lib(common_applib.o)
 .debug_loc     0x0000088c      0x250 /local/mnt/workspace/CRMBuilds/TZ.BF.4.0.3.c1-00005-M8996AAAAANAZT-1_20170110_230814/b/HK11/trustzone_images/core/securemsm/trustzone/qsapps/libs/applib/proxy/build/fidosui/scorpion/IADAANAA/tzlib_proxy.lib(prxy_services.o)
 .debug_loc     0x00000adc      0x1ea /local/mnt/workspace/CRMBuilds/TZ.BF.4.0.3.c1-00005-M8996AAAAANAZT-1_20170110_230814/b/HK11/trustzone_images/core/securemsm/trustzone/qsapps/libs/applib/qsee/build/fidosui/scorpion/IADAANAA/tzapp_entrylib.lib(mink_shared_code.o)
 .debug_loc     0x00000cc6      0x1fd /local/mnt/workspace/CRMBuilds/TZ.BF.4.0.3.c1-00005-M8996AAAAANAZT-1_20170110_230814/b/HK11/trustzone_images/core/securemsm/trustzone/qsapps/libs/applib/qsee/build/fidosui/scorpion/IADAANAA/tzapp_entrylib.lib(qsee_env.o)
 .debug_loc     0x00000ec3       0x7b /local/mnt/workspace/CRMBuilds/TZ.BF.4.0.3.c1-00005-M8996AAAAANAZT-1_20170110_230814/b/HK11/trustzone_images/core/securemsm/trustzone/qsapps/libs/applib/qsee/build/fidosui/scorpion/IADAANAA/tzapp_entrylib.lib(qsee_prng.o)
 .debug_loc     0x00000f3e       0xf0 /local/mnt/workspace/CRMBuilds/TZ.BF.4.0.3.c1-00005-M8996AAAAANAZT-1_20170110_230814/b/HK11/trustzone_images/core/securemsm/trustzone/qsapps/libs/applib/qsee/build/fidosui/scorpion/IADAANAA/tzapp_entrylib.lib(tzapp_lib_main.o)
 .debug_loc     0x0000102e      0x1f8 /local/mnt/workspace/CRMBuilds/TZ.BF.4.0.3.c1-00005-M8996AAAAANAZT-1_20170110_230814/b/HK11/trustzone_images/apps/securemsm/trustzone/qsapps/fidosui/app/build/fidosui/scorpion/IADAANAA/fidosui_app.lib(app_main.o)
 .debug_loc     0x00001226       0x3c /local/mnt/workspace/CRMBuilds/TZ.BF.4.0.3.c1-00005-M8996AAAAANAZT-1_20170110_230814/b/HK11/trustzone_images/apps/securemsm/trustzone/qsapps/fidosui/app/build/fidosui/scorpion/IADAANAA/fidosui_app.lib(01_Initialize.o)
 .debug_loc     0x00001262      0x39b /local/mnt/workspace/CRMBuilds/TZ.BF.4.0.3.c1-00005-M8996AAAAANAZT-1_20170110_230814/b/HK11/trustzone_images/apps/securemsm/trustzone/qsapps/fidosui/app/build/fidosui/scorpion/IADAANAA/fidosui_app.lib(08_ShowMessageSui.o)
 .debug_loc     0x000015fd      0x1fa /local/mnt/workspace/CRMBuilds/TZ.BF.4.0.3.c1-00005-M8996AAAAANAZT-1_20170110_230814/b/HK11/trustzone_images/apps/securemsm/trustzone/qsapps/fidosui/app/build/fidosui/scorpion/IADAANAA/fidosui_app.lib(fsSecureUI.o)
 .debug_loc     0x000017f7       0xb6 /local/mnt/workspace/CRMBuilds/TZ.BF.4.0.3.c1-00005-M8996AAAAANAZT-1_20170110_230814/b/HK11/trustzone_images/apps/securemsm/trustzone/qsapps/fidosui/app/build/fidosui/scorpion/IADAANAA/fidosui_app.lib(fsLocale.o)
 .debug_loc     0x000018ad        0x0 /local/mnt/workspace/CRMBuilds/TZ.BF.4.0.3.c1-00005-M8996AAAAANAZT-1_20170110_230814/b/HK11/trustzone_images/apps/securemsm/trustzone/qsapps/fidosui/config/build/fidosui/scorpion/IADAANAA/fidosui_config.lib(config.o)
 .debug_loc     0x000018ad        0x0 /local/mnt/workspace/CRMBuilds/TZ.BF.4.0.3.c1-00005-M8996AAAAANAZT-1_20170110_230814/b/HK11/trustzone_images/apps/securemsm/trustzone/qsapps/fidosui/locale/build/fidosui/scorpion/IADAANAA/fidosui_locale.lib(locale.o)
 .debug_loc     0x000018ad       0x62 /local/mnt/workspace/CRMBuilds/TZ.BF.4.0.3.c1-00005-M8996AAAAANAZT-1_20170110_230814/b/HK11/trustzone_images/core/kernel/libstd/build/fidosui/scorpion/IADAANAA/libstd.lib(secure_memset.o)
 .debug_loc     0x0000190f       0xaf /local/mnt/workspace/CRMBuilds/TZ.BF.4.0.3.c1-00005-M8996AAAAANAZT-1_20170110_230814/b/HK11/trustzone_images/core/securemsm/sse/log/build/fidosui/scorpion/IADAANAA/sselog.lib(sselog.o)
 .debug_loc     0x000019be     0x165a /local/mnt/workspace/CRMBuilds/TZ.BF.4.0.3.c1-00005-M8996AAAAANAZT-1_20170110_230814/b/HK11/trustzone_images/core/securemsm/sse/qsee/SecureUI/build/fidosui/scorpion/IADAANAA/secure_ui.lib(SecureUI.o)
 .debug_loc     0x00003018     0x1013 /local/mnt/workspace/CRMBuilds/TZ.BF.4.0.3.c1-00005-M8996AAAAANAZT-1_20170110_230814/b/HK11/trustzone_images/core/securemsm/sse/qsee/SecureUI/build/fidosui/scorpion/IADAANAA/secure_ui_tui.lib(qsee_tui_dialogs.o)
 .debug_loc     0x0000402b      0xfe7 /local/mnt/workspace/CRMBuilds/TZ.BF.4.0.3.c1-00005-M8996AAAAANAZT-1_20170110_230814/b/HK11/trustzone_images/core/securemsm/sse/qsee/SecureUI/build/fidosui/scorpion/IADAANAA/secure_ui_tui.lib(layout_manager.o)
 .debug_loc     0x00005012     0x1fb2 /local/mnt/workspace/CRMBuilds/TZ.BF.4.0.3.c1-00005-M8996AAAAANAZT-1_20170110_230814/b/HK11/trustzone_images/core/securemsm/sse/qsee/SecureUI/build/fidosui/scorpion/IADAANAA/secure_ui_tui.lib(secure_display_renderer.o)
 .debug_loc     0x00006fc4      0xefa /local/mnt/workspace/CRMBuilds/TZ.BF.4.0.3.c1-00005-M8996AAAAANAZT-1_20170110_230814/b/HK11/trustzone_images/core/securemsm/sse/qsee/SecureUI/build/fidosui/scorpion/IADAANAA/secure_ui_tui.lib(font_manager.o)
 .debug_loc     0x00007ebe      0x1ca /local/mnt/workspace/CRMBuilds/TZ.BF.4.0.3.c1-00005-M8996AAAAANAZT-1_20170110_230814/b/HK11/trustzone_images/core/securemsm/sse/qsee/SecureUILib/lib/build/fidosui/scorpion/IADAANAA/secure_ui_lib.lib(SecureUILib.o)
 .debug_loc     0x00008088      0x11c /local/mnt/workspace/CRMBuilds/TZ.BF.4.0.3.c1-00005-M8996AAAAANAZT-1_20170110_230814/b/HK11/trustzone_images/core/securemsm/sse/qsee/SecureUILib/lib/build/fidosui/scorpion/IADAANAA/secure_ui_lib.lib(01_startTouch.o)
 .debug_loc     0x000081a4      0x161 /local/mnt/workspace/CRMBuilds/TZ.BF.4.0.3.c1-00005-M8996AAAAANAZT-1_20170110_230814/b/HK11/trustzone_images/core/securemsm/sse/qsee/SecureUILib/lib/build/fidosui/scorpion/IADAANAA/secure_ui_lib.lib(02_processTouch.o)
 .debug_loc     0x00008305       0xbf /local/mnt/workspace/CRMBuilds/TZ.BF.4.0.3.c1-00005-M8996AAAAANAZT-1_20170110_230814/b/HK11/trustzone_images/core/securemsm/sse/qsee/SecureUILib/lib/build/fidosui/scorpion/IADAANAA/secure_ui_lib.lib(03_stopTouch.o)
 .debug_loc     0x000083c4       0x9c /local/mnt/workspace/CRMBuilds/TZ.BF.4.0.3.c1-00005-M8996AAAAANAZT-1_20170110_230814/b/HK11/trustzone_images/core/securemsm/sse/qsee/SecureUILib/lib/build/fidosui/scorpion/IADAANAA/secure_ui_lib.lib(04_prepareRequest.o)
 .debug_loc     0x00008460       0xff /local/mnt/workspace/CRMBuilds/TZ.BF.4.0.3.c1-00005-M8996AAAAANAZT-1_20170110_230814/b/HK11/trustzone_images/core/securemsm/sse/qsee/SecureUILib/lib/build/fidosui/scorpion/IADAANAA/secure_ui_lib.lib(05_storeIndicator.o)
 .debug_loc     0x0000855f      0x376 /local/mnt/workspace/CRMBuilds/TZ.BF.4.0.3.c1-00005-M8996AAAAANAZT-1_20170110_230814/b/HK11/trustzone_images/core/securemsm/trustzone/qsapps/libs/applib/proxy/build/fidosui/scorpion/IADAANAA/tzlib_proxy.lib(prxy_qsee_shim.o)
 .debug_loc     0x000088d5       0x4c /local/mnt/workspace/CRMBuilds/TZ.BF.4.0.3.c1-00005-M8996AAAAANAZT-1_20170110_230814/b/HK11/trustzone_images/core/securemsm/trustzone/qsapps/libs/applib/proxy/build/fidosui/scorpion/IADAANAA/tzlib_proxy.lib(prxy_ufdes.o)
 .debug_loc     0x00008921       0x26 /local/mnt/workspace/CRMBuilds/TZ.BF.4.0.3.c1-00005-M8996AAAAANAZT-1_20170110_230814/b/HK11/trustzone_images/core/securemsm/trustzone/qsapps/libs/applib/proxy/build/fidosui/scorpion/IADAANAA/tzlib_proxy.lib(prxy_secmath.o)
 .debug_loc     0x00008947       0xab /local/mnt/workspace/CRMBuilds/TZ.BF.4.0.3.c1-00005-M8996AAAAANAZT-1_20170110_230814/b/HK11/trustzone_images/core/securemsm/trustzone/qsapps/libs/applib/proxy/build/fidosui/scorpion/IADAANAA/tzlib_proxy.lib(prxy_secrsa.o)
 .debug_loc     0x000089f2      0x130 /local/mnt/workspace/CRMBuilds/TZ.BF.4.0.3.c1-00005-M8996AAAAANAZT-1_20170110_230814/b/HK11/trustzone_images/core/securemsm/trustzone/qsapps/libs/applib/proxy/build/fidosui/scorpion/IADAANAA/tzlib_proxy.lib(prxy_ecc.o)
 .debug_loc     0x00008b22       0xc3 /local/mnt/workspace/CRMBuilds/TZ.BF.4.0.3.c1-00005-M8996AAAAANAZT-1_20170110_230814/b/HK11/trustzone_images/core/securemsm/trustzone/qsapps/libs/applib/qsee/build/fidosui/scorpion/IADAANAA/tzapp_entrylib.lib(qsee_secdisp.o)
 .debug_loc     0x00008be5      0x1d1 /local/mnt/workspace/CRMBuilds/TZ.BF.4.0.3.c1-00005-M8996AAAAANAZT-1_20170110_230814/b/HK11/trustzone_images/core/securemsm/trustzone/qsapps/libs/applib/qsee/build/fidosui/scorpion/IADAANAA/tzapp_entrylib.lib(qsee_nsmem.o)
 .debug_loc     0x00008db6        0x0 /local/mnt/workspace/CRMBuilds/TZ.BF.4.0.3.c1-00005-M8996AAAAANAZT-1_20170110_230814/b/HK11/trustzone_images/core/securemsm/trustzone/qsapps/libs/applib/qsee/build/fidosui/scorpion/IADAANAA/tzapp_entrylib.lib(qsee_timer_shim.o)
 .debug_loc     0x00008db6      0x694 /local/mnt/workspace/CRMBuilds/TZ.BF.4.0.3.c1-00005-M8996AAAAANAZT-1_20170110_230814/b/HK11/trustzone_images/core/securemsm/trustzone/qsapps/libs/applib/qsee/build/fidosui/scorpion/IADAANAA/tzapp_entrylib.lib(qsee_hash.o)
 .debug_loc     0x0000944a       0xa8 /local/mnt/workspace/CRMBuilds/TZ.BF.4.0.3.c1-00005-M8996AAAAANAZT-1_20170110_230814/b/HK11/trustzone_images/core/securemsm/trustzone/qsapps/libs/applib/qsee/build/fidosui/scorpion/IADAANAA/tzapp_entrylib.lib(qsee_shared_buffer.o)
 .debug_loc     0x000094f2      0x2dc /local/mnt/workspace/CRMBuilds/TZ.BF.4.0.3.c1-00005-M8996AAAAANAZT-1_20170110_230814/b/HK11/trustzone_images/core/securemsm/trustzone/qsapps/libs/applib/qsee/build/fidosui/scorpion/IADAANAA/tzapp_entrylib.lib(qsee_appmessage.o)
 .debug_loc     0x000097ce      0x57b /local/mnt/workspace/CRMBuilds/TZ.BF.4.0.3.c1-00005-M8996AAAAANAZT-1_20170110_230814/b/HK11/trustzone_images/core/securemsm/trustzone/qsapps/libs/applib/qsee/build/fidosui/scorpion/IADAANAA/tzapp_entrylib.lib(sfs_api.o)
 .debug_loc     0x00009d49        0x0 /local/mnt/workspace/CRMBuilds/TZ.BF.4.0.3.c1-00005-M8996AAAAANAZT-1_20170110_230814/b/HK11/trustzone_images/apps/securemsm/trustzone/qsapps/fidosui/layouts/build/fidosui/scorpion/IADAANAA/secure_ui_layout.lib(layout_8996_fluid.o)
 .debug_loc     0x00009d49      0xf7b /local/mnt/workspace/CRMBuilds/TZ.BF.4.0.3.c1-00005-M8996AAAAANAZT-1_20170110_230814/b/HK11/trustzone_images/core/securemsm/sse/SecureTouch/layout/build/fidosui/scorpion/IADAANAA/sklayout.lib(layoutUtils.o)
 .debug_loc     0x0000acc4     0x616c /local/mnt/workspace/CRMBuilds/TZ.BF.4.0.3.c1-00005-M8996AAAAANAZT-1_20170110_230814/b/HK11/trustzone_images/core/securemsm/sse/qsee/SecureDisplay/libgd/build/fidosui/scorpion/IADAANAA/libgd.lib(gd.o)
 .debug_loc     0x00010e30       0x93 /local/mnt/workspace/CRMBuilds/TZ.BF.4.0.3.c1-00005-M8996AAAAANAZT-1_20170110_230814/b/HK11/trustzone_images/core/securemsm/sse/qsee/SecureDisplay/libgd/build/fidosui/scorpion/IADAANAA/libgd.lib(gd_color.o)
 .debug_loc     0x00010ec3       0x3c /local/mnt/workspace/CRMBuilds/TZ.BF.4.0.3.c1-00005-M8996AAAAANAZT-1_20170110_230814/b/HK11/trustzone_images/core/securemsm/sse/qsee/SecureDisplay/libgd/build/fidosui/scorpion/IADAANAA/libgd.lib(gd_security.o)
 .debug_loc     0x00010eff        0x0 /local/mnt/workspace/CRMBuilds/TZ.BF.4.0.3.c1-00005-M8996AAAAANAZT-1_20170110_230814/b/HK11/trustzone_images/core/securemsm/sse/qsee/SecureDisplay/libgd/build/fidosui/scorpion/IADAANAA/libgd.lib(gdtables.o)
 .debug_loc     0x00010eff      0x4af /local/mnt/workspace/CRMBuilds/TZ.BF.4.0.3.c1-00005-M8996AAAAANAZT-1_20170110_230814/b/HK11/trustzone_images/core/securemsm/sse/qsee/SecureDisplay/libpng/build/fidosui/scorpion/IADAANAA/libpng.lib(png.o)
 .debug_loc     0x000113ae       0x57 /local/mnt/workspace/CRMBuilds/TZ.BF.4.0.3.c1-00005-M8996AAAAANAZT-1_20170110_230814/b/HK11/trustzone_images/core/securemsm/sse/qsee/SecureDisplay/libpng/build/fidosui/scorpion/IADAANAA/libpng.lib(pngerror.o)
 .debug_loc     0x00011405      0x17d /local/mnt/workspace/CRMBuilds/TZ.BF.4.0.3.c1-00005-M8996AAAAANAZT-1_20170110_230814/b/HK11/trustzone_images/core/securemsm/sse/qsee/SecureDisplay/libpng/build/fidosui/scorpion/IADAANAA/libpng.lib(pngget.o)
 .debug_loc     0x00011582      0x163 /local/mnt/workspace/CRMBuilds/TZ.BF.4.0.3.c1-00005-M8996AAAAANAZT-1_20170110_230814/b/HK11/trustzone_images/core/securemsm/sse/qsee/SecureDisplay/libpng/build/fidosui/scorpion/IADAANAA/libpng.lib(pngmem.o)
 .debug_loc     0x000116e5      0x415 /local/mnt/workspace/CRMBuilds/TZ.BF.4.0.3.c1-00005-M8996AAAAANAZT-1_20170110_230814/b/HK11/trustzone_images/core/securemsm/sse/qsee/SecureDisplay/libpng/build/fidosui/scorpion/IADAANAA/libpng.lib(pngread.o)
 .debug_loc     0x00011afa        0x0 /local/mnt/workspace/CRMBuilds/TZ.BF.4.0.3.c1-00005-M8996AAAAANAZT-1_20170110_230814/b/HK11/trustzone_images/core/securemsm/sse/qsee/SecureDisplay/libpng/build/fidosui/scorpion/IADAANAA/libpng.lib(pngrio.o)
 .debug_loc     0x00011afa      0xab7 /local/mnt/workspace/CRMBuilds/TZ.BF.4.0.3.c1-00005-M8996AAAAANAZT-1_20170110_230814/b/HK11/trustzone_images/core/securemsm/sse/qsee/SecureDisplay/libpng/build/fidosui/scorpion/IADAANAA/libpng.lib(pngrutil.o)
 .debug_loc     0x000125b1      0x1bb /local/mnt/workspace/CRMBuilds/TZ.BF.4.0.3.c1-00005-M8996AAAAANAZT-1_20170110_230814/b/HK11/trustzone_images/core/securemsm/sse/qsee/SecureDisplay/libpng/build/fidosui/scorpion/IADAANAA/libpng.lib(pngset.o)
 .debug_loc     0x0001276c      0x337 /local/mnt/workspace/CRMBuilds/TZ.BF.4.0.3.c1-00005-M8996AAAAANAZT-1_20170110_230814/b/HK11/trustzone_images/core/securemsm/sse/qsee/SecureDisplay/zlib/build/fidosui/scorpion/IADAANAA/zlib.lib(crc32.o)
 .debug_loc     0x00012aa3     0x17c9 /local/mnt/workspace/CRMBuilds/TZ.BF.4.0.3.c1-00005-M8996AAAAANAZT-1_20170110_230814/b/HK11/trustzone_images/core/securemsm/sse/qsee/SecureDisplay/zlib/build/fidosui/scorpion/IADAANAA/zlib.lib(inflate.o)
 .debug_loc     0x0001426c      0x44f /local/mnt/workspace/CRMBuilds/TZ.BF.4.0.3.c1-00005-M8996AAAAANAZT-1_20170110_230814/b/HK11/trustzone_images/core/securemsm/sse/qsee/SecureDisplay/zlib/build/fidosui/scorpion/IADAANAA/zlib.lib(inftrees.o)
 .debug_loc     0x000146bb       0xa6 /local/mnt/workspace/CRMBuilds/TZ.BF.4.0.3.c1-00005-M8996AAAAANAZT-1_20170110_230814/b/HK11/trustzone_images/core/securemsm/sse/qsee/SecureDisplay/zlib/build/fidosui/scorpion/IADAANAA/zlib.lib(zutil.o)
 .debug_loc     0x00014761      0x4e8 /local/mnt/workspace/CRMBuilds/TZ.BF.4.0.3.c1-00005-M8996AAAAANAZT-1_20170110_230814/b/HK11/trustzone_images/core/securemsm/sse/qsee/SecureDisplay/zlib/build/fidosui/scorpion/IADAANAA/zlib.lib(adler32.o)
 .debug_loc     0x00014c49      0x649 /local/mnt/workspace/CRMBuilds/TZ.BF.4.0.3.c1-00005-M8996AAAAANAZT-1_20170110_230814/b/HK11/trustzone_images/core/securemsm/sse/qsee/SecureDisplay/zlib/build/fidosui/scorpion/IADAANAA/zlib.lib(inffast.o)
 .debug_loc     0x00015292       0xce /local/mnt/workspace/CRMBuilds/TZ.BF.4.0.3.c1-00005-M8996AAAAANAZT-1_20170110_230814/b/HK11/trustzone_images/core/securemsm/sse/qsee/SecureTouch/drTs/lib/build/fidosui/scorpion/IADAANAA/touch_lib.lib(01_open.o)
 .debug_loc     0x00015360       0x7c /local/mnt/workspace/CRMBuilds/TZ.BF.4.0.3.c1-00005-M8996AAAAANAZT-1_20170110_230814/b/HK11/trustzone_images/core/securemsm/sse/qsee/SecureTouch/drTs/lib/build/fidosui/scorpion/IADAANAA/touch_lib.lib(02_close.o)
 .debug_loc     0x000153dc      0x171 /local/mnt/workspace/CRMBuilds/TZ.BF.4.0.3.c1-00005-M8996AAAAANAZT-1_20170110_230814/b/HK11/trustzone_images/core/securemsm/sse/qsee/SecureTouch/drTs/lib/build/fidosui/scorpion/IADAANAA/touch_lib.lib(03_getData.o)
 .debug_loc     0x0001554d      0x423 /local/mnt/workspace/CRMBuilds/TZ.BF.4.0.3.c1-00005-M8996AAAAANAZT-1_20170110_230814/b/HK11/trustzone_images/core/securemsm/trustzone/qsapps/libs/applib/common_applib/build/fidosui/scorpion/IADAANAA/tzapp_entrylib.lib(gpPersistObjCommon.o)
 .debug_loc     0x00015970      0xa03 /local/mnt/workspace/CRMBuilds/TZ.BF.4.0.3.c1-00005-M8996AAAAANAZT-1_20170110_230814/b/HK11/trustzone_images/core/securemsm/trustzone/qsapps/libs/applib/common_applib/build/fidosui/scorpion/IADAANAA/tzapp_entrylib.lib(gpPersistentObjects.o)
 .debug_loc     0x00016373     0x1a86 /local/mnt/workspace/CRMBuilds/TZ.BF.4.0.3.c1-00005-M8996AAAAANAZT-1_20170110_230814/b/HK11/trustzone_images/core/securemsm/trustzone/qsapps/libs/applib/common_applib/build/fidosui/scorpion/IADAANAA/tzapp_entrylib.lib(gpPersistObjData.o)
 .debug_loc     0x00017df9      0x51f /local/mnt/workspace/CRMBuilds/TZ.BF.4.0.3.c1-00005-M8996AAAAANAZT-1_20170110_230814/b/HK11/trustzone_images/core/securemsm/trustzone/qsapps/libs/applib/common_applib/build/fidosui/scorpion/IADAANAA/tzapp_entrylib.lib(gpPersistObjHandler.o)
 .debug_loc     0x00018318      0xc13 /local/mnt/workspace/CRMBuilds/TZ.BF.4.0.3.c1-00005-M8996AAAAANAZT-1_20170110_230814/b/HK11/trustzone_images/core/securemsm/trustzone/qsapps/libs/applib/common_applib/build/fidosui/scorpion/IADAANAA/tzapp_entrylib.lib(gpPersistObjIndex.o)
 .debug_loc     0x00018f2b      0x90c /local/mnt/workspace/CRMBuilds/TZ.BF.4.0.3.c1-00005-M8996AAAAANAZT-1_20170110_230814/b/HK11/trustzone_images/core/securemsm/trustzone/qsapps/libs/applib/common_applib/build/fidosui/scorpion/IADAANAA/tzapp_entrylib.lib(gpPersistObjVersion.o)
 .debug_loc     0x00019837      0x92e /local/mnt/workspace/CRMBuilds/TZ.BF.4.0.3.c1-00005-M8996AAAAANAZT-1_20170110_230814/b/HK11/trustzone_images/core/securemsm/trustzone/qsapps/libs/applib/common_applib/build/fidosui/scorpion/IADAANAA/tzapp_entrylib.lib(gpPersistObjCrypto.o)
 .debug_loc     0x0001a165      0x515 /local/mnt/workspace/CRMBuilds/TZ.BF.4.0.3.c1-00005-M8996AAAAANAZT-1_20170110_230814/b/HK11/trustzone_images/core/securemsm/trustzone/qsapps/libs/applib/common_applib/build/fidosui/scorpion/IADAANAA/tzapp_entrylib.lib(gpPersistObjFileIO.o)
 .debug_loc     0x0001a67a      0x3fb /local/mnt/workspace/CRMBuilds/TZ.BF.4.0.3.c1-00005-M8996AAAAANAZT-1_20170110_230814/b/HK11/trustzone_images/core/securemsm/trustzone/qsapps/libs/applib/common_applib/build/fidosui/scorpion/IADAANAA/tzapp_entrylib.lib(gpFileService.o)
 .debug_loc     0x0001aa75      0x3e0 /local/mnt/workspace/CRMBuilds/TZ.BF.4.0.3.c1-00005-M8996AAAAANAZT-1_20170110_230814/b/HK11/trustzone_images/core/securemsm/trustzone/qsapps/libs/applib/qsee/build/fidosui/scorpion/IADAANAA/tzapp_entrylib.lib(qsee_core_shim.o)
 .debug_loc     0x0001ae55      0x17d /local/mnt/workspace/CRMBuilds/TZ.BF.4.0.3.c1-00005-M8996AAAAANAZT-1_20170110_230814/b/HK11/trustzone_images/core/securemsm/trustzone/qsapps/libs/applib/qsee/build/fidosui/scorpion/IADAANAA/tzapp_entrylib.lib(stor.o)
 .debug_loc     0x0001afd2      0xc8b /local/mnt/workspace/CRMBuilds/TZ.BF.4.0.3.c1-00005-M8996AAAAANAZT-1_20170110_230814/b/HK11/trustzone_images/core/securemsm/trustzone/qsapps/libs/applib/qsee/build/fidosui/scorpion/IADAANAA/tzapp_entrylib.lib(stor_gpt.o)
 .debug_loc     0x0001bc5d      0x2d0 /local/mnt/workspace/CRMBuilds/TZ.BF.4.0.3.c1-00005-M8996AAAAANAZT-1_20170110_230814/b/HK11/trustzone_images/core/securemsm/trustzone/qsapps/libs/applib/qsee/build/fidosui/scorpion/IADAANAA/tzapp_entrylib.lib(stor_rpmbw.o)
 .debug_loc     0x0001bf2d       0x78 /local/mnt/workspace/CRMBuilds/TZ.BF.4.0.3.c1-00005-M8996AAAAANAZT-1_20170110_230814/b/HK11/trustzone_images/core/securemsm/trustzone/qsapps/libs/applib/qsee/build/fidosui/scorpion/IADAANAA/tzapp_entrylib.lib(qsee_cfg_prop_shim.o)
 .debug_loc     0x0001bfa5      0x6af /local/mnt/workspace/CRMBuilds/TZ.BF.4.0.3.c1-00005-M8996AAAAANAZT-1_20170110_230814/b/HK11/trustzone_images/core/securemsm/trustzone/qsapps/libs/applib/qsee/build/fidosui/scorpion/IADAANAA/tzapp_entrylib.lib(qsee_cipher.o)
 .debug_loc     0x0001c654      0x386 /local/mnt/workspace/CRMBuilds/TZ.BF.4.0.3.c1-00005-M8996AAAAANAZT-1_20170110_230814/b/HK11/trustzone_images/core/securemsm/trustzone/qsapps/libs/applib/qsee/build/fidosui/scorpion/IADAANAA/tzapp_entrylib.lib(qsee_hmac.o)
 .debug_loc     0x0001c9da       0x13 /local/mnt/workspace/CRMBuilds/TZ.BF.4.0.3.c1-00005-M8996AAAAANAZT-1_20170110_230814/b/HK11/trustzone_images/core/securemsm/trustzone/qsapps/libs/applib/qsee/build/fidosui/scorpion/IADAANAA/tzapp_entrylib.lib(gpPersistObjPanic.o)
 .debug_loc     0x0001c9ed       0x6a /local/mnt/workspace/CRMBuilds/TZ.BF.4.0.3.c1-00005-M8996AAAAANAZT-1_20170110_230814/b/HK11/trustzone_images/core/kernel/libstd/build/fidosui/scorpion/IADAANAA/libstd.lib(timesafe_memcmp.o)
 .debug_loc     0x0001ca57      0x66a /local/mnt/workspace/CRMBuilds/TZ.BF.4.0.3.c1-00005-M8996AAAAANAZT-1_20170110_230814/b/HK11/trustzone_images/core/securemsm/sse/SecureTouch/controller/build/fidosui/scorpion/IADAANAA/drts_controller_msm8996.lib(atmel_mxt_ts.o)
 .debug_loc     0x0001d0c1      0x787 /local/mnt/workspace/CRMBuilds/TZ.BF.4.0.3.c1-00005-M8996AAAAANAZT-1_20170110_230814/b/HK11/trustzone_images/core/securemsm/sse/SecureTouch/controller/build/fidosui/scorpion/IADAANAA/drts_controller_msm8996.lib(synaptics_ts.o)
 .debug_loc     0x0001d848      0x16b /local/mnt/workspace/CRMBuilds/TZ.BF.4.0.3.c1-00005-M8996AAAAANAZT-1_20170110_230814/b/HK11/trustzone_images/core/securemsm/sse/qsee/SecureTouch/drTs/controller/build/fidosui/scorpion/IADAANAA/touch_controller_i2c_msm8996.lib(atmel_mxt_ts_i2c.o)
 .debug_loc     0x0001d9b3      0x13a /local/mnt/workspace/CRMBuilds/TZ.BF.4.0.3.c1-00005-M8996AAAAANAZT-1_20170110_230814/b/HK11/trustzone_images/core/securemsm/sse/qsee/SecureTouch/drTs/controller/build/fidosui/scorpion/IADAANAA/touch_controller_i2c_msm8996.lib(synaptics_ts_i2c.o)
 .debug_loc     0x0001daed      0x4db /local/mnt/workspace/CRMBuilds/TZ.BF.4.0.3.c1-00005-M8996AAAAANAZT-1_20170110_230814/b/HK11/trustzone_images/core/securemsm/trustzone/qsapps/libs/applib/qsee/build/fidosui/scorpion/IADAANAA/tzapp_entrylib.lib(qsee_i2c.o)

.debug_ranges   0x00000000     0xafa0
 .debug_ranges  0x00000000        0x0 /local/mnt/workspace/CRMBuilds/TZ.BF.4.0.3.c1-00005-M8996AAAAANAZT-1_20170110_230814/b/HK11/trustzone_images/apps/securemsm/trustzone/qsapps/fidosui/build/fidosui/scorpion/IADAANAA/metadata.o
 .debug_ranges  0x00000000       0x78 /local/mnt/workspace/CRMBuilds/TZ.BF.4.0.3.c1-00005-M8996AAAAANAZT-1_20170110_230814/b/HK11/trustzone_images/apps/securemsm/trustzone/qsapps/fidosui/ipc/build/fidosui/scorpion/IADAANAA/src/CFidoSuiToken.o
 .debug_ranges  0x00000078        0x0 /local/mnt/workspace/CRMBuilds/TZ.BF.4.0.3.c1-00005-M8996AAAAANAZT-1_20170110_230814/b/HK11/trustzone_images/core/kernel/libstd/build/fidosui/scorpion/IADAANAA/libstd.lib(memscpy.o)
 .debug_ranges  0x00000078       0xf0 /local/mnt/workspace/CRMBuilds/TZ.BF.4.0.3.c1-00005-M8996AAAAANAZT-1_20170110_230814/b/HK11/trustzone_images/core/securemsm/trustzone/qsapps/libs/applib/common_applib/build/fidosui/scorpion/IADAANAA/tzapp_entrylib.lib(common_applib.o)
 .debug_ranges  0x00000168        0x0 /local/mnt/workspace/CRMBuilds/TZ.BF.4.0.3.c1-00005-M8996AAAAANAZT-1_20170110_230814/b/HK11/trustzone_images/core/securemsm/trustzone/qsapps/libs/applib/proxy/build/fidosui/scorpion/IADAANAA/tzlib_proxy.lib(prxy_services.o)
 .debug_ranges  0x00000168       0x90 /local/mnt/workspace/CRMBuilds/TZ.BF.4.0.3.c1-00005-M8996AAAAANAZT-1_20170110_230814/b/HK11/trustzone_images/core/securemsm/trustzone/qsapps/libs/applib/qsee/build/fidosui/scorpion/IADAANAA/tzapp_entrylib.lib(mink_shared_code.o)
 .debug_ranges  0x000001f8       0x20 /local/mnt/workspace/CRMBuilds/TZ.BF.4.0.3.c1-00005-M8996AAAAANAZT-1_20170110_230814/b/HK11/trustzone_images/core/securemsm/trustzone/qsapps/libs/applib/qsee/build/fidosui/scorpion/IADAANAA/tzapp_entrylib.lib(qsee_env.o)
 .debug_ranges  0x00000218       0x30 /local/mnt/workspace/CRMBuilds/TZ.BF.4.0.3.c1-00005-M8996AAAAANAZT-1_20170110_230814/b/HK11/trustzone_images/core/securemsm/trustzone/qsapps/libs/applib/qsee/build/fidosui/scorpion/IADAANAA/tzapp_entrylib.lib(qsee_prng.o)
 .debug_ranges  0x00000248        0x0 /local/mnt/workspace/CRMBuilds/TZ.BF.4.0.3.c1-00005-M8996AAAAANAZT-1_20170110_230814/b/HK11/trustzone_images/core/securemsm/trustzone/qsapps/libs/applib/qsee/build/fidosui/scorpion/IADAANAA/tzapp_entrylib.lib(tzapp_lib_main.o)
 .debug_ranges  0x00000248       0x18 /local/mnt/workspace/CRMBuilds/TZ.BF.4.0.3.c1-00005-M8996AAAAANAZT-1_20170110_230814/b/HK11/trustzone_images/apps/securemsm/trustzone/qsapps/fidosui/app/build/fidosui/scorpion/IADAANAA/fidosui_app.lib(app_main.o)
 .debug_ranges  0x00000260        0x0 /local/mnt/workspace/CRMBuilds/TZ.BF.4.0.3.c1-00005-M8996AAAAANAZT-1_20170110_230814/b/HK11/trustzone_images/apps/securemsm/trustzone/qsapps/fidosui/app/build/fidosui/scorpion/IADAANAA/fidosui_app.lib(01_Initialize.o)
 .debug_ranges  0x00000260       0x18 /local/mnt/workspace/CRMBuilds/TZ.BF.4.0.3.c1-00005-M8996AAAAANAZT-1_20170110_230814/b/HK11/trustzone_images/apps/securemsm/trustzone/qsapps/fidosui/app/build/fidosui/scorpion/IADAANAA/fidosui_app.lib(08_ShowMessageSui.o)
 .debug_ranges  0x00000278        0x0 /local/mnt/workspace/CRMBuilds/TZ.BF.4.0.3.c1-00005-M8996AAAAANAZT-1_20170110_230814/b/HK11/trustzone_images/apps/securemsm/trustzone/qsapps/fidosui/app/build/fidosui/scorpion/IADAANAA/fidosui_app.lib(fsSecureUI.o)
 .debug_ranges  0x00000278        0x0 /local/mnt/workspace/CRMBuilds/TZ.BF.4.0.3.c1-00005-M8996AAAAANAZT-1_20170110_230814/b/HK11/trustzone_images/apps/securemsm/trustzone/qsapps/fidosui/app/build/fidosui/scorpion/IADAANAA/fidosui_app.lib(fsLocale.o)
 .debug_ranges  0x00000278        0x0 /local/mnt/workspace/CRMBuilds/TZ.BF.4.0.3.c1-00005-M8996AAAAANAZT-1_20170110_230814/b/HK11/trustzone_images/apps/securemsm/trustzone/qsapps/fidosui/config/build/fidosui/scorpion/IADAANAA/fidosui_config.lib(config.o)
 .debug_ranges  0x00000278        0x0 /local/mnt/workspace/CRMBuilds/TZ.BF.4.0.3.c1-00005-M8996AAAAANAZT-1_20170110_230814/b/HK11/trustzone_images/apps/securemsm/trustzone/qsapps/fidosui/locale/build/fidosui/scorpion/IADAANAA/fidosui_locale.lib(locale.o)
 .debug_ranges  0x00000278        0x0 /local/mnt/workspace/CRMBuilds/TZ.BF.4.0.3.c1-00005-M8996AAAAANAZT-1_20170110_230814/b/HK11/trustzone_images/core/kernel/libstd/build/fidosui/scorpion/IADAANAA/libstd.lib(secure_memset.o)
 .debug_ranges  0x00000278       0x18 /local/mnt/workspace/CRMBuilds/TZ.BF.4.0.3.c1-00005-M8996AAAAANAZT-1_20170110_230814/b/HK11/trustzone_images/core/securemsm/sse/log/build/fidosui/scorpion/IADAANAA/sselog.lib(sselog.o)
 .debug_ranges  0x00000290      0xe30 /local/mnt/workspace/CRMBuilds/TZ.BF.4.0.3.c1-00005-M8996AAAAANAZT-1_20170110_230814/b/HK11/trustzone_images/core/securemsm/sse/qsee/SecureUI/build/fidosui/scorpion/IADAANAA/secure_ui.lib(SecureUI.o)
 .debug_ranges  0x000010c0     0x2790 /local/mnt/workspace/CRMBuilds/TZ.BF.4.0.3.c1-00005-M8996AAAAANAZT-1_20170110_230814/b/HK11/trustzone_images/core/securemsm/sse/qsee/SecureUI/build/fidosui/scorpion/IADAANAA/secure_ui_tui.lib(qsee_tui_dialogs.o)
 .debug_ranges  0x00003850      0xd70 /local/mnt/workspace/CRMBuilds/TZ.BF.4.0.3.c1-00005-M8996AAAAANAZT-1_20170110_230814/b/HK11/trustzone_images/core/securemsm/sse/qsee/SecureUI/build/fidosui/scorpion/IADAANAA/secure_ui_tui.lib(layout_manager.o)
 .debug_ranges  0x000045c0     0x1b90 /local/mnt/workspace/CRMBuilds/TZ.BF.4.0.3.c1-00005-M8996AAAAANAZT-1_20170110_230814/b/HK11/trustzone_images/core/securemsm/sse/qsee/SecureUI/build/fidosui/scorpion/IADAANAA/secure_ui_tui.lib(secure_display_renderer.o)
 .debug_ranges  0x00006150     0x2698 /local/mnt/workspace/CRMBuilds/TZ.BF.4.0.3.c1-00005-M8996AAAAANAZT-1_20170110_230814/b/HK11/trustzone_images/core/securemsm/sse/qsee/SecureUI/build/fidosui/scorpion/IADAANAA/secure_ui_tui.lib(font_manager.o)
 .debug_ranges  0x000087e8        0x0 /local/mnt/workspace/CRMBuilds/TZ.BF.4.0.3.c1-00005-M8996AAAAANAZT-1_20170110_230814/b/HK11/trustzone_images/core/securemsm/sse/qsee/SecureUILib/lib/build/fidosui/scorpion/IADAANAA/secure_ui_lib.lib(SecureUILib.o)
 .debug_ranges  0x000087e8        0x0 /local/mnt/workspace/CRMBuilds/TZ.BF.4.0.3.c1-00005-M8996AAAAANAZT-1_20170110_230814/b/HK11/trustzone_images/core/securemsm/sse/qsee/SecureUILib/lib/build/fidosui/scorpion/IADAANAA/secure_ui_lib.lib(01_startTouch.o)
 .debug_ranges  0x000087e8       0x40 /local/mnt/workspace/CRMBuilds/TZ.BF.4.0.3.c1-00005-M8996AAAAANAZT-1_20170110_230814/b/HK11/trustzone_images/core/securemsm/sse/qsee/SecureUILib/lib/build/fidosui/scorpion/IADAANAA/secure_ui_lib.lib(02_processTouch.o)
 .debug_ranges  0x00008828        0x0 /local/mnt/workspace/CRMBuilds/TZ.BF.4.0.3.c1-00005-M8996AAAAANAZT-1_20170110_230814/b/HK11/trustzone_images/core/securemsm/sse/qsee/SecureUILib/lib/build/fidosui/scorpion/IADAANAA/secure_ui_lib.lib(03_stopTouch.o)
 .debug_ranges  0x00008828        0x0 /local/mnt/workspace/CRMBuilds/TZ.BF.4.0.3.c1-00005-M8996AAAAANAZT-1_20170110_230814/b/HK11/trustzone_images/core/securemsm/sse/qsee/SecureUILib/lib/build/fidosui/scorpion/IADAANAA/secure_ui_lib.lib(04_prepareRequest.o)
 .debug_ranges  0x00008828        0x0 /local/mnt/workspace/CRMBuilds/TZ.BF.4.0.3.c1-00005-M8996AAAAANAZT-1_20170110_230814/b/HK11/trustzone_images/core/securemsm/sse/qsee/SecureUILib/lib/build/fidosui/scorpion/IADAANAA/secure_ui_lib.lib(05_storeIndicator.o)
 .debug_ranges  0x00008828        0x0 /local/mnt/workspace/CRMBuilds/TZ.BF.4.0.3.c1-00005-M8996AAAAANAZT-1_20170110_230814/b/HK11/trustzone_images/core/securemsm/trustzone/qsapps/libs/applib/proxy/build/fidosui/scorpion/IADAANAA/tzlib_proxy.lib(prxy_qsee_shim.o)
 .debug_ranges  0x00008828        0x0 /local/mnt/workspace/CRMBuilds/TZ.BF.4.0.3.c1-00005-M8996AAAAANAZT-1_20170110_230814/b/HK11/trustzone_images/core/securemsm/trustzone/qsapps/libs/applib/proxy/build/fidosui/scorpion/IADAANAA/tzlib_proxy.lib(prxy_ufdes.o)
 .debug_ranges  0x00008828        0x0 /local/mnt/workspace/CRMBuilds/TZ.BF.4.0.3.c1-00005-M8996AAAAANAZT-1_20170110_230814/b/HK11/trustzone_images/core/securemsm/trustzone/qsapps/libs/applib/proxy/build/fidosui/scorpion/IADAANAA/tzlib_proxy.lib(prxy_secmath.o)
 .debug_ranges  0x00008828        0x0 /local/mnt/workspace/CRMBuilds/TZ.BF.4.0.3.c1-00005-M8996AAAAANAZT-1_20170110_230814/b/HK11/trustzone_images/core/securemsm/trustzone/qsapps/libs/applib/proxy/build/fidosui/scorpion/IADAANAA/tzlib_proxy.lib(prxy_secrsa.o)
 .debug_ranges  0x00008828        0x0 /local/mnt/workspace/CRMBuilds/TZ.BF.4.0.3.c1-00005-M8996AAAAANAZT-1_20170110_230814/b/HK11/trustzone_images/core/securemsm/trustzone/qsapps/libs/applib/proxy/build/fidosui/scorpion/IADAANAA/tzlib_proxy.lib(prxy_ecc.o)
 .debug_ranges  0x00008828       0x18 /local/mnt/workspace/CRMBuilds/TZ.BF.4.0.3.c1-00005-M8996AAAAANAZT-1_20170110_230814/b/HK11/trustzone_images/core/securemsm/trustzone/qsapps/libs/applib/qsee/build/fidosui/scorpion/IADAANAA/tzapp_entrylib.lib(qsee_secdisp.o)
 .debug_ranges  0x00008840       0xc8 /local/mnt/workspace/CRMBuilds/TZ.BF.4.0.3.c1-00005-M8996AAAAANAZT-1_20170110_230814/b/HK11/trustzone_images/core/securemsm/trustzone/qsapps/libs/applib/qsee/build/fidosui/scorpion/IADAANAA/tzapp_entrylib.lib(qsee_nsmem.o)
 .debug_ranges  0x00008908        0x0 /local/mnt/workspace/CRMBuilds/TZ.BF.4.0.3.c1-00005-M8996AAAAANAZT-1_20170110_230814/b/HK11/trustzone_images/core/securemsm/trustzone/qsapps/libs/applib/qsee/build/fidosui/scorpion/IADAANAA/tzapp_entrylib.lib(qsee_timer_shim.o)
 .debug_ranges  0x00008908      0x130 /local/mnt/workspace/CRMBuilds/TZ.BF.4.0.3.c1-00005-M8996AAAAANAZT-1_20170110_230814/b/HK11/trustzone_images/core/securemsm/trustzone/qsapps/libs/applib/qsee/build/fidosui/scorpion/IADAANAA/tzapp_entrylib.lib(qsee_hash.o)
 .debug_ranges  0x00008a38       0x90 /local/mnt/workspace/CRMBuilds/TZ.BF.4.0.3.c1-00005-M8996AAAAANAZT-1_20170110_230814/b/HK11/trustzone_images/core/securemsm/trustzone/qsapps/libs/applib/qsee/build/fidosui/scorpion/IADAANAA/tzapp_entrylib.lib(qsee_shared_buffer.o)
 .debug_ranges  0x00008ac8       0xc8 /local/mnt/workspace/CRMBuilds/TZ.BF.4.0.3.c1-00005-M8996AAAAANAZT-1_20170110_230814/b/HK11/trustzone_images/core/securemsm/trustzone/qsapps/libs/applib/qsee/build/fidosui/scorpion/IADAANAA/tzapp_entrylib.lib(qsee_appmessage.o)
 .debug_ranges  0x00008b90        0x0 /local/mnt/workspace/CRMBuilds/TZ.BF.4.0.3.c1-00005-M8996AAAAANAZT-1_20170110_230814/b/HK11/trustzone_images/core/securemsm/trustzone/qsapps/libs/applib/qsee/build/fidosui/scorpion/IADAANAA/tzapp_entrylib.lib(sfs_api.o)
 .debug_ranges  0x00008b90        0x0 /local/mnt/workspace/CRMBuilds/TZ.BF.4.0.3.c1-00005-M8996AAAAANAZT-1_20170110_230814/b/HK11/trustzone_images/apps/securemsm/trustzone/qsapps/fidosui/layouts/build/fidosui/scorpion/IADAANAA/secure_ui_layout.lib(layout_8996_fluid.o)
 .debug_ranges  0x00008b90      0x8f0 /local/mnt/workspace/CRMBuilds/TZ.BF.4.0.3.c1-00005-M8996AAAAANAZT-1_20170110_230814/b/HK11/trustzone_images/core/securemsm/sse/SecureTouch/layout/build/fidosui/scorpion/IADAANAA/sklayout.lib(layoutUtils.o)
 .debug_ranges  0x00009480      0x5a0 /local/mnt/workspace/CRMBuilds/TZ.BF.4.0.3.c1-00005-M8996AAAAANAZT-1_20170110_230814/b/HK11/trustzone_images/core/securemsm/sse/qsee/SecureDisplay/libgd/build/fidosui/scorpion/IADAANAA/libgd.lib(gd.o)
 .debug_ranges  0x00009a20        0x0 /local/mnt/workspace/CRMBuilds/TZ.BF.4.0.3.c1-00005-M8996AAAAANAZT-1_20170110_230814/b/HK11/trustzone_images/core/securemsm/sse/qsee/SecureDisplay/libgd/build/fidosui/scorpion/IADAANAA/libgd.lib(gd_color.o)
 .debug_ranges  0x00009a20        0x0 /local/mnt/workspace/CRMBuilds/TZ.BF.4.0.3.c1-00005-M8996AAAAANAZT-1_20170110_230814/b/HK11/trustzone_images/core/securemsm/sse/qsee/SecureDisplay/libgd/build/fidosui/scorpion/IADAANAA/libgd.lib(gd_security.o)
 .debug_ranges  0x00009a20        0x0 /local/mnt/workspace/CRMBuilds/TZ.BF.4.0.3.c1-00005-M8996AAAAANAZT-1_20170110_230814/b/HK11/trustzone_images/core/securemsm/sse/qsee/SecureDisplay/libgd/build/fidosui/scorpion/IADAANAA/libgd.lib(gdtables.o)
 .debug_ranges  0x00009a20       0x18 /local/mnt/workspace/CRMBuilds/TZ.BF.4.0.3.c1-00005-M8996AAAAANAZT-1_20170110_230814/b/HK11/trustzone_images/core/securemsm/sse/qsee/SecureDisplay/libpng/build/fidosui/scorpion/IADAANAA/libpng.lib(png.o)
 .debug_ranges  0x00009a38        0x0 /local/mnt/workspace/CRMBuilds/TZ.BF.4.0.3.c1-00005-M8996AAAAANAZT-1_20170110_230814/b/HK11/trustzone_images/core/securemsm/sse/qsee/SecureDisplay/libpng/build/fidosui/scorpion/IADAANAA/libpng.lib(pngerror.o)
 .debug_ranges  0x00009a38        0x0 /local/mnt/workspace/CRMBuilds/TZ.BF.4.0.3.c1-00005-M8996AAAAANAZT-1_20170110_230814/b/HK11/trustzone_images/core/securemsm/sse/qsee/SecureDisplay/libpng/build/fidosui/scorpion/IADAANAA/libpng.lib(pngget.o)
 .debug_ranges  0x00009a38        0x0 /local/mnt/workspace/CRMBuilds/TZ.BF.4.0.3.c1-00005-M8996AAAAANAZT-1_20170110_230814/b/HK11/trustzone_images/core/securemsm/sse/qsee/SecureDisplay/libpng/build/fidosui/scorpion/IADAANAA/libpng.lib(pngmem.o)
 .debug_ranges  0x00009a38       0x48 /local/mnt/workspace/CRMBuilds/TZ.BF.4.0.3.c1-00005-M8996AAAAANAZT-1_20170110_230814/b/HK11/trustzone_images/core/securemsm/sse/qsee/SecureDisplay/libpng/build/fidosui/scorpion/IADAANAA/libpng.lib(pngread.o)
 .debug_ranges  0x00009a80        0x0 /local/mnt/workspace/CRMBuilds/TZ.BF.4.0.3.c1-00005-M8996AAAAANAZT-1_20170110_230814/b/HK11/trustzone_images/core/securemsm/sse/qsee/SecureDisplay/libpng/build/fidosui/scorpion/IADAANAA/libpng.lib(pngrio.o)
 .debug_ranges  0x00009a80      0x158 /local/mnt/workspace/CRMBuilds/TZ.BF.4.0.3.c1-00005-M8996AAAAANAZT-1_20170110_230814/b/HK11/trustzone_images/core/securemsm/sse/qsee/SecureDisplay/libpng/build/fidosui/scorpion/IADAANAA/libpng.lib(pngrutil.o)
 .debug_ranges  0x00009bd8        0x0 /local/mnt/workspace/CRMBuilds/TZ.BF.4.0.3.c1-00005-M8996AAAAANAZT-1_20170110_230814/b/HK11/trustzone_images/core/securemsm/sse/qsee/SecureDisplay/libpng/build/fidosui/scorpion/IADAANAA/libpng.lib(pngset.o)
 .debug_ranges  0x00009bd8       0x40 /local/mnt/workspace/CRMBuilds/TZ.BF.4.0.3.c1-00005-M8996AAAAANAZT-1_20170110_230814/b/HK11/trustzone_images/core/securemsm/sse/qsee/SecureDisplay/zlib/build/fidosui/scorpion/IADAANAA/zlib.lib(crc32.o)
 .debug_ranges  0x00009c18       0x68 /local/mnt/workspace/CRMBuilds/TZ.BF.4.0.3.c1-00005-M8996AAAAANAZT-1_20170110_230814/b/HK11/trustzone_images/core/securemsm/sse/qsee/SecureDisplay/zlib/build/fidosui/scorpion/IADAANAA/zlib.lib(inflate.o)
 .debug_ranges  0x00009c80        0x0 /local/mnt/workspace/CRMBuilds/TZ.BF.4.0.3.c1-00005-M8996AAAAANAZT-1_20170110_230814/b/HK11/trustzone_images/core/securemsm/sse/qsee/SecureDisplay/zlib/build/fidosui/scorpion/IADAANAA/zlib.lib(inftrees.o)
 .debug_ranges  0x00009c80        0x0 /local/mnt/workspace/CRMBuilds/TZ.BF.4.0.3.c1-00005-M8996AAAAANAZT-1_20170110_230814/b/HK11/trustzone_images/core/securemsm/sse/qsee/SecureDisplay/zlib/build/fidosui/scorpion/IADAANAA/zlib.lib(zutil.o)
 .debug_ranges  0x00009c80        0x0 /local/mnt/workspace/CRMBuilds/TZ.BF.4.0.3.c1-00005-M8996AAAAANAZT-1_20170110_230814/b/HK11/trustzone_images/core/securemsm/sse/qsee/SecureDisplay/zlib/build/fidosui/scorpion/IADAANAA/zlib.lib(adler32.o)
 .debug_ranges  0x00009c80        0x0 /local/mnt/workspace/CRMBuilds/TZ.BF.4.0.3.c1-00005-M8996AAAAANAZT-1_20170110_230814/b/HK11/trustzone_images/core/securemsm/sse/qsee/SecureDisplay/zlib/build/fidosui/scorpion/IADAANAA/zlib.lib(inffast.o)
 .debug_ranges  0x00009c80        0x0 /local/mnt/workspace/CRMBuilds/TZ.BF.4.0.3.c1-00005-M8996AAAAANAZT-1_20170110_230814/b/HK11/trustzone_images/core/securemsm/sse/qsee/SecureTouch/drTs/lib/build/fidosui/scorpion/IADAANAA/touch_lib.lib(01_open.o)
 .debug_ranges  0x00009c80        0x0 /local/mnt/workspace/CRMBuilds/TZ.BF.4.0.3.c1-00005-M8996AAAAANAZT-1_20170110_230814/b/HK11/trustzone_images/core/securemsm/sse/qsee/SecureTouch/drTs/lib/build/fidosui/scorpion/IADAANAA/touch_lib.lib(02_close.o)
 .debug_ranges  0x00009c80        0x0 /local/mnt/workspace/CRMBuilds/TZ.BF.4.0.3.c1-00005-M8996AAAAANAZT-1_20170110_230814/b/HK11/trustzone_images/core/securemsm/sse/qsee/SecureTouch/drTs/lib/build/fidosui/scorpion/IADAANAA/touch_lib.lib(03_getData.o)
 .debug_ranges  0x00009c80        0x0 /local/mnt/workspace/CRMBuilds/TZ.BF.4.0.3.c1-00005-M8996AAAAANAZT-1_20170110_230814/b/HK11/trustzone_images/core/securemsm/trustzone/qsapps/libs/applib/common_applib/build/fidosui/scorpion/IADAANAA/tzapp_entrylib.lib(gpPersistObjCommon.o)
 .debug_ranges  0x00009c80        0x0 /local/mnt/workspace/CRMBuilds/TZ.BF.4.0.3.c1-00005-M8996AAAAANAZT-1_20170110_230814/b/HK11/trustzone_images/core/securemsm/trustzone/qsapps/libs/applib/common_applib/build/fidosui/scorpion/IADAANAA/tzapp_entrylib.lib(gpPersistentObjects.o)
 .debug_ranges  0x00009c80      0x378 /local/mnt/workspace/CRMBuilds/TZ.BF.4.0.3.c1-00005-M8996AAAAANAZT-1_20170110_230814/b/HK11/trustzone_images/core/securemsm/trustzone/qsapps/libs/applib/common_applib/build/fidosui/scorpion/IADAANAA/tzapp_entrylib.lib(gpPersistObjData.o)
 .debug_ranges  0x00009ff8       0x48 /local/mnt/workspace/CRMBuilds/TZ.BF.4.0.3.c1-00005-M8996AAAAANAZT-1_20170110_230814/b/HK11/trustzone_images/core/securemsm/trustzone/qsapps/libs/applib/common_applib/build/fidosui/scorpion/IADAANAA/tzapp_entrylib.lib(gpPersistObjHandler.o)
 .debug_ranges  0x0000a040      0x200 /local/mnt/workspace/CRMBuilds/TZ.BF.4.0.3.c1-00005-M8996AAAAANAZT-1_20170110_230814/b/HK11/trustzone_images/core/securemsm/trustzone/qsapps/libs/applib/common_applib/build/fidosui/scorpion/IADAANAA/tzapp_entrylib.lib(gpPersistObjIndex.o)
 .debug_ranges  0x0000a240      0x2f0 /local/mnt/workspace/CRMBuilds/TZ.BF.4.0.3.c1-00005-M8996AAAAANAZT-1_20170110_230814/b/HK11/trustzone_images/core/securemsm/trustzone/qsapps/libs/applib/common_applib/build/fidosui/scorpion/IADAANAA/tzapp_entrylib.lib(gpPersistObjVersion.o)
 .debug_ranges  0x0000a530       0x90 /local/mnt/workspace/CRMBuilds/TZ.BF.4.0.3.c1-00005-M8996AAAAANAZT-1_20170110_230814/b/HK11/trustzone_images/core/securemsm/trustzone/qsapps/libs/applib/common_applib/build/fidosui/scorpion/IADAANAA/tzapp_entrylib.lib(gpPersistObjCrypto.o)
 .debug_ranges  0x0000a5c0        0x0 /local/mnt/workspace/CRMBuilds/TZ.BF.4.0.3.c1-00005-M8996AAAAANAZT-1_20170110_230814/b/HK11/trustzone_images/core/securemsm/trustzone/qsapps/libs/applib/common_applib/build/fidosui/scorpion/IADAANAA/tzapp_entrylib.lib(gpPersistObjFileIO.o)
 .debug_ranges  0x0000a5c0        0x0 /local/mnt/workspace/CRMBuilds/TZ.BF.4.0.3.c1-00005-M8996AAAAANAZT-1_20170110_230814/b/HK11/trustzone_images/core/securemsm/trustzone/qsapps/libs/applib/common_applib/build/fidosui/scorpion/IADAANAA/tzapp_entrylib.lib(gpFileService.o)
 .debug_ranges  0x0000a5c0        0x0 /local/mnt/workspace/CRMBuilds/TZ.BF.4.0.3.c1-00005-M8996AAAAANAZT-1_20170110_230814/b/HK11/trustzone_images/core/securemsm/trustzone/qsapps/libs/applib/qsee/build/fidosui/scorpion/IADAANAA/tzapp_entrylib.lib(qsee_core_shim.o)
 .debug_ranges  0x0000a5c0       0x30 /local/mnt/workspace/CRMBuilds/TZ.BF.4.0.3.c1-00005-M8996AAAAANAZT-1_20170110_230814/b/HK11/trustzone_images/core/securemsm/trustzone/qsapps/libs/applib/qsee/build/fidosui/scorpion/IADAANAA/tzapp_entrylib.lib(stor.o)
 .debug_ranges  0x0000a5f0        0x0 /local/mnt/workspace/CRMBuilds/TZ.BF.4.0.3.c1-00005-M8996AAAAANAZT-1_20170110_230814/b/HK11/trustzone_images/core/securemsm/trustzone/qsapps/libs/applib/qsee/build/fidosui/scorpion/IADAANAA/tzapp_entrylib.lib(stor_gpt.o)
 .debug_ranges  0x0000a5f0        0x0 /local/mnt/workspace/CRMBuilds/TZ.BF.4.0.3.c1-00005-M8996AAAAANAZT-1_20170110_230814/b/HK11/trustzone_images/core/securemsm/trustzone/qsapps/libs/applib/qsee/build/fidosui/scorpion/IADAANAA/tzapp_entrylib.lib(stor_rpmbw.o)
 .debug_ranges  0x0000a5f0        0x0 /local/mnt/workspace/CRMBuilds/TZ.BF.4.0.3.c1-00005-M8996AAAAANAZT-1_20170110_230814/b/HK11/trustzone_images/core/securemsm/trustzone/qsapps/libs/applib/qsee/build/fidosui/scorpion/IADAANAA/tzapp_entrylib.lib(qsee_cfg_prop_shim.o)
 .debug_ranges  0x0000a5f0      0x238 /local/mnt/workspace/CRMBuilds/TZ.BF.4.0.3.c1-00005-M8996AAAAANAZT-1_20170110_230814/b/HK11/trustzone_images/core/securemsm/trustzone/qsapps/libs/applib/qsee/build/fidosui/scorpion/IADAANAA/tzapp_entrylib.lib(qsee_cipher.o)
 .debug_ranges  0x0000a828       0xa8 /local/mnt/workspace/CRMBuilds/TZ.BF.4.0.3.c1-00005-M8996AAAAANAZT-1_20170110_230814/b/HK11/trustzone_images/core/securemsm/trustzone/qsapps/libs/applib/qsee/build/fidosui/scorpion/IADAANAA/tzapp_entrylib.lib(qsee_hmac.o)
 .debug_ranges  0x0000a8d0        0x0 /local/mnt/workspace/CRMBuilds/TZ.BF.4.0.3.c1-00005-M8996AAAAANAZT-1_20170110_230814/b/HK11/trustzone_images/core/securemsm/trustzone/qsapps/libs/applib/qsee/build/fidosui/scorpion/IADAANAA/tzapp_entrylib.lib(gpPersistObjPanic.o)
 .debug_ranges  0x0000a8d0        0x0 /local/mnt/workspace/CRMBuilds/TZ.BF.4.0.3.c1-00005-M8996AAAAANAZT-1_20170110_230814/b/HK11/trustzone_images/core/kernel/libstd/build/fidosui/scorpion/IADAANAA/libstd.lib(timesafe_memcmp.o)
 .debug_ranges  0x0000a8d0      0x1a0 /local/mnt/workspace/CRMBuilds/TZ.BF.4.0.3.c1-00005-M8996AAAAANAZT-1_20170110_230814/b/HK11/trustzone_images/core/securemsm/sse/SecureTouch/controller/build/fidosui/scorpion/IADAANAA/drts_controller_msm8996.lib(atmel_mxt_ts.o)
 .debug_ranges  0x0000aa70      0x3a8 /local/mnt/workspace/CRMBuilds/TZ.BF.4.0.3.c1-00005-M8996AAAAANAZT-1_20170110_230814/b/HK11/trustzone_images/core/securemsm/sse/SecureTouch/controller/build/fidosui/scorpion/IADAANAA/drts_controller_msm8996.lib(synaptics_ts.o)
 .debug_ranges  0x0000ae18        0x0 /local/mnt/workspace/CRMBuilds/TZ.BF.4.0.3.c1-00005-M8996AAAAANAZT-1_20170110_230814/b/HK11/trustzone_images/core/securemsm/sse/qsee/SecureTouch/drTs/controller/build/fidosui/scorpion/IADAANAA/touch_controller_i2c_msm8996.lib(atmel_mxt_ts_i2c.o)
 .debug_ranges  0x0000ae18        0x0 /local/mnt/workspace/CRMBuilds/TZ.BF.4.0.3.c1-00005-M8996AAAAANAZT-1_20170110_230814/b/HK11/trustzone_images/core/securemsm/sse/qsee/SecureTouch/drTs/controller/build/fidosui/scorpion/IADAANAA/touch_controller_i2c_msm8996.lib(synaptics_ts_i2c.o)
 .debug_ranges  0x0000ae18      0x188 /local/mnt/workspace/CRMBuilds/TZ.BF.4.0.3.c1-00005-M8996AAAAANAZT-1_20170110_230814/b/HK11/trustzone_images/core/securemsm/trustzone/qsapps/libs/applib/qsee/build/fidosui/scorpion/IADAANAA/tzapp_entrylib.lib(qsee_i2c.o)

.debug_frame    0x00000000     0x5770
 .debug_frame   0x00000000       0x58 /local/mnt/workspace/CRMBuilds/TZ.BF.4.0.3.c1-00005-M8996AAAAANAZT-1_20170110_230814/b/HK11/trustzone_images/apps/securemsm/trustzone/qsapps/fidosui/ipc/build/fidosui/scorpion/IADAANAA/src/CFidoSuiToken.o
 .debug_frame   0x00000058       0x30 /local/mnt/workspace/CRMBuilds/TZ.BF.4.0.3.c1-00005-M8996AAAAANAZT-1_20170110_230814/b/HK11/trustzone_images/core/kernel/libstd/build/fidosui/scorpion/IADAANAA/libstd.lib(memscpy.o)
 .debug_frame   0x00000088      0x37c /local/mnt/workspace/CRMBuilds/TZ.BF.4.0.3.c1-00005-M8996AAAAANAZT-1_20170110_230814/b/HK11/trustzone_images/core/securemsm/trustzone/qsapps/libs/applib/common_applib/build/fidosui/scorpion/IADAANAA/tzapp_entrylib.lib(common_applib.o)
 .debug_frame   0x00000404      0x268 /local/mnt/workspace/CRMBuilds/TZ.BF.4.0.3.c1-00005-M8996AAAAANAZT-1_20170110_230814/b/HK11/trustzone_images/core/securemsm/trustzone/qsapps/libs/applib/proxy/build/fidosui/scorpion/IADAANAA/tzlib_proxy.lib(prxy_services.o)
 .debug_frame   0x0000066c       0xa4 /local/mnt/workspace/CRMBuilds/TZ.BF.4.0.3.c1-00005-M8996AAAAANAZT-1_20170110_230814/b/HK11/trustzone_images/core/securemsm/trustzone/qsapps/libs/applib/qsee/build/fidosui/scorpion/IADAANAA/tzapp_entrylib.lib(mink_shared_code.o)
 .debug_frame   0x00000710       0xac /local/mnt/workspace/CRMBuilds/TZ.BF.4.0.3.c1-00005-M8996AAAAANAZT-1_20170110_230814/b/HK11/trustzone_images/core/securemsm/trustzone/qsapps/libs/applib/qsee/build/fidosui/scorpion/IADAANAA/tzapp_entrylib.lib(qsee_env.o)
 .debug_frame   0x000007bc       0x34 /local/mnt/workspace/CRMBuilds/TZ.BF.4.0.3.c1-00005-M8996AAAAANAZT-1_20170110_230814/b/HK11/trustzone_images/core/securemsm/trustzone/qsapps/libs/applib/qsee/build/fidosui/scorpion/IADAANAA/tzapp_entrylib.lib(qsee_prng.o)
 .debug_frame   0x000007f0       0xc8 /local/mnt/workspace/CRMBuilds/TZ.BF.4.0.3.c1-00005-M8996AAAAANAZT-1_20170110_230814/b/HK11/trustzone_images/core/securemsm/trustzone/qsapps/libs/applib/qsee/build/fidosui/scorpion/IADAANAA/tzapp_entrylib.lib(tzapp_lib_main.o)
 .debug_frame   0x000008b8       0xa8 /local/mnt/workspace/CRMBuilds/TZ.BF.4.0.3.c1-00005-M8996AAAAANAZT-1_20170110_230814/b/HK11/trustzone_images/apps/securemsm/trustzone/qsapps/fidosui/app/build/fidosui/scorpion/IADAANAA/fidosui_app.lib(app_main.o)
 .debug_frame   0x00000960       0x34 /local/mnt/workspace/CRMBuilds/TZ.BF.4.0.3.c1-00005-M8996AAAAANAZT-1_20170110_230814/b/HK11/trustzone_images/apps/securemsm/trustzone/qsapps/fidosui/app/build/fidosui/scorpion/IADAANAA/fidosui_app.lib(01_Initialize.o)
 .debug_frame   0x00000994       0x64 /local/mnt/workspace/CRMBuilds/TZ.BF.4.0.3.c1-00005-M8996AAAAANAZT-1_20170110_230814/b/HK11/trustzone_images/apps/securemsm/trustzone/qsapps/fidosui/app/build/fidosui/scorpion/IADAANAA/fidosui_app.lib(08_ShowMessageSui.o)
 .debug_frame   0x000009f8       0x5c /local/mnt/workspace/CRMBuilds/TZ.BF.4.0.3.c1-00005-M8996AAAAANAZT-1_20170110_230814/b/HK11/trustzone_images/apps/securemsm/trustzone/qsapps/fidosui/app/build/fidosui/scorpion/IADAANAA/fidosui_app.lib(fsSecureUI.o)
 .debug_frame   0x00000a54       0x4c /local/mnt/workspace/CRMBuilds/TZ.BF.4.0.3.c1-00005-M8996AAAAANAZT-1_20170110_230814/b/HK11/trustzone_images/apps/securemsm/trustzone/qsapps/fidosui/app/build/fidosui/scorpion/IADAANAA/fidosui_app.lib(fsLocale.o)
 .debug_frame   0x00000aa0       0x30 /local/mnt/workspace/CRMBuilds/TZ.BF.4.0.3.c1-00005-M8996AAAAANAZT-1_20170110_230814/b/HK11/trustzone_images/core/kernel/libstd/build/fidosui/scorpion/IADAANAA/libstd.lib(secure_memset.o)
 .debug_frame   0x00000ad0       0x3c /local/mnt/workspace/CRMBuilds/TZ.BF.4.0.3.c1-00005-M8996AAAAANAZT-1_20170110_230814/b/HK11/trustzone_images/core/securemsm/sse/log/build/fidosui/scorpion/IADAANAA/sselog.lib(sselog.o)
 .debug_frame   0x00000b0c      0x2c4 /local/mnt/workspace/CRMBuilds/TZ.BF.4.0.3.c1-00005-M8996AAAAANAZT-1_20170110_230814/b/HK11/trustzone_images/core/securemsm/sse/qsee/SecureUI/build/fidosui/scorpion/IADAANAA/secure_ui.lib(SecureUI.o)
 .debug_frame   0x00000dd0      0x158 /local/mnt/workspace/CRMBuilds/TZ.BF.4.0.3.c1-00005-M8996AAAAANAZT-1_20170110_230814/b/HK11/trustzone_images/core/securemsm/sse/qsee/SecureUI/build/fidosui/scorpion/IADAANAA/secure_ui_tui.lib(qsee_tui_dialogs.o)
 .debug_frame   0x00000f28      0x3e0 /local/mnt/workspace/CRMBuilds/TZ.BF.4.0.3.c1-00005-M8996AAAAANAZT-1_20170110_230814/b/HK11/trustzone_images/core/securemsm/sse/qsee/SecureUI/build/fidosui/scorpion/IADAANAA/secure_ui_tui.lib(layout_manager.o)
 .debug_frame   0x00001308      0x254 /local/mnt/workspace/CRMBuilds/TZ.BF.4.0.3.c1-00005-M8996AAAAANAZT-1_20170110_230814/b/HK11/trustzone_images/core/securemsm/sse/qsee/SecureUI/build/fidosui/scorpion/IADAANAA/secure_ui_tui.lib(secure_display_renderer.o)
 .debug_frame   0x0000155c       0xb4 /local/mnt/workspace/CRMBuilds/TZ.BF.4.0.3.c1-00005-M8996AAAAANAZT-1_20170110_230814/b/HK11/trustzone_images/core/securemsm/sse/qsee/SecureUI/build/fidosui/scorpion/IADAANAA/secure_ui_tui.lib(font_manager.o)
 .debug_frame   0x00001610       0x8c /local/mnt/workspace/CRMBuilds/TZ.BF.4.0.3.c1-00005-M8996AAAAANAZT-1_20170110_230814/b/HK11/trustzone_images/core/securemsm/sse/qsee/SecureUILib/lib/build/fidosui/scorpion/IADAANAA/secure_ui_lib.lib(SecureUILib.o)
 .debug_frame   0x0000169c       0x38 /local/mnt/workspace/CRMBuilds/TZ.BF.4.0.3.c1-00005-M8996AAAAANAZT-1_20170110_230814/b/HK11/trustzone_images/core/securemsm/sse/qsee/SecureUILib/lib/build/fidosui/scorpion/IADAANAA/secure_ui_lib.lib(01_startTouch.o)
 .debug_frame   0x000016d4       0x3c /local/mnt/workspace/CRMBuilds/TZ.BF.4.0.3.c1-00005-M8996AAAAANAZT-1_20170110_230814/b/HK11/trustzone_images/core/securemsm/sse/qsee/SecureUILib/lib/build/fidosui/scorpion/IADAANAA/secure_ui_lib.lib(02_processTouch.o)
 .debug_frame   0x00001710       0x5c /local/mnt/workspace/CRMBuilds/TZ.BF.4.0.3.c1-00005-M8996AAAAANAZT-1_20170110_230814/b/HK11/trustzone_images/core/securemsm/sse/qsee/SecureUILib/lib/build/fidosui/scorpion/IADAANAA/secure_ui_lib.lib(03_stopTouch.o)
 .debug_frame   0x0000176c       0x34 /local/mnt/workspace/CRMBuilds/TZ.BF.4.0.3.c1-00005-M8996AAAAANAZT-1_20170110_230814/b/HK11/trustzone_images/core/securemsm/sse/qsee/SecureUILib/lib/build/fidosui/scorpion/IADAANAA/secure_ui_lib.lib(04_prepareRequest.o)
 .debug_frame   0x000017a0       0x34 /local/mnt/workspace/CRMBuilds/TZ.BF.4.0.3.c1-00005-M8996AAAAANAZT-1_20170110_230814/b/HK11/trustzone_images/core/securemsm/sse/qsee/SecureUILib/lib/build/fidosui/scorpion/IADAANAA/secure_ui_lib.lib(05_storeIndicator.o)
 .debug_frame   0x000017d4      0x340 /local/mnt/workspace/CRMBuilds/TZ.BF.4.0.3.c1-00005-M8996AAAAANAZT-1_20170110_230814/b/HK11/trustzone_images/core/securemsm/trustzone/qsapps/libs/applib/proxy/build/fidosui/scorpion/IADAANAA/tzlib_proxy.lib(prxy_qsee_shim.o)
 .debug_frame   0x00001b14       0x50 /local/mnt/workspace/CRMBuilds/TZ.BF.4.0.3.c1-00005-M8996AAAAANAZT-1_20170110_230814/b/HK11/trustzone_images/core/securemsm/trustzone/qsapps/libs/applib/proxy/build/fidosui/scorpion/IADAANAA/tzlib_proxy.lib(prxy_ufdes.o)
 .debug_frame   0x00001b64       0x30 /local/mnt/workspace/CRMBuilds/TZ.BF.4.0.3.c1-00005-M8996AAAAANAZT-1_20170110_230814/b/HK11/trustzone_images/core/securemsm/trustzone/qsapps/libs/applib/proxy/build/fidosui/scorpion/IADAANAA/tzlib_proxy.lib(prxy_secmath.o)
 .debug_frame   0x00001b94       0xb0 /local/mnt/workspace/CRMBuilds/TZ.BF.4.0.3.c1-00005-M8996AAAAANAZT-1_20170110_230814/b/HK11/trustzone_images/core/securemsm/trustzone/qsapps/libs/applib/proxy/build/fidosui/scorpion/IADAANAA/tzlib_proxy.lib(prxy_secrsa.o)
 .debug_frame   0x00001c44      0x120 /local/mnt/workspace/CRMBuilds/TZ.BF.4.0.3.c1-00005-M8996AAAAANAZT-1_20170110_230814/b/HK11/trustzone_images/core/securemsm/trustzone/qsapps/libs/applib/proxy/build/fidosui/scorpion/IADAANAA/tzlib_proxy.lib(prxy_ecc.o)
 .debug_frame   0x00001d64       0x50 /local/mnt/workspace/CRMBuilds/TZ.BF.4.0.3.c1-00005-M8996AAAAANAZT-1_20170110_230814/b/HK11/trustzone_images/core/securemsm/trustzone/qsapps/libs/applib/qsee/build/fidosui/scorpion/IADAANAA/tzapp_entrylib.lib(qsee_secdisp.o)
 .debug_frame   0x00001db4       0x9c /local/mnt/workspace/CRMBuilds/TZ.BF.4.0.3.c1-00005-M8996AAAAANAZT-1_20170110_230814/b/HK11/trustzone_images/core/securemsm/trustzone/qsapps/libs/applib/qsee/build/fidosui/scorpion/IADAANAA/tzapp_entrylib.lib(qsee_nsmem.o)
 .debug_frame   0x00001e50       0x64 /local/mnt/workspace/CRMBuilds/TZ.BF.4.0.3.c1-00005-M8996AAAAANAZT-1_20170110_230814/b/HK11/trustzone_images/core/securemsm/trustzone/qsapps/libs/applib/qsee/build/fidosui/scorpion/IADAANAA/tzapp_entrylib.lib(qsee_timer_shim.o)
 .debug_frame   0x00001eb4      0x168 /local/mnt/workspace/CRMBuilds/TZ.BF.4.0.3.c1-00005-M8996AAAAANAZT-1_20170110_230814/b/HK11/trustzone_images/core/securemsm/trustzone/qsapps/libs/applib/qsee/build/fidosui/scorpion/IADAANAA/tzapp_entrylib.lib(qsee_hash.o)
 .debug_frame   0x0000201c       0x54 /local/mnt/workspace/CRMBuilds/TZ.BF.4.0.3.c1-00005-M8996AAAAANAZT-1_20170110_230814/b/HK11/trustzone_images/core/securemsm/trustzone/qsapps/libs/applib/qsee/build/fidosui/scorpion/IADAANAA/tzapp_entrylib.lib(qsee_shared_buffer.o)
 .debug_frame   0x00002070       0x74 /local/mnt/workspace/CRMBuilds/TZ.BF.4.0.3.c1-00005-M8996AAAAANAZT-1_20170110_230814/b/HK11/trustzone_images/core/securemsm/trustzone/qsapps/libs/applib/qsee/build/fidosui/scorpion/IADAANAA/tzapp_entrylib.lib(qsee_appmessage.o)
 .debug_frame   0x000020e4      0x1a0 /local/mnt/workspace/CRMBuilds/TZ.BF.4.0.3.c1-00005-M8996AAAAANAZT-1_20170110_230814/b/HK11/trustzone_images/core/securemsm/trustzone/qsapps/libs/applib/qsee/build/fidosui/scorpion/IADAANAA/tzapp_entrylib.lib(sfs_api.o)
 .debug_frame   0x00002284      0x19c /local/mnt/workspace/CRMBuilds/TZ.BF.4.0.3.c1-00005-M8996AAAAANAZT-1_20170110_230814/b/HK11/trustzone_images/apps/securemsm/trustzone/qsapps/fidosui/layouts/build/fidosui/scorpion/IADAANAA/secure_ui_layout.lib(layout_8996_fluid.o)
 .debug_frame   0x00002420      0x144 /local/mnt/workspace/CRMBuilds/TZ.BF.4.0.3.c1-00005-M8996AAAAANAZT-1_20170110_230814/b/HK11/trustzone_images/core/securemsm/sse/SecureTouch/layout/build/fidosui/scorpion/IADAANAA/sklayout.lib(layoutUtils.o)
 .debug_frame   0x00002564      0x9b0 /local/mnt/workspace/CRMBuilds/TZ.BF.4.0.3.c1-00005-M8996AAAAANAZT-1_20170110_230814/b/HK11/trustzone_images/core/securemsm/sse/qsee/SecureDisplay/libgd/build/fidosui/scorpion/IADAANAA/libgd.lib(gd.o)
 .debug_frame   0x00002f14       0x34 /local/mnt/workspace/CRMBuilds/TZ.BF.4.0.3.c1-00005-M8996AAAAANAZT-1_20170110_230814/b/HK11/trustzone_images/core/securemsm/sse/qsee/SecureDisplay/libgd/build/fidosui/scorpion/IADAANAA/libgd.lib(gd_color.o)
 .debug_frame   0x00002f48       0x2c /local/mnt/workspace/CRMBuilds/TZ.BF.4.0.3.c1-00005-M8996AAAAANAZT-1_20170110_230814/b/HK11/trustzone_images/core/securemsm/sse/qsee/SecureDisplay/libgd/build/fidosui/scorpion/IADAANAA/libgd.lib(gd_security.o)
 .debug_frame   0x00002f74      0x21c /local/mnt/workspace/CRMBuilds/TZ.BF.4.0.3.c1-00005-M8996AAAAANAZT-1_20170110_230814/b/HK11/trustzone_images/core/securemsm/sse/qsee/SecureDisplay/libpng/build/fidosui/scorpion/IADAANAA/libpng.lib(png.o)
 .debug_frame   0x00003190       0x90 /local/mnt/workspace/CRMBuilds/TZ.BF.4.0.3.c1-00005-M8996AAAAANAZT-1_20170110_230814/b/HK11/trustzone_images/core/securemsm/sse/qsee/SecureDisplay/libpng/build/fidosui/scorpion/IADAANAA/libpng.lib(pngerror.o)
 .debug_frame   0x00003220       0x94 /local/mnt/workspace/CRMBuilds/TZ.BF.4.0.3.c1-00005-M8996AAAAANAZT-1_20170110_230814/b/HK11/trustzone_images/core/securemsm/sse/qsee/SecureDisplay/libpng/build/fidosui/scorpion/IADAANAA/libpng.lib(pngget.o)
 .debug_frame   0x000032b4      0x100 /local/mnt/workspace/CRMBuilds/TZ.BF.4.0.3.c1-00005-M8996AAAAANAZT-1_20170110_230814/b/HK11/trustzone_images/core/securemsm/sse/qsee/SecureDisplay/libpng/build/fidosui/scorpion/IADAANAA/libpng.lib(pngmem.o)
 .debug_frame   0x000033b4      0x1a0 /local/mnt/workspace/CRMBuilds/TZ.BF.4.0.3.c1-00005-M8996AAAAANAZT-1_20170110_230814/b/HK11/trustzone_images/core/securemsm/sse/qsee/SecureDisplay/libpng/build/fidosui/scorpion/IADAANAA/libpng.lib(pngread.o)
 .debug_frame   0x00003554       0x3c /local/mnt/workspace/CRMBuilds/TZ.BF.4.0.3.c1-00005-M8996AAAAANAZT-1_20170110_230814/b/HK11/trustzone_images/core/securemsm/sse/qsee/SecureDisplay/libpng/build/fidosui/scorpion/IADAANAA/libpng.lib(pngrio.o)
 .debug_frame   0x00003590      0x2f4 /local/mnt/workspace/CRMBuilds/TZ.BF.4.0.3.c1-00005-M8996AAAAANAZT-1_20170110_230814/b/HK11/trustzone_images/core/securemsm/sse/qsee/SecureDisplay/libpng/build/fidosui/scorpion/IADAANAA/libpng.lib(pngrutil.o)
 .debug_frame   0x00003884       0x84 /local/mnt/workspace/CRMBuilds/TZ.BF.4.0.3.c1-00005-M8996AAAAANAZT-1_20170110_230814/b/HK11/trustzone_images/core/securemsm/sse/qsee/SecureDisplay/libpng/build/fidosui/scorpion/IADAANAA/libpng.lib(pngset.o)
 .debug_frame   0x00003908       0xc8 /local/mnt/workspace/CRMBuilds/TZ.BF.4.0.3.c1-00005-M8996AAAAANAZT-1_20170110_230814/b/HK11/trustzone_images/core/securemsm/sse/qsee/SecureDisplay/zlib/build/fidosui/scorpion/IADAANAA/zlib.lib(crc32.o)
 .debug_frame   0x000039d0      0x200 /local/mnt/workspace/CRMBuilds/TZ.BF.4.0.3.c1-00005-M8996AAAAANAZT-1_20170110_230814/b/HK11/trustzone_images/core/securemsm/sse/qsee/SecureDisplay/zlib/build/fidosui/scorpion/IADAANAA/zlib.lib(inflate.o)
 .debug_frame   0x00003bd0       0x3c /local/mnt/workspace/CRMBuilds/TZ.BF.4.0.3.c1-00005-M8996AAAAANAZT-1_20170110_230814/b/HK11/trustzone_images/core/securemsm/sse/qsee/SecureDisplay/zlib/build/fidosui/scorpion/IADAANAA/zlib.lib(inftrees.o)
 .debug_frame   0x00003c0c       0x70 /local/mnt/workspace/CRMBuilds/TZ.BF.4.0.3.c1-00005-M8996AAAAANAZT-1_20170110_230814/b/HK11/trustzone_images/core/securemsm/sse/qsee/SecureDisplay/zlib/build/fidosui/scorpion/IADAANAA/zlib.lib(zutil.o)
 .debug_frame   0x00003c7c       0x74 /local/mnt/workspace/CRMBuilds/TZ.BF.4.0.3.c1-00005-M8996AAAAANAZT-1_20170110_230814/b/HK11/trustzone_images/core/securemsm/sse/qsee/SecureDisplay/zlib/build/fidosui/scorpion/IADAANAA/zlib.lib(adler32.o)
 .debug_frame   0x00003cf0       0x38 /local/mnt/workspace/CRMBuilds/TZ.BF.4.0.3.c1-00005-M8996AAAAANAZT-1_20170110_230814/b/HK11/trustzone_images/core/securemsm/sse/qsee/SecureDisplay/zlib/build/fidosui/scorpion/IADAANAA/zlib.lib(inffast.o)
 .debug_frame   0x00003d28       0x38 /local/mnt/workspace/CRMBuilds/TZ.BF.4.0.3.c1-00005-M8996AAAAANAZT-1_20170110_230814/b/HK11/trustzone_images/core/securemsm/sse/qsee/SecureTouch/drTs/lib/build/fidosui/scorpion/IADAANAA/touch_lib.lib(01_open.o)
 .debug_frame   0x00003d60       0x34 /local/mnt/workspace/CRMBuilds/TZ.BF.4.0.3.c1-00005-M8996AAAAANAZT-1_20170110_230814/b/HK11/trustzone_images/core/securemsm/sse/qsee/SecureTouch/drTs/lib/build/fidosui/scorpion/IADAANAA/touch_lib.lib(02_close.o)
 .debug_frame   0x00003d94       0x60 /local/mnt/workspace/CRMBuilds/TZ.BF.4.0.3.c1-00005-M8996AAAAANAZT-1_20170110_230814/b/HK11/trustzone_images/core/securemsm/sse/qsee/SecureTouch/drTs/lib/build/fidosui/scorpion/IADAANAA/touch_lib.lib(03_getData.o)
 .debug_frame   0x00003df4      0x134 /local/mnt/workspace/CRMBuilds/TZ.BF.4.0.3.c1-00005-M8996AAAAANAZT-1_20170110_230814/b/HK11/trustzone_images/core/securemsm/trustzone/qsapps/libs/applib/common_applib/build/fidosui/scorpion/IADAANAA/tzapp_entrylib.lib(gpPersistObjCommon.o)
 .debug_frame   0x00003f28      0x1ec /local/mnt/workspace/CRMBuilds/TZ.BF.4.0.3.c1-00005-M8996AAAAANAZT-1_20170110_230814/b/HK11/trustzone_images/core/securemsm/trustzone/qsapps/libs/applib/common_applib/build/fidosui/scorpion/IADAANAA/tzapp_entrylib.lib(gpPersistentObjects.o)
 .debug_frame   0x00004114      0x2c0 /local/mnt/workspace/CRMBuilds/TZ.BF.4.0.3.c1-00005-M8996AAAAANAZT-1_20170110_230814/b/HK11/trustzone_images/core/securemsm/trustzone/qsapps/libs/applib/common_applib/build/fidosui/scorpion/IADAANAA/tzapp_entrylib.lib(gpPersistObjData.o)
 .debug_frame   0x000043d4      0x110 /local/mnt/workspace/CRMBuilds/TZ.BF.4.0.3.c1-00005-M8996AAAAANAZT-1_20170110_230814/b/HK11/trustzone_images/core/securemsm/trustzone/qsapps/libs/applib/common_applib/build/fidosui/scorpion/IADAANAA/tzapp_entrylib.lib(gpPersistObjHandler.o)
 .debug_frame   0x000044e4      0x1dc /local/mnt/workspace/CRMBuilds/TZ.BF.4.0.3.c1-00005-M8996AAAAANAZT-1_20170110_230814/b/HK11/trustzone_images/core/securemsm/trustzone/qsapps/libs/applib/common_applib/build/fidosui/scorpion/IADAANAA/tzapp_entrylib.lib(gpPersistObjIndex.o)
 .debug_frame   0x000046c0      0x168 /local/mnt/workspace/CRMBuilds/TZ.BF.4.0.3.c1-00005-M8996AAAAANAZT-1_20170110_230814/b/HK11/trustzone_images/core/securemsm/trustzone/qsapps/libs/applib/common_applib/build/fidosui/scorpion/IADAANAA/tzapp_entrylib.lib(gpPersistObjVersion.o)
 .debug_frame   0x00004828      0x11c /local/mnt/workspace/CRMBuilds/TZ.BF.4.0.3.c1-00005-M8996AAAAANAZT-1_20170110_230814/b/HK11/trustzone_images/core/securemsm/trustzone/qsapps/libs/applib/common_applib/build/fidosui/scorpion/IADAANAA/tzapp_entrylib.lib(gpPersistObjCrypto.o)
 .debug_frame   0x00004944      0x11c /local/mnt/workspace/CRMBuilds/TZ.BF.4.0.3.c1-00005-M8996AAAAANAZT-1_20170110_230814/b/HK11/trustzone_images/core/securemsm/trustzone/qsapps/libs/applib/common_applib/build/fidosui/scorpion/IADAANAA/tzapp_entrylib.lib(gpPersistObjFileIO.o)
 .debug_frame   0x00004a60       0xb8 /local/mnt/workspace/CRMBuilds/TZ.BF.4.0.3.c1-00005-M8996AAAAANAZT-1_20170110_230814/b/HK11/trustzone_images/core/securemsm/trustzone/qsapps/libs/applib/common_applib/build/fidosui/scorpion/IADAANAA/tzapp_entrylib.lib(gpFileService.o)
 .debug_frame   0x00004b18      0x168 /local/mnt/workspace/CRMBuilds/TZ.BF.4.0.3.c1-00005-M8996AAAAANAZT-1_20170110_230814/b/HK11/trustzone_images/core/securemsm/trustzone/qsapps/libs/applib/qsee/build/fidosui/scorpion/IADAANAA/tzapp_entrylib.lib(qsee_core_shim.o)
 .debug_frame   0x00004c80       0xd0 /local/mnt/workspace/CRMBuilds/TZ.BF.4.0.3.c1-00005-M8996AAAAANAZT-1_20170110_230814/b/HK11/trustzone_images/core/securemsm/trustzone/qsapps/libs/applib/qsee/build/fidosui/scorpion/IADAANAA/tzapp_entrylib.lib(stor.o)
 .debug_frame   0x00004d50      0x22c /local/mnt/workspace/CRMBuilds/TZ.BF.4.0.3.c1-00005-M8996AAAAANAZT-1_20170110_230814/b/HK11/trustzone_images/core/securemsm/trustzone/qsapps/libs/applib/qsee/build/fidosui/scorpion/IADAANAA/tzapp_entrylib.lib(stor_gpt.o)
 .debug_frame   0x00004f7c      0x128 /local/mnt/workspace/CRMBuilds/TZ.BF.4.0.3.c1-00005-M8996AAAAANAZT-1_20170110_230814/b/HK11/trustzone_images/core/securemsm/trustzone/qsapps/libs/applib/qsee/build/fidosui/scorpion/IADAANAA/tzapp_entrylib.lib(stor_rpmbw.o)
 .debug_frame   0x000050a4       0x2c /local/mnt/workspace/CRMBuilds/TZ.BF.4.0.3.c1-00005-M8996AAAAANAZT-1_20170110_230814/b/HK11/trustzone_images/core/securemsm/trustzone/qsapps/libs/applib/qsee/build/fidosui/scorpion/IADAANAA/tzapp_entrylib.lib(qsee_cfg_prop_shim.o)
 .debug_frame   0x000050d0      0x12c /local/mnt/workspace/CRMBuilds/TZ.BF.4.0.3.c1-00005-M8996AAAAANAZT-1_20170110_230814/b/HK11/trustzone_images/core/securemsm/trustzone/qsapps/libs/applib/qsee/build/fidosui/scorpion/IADAANAA/tzapp_entrylib.lib(qsee_cipher.o)
 .debug_frame   0x000051fc      0x110 /local/mnt/workspace/CRMBuilds/TZ.BF.4.0.3.c1-00005-M8996AAAAANAZT-1_20170110_230814/b/HK11/trustzone_images/core/securemsm/trustzone/qsapps/libs/applib/qsee/build/fidosui/scorpion/IADAANAA/tzapp_entrylib.lib(qsee_hmac.o)
 .debug_frame   0x0000530c       0x30 /local/mnt/workspace/CRMBuilds/TZ.BF.4.0.3.c1-00005-M8996AAAAANAZT-1_20170110_230814/b/HK11/trustzone_images/core/securemsm/trustzone/qsapps/libs/applib/qsee/build/fidosui/scorpion/IADAANAA/tzapp_entrylib.lib(gpPersistObjPanic.o)
 .debug_frame   0x0000533c       0x28 /local/mnt/workspace/CRMBuilds/TZ.BF.4.0.3.c1-00005-M8996AAAAANAZT-1_20170110_230814/b/HK11/trustzone_images/core/kernel/libstd/build/fidosui/scorpion/IADAANAA/libstd.lib(timesafe_memcmp.o)
 .debug_frame   0x00005364      0x14c /local/mnt/workspace/CRMBuilds/TZ.BF.4.0.3.c1-00005-M8996AAAAANAZT-1_20170110_230814/b/HK11/trustzone_images/core/securemsm/sse/SecureTouch/controller/build/fidosui/scorpion/IADAANAA/drts_controller_msm8996.lib(atmel_mxt_ts.o)
 .debug_frame   0x000054b0       0xdc /local/mnt/workspace/CRMBuilds/TZ.BF.4.0.3.c1-00005-M8996AAAAANAZT-1_20170110_230814/b/HK11/trustzone_images/core/securemsm/sse/SecureTouch/controller/build/fidosui/scorpion/IADAANAA/drts_controller_msm8996.lib(synaptics_ts.o)
 .debug_frame   0x0000558c       0x84 /local/mnt/workspace/CRMBuilds/TZ.BF.4.0.3.c1-00005-M8996AAAAANAZT-1_20170110_230814/b/HK11/trustzone_images/core/securemsm/sse/qsee/SecureTouch/drTs/controller/build/fidosui/scorpion/IADAANAA/touch_controller_i2c_msm8996.lib(atmel_mxt_ts_i2c.o)
 .debug_frame   0x00005610       0x9c /local/mnt/workspace/CRMBuilds/TZ.BF.4.0.3.c1-00005-M8996AAAAANAZT-1_20170110_230814/b/HK11/trustzone_images/core/securemsm/sse/qsee/SecureTouch/drTs/controller/build/fidosui/scorpion/IADAANAA/touch_controller_i2c_msm8996.lib(synaptics_ts_i2c.o)
 .debug_frame   0x000056ac       0xc4 /local/mnt/workspace/CRMBuilds/TZ.BF.4.0.3.c1-00005-M8996AAAAANAZT-1_20170110_230814/b/HK11/trustzone_images/core/securemsm/trustzone/qsapps/libs/applib/qsee/build/fidosui/scorpion/IADAANAA/tzapp_entrylib.lib(qsee_i2c.o)
