Archive member included because of file (symbol)

/local/mnt/workspace/CRMBuilds/TZ.BF.4.0.3.c1-00005-M8996AAAAANAZT-1_20170110_230814/b/HK11/trustzone_images/core/kernel/libstd/build/secure_ui_sample/scorpion/IADAANAA/libstd.lib(memscpy.o)
                              /local/mnt/workspace/CRMBuilds/TZ.BF.4.0.3.c1-00005-M8996AAAAANAZT-1_20170110_230814/b/HK11/trustzone_images/apps/securemsm/trustzone/qsapps/secure_ui_sample/build/secure_ui_sample/scorpion/IADAANAA/app_main.o (memscpy)
/local/mnt/workspace/CRMBuilds/TZ.BF.4.0.3.c1-00005-M8996AAAAANAZT-1_20170110_230814/b/HK11/trustzone_images/core/kernel/libstd/build/secure_ui_sample/scorpion/IADAANAA/libstd.lib(strlcat.o)
                              /local/mnt/workspace/CRMBuilds/TZ.BF.4.0.3.c1-00005-M8996AAAAANAZT-1_20170110_230814/b/HK11/trustzone_images/apps/securemsm/trustzone/qsapps/secure_ui_sample/build/secure_ui_sample/scorpion/IADAANAA/app_main.o (strlcat)
/local/mnt/workspace/CRMBuilds/TZ.BF.4.0.3.c1-00005-M8996AAAAANAZT-1_20170110_230814/b/HK11/trustzone_images/core/kernel/libstd/build/secure_ui_sample/scorpion/IADAANAA/libstd.lib(strlcpy.o)
                              /local/mnt/workspace/CRMBuilds/TZ.BF.4.0.3.c1-00005-M8996AAAAANAZT-1_20170110_230814/b/HK11/trustzone_images/apps/securemsm/trustzone/qsapps/secure_ui_sample/build/secure_ui_sample/scorpion/IADAANAA/app_main.o (strlcpy)
/local/mnt/workspace/CRMBuilds/TZ.BF.4.0.3.c1-00005-M8996AAAAANAZT-1_20170110_230814/b/HK11/trustzone_images/core/securemsm/sse/qsee/SecureUI/build/secure_ui_sample/scorpion/IADAANAA/secure_ui.lib(SecureUI.o)
                              /local/mnt/workspace/CRMBuilds/TZ.BF.4.0.3.c1-00005-M8996AAAAANAZT-1_20170110_230814/b/HK11/trustzone_images/apps/securemsm/trustzone/qsapps/secure_ui_sample/build/secure_ui_sample/scorpion/IADAANAA/app_main.o (sec_ui_alloc_app_buffer)
/local/mnt/workspace/CRMBuilds/TZ.BF.4.0.3.c1-00005-M8996AAAAANAZT-1_20170110_230814/b/HK11/trustzone_images/core/securemsm/sse/qsee/SecureUI/build/secure_ui_sample/scorpion/IADAANAA/secure_ui_tui.lib(qsee_tui_dialogs.o)
                              /local/mnt/workspace/CRMBuilds/TZ.BF.4.0.3.c1-00005-M8996AAAAANAZT-1_20170110_230814/b/HK11/trustzone_images/apps/securemsm/trustzone/qsapps/secure_ui_sample/build/secure_ui_sample/scorpion/IADAANAA/app_main.o (qsee_tui_dialog)
/local/mnt/workspace/CRMBuilds/TZ.BF.4.0.3.c1-00005-M8996AAAAANAZT-1_20170110_230814/b/HK11/trustzone_images/core/securemsm/sse/qsee/SecureUI/build/secure_ui_sample/scorpion/IADAANAA/secure_ui_tui.lib(layout_manager.o)
                              /local/mnt/workspace/CRMBuilds/TZ.BF.4.0.3.c1-00005-M8996AAAAANAZT-1_20170110_230814/b/HK11/trustzone_images/core/securemsm/sse/qsee/SecureUI/build/secure_ui_sample/scorpion/IADAANAA/secure_ui_tui.lib(qsee_tui_dialogs.o) (layout_mgr_clear_input_buffer)
/local/mnt/workspace/CRMBuilds/TZ.BF.4.0.3.c1-00005-M8996AAAAANAZT-1_20170110_230814/b/HK11/trustzone_images/core/securemsm/sse/qsee/SecureUI/build/secure_ui_sample/scorpion/IADAANAA/secure_ui_tui.lib(secure_display_renderer.o)
                              /local/mnt/workspace/CRMBuilds/TZ.BF.4.0.3.c1-00005-M8996AAAAANAZT-1_20170110_230814/b/HK11/trustzone_images/core/securemsm/sse/qsee/SecureUI/build/secure_ui_sample/scorpion/IADAANAA/secure_ui_tui.lib(layout_manager.o) (get_utf8_len)
/local/mnt/workspace/CRMBuilds/TZ.BF.4.0.3.c1-00005-M8996AAAAANAZT-1_20170110_230814/b/HK11/trustzone_images/core/securemsm/sse/qsee/SecureUI/build/secure_ui_sample/scorpion/IADAANAA/secure_ui_tui.lib(font_manager.o)
                              /local/mnt/workspace/CRMBuilds/TZ.BF.4.0.3.c1-00005-M8996AAAAANAZT-1_20170110_230814/b/HK11/trustzone_images/core/securemsm/sse/qsee/SecureUI/build/secure_ui_sample/scorpion/IADAANAA/secure_ui_tui.lib(secure_display_renderer.o) (font_mgr_prepare_gdfont)
/local/mnt/workspace/CRMBuilds/TZ.BF.4.0.3.c1-00005-M8996AAAAANAZT-1_20170110_230814/b/HK11/trustzone_images/core/securemsm/sse/qsee/SecureUILib/lib/build/secure_ui_sample/scorpion/IADAANAA/secure_ui_lib.lib(SecureUILib.o)
                              /local/mnt/workspace/CRMBuilds/TZ.BF.4.0.3.c1-00005-M8996AAAAANAZT-1_20170110_230814/b/HK11/trustzone_images/apps/securemsm/trustzone/qsapps/secure_ui_sample/build/secure_ui_sample/scorpion/IADAANAA/app_main.o (secUiProcessCmd)
/local/mnt/workspace/CRMBuilds/TZ.BF.4.0.3.c1-00005-M8996AAAAANAZT-1_20170110_230814/b/HK11/trustzone_images/core/securemsm/sse/qsee/SecureUILib/lib/build/secure_ui_sample/scorpion/IADAANAA/secure_ui_lib.lib(01_startTouch.o)
                              /local/mnt/workspace/CRMBuilds/TZ.BF.4.0.3.c1-00005-M8996AAAAANAZT-1_20170110_230814/b/HK11/trustzone_images/core/securemsm/sse/qsee/SecureUILib/lib/build/secure_ui_sample/scorpion/IADAANAA/secure_ui_lib.lib(SecureUILib.o) (processCmdStartTouch)
/local/mnt/workspace/CRMBuilds/TZ.BF.4.0.3.c1-00005-M8996AAAAANAZT-1_20170110_230814/b/HK11/trustzone_images/core/securemsm/sse/qsee/SecureUILib/lib/build/secure_ui_sample/scorpion/IADAANAA/secure_ui_lib.lib(02_processTouch.o)
                              /local/mnt/workspace/CRMBuilds/TZ.BF.4.0.3.c1-00005-M8996AAAAANAZT-1_20170110_230814/b/HK11/trustzone_images/core/securemsm/sse/qsee/SecureUILib/lib/build/secure_ui_sample/scorpion/IADAANAA/secure_ui_lib.lib(SecureUILib.o) (processCmdProcessTouch)
/local/mnt/workspace/CRMBuilds/TZ.BF.4.0.3.c1-00005-M8996AAAAANAZT-1_20170110_230814/b/HK11/trustzone_images/core/securemsm/sse/qsee/SecureUILib/lib/build/secure_ui_sample/scorpion/IADAANAA/secure_ui_lib.lib(03_stopTouch.o)
                              /local/mnt/workspace/CRMBuilds/TZ.BF.4.0.3.c1-00005-M8996AAAAANAZT-1_20170110_230814/b/HK11/trustzone_images/core/securemsm/sse/qsee/SecureUILib/lib/build/secure_ui_sample/scorpion/IADAANAA/secure_ui_lib.lib(SecureUILib.o) (processCmdStopTouch)
/local/mnt/workspace/CRMBuilds/TZ.BF.4.0.3.c1-00005-M8996AAAAANAZT-1_20170110_230814/b/HK11/trustzone_images/core/securemsm/sse/qsee/SecureUILib/lib/build/secure_ui_sample/scorpion/IADAANAA/secure_ui_lib.lib(04_prepareRequest.o)
                              /local/mnt/workspace/CRMBuilds/TZ.BF.4.0.3.c1-00005-M8996AAAAANAZT-1_20170110_230814/b/HK11/trustzone_images/core/securemsm/sse/qsee/SecureUILib/lib/build/secure_ui_sample/scorpion/IADAANAA/secure_ui_lib.lib(SecureUILib.o) (processCmdPrepareRequest)
/local/mnt/workspace/CRMBuilds/TZ.BF.4.0.3.c1-00005-M8996AAAAANAZT-1_20170110_230814/b/HK11/trustzone_images/core/securemsm/sse/qsee/SecureUILib/lib/build/secure_ui_sample/scorpion/IADAANAA/secure_ui_lib.lib(05_storeIndicator.o)
                              /local/mnt/workspace/CRMBuilds/TZ.BF.4.0.3.c1-00005-M8996AAAAANAZT-1_20170110_230814/b/HK11/trustzone_images/core/securemsm/sse/qsee/SecureUILib/lib/build/secure_ui_sample/scorpion/IADAANAA/secure_ui_lib.lib(SecureUILib.o) (processCmdStoreIndicator)
/local/mnt/workspace/CRMBuilds/TZ.BF.4.0.3.c1-00005-M8996AAAAANAZT-1_20170110_230814/b/HK11/trustzone_images/core/securemsm/trustzone/qsapps/libs/applib/common_applib/build/secure_ui_sample/scorpion/IADAANAA/tzapp_entrylib.lib(common_applib.o)
                              /local/mnt/workspace/CRMBuilds/TZ.BF.4.0.3.c1-00005-M8996AAAAANAZT-1_20170110_230814/b/HK11/trustzone_images/apps/securemsm/trustzone/qsapps/secure_ui_sample/build/secure_ui_sample/scorpion/IADAANAA/app_main.o (__stack_chk_fail)
/local/mnt/workspace/CRMBuilds/TZ.BF.4.0.3.c1-00005-M8996AAAAANAZT-1_20170110_230814/b/HK11/trustzone_images/core/securemsm/trustzone/qsapps/libs/applib/proxy/build/secure_ui_sample/scorpion/IADAANAA/tzlib_proxy.lib(prxy_services.o)
                              /local/mnt/workspace/CRMBuilds/TZ.BF.4.0.3.c1-00005-M8996AAAAANAZT-1_20170110_230814/b/HK11/trustzone_images/apps/securemsm/trustzone/qsapps/secure_ui_sample/build/secure_ui_sample/scorpion/IADAANAA/app_main.o (close)
/local/mnt/workspace/CRMBuilds/TZ.BF.4.0.3.c1-00005-M8996AAAAANAZT-1_20170110_230814/b/HK11/trustzone_images/core/securemsm/trustzone/qsapps/libs/applib/proxy/build/secure_ui_sample/scorpion/IADAANAA/tzlib_proxy.lib(prxy_qsee_shim.o)
                              /local/mnt/workspace/CRMBuilds/TZ.BF.4.0.3.c1-00005-M8996AAAAANAZT-1_20170110_230814/b/HK11/trustzone_images/core/securemsm/sse/qsee/SecureUI/build/secure_ui_sample/scorpion/IADAANAA/secure_ui_tui.lib(font_manager.o) (qsee_BIGINT_read_unsigned_bin)
/local/mnt/workspace/CRMBuilds/TZ.BF.4.0.3.c1-00005-M8996AAAAANAZT-1_20170110_230814/b/HK11/trustzone_images/core/securemsm/trustzone/qsapps/libs/applib/proxy/build/secure_ui_sample/scorpion/IADAANAA/tzlib_proxy.lib(prxy_ufdes.o)
                              /local/mnt/workspace/CRMBuilds/TZ.BF.4.0.3.c1-00005-M8996AAAAANAZT-1_20170110_230814/b/HK11/trustzone_images/core/securemsm/trustzone/qsapps/libs/applib/proxy/build/secure_ui_sample/scorpion/IADAANAA/tzlib_proxy.lib(prxy_qsee_shim.o) (SW_CipherDESData)
/local/mnt/workspace/CRMBuilds/TZ.BF.4.0.3.c1-00005-M8996AAAAANAZT-1_20170110_230814/b/HK11/trustzone_images/core/securemsm/trustzone/qsapps/libs/applib/proxy/build/secure_ui_sample/scorpion/IADAANAA/tzlib_proxy.lib(prxy_secmath.o)
                              /local/mnt/workspace/CRMBuilds/TZ.BF.4.0.3.c1-00005-M8996AAAAANAZT-1_20170110_230814/b/HK11/trustzone_images/core/securemsm/trustzone/qsapps/libs/applib/proxy/build/secure_ui_sample/scorpion/IADAANAA/tzlib_proxy.lib(prxy_qsee_shim.o) (secmath_BIGINT_read_radix)
/local/mnt/workspace/CRMBuilds/TZ.BF.4.0.3.c1-00005-M8996AAAAANAZT-1_20170110_230814/b/HK11/trustzone_images/core/securemsm/trustzone/qsapps/libs/applib/proxy/build/secure_ui_sample/scorpion/IADAANAA/tzlib_proxy.lib(prxy_secrsa.o)
                              /local/mnt/workspace/CRMBuilds/TZ.BF.4.0.3.c1-00005-M8996AAAAANAZT-1_20170110_230814/b/HK11/trustzone_images/core/securemsm/trustzone/qsapps/libs/applib/proxy/build/secure_ui_sample/scorpion/IADAANAA/tzlib_proxy.lib(prxy_qsee_shim.o) (ce_rsa_decrypt)
/local/mnt/workspace/CRMBuilds/TZ.BF.4.0.3.c1-00005-M8996AAAAANAZT-1_20170110_230814/b/HK11/trustzone_images/core/securemsm/trustzone/qsapps/libs/applib/proxy/build/secure_ui_sample/scorpion/IADAANAA/tzlib_proxy.lib(prxy_ecc.o)
                              /local/mnt/workspace/CRMBuilds/TZ.BF.4.0.3.c1-00005-M8996AAAAANAZT-1_20170110_230814/b/HK11/trustzone_images/core/securemsm/trustzone/qsapps/libs/applib/proxy/build/secure_ui_sample/scorpion/IADAANAA/tzlib_proxy.lib(prxy_qsee_shim.o) (ECC_hash_to_bigval)
/local/mnt/workspace/CRMBuilds/TZ.BF.4.0.3.c1-00005-M8996AAAAANAZT-1_20170110_230814/b/HK11/trustzone_images/core/securemsm/trustzone/qsapps/libs/applib/qsee/build/secure_ui_sample/scorpion/IADAANAA/tzapp_entrylib.lib(mink_shared_code.o)
                              /local/mnt/workspace/CRMBuilds/TZ.BF.4.0.3.c1-00005-M8996AAAAANAZT-1_20170110_230814/b/HK11/trustzone_images/core/securemsm/trustzone/qsapps/libs/applib/common_applib/build/secure_ui_sample/scorpion/IADAANAA/tzapp_entrylib.lib(common_applib.o) (minkIPC)
/local/mnt/workspace/CRMBuilds/TZ.BF.4.0.3.c1-00005-M8996AAAAANAZT-1_20170110_230814/b/HK11/trustzone_images/core/securemsm/trustzone/qsapps/libs/applib/qsee/build/secure_ui_sample/scorpion/IADAANAA/tzapp_entrylib.lib(qsee_env.o)
                              /local/mnt/workspace/CRMBuilds/TZ.BF.4.0.3.c1-00005-M8996AAAAANAZT-1_20170110_230814/b/HK11/trustzone_images/core/securemsm/trustzone/qsapps/libs/applib/common_applib/build/secure_ui_sample/scorpion/IADAANAA/tzapp_entrylib.lib(common_applib.o) (qsee_open)
/local/mnt/workspace/CRMBuilds/TZ.BF.4.0.3.c1-00005-M8996AAAAANAZT-1_20170110_230814/b/HK11/trustzone_images/core/securemsm/trustzone/qsapps/libs/applib/qsee/build/secure_ui_sample/scorpion/IADAANAA/tzapp_entrylib.lib(qsee_prng.o)
                              /local/mnt/workspace/CRMBuilds/TZ.BF.4.0.3.c1-00005-M8996AAAAANAZT-1_20170110_230814/b/HK11/trustzone_images/core/securemsm/sse/qsee/SecureUI/build/secure_ui_sample/scorpion/IADAANAA/secure_ui_tui.lib(layout_manager.o) (qsee_prng_getdata)
/local/mnt/workspace/CRMBuilds/TZ.BF.4.0.3.c1-00005-M8996AAAAANAZT-1_20170110_230814/b/HK11/trustzone_images/core/securemsm/trustzone/qsapps/libs/applib/qsee/build/secure_ui_sample/scorpion/IADAANAA/tzapp_entrylib.lib(qsee_secdisp.o)
                              /local/mnt/workspace/CRMBuilds/TZ.BF.4.0.3.c1-00005-M8996AAAAANAZT-1_20170110_230814/b/HK11/trustzone_images/core/securemsm/sse/qsee/SecureUI/build/secure_ui_sample/scorpion/IADAANAA/secure_ui.lib(SecureUI.o) (qsee_sd_get_session)
/local/mnt/workspace/CRMBuilds/TZ.BF.4.0.3.c1-00005-M8996AAAAANAZT-1_20170110_230814/b/HK11/trustzone_images/core/securemsm/trustzone/qsapps/libs/applib/qsee/build/secure_ui_sample/scorpion/IADAANAA/tzapp_entrylib.lib(qsee_nsmem.o)
                              /local/mnt/workspace/CRMBuilds/TZ.BF.4.0.3.c1-00005-M8996AAAAANAZT-1_20170110_230814/b/HK11/trustzone_images/core/securemsm/sse/qsee/SecureUI/build/secure_ui_sample/scorpion/IADAANAA/secure_ui_tui.lib(font_manager.o) (qsee_is_ns_range)
/local/mnt/workspace/CRMBuilds/TZ.BF.4.0.3.c1-00005-M8996AAAAANAZT-1_20170110_230814/b/HK11/trustzone_images/core/securemsm/trustzone/qsapps/libs/applib/qsee/build/secure_ui_sample/scorpion/IADAANAA/tzapp_entrylib.lib(qsee_timer_shim.o)
                              /local/mnt/workspace/CRMBuilds/TZ.BF.4.0.3.c1-00005-M8996AAAAANAZT-1_20170110_230814/b/HK11/trustzone_images/core/securemsm/sse/qsee/SecureUI/build/secure_ui_sample/scorpion/IADAANAA/secure_ui.lib(SecureUI.o) (qsee_get_uptime)
/local/mnt/workspace/CRMBuilds/TZ.BF.4.0.3.c1-00005-M8996AAAAANAZT-1_20170110_230814/b/HK11/trustzone_images/core/securemsm/trustzone/qsapps/libs/applib/qsee/build/secure_ui_sample/scorpion/IADAANAA/tzapp_entrylib.lib(tzapp_syscall.o)
                              /local/mnt/workspace/CRMBuilds/TZ.BF.4.0.3.c1-00005-M8996AAAAANAZT-1_20170110_230814/b/HK11/trustzone_images/core/securemsm/trustzone/qsapps/libs/applib/qsee/build/secure_ui_sample/scorpion/IADAANAA/src/tzapp_entry.o (app_export_init_info_to_qsee)
/local/mnt/workspace/CRMBuilds/TZ.BF.4.0.3.c1-00005-M8996AAAAANAZT-1_20170110_230814/b/HK11/trustzone_images/core/securemsm/trustzone/qsapps/libs/applib/qsee/build/secure_ui_sample/scorpion/IADAANAA/tzapp_entrylib.lib(qsee_hash.o)
                              /local/mnt/workspace/CRMBuilds/TZ.BF.4.0.3.c1-00005-M8996AAAAANAZT-1_20170110_230814/b/HK11/trustzone_images/core/securemsm/sse/qsee/SecureUI/build/secure_ui_sample/scorpion/IADAANAA/secure_ui_tui.lib(font_manager.o) (qsee_hash)
/local/mnt/workspace/CRMBuilds/TZ.BF.4.0.3.c1-00005-M8996AAAAANAZT-1_20170110_230814/b/HK11/trustzone_images/core/securemsm/trustzone/qsapps/libs/applib/qsee/build/secure_ui_sample/scorpion/IADAANAA/tzapp_entrylib.lib(qsee_shared_buffer.o)
                              /local/mnt/workspace/CRMBuilds/TZ.BF.4.0.3.c1-00005-M8996AAAAANAZT-1_20170110_230814/b/HK11/trustzone_images/core/securemsm/sse/qsee/SecureUI/build/secure_ui_sample/scorpion/IADAANAA/secure_ui.lib(SecureUI.o) (qsee_deregister_shared_buffer)
/local/mnt/workspace/CRMBuilds/TZ.BF.4.0.3.c1-00005-M8996AAAAANAZT-1_20170110_230814/b/HK11/trustzone_images/core/securemsm/trustzone/qsapps/libs/applib/qsee/build/secure_ui_sample/scorpion/IADAANAA/tzapp_entrylib.lib(qsee_appmessage.o)
                              /local/mnt/workspace/CRMBuilds/TZ.BF.4.0.3.c1-00005-M8996AAAAANAZT-1_20170110_230814/b/HK11/trustzone_images/core/securemsm/sse/qsee/SecureUILib/lib/build/secure_ui_sample/scorpion/IADAANAA/secure_ui_lib.lib(05_storeIndicator.o) (qsee_decapsulate_inter_app_message)
/local/mnt/workspace/CRMBuilds/TZ.BF.4.0.3.c1-00005-M8996AAAAANAZT-1_20170110_230814/b/HK11/trustzone_images/core/securemsm/trustzone/qsapps/libs/applib/qsee/build/secure_ui_sample/scorpion/IADAANAA/tzapp_entrylib.lib(sfs_api.o)
                              /local/mnt/workspace/CRMBuilds/TZ.BF.4.0.3.c1-00005-M8996AAAAANAZT-1_20170110_230814/b/HK11/trustzone_images/apps/securemsm/trustzone/qsapps/secure_ui_sample/build/secure_ui_sample/scorpion/IADAANAA/app_main.o (qsee_sfs_close)
/local/mnt/workspace/CRMBuilds/TZ.BF.4.0.3.c1-00005-M8996AAAAANAZT-1_20170110_230814/b/HK11/trustzone_images/core/securemsm/trustzone/qsapps/libs/applib/qsee/build/secure_ui_sample/scorpion/IADAANAA/tzapp_entrylib.lib(tzapp_lib_main.o)
                              /local/mnt/workspace/CRMBuilds/TZ.BF.4.0.3.c1-00005-M8996AAAAANAZT-1_20170110_230814/b/HK11/trustzone_images/core/securemsm/trustzone/qsapps/libs/applib/common_applib/build/secure_ui_sample/scorpion/IADAANAA/tzapp_entrylib.lib(common_applib.o) (CApp_invoke)
/local/mnt/workspace/CRMBuilds/TZ.BF.4.0.3.c1-00005-M8996AAAAANAZT-1_20170110_230814/b/HK11/trustzone_images/core/securemsm/trustzone/qsapps/libs/applib/qsee/build/secure_ui_sample/scorpion/IADAANAA/tzapp_entrylib.lib(kthread_shared.o)
                              /local/mnt/workspace/CRMBuilds/TZ.BF.4.0.3.c1-00005-M8996AAAAANAZT-1_20170110_230814/b/HK11/trustzone_images/core/securemsm/trustzone/qsapps/libs/applib/qsee/build/secure_ui_sample/scorpion/IADAANAA/tzapp_entrylib.lib(mink_shared_code.o) (mink_generic_syscall)
/afs/localcell/cm/gv2.6/sysname/pkg.@sys/qct/software/llvm/release/arm/3.5.2.4/tools/lib32/lib/libc.a(vsnprintf.o)
                              /local/mnt/workspace/CRMBuilds/TZ.BF.4.0.3.c1-00005-M8996AAAAANAZT-1_20170110_230814/b/HK11/trustzone_images/core/securemsm/trustzone/qsapps/libs/applib/proxy/build/secure_ui_sample/scorpion/IADAANAA/tzlib_proxy.lib(prxy_services.o) (vsnprintf)
/afs/localcell/cm/gv2.6/sysname/pkg.@sys/qct/software/llvm/release/arm/3.5.2.4/tools/lib32/lib/libc.a(memcpy.o)
                              /afs/localcell/cm/gv2.6/sysname/pkg.@sys/qct/software/llvm/release/arm/3.5.2.4/tools/lib32/lib/libc.a(vsnprintf.o) (memcpy)
/afs/localcell/cm/gv2.6/sysname/pkg.@sys/qct/software/llvm/release/arm/3.5.2.4/tools/lib32/lib/libc.a(strcmp.o)
                              /local/mnt/workspace/CRMBuilds/TZ.BF.4.0.3.c1-00005-M8996AAAAANAZT-1_20170110_230814/b/HK11/trustzone_images/core/securemsm/sse/qsee/SecureUI/build/secure_ui_sample/scorpion/IADAANAA/secure_ui_tui.lib(qsee_tui_dialogs.o) (strcmp)
/afs/localcell/cm/gv2.6/sysname/pkg.@sys/qct/software/llvm/release/arm/3.5.2.4/tools/lib32/lib/libc.a(strlen.o)
                              /local/mnt/workspace/CRMBuilds/TZ.BF.4.0.3.c1-00005-M8996AAAAANAZT-1_20170110_230814/b/HK11/trustzone_images/core/kernel/libstd/build/secure_ui_sample/scorpion/IADAANAA/libstd.lib(strlcat.o) (strlen)
/afs/localcell/cm/gv2.6/sysname/pkg.@sys/qct/software/llvm/release/arm/3.5.2.4/tools/lib32/lib/libc.a(strncmp.o)
                              /local/mnt/workspace/CRMBuilds/TZ.BF.4.0.3.c1-00005-M8996AAAAANAZT-1_20170110_230814/b/HK11/trustzone_images/core/securemsm/sse/qsee/SecureUI/build/secure_ui_sample/scorpion/IADAANAA/secure_ui_tui.lib(layout_manager.o) (strncmp)
/afs/localcell/cm/gv2.6/sysname/pkg.@sys/qct/software/llvm/release/arm/3.5.2.4/tools/lib32/lib/libc.a(__errno_location.o)
                              /afs/localcell/cm/gv2.6/sysname/pkg.@sys/qct/software/llvm/release/arm/3.5.2.4/tools/lib32/lib/libc.a(vsnprintf.o) (__errno_location)
/afs/localcell/cm/gv2.6/sysname/pkg.@sys/qct/software/llvm/release/arm/3.5.2.4/tools/lib32/lib/libc.a(libc.o)
                              /afs/localcell/cm/gv2.6/sysname/pkg.@sys/qct/software/llvm/release/arm/3.5.2.4/tools/lib32/lib/libc.a(__errno_location.o) (__libc)
/afs/localcell/cm/gv2.6/sysname/pkg.@sys/qct/software/llvm/release/arm/3.5.2.4/tools/lib32/lib/libc.a(vfprintf.o)
                              /afs/localcell/cm/gv2.6/sysname/pkg.@sys/qct/software/llvm/release/arm/3.5.2.4/tools/lib32/lib/libc.a(vsnprintf.o) (vfprintf)
/afs/localcell/cm/gv2.6/sysname/pkg.@sys/qct/software/llvm/release/arm/3.5.2.4/tools/lib32/lib/libc.a(memchr.o)
                              /afs/localcell/cm/gv2.6/sysname/pkg.@sys/qct/software/llvm/release/arm/3.5.2.4/tools/lib32/lib/libc.a(vfprintf.o) (memchr)
/afs/localcell/cm/gv2.6/sysname/pkg.@sys/qct/software/llvm/release/arm/3.5.2.4/tools/lib32/lib/libc.a(memset.o)
                              /afs/localcell/cm/gv2.6/sysname/pkg.@sys/qct/software/llvm/release/arm/3.5.2.4/tools/lib32/lib/libc.a(vfprintf.o) (memset)
/afs/localcell/cm/gv2.6/sysname/pkg.@sys/qct/software/llvm/release/arm/3.5.2.4/tools/lib32/lib/libc.a(strerror.o)
                              /afs/localcell/cm/gv2.6/sysname/pkg.@sys/qct/software/llvm/release/arm/3.5.2.4/tools/lib32/lib/libc.a(vfprintf.o) (strerror)
/afs/localcell/cm/gv2.6/sysname/pkg.@sys/qct/software/llvm/release/arm/3.5.2.4/tools/lib32/lib/libc.a(__lctrans.o)
                              /afs/localcell/cm/gv2.6/sysname/pkg.@sys/qct/software/llvm/release/arm/3.5.2.4/tools/lib32/lib/libc.a(strerror.o) (__lctrans)
/afs/localcell/cm/gv2.6/sysname/pkg.@sys/qct/software/llvm/release/arm/3.5.2.4/tools/lib32/lib/libc.a(frexpl.o)
                              /afs/localcell/cm/gv2.6/sysname/pkg.@sys/qct/software/llvm/release/arm/3.5.2.4/tools/lib32/lib/libc.a(vfprintf.o) (frexpl)
/afs/localcell/cm/gv2.6/sysname/pkg.@sys/qct/software/llvm/release/arm/3.5.2.4/tools/lib32/lib/libc.a(wctomb.o)
                              /afs/localcell/cm/gv2.6/sysname/pkg.@sys/qct/software/llvm/release/arm/3.5.2.4/tools/lib32/lib/libc.a(vfprintf.o) (wctomb)
/afs/localcell/cm/gv2.6/sysname/pkg.@sys/qct/software/llvm/release/arm/3.5.2.4/tools/lib32/lib/libc.a(__lockfile.o)
                              /afs/localcell/cm/gv2.6/sysname/pkg.@sys/qct/software/llvm/release/arm/3.5.2.4/tools/lib32/lib/libc.a(vfprintf.o) (__lockfile)
/afs/localcell/cm/gv2.6/sysname/pkg.@sys/qct/software/llvm/release/arm/3.5.2.4/tools/lib32/lib/libc.a(fwrite.o)
                              /afs/localcell/cm/gv2.6/sysname/pkg.@sys/qct/software/llvm/release/arm/3.5.2.4/tools/lib32/lib/libc.a(vfprintf.o) (__fwritex)
/afs/localcell/cm/gv2.6/sysname/pkg.@sys/qct/software/llvm/release/arm/3.5.2.4/tools/lib32/lib/libc.a(__wait.o)
                              /afs/localcell/cm/gv2.6/sysname/pkg.@sys/qct/software/llvm/release/arm/3.5.2.4/tools/lib32/lib/libc.a(__lockfile.o) (__wait)
/afs/localcell/cm/gv2.6/sysname/pkg.@sys/qct/software/llvm/release/arm/3.5.2.4/tools/lib32/lib/libc.a(syscall.o)
                              /afs/localcell/cm/gv2.6/sysname/pkg.@sys/qct/software/llvm/release/arm/3.5.2.4/tools/lib32/lib/libc.a(__lockfile.o) (__syscall)
/afs/localcell/cm/gv2.6/sysname/pkg.@sys/qct/software/llvm/release/arm/3.5.2.4/tools/lib32/lib/libc.a(frexp.o)
                              /afs/localcell/cm/gv2.6/sysname/pkg.@sys/qct/software/llvm/release/arm/3.5.2.4/tools/lib32/lib/libc.a(frexpl.o) (frexp)
/afs/localcell/cm/gv2.6/sysname/pkg.@sys/qct/software/llvm/release/arm/3.5.2.4/tools/lib32/lib/libc.a(wcrtomb.o)
                              /afs/localcell/cm/gv2.6/sysname/pkg.@sys/qct/software/llvm/release/arm/3.5.2.4/tools/lib32/lib/libc.a(wctomb.o) (wcrtomb)
/afs/localcell/cm/gv2.6/sysname/pkg.@sys/qct/software/llvm/release/arm/3.5.2.4/tools/lib32/lib/libc.a(__towrite.o)
                              /afs/localcell/cm/gv2.6/sysname/pkg.@sys/qct/software/llvm/release/arm/3.5.2.4/tools/lib32/lib/libc.a(fwrite.o) (__towrite)
/afs/localcell/cm/gv2.6/sysname/pkg.@sys/qct/software/llvm/release/arm/3.5.2.4/tools/lib32/lib/libc.a(__stdio_exit.o)
                              /afs/localcell/cm/gv2.6/sysname/pkg.@sys/qct/software/llvm/release/arm/3.5.2.4/tools/lib32/lib/libc.a(__towrite.o) (__stdio_exit_needed)
/afs/localcell/cm/gv2.6/sysname/pkg.@sys/qct/software/llvm/release/arm/3.5.2.4/tools/lib32/lib/libc.a(__lock.o)
                              /afs/localcell/cm/gv2.6/sysname/pkg.@sys/qct/software/llvm/release/arm/3.5.2.4/tools/lib32/lib/libc.a(__stdio_exit.o) (__lock)
/afs/localcell/cm/gv2.6/sysname/pkg.@sys/qct/software/llvm/release/arm/3.5.2.4/lib/clang/3.5.2/lib/linux/libclang_rt.builtins-arm.a(aeabi_dcmp.S.o)
                              /local/mnt/workspace/CRMBuilds/TZ.BF.4.0.3.c1-00005-M8996AAAAANAZT-1_20170110_230814/b/HK11/trustzone_images/core/securemsm/sse/qsee/SecureUI/build/secure_ui_sample/scorpion/IADAANAA/secure_ui_tui.lib(secure_display_renderer.o) (__aeabi_dcmplt)
/afs/localcell/cm/gv2.6/sysname/pkg.@sys/qct/software/llvm/release/arm/3.5.2.4/lib/clang/3.5.2/lib/linux/libclang_rt.builtins-arm.a(aeabi_memcpy.S.o)
                              /local/mnt/workspace/CRMBuilds/TZ.BF.4.0.3.c1-00005-M8996AAAAANAZT-1_20170110_230814/b/HK11/trustzone_images/core/kernel/libstd/build/secure_ui_sample/scorpion/IADAANAA/libstd.lib(memscpy.o) (__aeabi_memcpy)
/afs/localcell/cm/gv2.6/sysname/pkg.@sys/qct/software/llvm/release/arm/3.5.2.4/lib/clang/3.5.2/lib/linux/libclang_rt.builtins-arm.a(aeabi_memset.S.o)
                              /local/mnt/workspace/CRMBuilds/TZ.BF.4.0.3.c1-00005-M8996AAAAANAZT-1_20170110_230814/b/HK11/trustzone_images/apps/securemsm/trustzone/qsapps/secure_ui_sample/build/secure_ui_sample/scorpion/IADAANAA/app_main.o (__aeabi_memset)
/afs/localcell/cm/gv2.6/sysname/pkg.@sys/qct/software/llvm/release/arm/3.5.2.4/lib/clang/3.5.2/lib/linux/libclang_rt.builtins-arm.a(aeabi_uldivmod.S.o)
                              /afs/localcell/cm/gv2.6/sysname/pkg.@sys/qct/software/llvm/release/arm/3.5.2.4/tools/lib32/lib/libc.a(vfprintf.o) (__aeabi_uldivmod)
/afs/localcell/cm/gv2.6/sysname/pkg.@sys/qct/software/llvm/release/arm/3.5.2.4/lib/clang/3.5.2/lib/linux/libclang_rt.builtins-arm.a(comparedf2.c.o)
                              /afs/localcell/cm/gv2.6/sysname/pkg.@sys/qct/software/llvm/release/arm/3.5.2.4/lib/clang/3.5.2/lib/linux/libclang_rt.builtins-arm.a(aeabi_dcmp.S.o) (__eqdf2)
/afs/localcell/cm/gv2.6/sysname/pkg.@sys/qct/software/llvm/release/arm/3.5.2.4/lib/clang/3.5.2/lib/linux/libclang_rt.builtins-arm.a(divdf3.c.o)
                              /local/mnt/workspace/CRMBuilds/TZ.BF.4.0.3.c1-00005-M8996AAAAANAZT-1_20170110_230814/b/HK11/trustzone_images/core/securemsm/sse/qsee/SecureUI/build/secure_ui_sample/scorpion/IADAANAA/secure_ui_tui.lib(secure_display_renderer.o) (__aeabi_ddiv)
/afs/localcell/cm/gv2.6/sysname/pkg.@sys/qct/software/llvm/release/arm/3.5.2.4/lib/clang/3.5.2/lib/linux/libclang_rt.builtins-arm.a(fixunsdfsi.c.o)
                              /local/mnt/workspace/CRMBuilds/TZ.BF.4.0.3.c1-00005-M8996AAAAANAZT-1_20170110_230814/b/HK11/trustzone_images/core/securemsm/sse/qsee/SecureUI/build/secure_ui_sample/scorpion/IADAANAA/secure_ui_tui.lib(secure_display_renderer.o) (__aeabi_d2uiz)
/afs/localcell/cm/gv2.6/sysname/pkg.@sys/qct/software/llvm/release/arm/3.5.2.4/lib/clang/3.5.2/lib/linux/libclang_rt.builtins-arm.a(floatunsidf.c.o)
                              /local/mnt/workspace/CRMBuilds/TZ.BF.4.0.3.c1-00005-M8996AAAAANAZT-1_20170110_230814/b/HK11/trustzone_images/core/securemsm/sse/qsee/SecureUI/build/secure_ui_sample/scorpion/IADAANAA/secure_ui_tui.lib(secure_display_renderer.o) (__aeabi_ui2d)
/afs/localcell/cm/gv2.6/sysname/pkg.@sys/qct/software/llvm/release/arm/3.5.2.4/lib/clang/3.5.2/lib/linux/libclang_rt.builtins-arm.a(muldf3.c.o)
                              /local/mnt/workspace/CRMBuilds/TZ.BF.4.0.3.c1-00005-M8996AAAAANAZT-1_20170110_230814/b/HK11/trustzone_images/core/securemsm/sse/qsee/SecureUI/build/secure_ui_sample/scorpion/IADAANAA/secure_ui_tui.lib(secure_display_renderer.o) (__aeabi_dmul)
/afs/localcell/cm/gv2.6/sysname/pkg.@sys/qct/software/llvm/release/arm/3.5.2.4/lib/clang/3.5.2/lib/linux/libclang_rt.builtins-arm.a(udivmoddi4.c.o)
                              /afs/localcell/cm/gv2.6/sysname/pkg.@sys/qct/software/llvm/release/arm/3.5.2.4/lib/clang/3.5.2/lib/linux/libclang_rt.builtins-arm.a(aeabi_uldivmod.S.o) (__udivmoddi4)
/afs/localcell/cm/gv2.6/sysname/pkg.@sys/qct/software/llvm/release/arm/3.5.2.4/lib/clang/3.5.2/lib/linux/libclang_rt.builtins-arm.a(udivsi3.c.o)
                              /afs/localcell/cm/gv2.6/sysname/pkg.@sys/qct/software/llvm/release/arm/3.5.2.4/lib/clang/3.5.2/lib/linux/libclang_rt.builtins-arm.a(udivmoddi4.c.o) (__aeabi_uidiv)
/afs/localcell/cm/gv2.6/sysname/pkg.@sys/qct/software/llvm/release/arm/3.5.2.4/lib/clang/3.5.2/lib/linux/libclang_rt.builtins-arm.a(umoddi3.c.o)
                              /afs/localcell/cm/gv2.6/sysname/pkg.@sys/qct/software/llvm/release/arm/3.5.2.4/tools/lib32/lib/libc.a(vfprintf.o) (__umoddi3)
/afs/localcell/cm/gv2.6/sysname/pkg.@sys/qct/software/llvm/release/arm/3.5.2.4/lib/clang/3.5.2/lib/linux/libclang_rt.builtins-arm.a(umodsi3.c.o)
                              /afs/localcell/cm/gv2.6/sysname/pkg.@sys/qct/software/llvm/release/arm/3.5.2.4/lib/clang/3.5.2/lib/linux/libclang_rt.builtins-arm.a(udivmoddi4.c.o) (__umodsi3)
/local/mnt/workspace/CRMBuilds/TZ.BF.4.0.3.c1-00005-M8996AAAAANAZT-1_20170110_230814/b/HK11/trustzone_images/apps/securemsm/trustzone/qsapps/secure_ui_sample/layouts/build/secure_ui_sample/scorpion/IADAANAA/secure_ui_layout.lib(layout_8996_fluid.o)
                              /local/mnt/workspace/CRMBuilds/TZ.BF.4.0.3.c1-00005-M8996AAAAANAZT-1_20170110_230814/b/HK11/trustzone_images/core/securemsm/sse/qsee/SecureUI/build/secure_ui_sample/scorpion/IADAANAA/secure_ui_tui.lib(qsee_tui_dialogs.o) (create_layout)
/local/mnt/workspace/CRMBuilds/TZ.BF.4.0.3.c1-00005-M8996AAAAANAZT-1_20170110_230814/b/HK11/trustzone_images/core/kernel/libstd/build/secure_ui_sample/scorpion/IADAANAA/libstd.lib(secure_memset.o)
                              /local/mnt/workspace/CRMBuilds/TZ.BF.4.0.3.c1-00005-M8996AAAAANAZT-1_20170110_230814/b/HK11/trustzone_images/core/securemsm/sse/qsee/SecureUI/build/secure_ui_sample/scorpion/IADAANAA/secure_ui.lib(SecureUI.o) (secure_memset)
/local/mnt/workspace/CRMBuilds/TZ.BF.4.0.3.c1-00005-M8996AAAAANAZT-1_20170110_230814/b/HK11/trustzone_images/core/securemsm/sse/SecureTouch/layout/build/secure_ui_sample/scorpion/IADAANAA/sklayout.lib(layoutUtils.o)
                              /local/mnt/workspace/CRMBuilds/TZ.BF.4.0.3.c1-00005-M8996AAAAANAZT-1_20170110_230814/b/HK11/trustzone_images/core/securemsm/sse/qsee/SecureUI/build/secure_ui_sample/scorpion/IADAANAA/secure_ui_tui.lib(layout_manager.o) (findObject)
/local/mnt/workspace/CRMBuilds/TZ.BF.4.0.3.c1-00005-M8996AAAAANAZT-1_20170110_230814/b/HK11/trustzone_images/core/securemsm/sse/qsee/SecureDisplay/libgd/build/secure_ui_sample/scorpion/IADAANAA/libgd.lib(gd.o)
                              /local/mnt/workspace/CRMBuilds/TZ.BF.4.0.3.c1-00005-M8996AAAAANAZT-1_20170110_230814/b/HK11/trustzone_images/core/securemsm/sse/qsee/SecureUI/build/secure_ui_sample/scorpion/IADAANAA/secure_ui_tui.lib(font_manager.o) (gdFontFindIndex)
/local/mnt/workspace/CRMBuilds/TZ.BF.4.0.3.c1-00005-M8996AAAAANAZT-1_20170110_230814/b/HK11/trustzone_images/core/securemsm/sse/qsee/SecureDisplay/libgd/build/secure_ui_sample/scorpion/IADAANAA/libgd.lib(gd_color.o)
                              /local/mnt/workspace/CRMBuilds/TZ.BF.4.0.3.c1-00005-M8996AAAAANAZT-1_20170110_230814/b/HK11/trustzone_images/core/securemsm/sse/qsee/SecureDisplay/libgd/build/secure_ui_sample/scorpion/IADAANAA/libgd.lib(gd.o) (gdColorMatch)
/local/mnt/workspace/CRMBuilds/TZ.BF.4.0.3.c1-00005-M8996AAAAANAZT-1_20170110_230814/b/HK11/trustzone_images/core/securemsm/sse/qsee/SecureDisplay/libgd/build/secure_ui_sample/scorpion/IADAANAA/libgd.lib(gd_security.o)
                              /local/mnt/workspace/CRMBuilds/TZ.BF.4.0.3.c1-00005-M8996AAAAANAZT-1_20170110_230814/b/HK11/trustzone_images/core/securemsm/sse/qsee/SecureDisplay/libgd/build/secure_ui_sample/scorpion/IADAANAA/libgd.lib(gd.o) (overflow2)
/local/mnt/workspace/CRMBuilds/TZ.BF.4.0.3.c1-00005-M8996AAAAANAZT-1_20170110_230814/b/HK11/trustzone_images/core/securemsm/sse/qsee/SecureDisplay/libgd/build/secure_ui_sample/scorpion/IADAANAA/libgd.lib(gdtables.o)
                              /local/mnt/workspace/CRMBuilds/TZ.BF.4.0.3.c1-00005-M8996AAAAANAZT-1_20170110_230814/b/HK11/trustzone_images/core/securemsm/sse/qsee/SecureDisplay/libgd/build/secure_ui_sample/scorpion/IADAANAA/libgd.lib(gd.o) (gdCosT)
/local/mnt/workspace/CRMBuilds/TZ.BF.4.0.3.c1-00005-M8996AAAAANAZT-1_20170110_230814/b/HK11/trustzone_images/core/securemsm/sse/qsee/SecureDisplay/libpng/build/secure_ui_sample/scorpion/IADAANAA/libpng.lib(png.o)
                              /local/mnt/workspace/CRMBuilds/TZ.BF.4.0.3.c1-00005-M8996AAAAANAZT-1_20170110_230814/b/HK11/trustzone_images/core/securemsm/sse/qsee/SecureUI/build/secure_ui_sample/scorpion/IADAANAA/secure_ui_tui.lib(secure_display_renderer.o) (png_create_info_struct)
/local/mnt/workspace/CRMBuilds/TZ.BF.4.0.3.c1-00005-M8996AAAAANAZT-1_20170110_230814/b/HK11/trustzone_images/core/securemsm/sse/qsee/SecureDisplay/libpng/build/secure_ui_sample/scorpion/IADAANAA/libpng.lib(pngerror.o)
                              /local/mnt/workspace/CRMBuilds/TZ.BF.4.0.3.c1-00005-M8996AAAAANAZT-1_20170110_230814/b/HK11/trustzone_images/core/securemsm/sse/qsee/SecureDisplay/libpng/build/secure_ui_sample/scorpion/IADAANAA/libpng.lib(png.o) (png_err)
/local/mnt/workspace/CRMBuilds/TZ.BF.4.0.3.c1-00005-M8996AAAAANAZT-1_20170110_230814/b/HK11/trustzone_images/core/securemsm/sse/qsee/SecureDisplay/libpng/build/secure_ui_sample/scorpion/IADAANAA/libpng.lib(pngget.o)
                              /local/mnt/workspace/CRMBuilds/TZ.BF.4.0.3.c1-00005-M8996AAAAANAZT-1_20170110_230814/b/HK11/trustzone_images/core/securemsm/sse/qsee/SecureUI/build/secure_ui_sample/scorpion/IADAANAA/secure_ui_tui.lib(secure_display_renderer.o) (png_get_IHDR)
/local/mnt/workspace/CRMBuilds/TZ.BF.4.0.3.c1-00005-M8996AAAAANAZT-1_20170110_230814/b/HK11/trustzone_images/core/securemsm/sse/qsee/SecureDisplay/libpng/build/secure_ui_sample/scorpion/IADAANAA/libpng.lib(pngmem.o)
                              /local/mnt/workspace/CRMBuilds/TZ.BF.4.0.3.c1-00005-M8996AAAAANAZT-1_20170110_230814/b/HK11/trustzone_images/core/securemsm/sse/qsee/SecureDisplay/libpng/build/secure_ui_sample/scorpion/IADAANAA/libpng.lib(png.o) (png_free)
/local/mnt/workspace/CRMBuilds/TZ.BF.4.0.3.c1-00005-M8996AAAAANAZT-1_20170110_230814/b/HK11/trustzone_images/core/securemsm/sse/qsee/SecureDisplay/libpng/build/secure_ui_sample/scorpion/IADAANAA/libpng.lib(pngread.o)
                              /local/mnt/workspace/CRMBuilds/TZ.BF.4.0.3.c1-00005-M8996AAAAANAZT-1_20170110_230814/b/HK11/trustzone_images/core/securemsm/sse/qsee/SecureUI/build/secure_ui_sample/scorpion/IADAANAA/secure_ui_tui.lib(secure_display_renderer.o) (png_create_read_struct)
/local/mnt/workspace/CRMBuilds/TZ.BF.4.0.3.c1-00005-M8996AAAAANAZT-1_20170110_230814/b/HK11/trustzone_images/core/securemsm/sse/qsee/SecureDisplay/libpng/build/secure_ui_sample/scorpion/IADAANAA/libpng.lib(pngrio.o)
                              /local/mnt/workspace/CRMBuilds/TZ.BF.4.0.3.c1-00005-M8996AAAAANAZT-1_20170110_230814/b/HK11/trustzone_images/core/securemsm/sse/qsee/SecureUI/build/secure_ui_sample/scorpion/IADAANAA/secure_ui_tui.lib(secure_display_renderer.o) (png_set_read_fn)
/local/mnt/workspace/CRMBuilds/TZ.BF.4.0.3.c1-00005-M8996AAAAANAZT-1_20170110_230814/b/HK11/trustzone_images/core/securemsm/sse/qsee/SecureDisplay/libpng/build/secure_ui_sample/scorpion/IADAANAA/libpng.lib(pngrutil.o)
                              /local/mnt/workspace/CRMBuilds/TZ.BF.4.0.3.c1-00005-M8996AAAAANAZT-1_20170110_230814/b/HK11/trustzone_images/core/securemsm/sse/qsee/SecureDisplay/libpng/build/secure_ui_sample/scorpion/IADAANAA/libpng.lib(pngread.o) (png_combine_row)
/local/mnt/workspace/CRMBuilds/TZ.BF.4.0.3.c1-00005-M8996AAAAANAZT-1_20170110_230814/b/HK11/trustzone_images/core/securemsm/sse/qsee/SecureDisplay/libpng/build/secure_ui_sample/scorpion/IADAANAA/libpng.lib(pngset.o)
                              /local/mnt/workspace/CRMBuilds/TZ.BF.4.0.3.c1-00005-M8996AAAAANAZT-1_20170110_230814/b/HK11/trustzone_images/core/securemsm/sse/qsee/SecureDisplay/libpng/build/secure_ui_sample/scorpion/IADAANAA/libpng.lib(pngrutil.o) (png_set_IHDR)
/local/mnt/workspace/CRMBuilds/TZ.BF.4.0.3.c1-00005-M8996AAAAANAZT-1_20170110_230814/b/HK11/trustzone_images/core/securemsm/sse/qsee/SecureDisplay/zlib/build/secure_ui_sample/scorpion/IADAANAA/zlib.lib(crc32.o)
                              /local/mnt/workspace/CRMBuilds/TZ.BF.4.0.3.c1-00005-M8996AAAAANAZT-1_20170110_230814/b/HK11/trustzone_images/core/securemsm/sse/qsee/SecureDisplay/libpng/build/secure_ui_sample/scorpion/IADAANAA/libpng.lib(png.o) (crc32)
/local/mnt/workspace/CRMBuilds/TZ.BF.4.0.3.c1-00005-M8996AAAAANAZT-1_20170110_230814/b/HK11/trustzone_images/core/securemsm/sse/qsee/SecureDisplay/zlib/build/secure_ui_sample/scorpion/IADAANAA/zlib.lib(inflate.o)
                              /local/mnt/workspace/CRMBuilds/TZ.BF.4.0.3.c1-00005-M8996AAAAANAZT-1_20170110_230814/b/HK11/trustzone_images/core/securemsm/sse/qsee/SecureDisplay/libpng/build/secure_ui_sample/scorpion/IADAANAA/libpng.lib(pngrutil.o) (inflate)
/local/mnt/workspace/CRMBuilds/TZ.BF.4.0.3.c1-00005-M8996AAAAANAZT-1_20170110_230814/b/HK11/trustzone_images/core/securemsm/sse/qsee/SecureDisplay/zlib/build/secure_ui_sample/scorpion/IADAANAA/zlib.lib(inftrees.o)
                              /local/mnt/workspace/CRMBuilds/TZ.BF.4.0.3.c1-00005-M8996AAAAANAZT-1_20170110_230814/b/HK11/trustzone_images/core/securemsm/sse/qsee/SecureDisplay/zlib/build/secure_ui_sample/scorpion/IADAANAA/zlib.lib(inflate.o) (inflate_table)
/local/mnt/workspace/CRMBuilds/TZ.BF.4.0.3.c1-00005-M8996AAAAANAZT-1_20170110_230814/b/HK11/trustzone_images/core/securemsm/sse/qsee/SecureDisplay/zlib/build/secure_ui_sample/scorpion/IADAANAA/zlib.lib(zutil.o)
                              /local/mnt/workspace/CRMBuilds/TZ.BF.4.0.3.c1-00005-M8996AAAAANAZT-1_20170110_230814/b/HK11/trustzone_images/core/securemsm/sse/qsee/SecureDisplay/zlib/build/secure_ui_sample/scorpion/IADAANAA/zlib.lib(inflate.o) (zcalloc)
/local/mnt/workspace/CRMBuilds/TZ.BF.4.0.3.c1-00005-M8996AAAAANAZT-1_20170110_230814/b/HK11/trustzone_images/core/securemsm/sse/qsee/SecureDisplay/zlib/build/secure_ui_sample/scorpion/IADAANAA/zlib.lib(adler32.o)
                              /local/mnt/workspace/CRMBuilds/TZ.BF.4.0.3.c1-00005-M8996AAAAANAZT-1_20170110_230814/b/HK11/trustzone_images/core/securemsm/sse/qsee/SecureDisplay/zlib/build/secure_ui_sample/scorpion/IADAANAA/zlib.lib(inflate.o) (adler32)
/local/mnt/workspace/CRMBuilds/TZ.BF.4.0.3.c1-00005-M8996AAAAANAZT-1_20170110_230814/b/HK11/trustzone_images/core/securemsm/sse/qsee/SecureDisplay/zlib/build/secure_ui_sample/scorpion/IADAANAA/zlib.lib(inffast.o)
                              /local/mnt/workspace/CRMBuilds/TZ.BF.4.0.3.c1-00005-M8996AAAAANAZT-1_20170110_230814/b/HK11/trustzone_images/core/securemsm/sse/qsee/SecureDisplay/zlib/build/secure_ui_sample/scorpion/IADAANAA/zlib.lib(inflate.o) (inflate_fast)
/local/mnt/workspace/CRMBuilds/TZ.BF.4.0.3.c1-00005-M8996AAAAANAZT-1_20170110_230814/b/HK11/trustzone_images/core/securemsm/sse/qsee/SecureTouch/drTs/lib/build/secure_ui_sample/scorpion/IADAANAA/touch_lib.lib(01_open.o)
                              /local/mnt/workspace/CRMBuilds/TZ.BF.4.0.3.c1-00005-M8996AAAAANAZT-1_20170110_230814/b/HK11/trustzone_images/core/securemsm/sse/qsee/SecureUILib/lib/build/secure_ui_sample/scorpion/IADAANAA/secure_ui_lib.lib(01_startTouch.o) (touchOpen)
/local/mnt/workspace/CRMBuilds/TZ.BF.4.0.3.c1-00005-M8996AAAAANAZT-1_20170110_230814/b/HK11/trustzone_images/core/securemsm/sse/qsee/SecureTouch/drTs/lib/build/secure_ui_sample/scorpion/IADAANAA/touch_lib.lib(02_close.o)
                              /local/mnt/workspace/CRMBuilds/TZ.BF.4.0.3.c1-00005-M8996AAAAANAZT-1_20170110_230814/b/HK11/trustzone_images/core/securemsm/sse/qsee/SecureUILib/lib/build/secure_ui_sample/scorpion/IADAANAA/secure_ui_lib.lib(03_stopTouch.o) (touchClose)
/local/mnt/workspace/CRMBuilds/TZ.BF.4.0.3.c1-00005-M8996AAAAANAZT-1_20170110_230814/b/HK11/trustzone_images/core/securemsm/sse/qsee/SecureTouch/drTs/lib/build/secure_ui_sample/scorpion/IADAANAA/touch_lib.lib(03_getData.o)
                              /local/mnt/workspace/CRMBuilds/TZ.BF.4.0.3.c1-00005-M8996AAAAANAZT-1_20170110_230814/b/HK11/trustzone_images/core/securemsm/sse/qsee/SecureUILib/lib/build/secure_ui_sample/scorpion/IADAANAA/secure_ui_lib.lib(02_processTouch.o) (touchGetData)
/local/mnt/workspace/CRMBuilds/TZ.BF.4.0.3.c1-00005-M8996AAAAANAZT-1_20170110_230814/b/HK11/trustzone_images/core/securemsm/trustzone/qsapps/libs/applib/common_applib/build/secure_ui_sample/scorpion/IADAANAA/tzapp_entrylib.lib(gpPersistObjCommon.o)
                              /local/mnt/workspace/CRMBuilds/TZ.BF.4.0.3.c1-00005-M8996AAAAANAZT-1_20170110_230814/b/HK11/trustzone_images/core/securemsm/trustzone/qsapps/libs/applib/qsee/build/secure_ui_sample/scorpion/IADAANAA/tzapp_entrylib.lib(sfs_api.o) (gpCommon_Close_Object)
/local/mnt/workspace/CRMBuilds/TZ.BF.4.0.3.c1-00005-M8996AAAAANAZT-1_20170110_230814/b/HK11/trustzone_images/core/securemsm/trustzone/qsapps/libs/applib/common_applib/build/secure_ui_sample/scorpion/IADAANAA/tzapp_entrylib.lib(gpPersistentObjects.o)
                              /local/mnt/workspace/CRMBuilds/TZ.BF.4.0.3.c1-00005-M8996AAAAANAZT-1_20170110_230814/b/HK11/trustzone_images/core/securemsm/trustzone/qsapps/libs/applib/qsee/build/secure_ui_sample/scorpion/IADAANAA/tzapp_entrylib.lib(sfs_api.o) (TEE_AllocatePersistentObjectEnumerator)
/local/mnt/workspace/CRMBuilds/TZ.BF.4.0.3.c1-00005-M8996AAAAANAZT-1_20170110_230814/b/HK11/trustzone_images/core/securemsm/trustzone/qsapps/libs/applib/common_applib/build/secure_ui_sample/scorpion/IADAANAA/tzapp_entrylib.lib(gpPersistObjData.o)
                              /local/mnt/workspace/CRMBuilds/TZ.BF.4.0.3.c1-00005-M8996AAAAANAZT-1_20170110_230814/b/HK11/trustzone_images/core/securemsm/trustzone/qsapps/libs/applib/common_applib/build/secure_ui_sample/scorpion/IADAANAA/tzapp_entrylib.lib(gpPersistObjCommon.o) (gpData_Close_Object)
/local/mnt/workspace/CRMBuilds/TZ.BF.4.0.3.c1-00005-M8996AAAAANAZT-1_20170110_230814/b/HK11/trustzone_images/core/securemsm/trustzone/qsapps/libs/applib/common_applib/build/secure_ui_sample/scorpion/IADAANAA/tzapp_entrylib.lib(gpPersistObjHandler.o)
                              /local/mnt/workspace/CRMBuilds/TZ.BF.4.0.3.c1-00005-M8996AAAAANAZT-1_20170110_230814/b/HK11/trustzone_images/core/securemsm/trustzone/qsapps/libs/applib/common_applib/build/secure_ui_sample/scorpion/IADAANAA/tzapp_entrylib.lib(gpPersistObjCommon.o) (gpHandler_Close_Handle)
/local/mnt/workspace/CRMBuilds/TZ.BF.4.0.3.c1-00005-M8996AAAAANAZT-1_20170110_230814/b/HK11/trustzone_images/core/securemsm/trustzone/qsapps/libs/applib/common_applib/build/secure_ui_sample/scorpion/IADAANAA/tzapp_entrylib.lib(gpPersistObjIndex.o)
                              /local/mnt/workspace/CRMBuilds/TZ.BF.4.0.3.c1-00005-M8996AAAAANAZT-1_20170110_230814/b/HK11/trustzone_images/core/securemsm/trustzone/qsapps/libs/applib/common_applib/build/secure_ui_sample/scorpion/IADAANAA/tzapp_entrylib.lib(gpPersistObjHandler.o) (gpIndex_Create_Entry)
/local/mnt/workspace/CRMBuilds/TZ.BF.4.0.3.c1-00005-M8996AAAAANAZT-1_20170110_230814/b/HK11/trustzone_images/core/securemsm/trustzone/qsapps/libs/applib/common_applib/build/secure_ui_sample/scorpion/IADAANAA/tzapp_entrylib.lib(gpPersistObjVersion.o)
                              /local/mnt/workspace/CRMBuilds/TZ.BF.4.0.3.c1-00005-M8996AAAAANAZT-1_20170110_230814/b/HK11/trustzone_images/core/securemsm/trustzone/qsapps/libs/applib/common_applib/build/secure_ui_sample/scorpion/IADAANAA/tzapp_entrylib.lib(gpPersistObjIndex.o) (gpVersion_Delete_Version)
/local/mnt/workspace/CRMBuilds/TZ.BF.4.0.3.c1-00005-M8996AAAAANAZT-1_20170110_230814/b/HK11/trustzone_images/core/securemsm/trustzone/qsapps/libs/applib/common_applib/build/secure_ui_sample/scorpion/IADAANAA/tzapp_entrylib.lib(gpPersistObjCrypto.o)
                              /local/mnt/workspace/CRMBuilds/TZ.BF.4.0.3.c1-00005-M8996AAAAANAZT-1_20170110_230814/b/HK11/trustzone_images/core/securemsm/trustzone/qsapps/libs/applib/common_applib/build/secure_ui_sample/scorpion/IADAANAA/tzapp_entrylib.lib(gpPersistObjData.o) (gpCrypto_Decrypt)
/local/mnt/workspace/CRMBuilds/TZ.BF.4.0.3.c1-00005-M8996AAAAANAZT-1_20170110_230814/b/HK11/trustzone_images/core/securemsm/trustzone/qsapps/libs/applib/common_applib/build/secure_ui_sample/scorpion/IADAANAA/tzapp_entrylib.lib(gpPersistObjFileIO.o)
                              /local/mnt/workspace/CRMBuilds/TZ.BF.4.0.3.c1-00005-M8996AAAAANAZT-1_20170110_230814/b/HK11/trustzone_images/core/securemsm/trustzone/qsapps/libs/applib/common_applib/build/secure_ui_sample/scorpion/IADAANAA/tzapp_entrylib.lib(gpPersistObjData.o) (gpFileIO_Read_File)
/local/mnt/workspace/CRMBuilds/TZ.BF.4.0.3.c1-00005-M8996AAAAANAZT-1_20170110_230814/b/HK11/trustzone_images/core/securemsm/trustzone/qsapps/libs/applib/common_applib/build/secure_ui_sample/scorpion/IADAANAA/tzapp_entrylib.lib(gpFileService.o)
                              /local/mnt/workspace/CRMBuilds/TZ.BF.4.0.3.c1-00005-M8996AAAAANAZT-1_20170110_230814/b/HK11/trustzone_images/core/securemsm/trustzone/qsapps/libs/applib/common_applib/build/secure_ui_sample/scorpion/IADAANAA/tzapp_entrylib.lib(gpPersistObjFileIO.o) (gpFileRead)
/local/mnt/workspace/CRMBuilds/TZ.BF.4.0.3.c1-00005-M8996AAAAANAZT-1_20170110_230814/b/HK11/trustzone_images/core/securemsm/trustzone/qsapps/libs/applib/qsee/build/secure_ui_sample/scorpion/IADAANAA/tzapp_entrylib.lib(qsee_core_shim.o)
                              /local/mnt/workspace/CRMBuilds/TZ.BF.4.0.3.c1-00005-M8996AAAAANAZT-1_20170110_230814/b/HK11/trustzone_images/core/securemsm/trustzone/qsapps/libs/applib/common_applib/build/secure_ui_sample/scorpion/IADAANAA/tzapp_entrylib.lib(gpPersistObjCommon.o) (qsee_get_tz_app_id)
/local/mnt/workspace/CRMBuilds/TZ.BF.4.0.3.c1-00005-M8996AAAAANAZT-1_20170110_230814/b/HK11/trustzone_images/core/securemsm/trustzone/qsapps/libs/applib/qsee/build/secure_ui_sample/scorpion/IADAANAA/tzapp_entrylib.lib(stor.o)
                              /local/mnt/workspace/CRMBuilds/TZ.BF.4.0.3.c1-00005-M8996AAAAANAZT-1_20170110_230814/b/HK11/trustzone_images/core/securemsm/trustzone/qsapps/libs/applib/common_applib/build/secure_ui_sample/scorpion/IADAANAA/tzapp_entrylib.lib(gpPersistObjVersion.o) (qsee_stor_add_partition)
/local/mnt/workspace/CRMBuilds/TZ.BF.4.0.3.c1-00005-M8996AAAAANAZT-1_20170110_230814/b/HK11/trustzone_images/core/securemsm/trustzone/qsapps/libs/applib/qsee/build/secure_ui_sample/scorpion/IADAANAA/tzapp_entrylib.lib(stor_gpt.o)
                              /local/mnt/workspace/CRMBuilds/TZ.BF.4.0.3.c1-00005-M8996AAAAANAZT-1_20170110_230814/b/HK11/trustzone_images/core/securemsm/trustzone/qsapps/libs/applib/qsee/build/secure_ui_sample/scorpion/IADAANAA/tzapp_entrylib.lib(stor.o) (gpt_add_partition)
/local/mnt/workspace/CRMBuilds/TZ.BF.4.0.3.c1-00005-M8996AAAAANAZT-1_20170110_230814/b/HK11/trustzone_images/core/securemsm/trustzone/qsapps/libs/applib/qsee/build/secure_ui_sample/scorpion/IADAANAA/tzapp_entrylib.lib(stor_rpmbw.o)
                              /local/mnt/workspace/CRMBuilds/TZ.BF.4.0.3.c1-00005-M8996AAAAANAZT-1_20170110_230814/b/HK11/trustzone_images/core/securemsm/trustzone/qsapps/libs/applib/qsee/build/secure_ui_sample/scorpion/IADAANAA/tzapp_entrylib.lib(stor.o) (rpmbw_add_partition)
/local/mnt/workspace/CRMBuilds/TZ.BF.4.0.3.c1-00005-M8996AAAAANAZT-1_20170110_230814/b/HK11/trustzone_images/core/securemsm/trustzone/qsapps/libs/applib/qsee/build/secure_ui_sample/scorpion/IADAANAA/tzapp_entrylib.lib(qsee_cfg_prop_shim.o)
                              /local/mnt/workspace/CRMBuilds/TZ.BF.4.0.3.c1-00005-M8996AAAAANAZT-1_20170110_230814/b/HK11/trustzone_images/core/securemsm/trustzone/qsapps/libs/applib/common_applib/build/secure_ui_sample/scorpion/IADAANAA/tzapp_entrylib.lib(gpPersistObjCommon.o) (qsee_cfg_getpropval)
/local/mnt/workspace/CRMBuilds/TZ.BF.4.0.3.c1-00005-M8996AAAAANAZT-1_20170110_230814/b/HK11/trustzone_images/core/securemsm/trustzone/qsapps/libs/applib/qsee/build/secure_ui_sample/scorpion/IADAANAA/tzapp_entrylib.lib(qsee_cipher.o)
                              /local/mnt/workspace/CRMBuilds/TZ.BF.4.0.3.c1-00005-M8996AAAAANAZT-1_20170110_230814/b/HK11/trustzone_images/core/securemsm/trustzone/qsapps/libs/applib/common_applib/build/secure_ui_sample/scorpion/IADAANAA/tzapp_entrylib.lib(gpPersistObjCrypto.o) (qsee_cipher_decrypt)
/local/mnt/workspace/CRMBuilds/TZ.BF.4.0.3.c1-00005-M8996AAAAANAZT-1_20170110_230814/b/HK11/trustzone_images/core/securemsm/trustzone/qsapps/libs/applib/qsee/build/secure_ui_sample/scorpion/IADAANAA/tzapp_entrylib.lib(qsee_hmac.o)
                              /local/mnt/workspace/CRMBuilds/TZ.BF.4.0.3.c1-00005-M8996AAAAANAZT-1_20170110_230814/b/HK11/trustzone_images/core/securemsm/trustzone/qsapps/libs/applib/common_applib/build/secure_ui_sample/scorpion/IADAANAA/tzapp_entrylib.lib(gpPersistObjCrypto.o) (qsee_hmac)
/local/mnt/workspace/CRMBuilds/TZ.BF.4.0.3.c1-00005-M8996AAAAANAZT-1_20170110_230814/b/HK11/trustzone_images/core/securemsm/trustzone/qsapps/libs/applib/qsee/build/secure_ui_sample/scorpion/IADAANAA/tzapp_entrylib.lib(gpPersistObjPanic.o)
                              /local/mnt/workspace/CRMBuilds/TZ.BF.4.0.3.c1-00005-M8996AAAAANAZT-1_20170110_230814/b/HK11/trustzone_images/core/securemsm/trustzone/qsapps/libs/applib/common_applib/build/secure_ui_sample/scorpion/IADAANAA/tzapp_entrylib.lib(gpPersistentObjects.o) (GPMemoryMgmt_verifyHandle)
/afs/localcell/cm/gv2.6/sysname/pkg.@sys/qct/software/llvm/release/arm/3.5.2.4/tools/lib32/lib/libc.a(abort.o)
                              /local/mnt/workspace/CRMBuilds/TZ.BF.4.0.3.c1-00005-M8996AAAAANAZT-1_20170110_230814/b/HK11/trustzone_images/core/securemsm/sse/qsee/SecureDisplay/libpng/build/secure_ui_sample/scorpion/IADAANAA/libpng.lib(pngerror.o) (abort)
/afs/localcell/cm/gv2.6/sysname/pkg.@sys/qct/software/llvm/release/arm/3.5.2.4/tools/lib32/lib/libc.a(atan2.o)
                              /local/mnt/workspace/CRMBuilds/TZ.BF.4.0.3.c1-00005-M8996AAAAANAZT-1_20170110_230814/b/HK11/trustzone_images/core/securemsm/sse/qsee/SecureDisplay/libgd/build/secure_ui_sample/scorpion/IADAANAA/libgd.lib(gd.o) (atan2)
/afs/localcell/cm/gv2.6/sysname/pkg.@sys/qct/software/llvm/release/arm/3.5.2.4/tools/lib32/lib/libc.a(cos.o)
                              /local/mnt/workspace/CRMBuilds/TZ.BF.4.0.3.c1-00005-M8996AAAAANAZT-1_20170110_230814/b/HK11/trustzone_images/core/securemsm/sse/qsee/SecureDisplay/libgd/build/secure_ui_sample/scorpion/IADAANAA/libgd.lib(gd.o) (cos)
/afs/localcell/cm/gv2.6/sysname/pkg.@sys/qct/software/llvm/release/arm/3.5.2.4/tools/lib32/lib/libc.a(fabs.o)
                              /afs/localcell/cm/gv2.6/sysname/pkg.@sys/qct/software/llvm/release/arm/3.5.2.4/tools/lib32/lib/libc.a(atan2.o) (fabs)
/afs/localcell/cm/gv2.6/sysname/pkg.@sys/qct/software/llvm/release/arm/3.5.2.4/tools/lib32/lib/libc.a(floor.o)
                              /local/mnt/workspace/CRMBuilds/TZ.BF.4.0.3.c1-00005-M8996AAAAANAZT-1_20170110_230814/b/HK11/trustzone_images/core/securemsm/sse/qsee/SecureDisplay/libgd/build/secure_ui_sample/scorpion/IADAANAA/libgd.lib(gd.o) (floor)
/afs/localcell/cm/gv2.6/sysname/pkg.@sys/qct/software/llvm/release/arm/3.5.2.4/tools/lib32/lib/libc.a(sin.o)
                              /local/mnt/workspace/CRMBuilds/TZ.BF.4.0.3.c1-00005-M8996AAAAANAZT-1_20170110_230814/b/HK11/trustzone_images/core/securemsm/sse/qsee/SecureDisplay/libgd/build/secure_ui_sample/scorpion/IADAANAA/libgd.lib(gd.o) (sin)
/afs/localcell/cm/gv2.6/sysname/pkg.@sys/qct/software/llvm/release/arm/3.5.2.4/tools/lib32/lib/libc.a(sqrt.o)
                              /local/mnt/workspace/CRMBuilds/TZ.BF.4.0.3.c1-00005-M8996AAAAANAZT-1_20170110_230814/b/HK11/trustzone_images/core/securemsm/sse/qsee/SecureDisplay/libgd/build/secure_ui_sample/scorpion/IADAANAA/libgd.lib(gd.o) (sqrt)
/afs/localcell/cm/gv2.6/sysname/pkg.@sys/qct/software/llvm/release/arm/3.5.2.4/tools/lib32/lib/libc.a(raise.o)
                              /afs/localcell/cm/gv2.6/sysname/pkg.@sys/qct/software/llvm/release/arm/3.5.2.4/tools/lib32/lib/libc.a(abort.o) (raise)
/afs/localcell/cm/gv2.6/sysname/pkg.@sys/qct/software/llvm/release/arm/3.5.2.4/tools/lib32/lib/libc.a(fflush.o)
                              /local/mnt/workspace/CRMBuilds/TZ.BF.4.0.3.c1-00005-M8996AAAAANAZT-1_20170110_230814/b/HK11/trustzone_images/core/securemsm/sse/qsee/SecureDisplay/libgd/build/secure_ui_sample/scorpion/IADAANAA/libgd.lib(gd.o) (fflush)
/afs/localcell/cm/gv2.6/sysname/pkg.@sys/qct/software/llvm/release/arm/3.5.2.4/tools/lib32/lib/libc.a(stderr.o)
                              /local/mnt/workspace/CRMBuilds/TZ.BF.4.0.3.c1-00005-M8996AAAAANAZT-1_20170110_230814/b/HK11/trustzone_images/core/securemsm/sse/qsee/SecureDisplay/libgd/build/secure_ui_sample/scorpion/IADAANAA/libgd.lib(gd.o) (stderr)
/afs/localcell/cm/gv2.6/sysname/pkg.@sys/qct/software/llvm/release/arm/3.5.2.4/tools/lib32/lib/libc.a(memcmp.o)
                              /local/mnt/workspace/CRMBuilds/TZ.BF.4.0.3.c1-00005-M8996AAAAANAZT-1_20170110_230814/b/HK11/trustzone_images/core/securemsm/sse/qsee/SecureDisplay/libpng/build/secure_ui_sample/scorpion/IADAANAA/libpng.lib(png.o) (memcmp)
/afs/localcell/cm/gv2.6/sysname/pkg.@sys/qct/software/llvm/release/arm/3.5.2.4/tools/lib32/lib/libc.a(syscall_ret.o)
                              /afs/localcell/cm/gv2.6/sysname/pkg.@sys/qct/software/llvm/release/arm/3.5.2.4/tools/lib32/lib/libc.a(raise.o) (__syscall_ret)
/afs/localcell/cm/gv2.6/sysname/pkg.@sys/qct/software/llvm/release/arm/3.5.2.4/tools/lib32/lib/libc.a(__cos.o)
                              /afs/localcell/cm/gv2.6/sysname/pkg.@sys/qct/software/llvm/release/arm/3.5.2.4/tools/lib32/lib/libc.a(cos.o) (__cos)
/afs/localcell/cm/gv2.6/sysname/pkg.@sys/qct/software/llvm/release/arm/3.5.2.4/tools/lib32/lib/libc.a(__rem_pio2.o)
                              /afs/localcell/cm/gv2.6/sysname/pkg.@sys/qct/software/llvm/release/arm/3.5.2.4/tools/lib32/lib/libc.a(cos.o) (__rem_pio2)
/afs/localcell/cm/gv2.6/sysname/pkg.@sys/qct/software/llvm/release/arm/3.5.2.4/tools/lib32/lib/libc.a(__rem_pio2_large.o)
                              /afs/localcell/cm/gv2.6/sysname/pkg.@sys/qct/software/llvm/release/arm/3.5.2.4/tools/lib32/lib/libc.a(__rem_pio2.o) (__rem_pio2_large)
/afs/localcell/cm/gv2.6/sysname/pkg.@sys/qct/software/llvm/release/arm/3.5.2.4/tools/lib32/lib/libc.a(__sin.o)
                              /afs/localcell/cm/gv2.6/sysname/pkg.@sys/qct/software/llvm/release/arm/3.5.2.4/tools/lib32/lib/libc.a(cos.o) (__sin)
/afs/localcell/cm/gv2.6/sysname/pkg.@sys/qct/software/llvm/release/arm/3.5.2.4/tools/lib32/lib/libc.a(atan.o)
                              /afs/localcell/cm/gv2.6/sysname/pkg.@sys/qct/software/llvm/release/arm/3.5.2.4/tools/lib32/lib/libc.a(atan2.o) (atan)
/afs/localcell/cm/gv2.6/sysname/pkg.@sys/qct/software/llvm/release/arm/3.5.2.4/tools/lib32/lib/libc.a(scalbn.o)
                              /afs/localcell/cm/gv2.6/sysname/pkg.@sys/qct/software/llvm/release/arm/3.5.2.4/tools/lib32/lib/libc.a(__rem_pio2_large.o) (scalbn)
/afs/localcell/cm/gv2.6/sysname/pkg.@sys/qct/software/llvm/release/arm/3.5.2.4/tools/lib32/lib/libc.a(block.o)
                              /afs/localcell/cm/gv2.6/sysname/pkg.@sys/qct/software/llvm/release/arm/3.5.2.4/tools/lib32/lib/libc.a(raise.o) (__block_app_sigs)
/afs/localcell/cm/gv2.6/sysname/pkg.@sys/qct/software/llvm/release/arm/3.5.2.4/tools/lib32/lib/libc.a(__stdio_close.o)
                              /afs/localcell/cm/gv2.6/sysname/pkg.@sys/qct/software/llvm/release/arm/3.5.2.4/tools/lib32/lib/libc.a(stderr.o) (__stdio_close)
/afs/localcell/cm/gv2.6/sysname/pkg.@sys/qct/software/llvm/release/arm/3.5.2.4/tools/lib32/lib/libc.a(__stdio_seek.o)
                              /afs/localcell/cm/gv2.6/sysname/pkg.@sys/qct/software/llvm/release/arm/3.5.2.4/tools/lib32/lib/libc.a(stderr.o) (__stdio_seek)
/afs/localcell/cm/gv2.6/sysname/pkg.@sys/qct/software/llvm/release/arm/3.5.2.4/tools/lib32/lib/libc.a(__stdio_write.o)
                              /afs/localcell/cm/gv2.6/sysname/pkg.@sys/qct/software/llvm/release/arm/3.5.2.4/tools/lib32/lib/libc.a(stderr.o) (__stdio_write)
/afs/localcell/cm/gv2.6/sysname/pkg.@sys/qct/software/llvm/release/arm/3.5.2.4/tools/lib32/lib/libc.a(__syscall_cp.o)
                              /afs/localcell/cm/gv2.6/sysname/pkg.@sys/qct/software/llvm/release/arm/3.5.2.4/tools/lib32/lib/libc.a(__stdio_write.o) (__syscall_cp)
/afs/localcell/cm/gv2.6/sysname/pkg.@sys/qct/software/llvm/release/arm/3.5.2.4/tools/lib32/lib/libc.a(pthread_cleanup_push.o)
                              /afs/localcell/cm/gv2.6/sysname/pkg.@sys/qct/software/llvm/release/arm/3.5.2.4/tools/lib32/lib/libc.a(__stdio_write.o) (_pthread_cleanup_pop)
/afs/localcell/cm/gv2.6/sysname/pkg.@sys/qct/software/llvm/release/arm/3.5.2.4/lib/clang/3.5.2/lib/linux/libclang_rt.builtins-arm.a(adddf3.c.o)
                              /local/mnt/workspace/CRMBuilds/TZ.BF.4.0.3.c1-00005-M8996AAAAANAZT-1_20170110_230814/b/HK11/trustzone_images/core/securemsm/sse/qsee/SecureDisplay/libgd/build/secure_ui_sample/scorpion/IADAANAA/libgd.lib(gd.o) (__aeabi_dadd)
/afs/localcell/cm/gv2.6/sysname/pkg.@sys/qct/software/llvm/release/arm/3.5.2.4/lib/clang/3.5.2/lib/linux/libclang_rt.builtins-arm.a(divsf3.c.o)
                              /local/mnt/workspace/CRMBuilds/TZ.BF.4.0.3.c1-00005-M8996AAAAANAZT-1_20170110_230814/b/HK11/trustzone_images/core/securemsm/sse/qsee/SecureDisplay/libgd/build/secure_ui_sample/scorpion/IADAANAA/libgd.lib(gd.o) (__aeabi_fdiv)
/afs/localcell/cm/gv2.6/sysname/pkg.@sys/qct/software/llvm/release/arm/3.5.2.4/lib/clang/3.5.2/lib/linux/libclang_rt.builtins-arm.a(extendsfdf2.c.o)
                              /local/mnt/workspace/CRMBuilds/TZ.BF.4.0.3.c1-00005-M8996AAAAANAZT-1_20170110_230814/b/HK11/trustzone_images/core/securemsm/sse/qsee/SecureDisplay/libgd/build/secure_ui_sample/scorpion/IADAANAA/libgd.lib(gd.o) (__aeabi_f2d)
/afs/localcell/cm/gv2.6/sysname/pkg.@sys/qct/software/llvm/release/arm/3.5.2.4/lib/clang/3.5.2/lib/linux/libclang_rt.builtins-arm.a(fixdfsi.c.o)
                              /local/mnt/workspace/CRMBuilds/TZ.BF.4.0.3.c1-00005-M8996AAAAANAZT-1_20170110_230814/b/HK11/trustzone_images/core/securemsm/sse/qsee/SecureDisplay/libgd/build/secure_ui_sample/scorpion/IADAANAA/libgd.lib(gd.o) (__aeabi_d2iz)
/afs/localcell/cm/gv2.6/sysname/pkg.@sys/qct/software/llvm/release/arm/3.5.2.4/lib/clang/3.5.2/lib/linux/libclang_rt.builtins-arm.a(floatsidf.c.o)
                              /local/mnt/workspace/CRMBuilds/TZ.BF.4.0.3.c1-00005-M8996AAAAANAZT-1_20170110_230814/b/HK11/trustzone_images/core/securemsm/sse/qsee/SecureDisplay/libgd/build/secure_ui_sample/scorpion/IADAANAA/libgd.lib(gd.o) (__aeabi_i2d)
/afs/localcell/cm/gv2.6/sysname/pkg.@sys/qct/software/llvm/release/arm/3.5.2.4/lib/clang/3.5.2/lib/linux/libclang_rt.builtins-arm.a(floatsisf.c.o)
                              /local/mnt/workspace/CRMBuilds/TZ.BF.4.0.3.c1-00005-M8996AAAAANAZT-1_20170110_230814/b/HK11/trustzone_images/core/securemsm/sse/qsee/SecureDisplay/libgd/build/secure_ui_sample/scorpion/IADAANAA/libgd.lib(gd.o) (__aeabi_i2f)
/local/mnt/workspace/CRMBuilds/TZ.BF.4.0.3.c1-00005-M8996AAAAANAZT-1_20170110_230814/b/HK11/trustzone_images/core/kernel/libstd/build/secure_ui_sample/scorpion/IADAANAA/libstd.lib(timesafe_memcmp.o)
                              /local/mnt/workspace/CRMBuilds/TZ.BF.4.0.3.c1-00005-M8996AAAAANAZT-1_20170110_230814/b/HK11/trustzone_images/core/securemsm/trustzone/qsapps/libs/applib/common_applib/build/secure_ui_sample/scorpion/IADAANAA/tzapp_entrylib.lib(gpPersistObjCrypto.o) (timesafe_memcmp)
/local/mnt/workspace/CRMBuilds/TZ.BF.4.0.3.c1-00005-M8996AAAAANAZT-1_20170110_230814/b/HK11/trustzone_images/core/securemsm/sse/SecureTouch/controller/build/secure_ui_sample/scorpion/IADAANAA/drts_controller_msm8996.lib(atmel_mxt_ts.o)
                              /local/mnt/workspace/CRMBuilds/TZ.BF.4.0.3.c1-00005-M8996AAAAANAZT-1_20170110_230814/b/HK11/trustzone_images/core/securemsm/sse/qsee/SecureTouch/drTs/lib/build/secure_ui_sample/scorpion/IADAANAA/touch_lib.lib(01_open.o) (atmel_drTsClose)
/local/mnt/workspace/CRMBuilds/TZ.BF.4.0.3.c1-00005-M8996AAAAANAZT-1_20170110_230814/b/HK11/trustzone_images/core/securemsm/sse/SecureTouch/controller/build/secure_ui_sample/scorpion/IADAANAA/drts_controller_msm8996.lib(synaptics_ts.o)
                              /local/mnt/workspace/CRMBuilds/TZ.BF.4.0.3.c1-00005-M8996AAAAANAZT-1_20170110_230814/b/HK11/trustzone_images/core/securemsm/sse/qsee/SecureTouch/drTs/lib/build/secure_ui_sample/scorpion/IADAANAA/touch_lib.lib(01_open.o) (synaptics_drTsClose)
/local/mnt/workspace/CRMBuilds/TZ.BF.4.0.3.c1-00005-M8996AAAAANAZT-1_20170110_230814/b/HK11/trustzone_images/core/securemsm/sse/log/build/secure_ui_sample/scorpion/IADAANAA/sselog.lib(sselog.o)
                              /local/mnt/workspace/CRMBuilds/TZ.BF.4.0.3.c1-00005-M8996AAAAANAZT-1_20170110_230814/b/HK11/trustzone_images/core/securemsm/sse/SecureTouch/controller/build/secure_ui_sample/scorpion/IADAANAA/drts_controller_msm8996.lib(atmel_mxt_ts.o) (dumpHex)
/local/mnt/workspace/CRMBuilds/TZ.BF.4.0.3.c1-00005-M8996AAAAANAZT-1_20170110_230814/b/HK11/trustzone_images/core/securemsm/sse/qsee/SecureTouch/drTs/controller/build/secure_ui_sample/scorpion/IADAANAA/touch_controller_i2c_msm8996.lib(atmel_mxt_ts_i2c.o)
                              /local/mnt/workspace/CRMBuilds/TZ.BF.4.0.3.c1-00005-M8996AAAAANAZT-1_20170110_230814/b/HK11/trustzone_images/core/securemsm/sse/SecureTouch/controller/build/secure_ui_sample/scorpion/IADAANAA/drts_controller_msm8996.lib(atmel_mxt_ts.o) (atmel_i2cClose)
/local/mnt/workspace/CRMBuilds/TZ.BF.4.0.3.c1-00005-M8996AAAAANAZT-1_20170110_230814/b/HK11/trustzone_images/core/securemsm/sse/qsee/SecureTouch/drTs/controller/build/secure_ui_sample/scorpion/IADAANAA/touch_controller_i2c_msm8996.lib(synaptics_ts_i2c.o)
                              /local/mnt/workspace/CRMBuilds/TZ.BF.4.0.3.c1-00005-M8996AAAAANAZT-1_20170110_230814/b/HK11/trustzone_images/core/securemsm/sse/SecureTouch/controller/build/secure_ui_sample/scorpion/IADAANAA/drts_controller_msm8996.lib(synaptics_ts.o) (synaptics_i2cClose)
/local/mnt/workspace/CRMBuilds/TZ.BF.4.0.3.c1-00005-M8996AAAAANAZT-1_20170110_230814/b/HK11/trustzone_images/core/securemsm/trustzone/qsapps/libs/applib/qsee/build/secure_ui_sample/scorpion/IADAANAA/tzapp_entrylib.lib(qsee_i2c.o)
                              /local/mnt/workspace/CRMBuilds/TZ.BF.4.0.3.c1-00005-M8996AAAAANAZT-1_20170110_230814/b/HK11/trustzone_images/core/securemsm/sse/qsee/SecureTouch/drTs/controller/build/secure_ui_sample/scorpion/IADAANAA/touch_controller_i2c_msm8996.lib(atmel_mxt_ts_i2c.o) (qsee_i2c_close)
/afs/localcell/cm/gv2.6/sysname/pkg.@sys/qct/software/llvm/release/arm/3.5.2.4/tools/lib32/lib/libc.a(snprintf.o)
                              /local/mnt/workspace/CRMBuilds/TZ.BF.4.0.3.c1-00005-M8996AAAAANAZT-1_20170110_230814/b/HK11/trustzone_images/core/securemsm/sse/log/build/secure_ui_sample/scorpion/IADAANAA/sselog.lib(sselog.o) (snprintf)

Allocating common symbols
Common symbol       size              file

apps_request_resp   0x14              /local/mnt/workspace/CRMBuilds/TZ.BF.4.0.3.c1-00005-M8996AAAAANAZT-1_20170110_230814/b/HK11/trustzone_images/core/securemsm/trustzone/qsapps/libs/applib/common_applib/build/secure_ui_sample/scorpion/IADAANAA/tzapp_entrylib.lib(common_applib.o)
red_dot             0x28              /local/mnt/workspace/CRMBuilds/TZ.BF.4.0.3.c1-00005-M8996AAAAANAZT-1_20170110_230814/b/HK11/trustzone_images/apps/securemsm/trustzone/qsapps/secure_ui_sample/build/secure_ui_sample/scorpion/IADAANAA/app_main.o
__hwcap             0x4               /afs/localcell/cm/gv2.6/sysname/pkg.@sys/qct/software/llvm/release/arm/3.5.2.4/tools/lib32/lib/libc.a(libc.o)
received_pin        0x1f4             /local/mnt/workspace/CRMBuilds/TZ.BF.4.0.3.c1-00005-M8996AAAAANAZT-1_20170110_230814/b/HK11/trustzone_images/apps/securemsm/trustzone/qsapps/secure_ui_sample/build/secure_ui_sample/scorpion/IADAANAA/app_main.o
__libc              0x4c              /afs/localcell/cm/gv2.6/sysname/pkg.@sys/qct/software/llvm/release/arm/3.5.2.4/tools/lib32/lib/libc.a(libc.o)
img_array           0x57e40           /local/mnt/workspace/CRMBuilds/TZ.BF.4.0.3.c1-00005-M8996AAAAANAZT-1_20170110_230814/b/HK11/trustzone_images/core/securemsm/sse/qsee/SecureUI/build/secure_ui_sample/scorpion/IADAANAA/secure_ui_tui.lib(secure_display_renderer.o)
received_password   0x1f4             /local/mnt/workspace/CRMBuilds/TZ.BF.4.0.3.c1-00005-M8996AAAAANAZT-1_20170110_230814/b/HK11/trustzone_images/apps/securemsm/trustzone/qsapps/secure_ui_sample/build/secure_ui_sample/scorpion/IADAANAA/app_main.o
received_username   0x1f4             /local/mnt/workspace/CRMBuilds/TZ.BF.4.0.3.c1-00005-M8996AAAAANAZT-1_20170110_230814/b/HK11/trustzone_images/apps/securemsm/trustzone/qsapps/secure_ui_sample/build/secure_ui_sample/scorpion/IADAANAA/app_main.o
green_dot           0x28              /local/mnt/workspace/CRMBuilds/TZ.BF.4.0.3.c1-00005-M8996AAAAANAZT-1_20170110_230814/b/HK11/trustzone_images/apps/securemsm/trustzone/qsapps/secure_ui_sample/build/secure_ui_sample/scorpion/IADAANAA/app_main.o
__sysinfo           0x4               /afs/localcell/cm/gv2.6/sysname/pkg.@sys/qct/software/llvm/release/arm/3.5.2.4/tools/lib32/lib/libc.a(libc.o)

Discarded input sections

 .text          0x00000000        0x0 /local/mnt/workspace/CRMBuilds/TZ.BF.4.0.3.c1-00005-M8996AAAAANAZT-1_20170110_230814/b/HK11/trustzone_images/core/securemsm/trustzone/qsapps/libs/applib/qsee/build/secure_ui_sample/scorpion/IADAANAA/src/tzapp_entry.o
 .data          0x00000000        0x0 /local/mnt/workspace/CRMBuilds/TZ.BF.4.0.3.c1-00005-M8996AAAAANAZT-1_20170110_230814/b/HK11/trustzone_images/core/securemsm/trustzone/qsapps/libs/applib/qsee/build/secure_ui_sample/scorpion/IADAANAA/src/tzapp_entry.o
 .bss           0x00000000        0x0 /local/mnt/workspace/CRMBuilds/TZ.BF.4.0.3.c1-00005-M8996AAAAANAZT-1_20170110_230814/b/HK11/trustzone_images/core/securemsm/trustzone/qsapps/libs/applib/qsee/build/secure_ui_sample/scorpion/IADAANAA/src/tzapp_entry.o
 .ARM.exidx     0x00000000       0x68 /local/mnt/workspace/CRMBuilds/TZ.BF.4.0.3.c1-00005-M8996AAAAANAZT-1_20170110_230814/b/HK11/trustzone_images/apps/securemsm/trustzone/qsapps/secure_ui_sample/build/secure_ui_sample/scorpion/IADAANAA/app_main.o
 .text          0x00000000        0x0 /local/mnt/workspace/CRMBuilds/TZ.BF.4.0.3.c1-00005-M8996AAAAANAZT-1_20170110_230814/b/HK11/trustzone_images/apps/securemsm/trustzone/qsapps/secure_ui_sample/build/secure_ui_sample/scorpion/IADAANAA/metadata.o
 .data          0x00000000        0x0 /local/mnt/workspace/CRMBuilds/TZ.BF.4.0.3.c1-00005-M8996AAAAANAZT-1_20170110_230814/b/HK11/trustzone_images/apps/securemsm/trustzone/qsapps/secure_ui_sample/build/secure_ui_sample/scorpion/IADAANAA/metadata.o
 .data          0x00000000        0x0 /local/mnt/workspace/CRMBuilds/TZ.BF.4.0.3.c1-00005-M8996AAAAANAZT-1_20170110_230814/b/HK11/trustzone_images/core/kernel/libstd/build/secure_ui_sample/scorpion/IADAANAA/libstd.lib(memscpy.o)
 .bss           0x00000000        0x0 /local/mnt/workspace/CRMBuilds/TZ.BF.4.0.3.c1-00005-M8996AAAAANAZT-1_20170110_230814/b/HK11/trustzone_images/core/kernel/libstd/build/secure_ui_sample/scorpion/IADAANAA/libstd.lib(memscpy.o)
 .ARM.exidx     0x00000000        0x8 /local/mnt/workspace/CRMBuilds/TZ.BF.4.0.3.c1-00005-M8996AAAAANAZT-1_20170110_230814/b/HK11/trustzone_images/core/kernel/libstd/build/secure_ui_sample/scorpion/IADAANAA/libstd.lib(memscpy.o)
 .data          0x00000000        0x0 /local/mnt/workspace/CRMBuilds/TZ.BF.4.0.3.c1-00005-M8996AAAAANAZT-1_20170110_230814/b/HK11/trustzone_images/core/kernel/libstd/build/secure_ui_sample/scorpion/IADAANAA/libstd.lib(strlcat.o)
 .bss           0x00000000        0x0 /local/mnt/workspace/CRMBuilds/TZ.BF.4.0.3.c1-00005-M8996AAAAANAZT-1_20170110_230814/b/HK11/trustzone_images/core/kernel/libstd/build/secure_ui_sample/scorpion/IADAANAA/libstd.lib(strlcat.o)
 .ARM.exidx     0x00000000        0x8 /local/mnt/workspace/CRMBuilds/TZ.BF.4.0.3.c1-00005-M8996AAAAANAZT-1_20170110_230814/b/HK11/trustzone_images/core/kernel/libstd/build/secure_ui_sample/scorpion/IADAANAA/libstd.lib(strlcat.o)
 .data          0x00000000        0x0 /local/mnt/workspace/CRMBuilds/TZ.BF.4.0.3.c1-00005-M8996AAAAANAZT-1_20170110_230814/b/HK11/trustzone_images/core/kernel/libstd/build/secure_ui_sample/scorpion/IADAANAA/libstd.lib(strlcpy.o)
 .bss           0x00000000        0x0 /local/mnt/workspace/CRMBuilds/TZ.BF.4.0.3.c1-00005-M8996AAAAANAZT-1_20170110_230814/b/HK11/trustzone_images/core/kernel/libstd/build/secure_ui_sample/scorpion/IADAANAA/libstd.lib(strlcpy.o)
 .ARM.exidx     0x00000000        0x8 /local/mnt/workspace/CRMBuilds/TZ.BF.4.0.3.c1-00005-M8996AAAAANAZT-1_20170110_230814/b/HK11/trustzone_images/core/kernel/libstd/build/secure_ui_sample/scorpion/IADAANAA/libstd.lib(strlcpy.o)
 .ARM.exidx     0x00000000       0x90 /local/mnt/workspace/CRMBuilds/TZ.BF.4.0.3.c1-00005-M8996AAAAANAZT-1_20170110_230814/b/HK11/trustzone_images/core/securemsm/sse/qsee/SecureUI/build/secure_ui_sample/scorpion/IADAANAA/secure_ui.lib(SecureUI.o)
 .ARM.exidx     0x00000000       0x48 /local/mnt/workspace/CRMBuilds/TZ.BF.4.0.3.c1-00005-M8996AAAAANAZT-1_20170110_230814/b/HK11/trustzone_images/core/securemsm/sse/qsee/SecureUI/build/secure_ui_sample/scorpion/IADAANAA/secure_ui_tui.lib(qsee_tui_dialogs.o)
 .ARM.exidx     0x00000000       0xc8 /local/mnt/workspace/CRMBuilds/TZ.BF.4.0.3.c1-00005-M8996AAAAANAZT-1_20170110_230814/b/HK11/trustzone_images/core/securemsm/sse/qsee/SecureUI/build/secure_ui_sample/scorpion/IADAANAA/secure_ui_tui.lib(layout_manager.o)
 .data          0x00000000        0x0 /local/mnt/workspace/CRMBuilds/TZ.BF.4.0.3.c1-00005-M8996AAAAANAZT-1_20170110_230814/b/HK11/trustzone_images/core/securemsm/sse/qsee/SecureUI/build/secure_ui_sample/scorpion/IADAANAA/secure_ui_tui.lib(secure_display_renderer.o)
 .ARM.exidx     0x00000000       0x70 /local/mnt/workspace/CRMBuilds/TZ.BF.4.0.3.c1-00005-M8996AAAAANAZT-1_20170110_230814/b/HK11/trustzone_images/core/securemsm/sse/qsee/SecureUI/build/secure_ui_sample/scorpion/IADAANAA/secure_ui_tui.lib(secure_display_renderer.o)
 .data          0x00000000        0x0 /local/mnt/workspace/CRMBuilds/TZ.BF.4.0.3.c1-00005-M8996AAAAANAZT-1_20170110_230814/b/HK11/trustzone_images/core/securemsm/sse/qsee/SecureUI/build/secure_ui_sample/scorpion/IADAANAA/secure_ui_tui.lib(font_manager.o)
 .ARM.exidx     0x00000000       0x20 /local/mnt/workspace/CRMBuilds/TZ.BF.4.0.3.c1-00005-M8996AAAAANAZT-1_20170110_230814/b/HK11/trustzone_images/core/securemsm/sse/qsee/SecureUI/build/secure_ui_sample/scorpion/IADAANAA/secure_ui_tui.lib(font_manager.o)
 .ARM.exidx     0x00000000       0x28 /local/mnt/workspace/CRMBuilds/TZ.BF.4.0.3.c1-00005-M8996AAAAANAZT-1_20170110_230814/b/HK11/trustzone_images/core/securemsm/sse/qsee/SecureUILib/lib/build/secure_ui_sample/scorpion/IADAANAA/secure_ui_lib.lib(SecureUILib.o)
 .data          0x00000000        0x0 /local/mnt/workspace/CRMBuilds/TZ.BF.4.0.3.c1-00005-M8996AAAAANAZT-1_20170110_230814/b/HK11/trustzone_images/core/securemsm/sse/qsee/SecureUILib/lib/build/secure_ui_sample/scorpion/IADAANAA/secure_ui_lib.lib(01_startTouch.o)
 .bss           0x00000000        0x0 /local/mnt/workspace/CRMBuilds/TZ.BF.4.0.3.c1-00005-M8996AAAAANAZT-1_20170110_230814/b/HK11/trustzone_images/core/securemsm/sse/qsee/SecureUILib/lib/build/secure_ui_sample/scorpion/IADAANAA/secure_ui_lib.lib(01_startTouch.o)
 .ARM.exidx     0x00000000        0x8 /local/mnt/workspace/CRMBuilds/TZ.BF.4.0.3.c1-00005-M8996AAAAANAZT-1_20170110_230814/b/HK11/trustzone_images/core/securemsm/sse/qsee/SecureUILib/lib/build/secure_ui_sample/scorpion/IADAANAA/secure_ui_lib.lib(01_startTouch.o)
 .data          0x00000000        0x0 /local/mnt/workspace/CRMBuilds/TZ.BF.4.0.3.c1-00005-M8996AAAAANAZT-1_20170110_230814/b/HK11/trustzone_images/core/securemsm/sse/qsee/SecureUILib/lib/build/secure_ui_sample/scorpion/IADAANAA/secure_ui_lib.lib(02_processTouch.o)
 .bss           0x00000000        0x0 /local/mnt/workspace/CRMBuilds/TZ.BF.4.0.3.c1-00005-M8996AAAAANAZT-1_20170110_230814/b/HK11/trustzone_images/core/securemsm/sse/qsee/SecureUILib/lib/build/secure_ui_sample/scorpion/IADAANAA/secure_ui_lib.lib(02_processTouch.o)
 .ARM.exidx     0x00000000        0x8 /local/mnt/workspace/CRMBuilds/TZ.BF.4.0.3.c1-00005-M8996AAAAANAZT-1_20170110_230814/b/HK11/trustzone_images/core/securemsm/sse/qsee/SecureUILib/lib/build/secure_ui_sample/scorpion/IADAANAA/secure_ui_lib.lib(02_processTouch.o)
 .data          0x00000000        0x0 /local/mnt/workspace/CRMBuilds/TZ.BF.4.0.3.c1-00005-M8996AAAAANAZT-1_20170110_230814/b/HK11/trustzone_images/core/securemsm/sse/qsee/SecureUILib/lib/build/secure_ui_sample/scorpion/IADAANAA/secure_ui_lib.lib(03_stopTouch.o)
 .bss           0x00000000        0x0 /local/mnt/workspace/CRMBuilds/TZ.BF.4.0.3.c1-00005-M8996AAAAANAZT-1_20170110_230814/b/HK11/trustzone_images/core/securemsm/sse/qsee/SecureUILib/lib/build/secure_ui_sample/scorpion/IADAANAA/secure_ui_lib.lib(03_stopTouch.o)
 .ARM.exidx     0x00000000       0x10 /local/mnt/workspace/CRMBuilds/TZ.BF.4.0.3.c1-00005-M8996AAAAANAZT-1_20170110_230814/b/HK11/trustzone_images/core/securemsm/sse/qsee/SecureUILib/lib/build/secure_ui_sample/scorpion/IADAANAA/secure_ui_lib.lib(03_stopTouch.o)
 .data          0x00000000        0x0 /local/mnt/workspace/CRMBuilds/TZ.BF.4.0.3.c1-00005-M8996AAAAANAZT-1_20170110_230814/b/HK11/trustzone_images/core/securemsm/sse/qsee/SecureUILib/lib/build/secure_ui_sample/scorpion/IADAANAA/secure_ui_lib.lib(04_prepareRequest.o)
 .bss           0x00000000        0x0 /local/mnt/workspace/CRMBuilds/TZ.BF.4.0.3.c1-00005-M8996AAAAANAZT-1_20170110_230814/b/HK11/trustzone_images/core/securemsm/sse/qsee/SecureUILib/lib/build/secure_ui_sample/scorpion/IADAANAA/secure_ui_lib.lib(04_prepareRequest.o)
 .ARM.exidx     0x00000000        0x8 /local/mnt/workspace/CRMBuilds/TZ.BF.4.0.3.c1-00005-M8996AAAAANAZT-1_20170110_230814/b/HK11/trustzone_images/core/securemsm/sse/qsee/SecureUILib/lib/build/secure_ui_sample/scorpion/IADAANAA/secure_ui_lib.lib(04_prepareRequest.o)
 .data          0x00000000        0x0 /local/mnt/workspace/CRMBuilds/TZ.BF.4.0.3.c1-00005-M8996AAAAANAZT-1_20170110_230814/b/HK11/trustzone_images/core/securemsm/sse/qsee/SecureUILib/lib/build/secure_ui_sample/scorpion/IADAANAA/secure_ui_lib.lib(05_storeIndicator.o)
 .bss           0x00000000        0x0 /local/mnt/workspace/CRMBuilds/TZ.BF.4.0.3.c1-00005-M8996AAAAANAZT-1_20170110_230814/b/HK11/trustzone_images/core/securemsm/sse/qsee/SecureUILib/lib/build/secure_ui_sample/scorpion/IADAANAA/secure_ui_lib.lib(05_storeIndicator.o)
 .ARM.exidx     0x00000000        0x8 /local/mnt/workspace/CRMBuilds/TZ.BF.4.0.3.c1-00005-M8996AAAAANAZT-1_20170110_230814/b/HK11/trustzone_images/core/securemsm/sse/qsee/SecureUILib/lib/build/secure_ui_sample/scorpion/IADAANAA/secure_ui_lib.lib(05_storeIndicator.o)
 .group         0x00000000        0xc /local/mnt/workspace/CRMBuilds/TZ.BF.4.0.3.c1-00005-M8996AAAAANAZT-1_20170110_230814/b/HK11/trustzone_images/core/securemsm/trustzone/qsapps/libs/applib/common_applib/build/secure_ui_sample/scorpion/IADAANAA/tzapp_entrylib.lib(common_applib.o)
 .ARM.exidx     0x00000000      0x108 /local/mnt/workspace/CRMBuilds/TZ.BF.4.0.3.c1-00005-M8996AAAAANAZT-1_20170110_230814/b/HK11/trustzone_images/core/securemsm/trustzone/qsapps/libs/applib/common_applib/build/secure_ui_sample/scorpion/IADAANAA/tzapp_entrylib.lib(common_applib.o)
 .ARM.exidx.text.tz_module_open
                0x00000000        0x8 /local/mnt/workspace/CRMBuilds/TZ.BF.4.0.3.c1-00005-M8996AAAAANAZT-1_20170110_230814/b/HK11/trustzone_images/core/securemsm/trustzone/qsapps/libs/applib/common_applib/build/secure_ui_sample/scorpion/IADAANAA/tzapp_entrylib.lib(common_applib.o)
 .data          0x00000000        0x0 /local/mnt/workspace/CRMBuilds/TZ.BF.4.0.3.c1-00005-M8996AAAAANAZT-1_20170110_230814/b/HK11/trustzone_images/core/securemsm/trustzone/qsapps/libs/applib/proxy/build/secure_ui_sample/scorpion/IADAANAA/tzlib_proxy.lib(prxy_services.o)
 .bss           0x00000000        0x0 /local/mnt/workspace/CRMBuilds/TZ.BF.4.0.3.c1-00005-M8996AAAAANAZT-1_20170110_230814/b/HK11/trustzone_images/core/securemsm/trustzone/qsapps/libs/applib/proxy/build/secure_ui_sample/scorpion/IADAANAA/tzlib_proxy.lib(prxy_services.o)
 .ARM.exidx     0x00000000      0x100 /local/mnt/workspace/CRMBuilds/TZ.BF.4.0.3.c1-00005-M8996AAAAANAZT-1_20170110_230814/b/HK11/trustzone_images/core/securemsm/trustzone/qsapps/libs/applib/proxy/build/secure_ui_sample/scorpion/IADAANAA/tzlib_proxy.lib(prxy_services.o)
 .data          0x00000000        0x0 /local/mnt/workspace/CRMBuilds/TZ.BF.4.0.3.c1-00005-M8996AAAAANAZT-1_20170110_230814/b/HK11/trustzone_images/core/securemsm/trustzone/qsapps/libs/applib/proxy/build/secure_ui_sample/scorpion/IADAANAA/tzlib_proxy.lib(prxy_qsee_shim.o)
 .bss           0x00000000        0x0 /local/mnt/workspace/CRMBuilds/TZ.BF.4.0.3.c1-00005-M8996AAAAANAZT-1_20170110_230814/b/HK11/trustzone_images/core/securemsm/trustzone/qsapps/libs/applib/proxy/build/secure_ui_sample/scorpion/IADAANAA/tzlib_proxy.lib(prxy_qsee_shim.o)
 .ARM.exidx     0x00000000      0x108 /local/mnt/workspace/CRMBuilds/TZ.BF.4.0.3.c1-00005-M8996AAAAANAZT-1_20170110_230814/b/HK11/trustzone_images/core/securemsm/trustzone/qsapps/libs/applib/proxy/build/secure_ui_sample/scorpion/IADAANAA/tzlib_proxy.lib(prxy_qsee_shim.o)
 .data          0x00000000        0x0 /local/mnt/workspace/CRMBuilds/TZ.BF.4.0.3.c1-00005-M8996AAAAANAZT-1_20170110_230814/b/HK11/trustzone_images/core/securemsm/trustzone/qsapps/libs/applib/proxy/build/secure_ui_sample/scorpion/IADAANAA/tzlib_proxy.lib(prxy_ufdes.o)
 .bss           0x00000000        0x0 /local/mnt/workspace/CRMBuilds/TZ.BF.4.0.3.c1-00005-M8996AAAAANAZT-1_20170110_230814/b/HK11/trustzone_images/core/securemsm/trustzone/qsapps/libs/applib/proxy/build/secure_ui_sample/scorpion/IADAANAA/tzlib_proxy.lib(prxy_ufdes.o)
 .ARM.exidx     0x00000000       0x20 /local/mnt/workspace/CRMBuilds/TZ.BF.4.0.3.c1-00005-M8996AAAAANAZT-1_20170110_230814/b/HK11/trustzone_images/core/securemsm/trustzone/qsapps/libs/applib/proxy/build/secure_ui_sample/scorpion/IADAANAA/tzlib_proxy.lib(prxy_ufdes.o)
 .data          0x00000000        0x0 /local/mnt/workspace/CRMBuilds/TZ.BF.4.0.3.c1-00005-M8996AAAAANAZT-1_20170110_230814/b/HK11/trustzone_images/core/securemsm/trustzone/qsapps/libs/applib/proxy/build/secure_ui_sample/scorpion/IADAANAA/tzlib_proxy.lib(prxy_secmath.o)
 .bss           0x00000000        0x0 /local/mnt/workspace/CRMBuilds/TZ.BF.4.0.3.c1-00005-M8996AAAAANAZT-1_20170110_230814/b/HK11/trustzone_images/core/securemsm/trustzone/qsapps/libs/applib/proxy/build/secure_ui_sample/scorpion/IADAANAA/tzlib_proxy.lib(prxy_secmath.o)
 .ARM.exidx     0x00000000       0x10 /local/mnt/workspace/CRMBuilds/TZ.BF.4.0.3.c1-00005-M8996AAAAANAZT-1_20170110_230814/b/HK11/trustzone_images/core/securemsm/trustzone/qsapps/libs/applib/proxy/build/secure_ui_sample/scorpion/IADAANAA/tzlib_proxy.lib(prxy_secmath.o)
 .data          0x00000000        0x0 /local/mnt/workspace/CRMBuilds/TZ.BF.4.0.3.c1-00005-M8996AAAAANAZT-1_20170110_230814/b/HK11/trustzone_images/core/securemsm/trustzone/qsapps/libs/applib/proxy/build/secure_ui_sample/scorpion/IADAANAA/tzlib_proxy.lib(prxy_secrsa.o)
 .bss           0x00000000        0x0 /local/mnt/workspace/CRMBuilds/TZ.BF.4.0.3.c1-00005-M8996AAAAANAZT-1_20170110_230814/b/HK11/trustzone_images/core/securemsm/trustzone/qsapps/libs/applib/proxy/build/secure_ui_sample/scorpion/IADAANAA/tzlib_proxy.lib(prxy_secrsa.o)
 .ARM.exidx     0x00000000       0x50 /local/mnt/workspace/CRMBuilds/TZ.BF.4.0.3.c1-00005-M8996AAAAANAZT-1_20170110_230814/b/HK11/trustzone_images/core/securemsm/trustzone/qsapps/libs/applib/proxy/build/secure_ui_sample/scorpion/IADAANAA/tzlib_proxy.lib(prxy_secrsa.o)
 .data          0x00000000        0x0 /local/mnt/workspace/CRMBuilds/TZ.BF.4.0.3.c1-00005-M8996AAAAANAZT-1_20170110_230814/b/HK11/trustzone_images/core/securemsm/trustzone/qsapps/libs/applib/proxy/build/secure_ui_sample/scorpion/IADAANAA/tzlib_proxy.lib(prxy_ecc.o)
 .bss           0x00000000        0x0 /local/mnt/workspace/CRMBuilds/TZ.BF.4.0.3.c1-00005-M8996AAAAANAZT-1_20170110_230814/b/HK11/trustzone_images/core/securemsm/trustzone/qsapps/libs/applib/proxy/build/secure_ui_sample/scorpion/IADAANAA/tzlib_proxy.lib(prxy_ecc.o)
 .ARM.exidx     0x00000000       0x88 /local/mnt/workspace/CRMBuilds/TZ.BF.4.0.3.c1-00005-M8996AAAAANAZT-1_20170110_230814/b/HK11/trustzone_images/core/securemsm/trustzone/qsapps/libs/applib/proxy/build/secure_ui_sample/scorpion/IADAANAA/tzlib_proxy.lib(prxy_ecc.o)
 .data          0x00000000        0x0 /local/mnt/workspace/CRMBuilds/TZ.BF.4.0.3.c1-00005-M8996AAAAANAZT-1_20170110_230814/b/HK11/trustzone_images/core/securemsm/trustzone/qsapps/libs/applib/qsee/build/secure_ui_sample/scorpion/IADAANAA/tzapp_entrylib.lib(mink_shared_code.o)
 .bss           0x00000000        0x0 /local/mnt/workspace/CRMBuilds/TZ.BF.4.0.3.c1-00005-M8996AAAAANAZT-1_20170110_230814/b/HK11/trustzone_images/core/securemsm/trustzone/qsapps/libs/applib/qsee/build/secure_ui_sample/scorpion/IADAANAA/tzapp_entrylib.lib(mink_shared_code.o)
 .ARM.exidx     0x00000000       0x20 /local/mnt/workspace/CRMBuilds/TZ.BF.4.0.3.c1-00005-M8996AAAAANAZT-1_20170110_230814/b/HK11/trustzone_images/core/securemsm/trustzone/qsapps/libs/applib/qsee/build/secure_ui_sample/scorpion/IADAANAA/tzapp_entrylib.lib(mink_shared_code.o)
 .data          0x00000000        0x0 /local/mnt/workspace/CRMBuilds/TZ.BF.4.0.3.c1-00005-M8996AAAAANAZT-1_20170110_230814/b/HK11/trustzone_images/core/securemsm/trustzone/qsapps/libs/applib/qsee/build/secure_ui_sample/scorpion/IADAANAA/tzapp_entrylib.lib(qsee_env.o)
 .ARM.exidx     0x00000000       0x28 /local/mnt/workspace/CRMBuilds/TZ.BF.4.0.3.c1-00005-M8996AAAAANAZT-1_20170110_230814/b/HK11/trustzone_images/core/securemsm/trustzone/qsapps/libs/applib/qsee/build/secure_ui_sample/scorpion/IADAANAA/tzapp_entrylib.lib(qsee_env.o)
 .data          0x00000000        0x0 /local/mnt/workspace/CRMBuilds/TZ.BF.4.0.3.c1-00005-M8996AAAAANAZT-1_20170110_230814/b/HK11/trustzone_images/core/securemsm/trustzone/qsapps/libs/applib/qsee/build/secure_ui_sample/scorpion/IADAANAA/tzapp_entrylib.lib(qsee_prng.o)
 .bss           0x00000000        0x0 /local/mnt/workspace/CRMBuilds/TZ.BF.4.0.3.c1-00005-M8996AAAAANAZT-1_20170110_230814/b/HK11/trustzone_images/core/securemsm/trustzone/qsapps/libs/applib/qsee/build/secure_ui_sample/scorpion/IADAANAA/tzapp_entrylib.lib(qsee_prng.o)
 .ARM.exidx     0x00000000        0x8 /local/mnt/workspace/CRMBuilds/TZ.BF.4.0.3.c1-00005-M8996AAAAANAZT-1_20170110_230814/b/HK11/trustzone_images/core/securemsm/trustzone/qsapps/libs/applib/qsee/build/secure_ui_sample/scorpion/IADAANAA/tzapp_entrylib.lib(qsee_prng.o)
 .data          0x00000000        0x0 /local/mnt/workspace/CRMBuilds/TZ.BF.4.0.3.c1-00005-M8996AAAAANAZT-1_20170110_230814/b/HK11/trustzone_images/core/securemsm/trustzone/qsapps/libs/applib/qsee/build/secure_ui_sample/scorpion/IADAANAA/tzapp_entrylib.lib(qsee_secdisp.o)
 .bss           0x00000000        0x0 /local/mnt/workspace/CRMBuilds/TZ.BF.4.0.3.c1-00005-M8996AAAAANAZT-1_20170110_230814/b/HK11/trustzone_images/core/securemsm/trustzone/qsapps/libs/applib/qsee/build/secure_ui_sample/scorpion/IADAANAA/tzapp_entrylib.lib(qsee_secdisp.o)
 .ARM.exidx     0x00000000       0x10 /local/mnt/workspace/CRMBuilds/TZ.BF.4.0.3.c1-00005-M8996AAAAANAZT-1_20170110_230814/b/HK11/trustzone_images/core/securemsm/trustzone/qsapps/libs/applib/qsee/build/secure_ui_sample/scorpion/IADAANAA/tzapp_entrylib.lib(qsee_secdisp.o)
 .data          0x00000000        0x0 /local/mnt/workspace/CRMBuilds/TZ.BF.4.0.3.c1-00005-M8996AAAAANAZT-1_20170110_230814/b/HK11/trustzone_images/core/securemsm/trustzone/qsapps/libs/applib/qsee/build/secure_ui_sample/scorpion/IADAANAA/tzapp_entrylib.lib(qsee_nsmem.o)
 .bss           0x00000000        0x0 /local/mnt/workspace/CRMBuilds/TZ.BF.4.0.3.c1-00005-M8996AAAAANAZT-1_20170110_230814/b/HK11/trustzone_images/core/securemsm/trustzone/qsapps/libs/applib/qsee/build/secure_ui_sample/scorpion/IADAANAA/tzapp_entrylib.lib(qsee_nsmem.o)
 .ARM.exidx     0x00000000       0x20 /local/mnt/workspace/CRMBuilds/TZ.BF.4.0.3.c1-00005-M8996AAAAANAZT-1_20170110_230814/b/HK11/trustzone_images/core/securemsm/trustzone/qsapps/libs/applib/qsee/build/secure_ui_sample/scorpion/IADAANAA/tzapp_entrylib.lib(qsee_nsmem.o)
 .data          0x00000000        0x0 /local/mnt/workspace/CRMBuilds/TZ.BF.4.0.3.c1-00005-M8996AAAAANAZT-1_20170110_230814/b/HK11/trustzone_images/core/securemsm/trustzone/qsapps/libs/applib/qsee/build/secure_ui_sample/scorpion/IADAANAA/tzapp_entrylib.lib(qsee_timer_shim.o)
 .bss           0x00000000        0x0 /local/mnt/workspace/CRMBuilds/TZ.BF.4.0.3.c1-00005-M8996AAAAANAZT-1_20170110_230814/b/HK11/trustzone_images/core/securemsm/trustzone/qsapps/libs/applib/qsee/build/secure_ui_sample/scorpion/IADAANAA/tzapp_entrylib.lib(qsee_timer_shim.o)
 .ARM.exidx     0x00000000       0x18 /local/mnt/workspace/CRMBuilds/TZ.BF.4.0.3.c1-00005-M8996AAAAANAZT-1_20170110_230814/b/HK11/trustzone_images/core/securemsm/trustzone/qsapps/libs/applib/qsee/build/secure_ui_sample/scorpion/IADAANAA/tzapp_entrylib.lib(qsee_timer_shim.o)
 .text          0x00000000        0x0 /local/mnt/workspace/CRMBuilds/TZ.BF.4.0.3.c1-00005-M8996AAAAANAZT-1_20170110_230814/b/HK11/trustzone_images/core/securemsm/trustzone/qsapps/libs/applib/qsee/build/secure_ui_sample/scorpion/IADAANAA/tzapp_entrylib.lib(tzapp_syscall.o)
 .data          0x00000000        0x0 /local/mnt/workspace/CRMBuilds/TZ.BF.4.0.3.c1-00005-M8996AAAAANAZT-1_20170110_230814/b/HK11/trustzone_images/core/securemsm/trustzone/qsapps/libs/applib/qsee/build/secure_ui_sample/scorpion/IADAANAA/tzapp_entrylib.lib(tzapp_syscall.o)
 .bss           0x00000000        0x0 /local/mnt/workspace/CRMBuilds/TZ.BF.4.0.3.c1-00005-M8996AAAAANAZT-1_20170110_230814/b/HK11/trustzone_images/core/securemsm/trustzone/qsapps/libs/applib/qsee/build/secure_ui_sample/scorpion/IADAANAA/tzapp_entrylib.lib(tzapp_syscall.o)
 .data          0x00000000        0x0 /local/mnt/workspace/CRMBuilds/TZ.BF.4.0.3.c1-00005-M8996AAAAANAZT-1_20170110_230814/b/HK11/trustzone_images/core/securemsm/trustzone/qsapps/libs/applib/qsee/build/secure_ui_sample/scorpion/IADAANAA/tzapp_entrylib.lib(qsee_hash.o)
 .bss           0x00000000        0x0 /local/mnt/workspace/CRMBuilds/TZ.BF.4.0.3.c1-00005-M8996AAAAANAZT-1_20170110_230814/b/HK11/trustzone_images/core/securemsm/trustzone/qsapps/libs/applib/qsee/build/secure_ui_sample/scorpion/IADAANAA/tzapp_entrylib.lib(qsee_hash.o)
 .ARM.exidx     0x00000000       0x48 /local/mnt/workspace/CRMBuilds/TZ.BF.4.0.3.c1-00005-M8996AAAAANAZT-1_20170110_230814/b/HK11/trustzone_images/core/securemsm/trustzone/qsapps/libs/applib/qsee/build/secure_ui_sample/scorpion/IADAANAA/tzapp_entrylib.lib(qsee_hash.o)
 .data          0x00000000        0x0 /local/mnt/workspace/CRMBuilds/TZ.BF.4.0.3.c1-00005-M8996AAAAANAZT-1_20170110_230814/b/HK11/trustzone_images/core/securemsm/trustzone/qsapps/libs/applib/qsee/build/secure_ui_sample/scorpion/IADAANAA/tzapp_entrylib.lib(qsee_shared_buffer.o)
 .bss           0x00000000        0x0 /local/mnt/workspace/CRMBuilds/TZ.BF.4.0.3.c1-00005-M8996AAAAANAZT-1_20170110_230814/b/HK11/trustzone_images/core/securemsm/trustzone/qsapps/libs/applib/qsee/build/secure_ui_sample/scorpion/IADAANAA/tzapp_entrylib.lib(qsee_shared_buffer.o)
 .ARM.exidx     0x00000000       0x10 /local/mnt/workspace/CRMBuilds/TZ.BF.4.0.3.c1-00005-M8996AAAAANAZT-1_20170110_230814/b/HK11/trustzone_images/core/securemsm/trustzone/qsapps/libs/applib/qsee/build/secure_ui_sample/scorpion/IADAANAA/tzapp_entrylib.lib(qsee_shared_buffer.o)
 .data          0x00000000        0x0 /local/mnt/workspace/CRMBuilds/TZ.BF.4.0.3.c1-00005-M8996AAAAANAZT-1_20170110_230814/b/HK11/trustzone_images/core/securemsm/trustzone/qsapps/libs/applib/qsee/build/secure_ui_sample/scorpion/IADAANAA/tzapp_entrylib.lib(qsee_appmessage.o)
 .bss           0x00000000        0x0 /local/mnt/workspace/CRMBuilds/TZ.BF.4.0.3.c1-00005-M8996AAAAANAZT-1_20170110_230814/b/HK11/trustzone_images/core/securemsm/trustzone/qsapps/libs/applib/qsee/build/secure_ui_sample/scorpion/IADAANAA/tzapp_entrylib.lib(qsee_appmessage.o)
 .ARM.exidx     0x00000000       0x18 /local/mnt/workspace/CRMBuilds/TZ.BF.4.0.3.c1-00005-M8996AAAAANAZT-1_20170110_230814/b/HK11/trustzone_images/core/securemsm/trustzone/qsapps/libs/applib/qsee/build/secure_ui_sample/scorpion/IADAANAA/tzapp_entrylib.lib(qsee_appmessage.o)
 .data          0x00000000        0x0 /local/mnt/workspace/CRMBuilds/TZ.BF.4.0.3.c1-00005-M8996AAAAANAZT-1_20170110_230814/b/HK11/trustzone_images/core/securemsm/trustzone/qsapps/libs/applib/qsee/build/secure_ui_sample/scorpion/IADAANAA/tzapp_entrylib.lib(sfs_api.o)
 .ARM.exidx     0x00000000       0x70 /local/mnt/workspace/CRMBuilds/TZ.BF.4.0.3.c1-00005-M8996AAAAANAZT-1_20170110_230814/b/HK11/trustzone_images/core/securemsm/trustzone/qsapps/libs/applib/qsee/build/secure_ui_sample/scorpion/IADAANAA/tzapp_entrylib.lib(sfs_api.o)
 .data          0x00000000        0x0 /local/mnt/workspace/CRMBuilds/TZ.BF.4.0.3.c1-00005-M8996AAAAANAZT-1_20170110_230814/b/HK11/trustzone_images/core/securemsm/trustzone/qsapps/libs/applib/qsee/build/secure_ui_sample/scorpion/IADAANAA/tzapp_entrylib.lib(tzapp_lib_main.o)
 .bss           0x00000000        0x0 /local/mnt/workspace/CRMBuilds/TZ.BF.4.0.3.c1-00005-M8996AAAAANAZT-1_20170110_230814/b/HK11/trustzone_images/core/securemsm/trustzone/qsapps/libs/applib/qsee/build/secure_ui_sample/scorpion/IADAANAA/tzapp_entrylib.lib(tzapp_lib_main.o)
 .ARM.exidx     0x00000000       0x40 /local/mnt/workspace/CRMBuilds/TZ.BF.4.0.3.c1-00005-M8996AAAAANAZT-1_20170110_230814/b/HK11/trustzone_images/core/securemsm/trustzone/qsapps/libs/applib/qsee/build/secure_ui_sample/scorpion/IADAANAA/tzapp_entrylib.lib(tzapp_lib_main.o)
 .text          0x00000000        0x0 /local/mnt/workspace/CRMBuilds/TZ.BF.4.0.3.c1-00005-M8996AAAAANAZT-1_20170110_230814/b/HK11/trustzone_images/core/securemsm/trustzone/qsapps/libs/applib/qsee/build/secure_ui_sample/scorpion/IADAANAA/tzapp_entrylib.lib(kthread_shared.o)
 .data          0x00000000        0x0 /local/mnt/workspace/CRMBuilds/TZ.BF.4.0.3.c1-00005-M8996AAAAANAZT-1_20170110_230814/b/HK11/trustzone_images/core/securemsm/trustzone/qsapps/libs/applib/qsee/build/secure_ui_sample/scorpion/IADAANAA/tzapp_entrylib.lib(kthread_shared.o)
 .bss           0x00000000        0x0 /local/mnt/workspace/CRMBuilds/TZ.BF.4.0.3.c1-00005-M8996AAAAANAZT-1_20170110_230814/b/HK11/trustzone_images/core/securemsm/trustzone/qsapps/libs/applib/qsee/build/secure_ui_sample/scorpion/IADAANAA/tzapp_entrylib.lib(kthread_shared.o)
 .data          0x00000000        0x0 /afs/localcell/cm/gv2.6/sysname/pkg.@sys/qct/software/llvm/release/arm/3.5.2.4/tools/lib32/lib/libc.a(vsnprintf.o)
 .bss           0x00000000        0x0 /afs/localcell/cm/gv2.6/sysname/pkg.@sys/qct/software/llvm/release/arm/3.5.2.4/tools/lib32/lib/libc.a(vsnprintf.o)
 .ARM.exidx     0x00000000       0x10 /afs/localcell/cm/gv2.6/sysname/pkg.@sys/qct/software/llvm/release/arm/3.5.2.4/tools/lib32/lib/libc.a(vsnprintf.o)
 .note.GNU-stack
                0x00000000        0x0 /afs/localcell/cm/gv2.6/sysname/pkg.@sys/qct/software/llvm/release/arm/3.5.2.4/tools/lib32/lib/libc.a(vsnprintf.o)
 .data          0x00000000        0x0 /afs/localcell/cm/gv2.6/sysname/pkg.@sys/qct/software/llvm/release/arm/3.5.2.4/tools/lib32/lib/libc.a(memcpy.o)
 .bss           0x00000000        0x0 /afs/localcell/cm/gv2.6/sysname/pkg.@sys/qct/software/llvm/release/arm/3.5.2.4/tools/lib32/lib/libc.a(memcpy.o)
 .note.GNU-stack
                0x00000000        0x0 /afs/localcell/cm/gv2.6/sysname/pkg.@sys/qct/software/llvm/release/arm/3.5.2.4/tools/lib32/lib/libc.a(memcpy.o)
 .data          0x00000000        0x0 /afs/localcell/cm/gv2.6/sysname/pkg.@sys/qct/software/llvm/release/arm/3.5.2.4/tools/lib32/lib/libc.a(strcmp.o)
 .bss           0x00000000        0x0 /afs/localcell/cm/gv2.6/sysname/pkg.@sys/qct/software/llvm/release/arm/3.5.2.4/tools/lib32/lib/libc.a(strcmp.o)
 .ARM.exidx     0x00000000        0x8 /afs/localcell/cm/gv2.6/sysname/pkg.@sys/qct/software/llvm/release/arm/3.5.2.4/tools/lib32/lib/libc.a(strcmp.o)
 .note.GNU-stack
                0x00000000        0x0 /afs/localcell/cm/gv2.6/sysname/pkg.@sys/qct/software/llvm/release/arm/3.5.2.4/tools/lib32/lib/libc.a(strcmp.o)
 .data          0x00000000        0x0 /afs/localcell/cm/gv2.6/sysname/pkg.@sys/qct/software/llvm/release/arm/3.5.2.4/tools/lib32/lib/libc.a(strlen.o)
 .bss           0x00000000        0x0 /afs/localcell/cm/gv2.6/sysname/pkg.@sys/qct/software/llvm/release/arm/3.5.2.4/tools/lib32/lib/libc.a(strlen.o)
 .ARM.exidx     0x00000000        0x8 /afs/localcell/cm/gv2.6/sysname/pkg.@sys/qct/software/llvm/release/arm/3.5.2.4/tools/lib32/lib/libc.a(strlen.o)
 .note.GNU-stack
                0x00000000        0x0 /afs/localcell/cm/gv2.6/sysname/pkg.@sys/qct/software/llvm/release/arm/3.5.2.4/tools/lib32/lib/libc.a(strlen.o)
 .data          0x00000000        0x0 /afs/localcell/cm/gv2.6/sysname/pkg.@sys/qct/software/llvm/release/arm/3.5.2.4/tools/lib32/lib/libc.a(strncmp.o)
 .bss           0x00000000        0x0 /afs/localcell/cm/gv2.6/sysname/pkg.@sys/qct/software/llvm/release/arm/3.5.2.4/tools/lib32/lib/libc.a(strncmp.o)
 .ARM.exidx     0x00000000        0x8 /afs/localcell/cm/gv2.6/sysname/pkg.@sys/qct/software/llvm/release/arm/3.5.2.4/tools/lib32/lib/libc.a(strncmp.o)
 .note.GNU-stack
                0x00000000        0x0 /afs/localcell/cm/gv2.6/sysname/pkg.@sys/qct/software/llvm/release/arm/3.5.2.4/tools/lib32/lib/libc.a(strncmp.o)
 .data          0x00000000        0x0 /afs/localcell/cm/gv2.6/sysname/pkg.@sys/qct/software/llvm/release/arm/3.5.2.4/tools/lib32/lib/libc.a(__errno_location.o)
 .ARM.exidx     0x00000000        0x8 /afs/localcell/cm/gv2.6/sysname/pkg.@sys/qct/software/llvm/release/arm/3.5.2.4/tools/lib32/lib/libc.a(__errno_location.o)
 .note.GNU-stack
                0x00000000        0x0 /afs/localcell/cm/gv2.6/sysname/pkg.@sys/qct/software/llvm/release/arm/3.5.2.4/tools/lib32/lib/libc.a(__errno_location.o)
 .text          0x00000000        0x0 /afs/localcell/cm/gv2.6/sysname/pkg.@sys/qct/software/llvm/release/arm/3.5.2.4/tools/lib32/lib/libc.a(libc.o)
 .data          0x00000000        0x0 /afs/localcell/cm/gv2.6/sysname/pkg.@sys/qct/software/llvm/release/arm/3.5.2.4/tools/lib32/lib/libc.a(libc.o)
 .note.GNU-stack
                0x00000000        0x0 /afs/localcell/cm/gv2.6/sysname/pkg.@sys/qct/software/llvm/release/arm/3.5.2.4/tools/lib32/lib/libc.a(libc.o)
 .data          0x00000000        0x0 /afs/localcell/cm/gv2.6/sysname/pkg.@sys/qct/software/llvm/release/arm/3.5.2.4/tools/lib32/lib/libc.a(vfprintf.o)
 .bss           0x00000000        0x0 /afs/localcell/cm/gv2.6/sysname/pkg.@sys/qct/software/llvm/release/arm/3.5.2.4/tools/lib32/lib/libc.a(vfprintf.o)
 .ARM.exidx     0x00000000       0x38 /afs/localcell/cm/gv2.6/sysname/pkg.@sys/qct/software/llvm/release/arm/3.5.2.4/tools/lib32/lib/libc.a(vfprintf.o)
 .note.GNU-stack
                0x00000000        0x0 /afs/localcell/cm/gv2.6/sysname/pkg.@sys/qct/software/llvm/release/arm/3.5.2.4/tools/lib32/lib/libc.a(vfprintf.o)
 .data          0x00000000        0x0 /afs/localcell/cm/gv2.6/sysname/pkg.@sys/qct/software/llvm/release/arm/3.5.2.4/tools/lib32/lib/libc.a(memchr.o)
 .bss           0x00000000        0x0 /afs/localcell/cm/gv2.6/sysname/pkg.@sys/qct/software/llvm/release/arm/3.5.2.4/tools/lib32/lib/libc.a(memchr.o)
 .ARM.exidx     0x00000000        0x8 /afs/localcell/cm/gv2.6/sysname/pkg.@sys/qct/software/llvm/release/arm/3.5.2.4/tools/lib32/lib/libc.a(memchr.o)
 .note.GNU-stack
                0x00000000        0x0 /afs/localcell/cm/gv2.6/sysname/pkg.@sys/qct/software/llvm/release/arm/3.5.2.4/tools/lib32/lib/libc.a(memchr.o)
 .data          0x00000000        0x0 /afs/localcell/cm/gv2.6/sysname/pkg.@sys/qct/software/llvm/release/arm/3.5.2.4/tools/lib32/lib/libc.a(memset.o)
 .bss           0x00000000        0x0 /afs/localcell/cm/gv2.6/sysname/pkg.@sys/qct/software/llvm/release/arm/3.5.2.4/tools/lib32/lib/libc.a(memset.o)
 .ARM.exidx     0x00000000        0x8 /afs/localcell/cm/gv2.6/sysname/pkg.@sys/qct/software/llvm/release/arm/3.5.2.4/tools/lib32/lib/libc.a(memset.o)
 .note.GNU-stack
                0x00000000        0x0 /afs/localcell/cm/gv2.6/sysname/pkg.@sys/qct/software/llvm/release/arm/3.5.2.4/tools/lib32/lib/libc.a(memset.o)
 .data          0x00000000        0x0 /afs/localcell/cm/gv2.6/sysname/pkg.@sys/qct/software/llvm/release/arm/3.5.2.4/tools/lib32/lib/libc.a(strerror.o)
 .bss           0x00000000        0x0 /afs/localcell/cm/gv2.6/sysname/pkg.@sys/qct/software/llvm/release/arm/3.5.2.4/tools/lib32/lib/libc.a(strerror.o)
 .ARM.exidx     0x00000000       0x10 /afs/localcell/cm/gv2.6/sysname/pkg.@sys/qct/software/llvm/release/arm/3.5.2.4/tools/lib32/lib/libc.a(strerror.o)
 .note.GNU-stack
                0x00000000        0x0 /afs/localcell/cm/gv2.6/sysname/pkg.@sys/qct/software/llvm/release/arm/3.5.2.4/tools/lib32/lib/libc.a(strerror.o)
 .data          0x00000000        0x0 /afs/localcell/cm/gv2.6/sysname/pkg.@sys/qct/software/llvm/release/arm/3.5.2.4/tools/lib32/lib/libc.a(__lctrans.o)
 .bss           0x00000000        0x0 /afs/localcell/cm/gv2.6/sysname/pkg.@sys/qct/software/llvm/release/arm/3.5.2.4/tools/lib32/lib/libc.a(__lctrans.o)
 .ARM.exidx     0x00000000       0x18 /afs/localcell/cm/gv2.6/sysname/pkg.@sys/qct/software/llvm/release/arm/3.5.2.4/tools/lib32/lib/libc.a(__lctrans.o)
 .note.GNU-stack
                0x00000000        0x0 /afs/localcell/cm/gv2.6/sysname/pkg.@sys/qct/software/llvm/release/arm/3.5.2.4/tools/lib32/lib/libc.a(__lctrans.o)
 .data          0x00000000        0x0 /afs/localcell/cm/gv2.6/sysname/pkg.@sys/qct/software/llvm/release/arm/3.5.2.4/tools/lib32/lib/libc.a(frexpl.o)
 .bss           0x00000000        0x0 /afs/localcell/cm/gv2.6/sysname/pkg.@sys/qct/software/llvm/release/arm/3.5.2.4/tools/lib32/lib/libc.a(frexpl.o)
 .ARM.exidx     0x00000000        0x8 /afs/localcell/cm/gv2.6/sysname/pkg.@sys/qct/software/llvm/release/arm/3.5.2.4/tools/lib32/lib/libc.a(frexpl.o)
 .note.GNU-stack
                0x00000000        0x0 /afs/localcell/cm/gv2.6/sysname/pkg.@sys/qct/software/llvm/release/arm/3.5.2.4/tools/lib32/lib/libc.a(frexpl.o)
 .data          0x00000000        0x0 /afs/localcell/cm/gv2.6/sysname/pkg.@sys/qct/software/llvm/release/arm/3.5.2.4/tools/lib32/lib/libc.a(wctomb.o)
 .bss           0x00000000        0x0 /afs/localcell/cm/gv2.6/sysname/pkg.@sys/qct/software/llvm/release/arm/3.5.2.4/tools/lib32/lib/libc.a(wctomb.o)
 .ARM.exidx     0x00000000        0x8 /afs/localcell/cm/gv2.6/sysname/pkg.@sys/qct/software/llvm/release/arm/3.5.2.4/tools/lib32/lib/libc.a(wctomb.o)
 .note.GNU-stack
                0x00000000        0x0 /afs/localcell/cm/gv2.6/sysname/pkg.@sys/qct/software/llvm/release/arm/3.5.2.4/tools/lib32/lib/libc.a(wctomb.o)
 .data          0x00000000        0x0 /afs/localcell/cm/gv2.6/sysname/pkg.@sys/qct/software/llvm/release/arm/3.5.2.4/tools/lib32/lib/libc.a(__lockfile.o)
 .bss           0x00000000        0x0 /afs/localcell/cm/gv2.6/sysname/pkg.@sys/qct/software/llvm/release/arm/3.5.2.4/tools/lib32/lib/libc.a(__lockfile.o)
 .ARM.exidx     0x00000000       0x10 /afs/localcell/cm/gv2.6/sysname/pkg.@sys/qct/software/llvm/release/arm/3.5.2.4/tools/lib32/lib/libc.a(__lockfile.o)
 .note.GNU-stack
                0x00000000        0x0 /afs/localcell/cm/gv2.6/sysname/pkg.@sys/qct/software/llvm/release/arm/3.5.2.4/tools/lib32/lib/libc.a(__lockfile.o)
 .data          0x00000000        0x0 /afs/localcell/cm/gv2.6/sysname/pkg.@sys/qct/software/llvm/release/arm/3.5.2.4/tools/lib32/lib/libc.a(fwrite.o)
 .bss           0x00000000        0x0 /afs/localcell/cm/gv2.6/sysname/pkg.@sys/qct/software/llvm/release/arm/3.5.2.4/tools/lib32/lib/libc.a(fwrite.o)
 .ARM.exidx     0x00000000       0x10 /afs/localcell/cm/gv2.6/sysname/pkg.@sys/qct/software/llvm/release/arm/3.5.2.4/tools/lib32/lib/libc.a(fwrite.o)
 .note.GNU-stack
                0x00000000        0x0 /afs/localcell/cm/gv2.6/sysname/pkg.@sys/qct/software/llvm/release/arm/3.5.2.4/tools/lib32/lib/libc.a(fwrite.o)
 .data          0x00000000        0x0 /afs/localcell/cm/gv2.6/sysname/pkg.@sys/qct/software/llvm/release/arm/3.5.2.4/tools/lib32/lib/libc.a(__wait.o)
 .bss           0x00000000        0x0 /afs/localcell/cm/gv2.6/sysname/pkg.@sys/qct/software/llvm/release/arm/3.5.2.4/tools/lib32/lib/libc.a(__wait.o)
 .ARM.exidx     0x00000000        0x8 /afs/localcell/cm/gv2.6/sysname/pkg.@sys/qct/software/llvm/release/arm/3.5.2.4/tools/lib32/lib/libc.a(__wait.o)
 .note.GNU-stack
                0x00000000        0x0 /afs/localcell/cm/gv2.6/sysname/pkg.@sys/qct/software/llvm/release/arm/3.5.2.4/tools/lib32/lib/libc.a(__wait.o)
 .data          0x00000000        0x0 /afs/localcell/cm/gv2.6/sysname/pkg.@sys/qct/software/llvm/release/arm/3.5.2.4/tools/lib32/lib/libc.a(syscall.o)
 .bss           0x00000000        0x0 /afs/localcell/cm/gv2.6/sysname/pkg.@sys/qct/software/llvm/release/arm/3.5.2.4/tools/lib32/lib/libc.a(syscall.o)
 .note.GNU-stack
                0x00000000        0x0 /afs/localcell/cm/gv2.6/sysname/pkg.@sys/qct/software/llvm/release/arm/3.5.2.4/tools/lib32/lib/libc.a(syscall.o)
 .data          0x00000000        0x0 /afs/localcell/cm/gv2.6/sysname/pkg.@sys/qct/software/llvm/release/arm/3.5.2.4/tools/lib32/lib/libc.a(frexp.o)
 .bss           0x00000000        0x0 /afs/localcell/cm/gv2.6/sysname/pkg.@sys/qct/software/llvm/release/arm/3.5.2.4/tools/lib32/lib/libc.a(frexp.o)
 .ARM.exidx     0x00000000        0x8 /afs/localcell/cm/gv2.6/sysname/pkg.@sys/qct/software/llvm/release/arm/3.5.2.4/tools/lib32/lib/libc.a(frexp.o)
 .note.GNU-stack
                0x00000000        0x0 /afs/localcell/cm/gv2.6/sysname/pkg.@sys/qct/software/llvm/release/arm/3.5.2.4/tools/lib32/lib/libc.a(frexp.o)
 .data          0x00000000        0x0 /afs/localcell/cm/gv2.6/sysname/pkg.@sys/qct/software/llvm/release/arm/3.5.2.4/tools/lib32/lib/libc.a(wcrtomb.o)
 .bss           0x00000000        0x0 /afs/localcell/cm/gv2.6/sysname/pkg.@sys/qct/software/llvm/release/arm/3.5.2.4/tools/lib32/lib/libc.a(wcrtomb.o)
 .ARM.exidx     0x00000000        0x8 /afs/localcell/cm/gv2.6/sysname/pkg.@sys/qct/software/llvm/release/arm/3.5.2.4/tools/lib32/lib/libc.a(wcrtomb.o)
 .note.GNU-stack
                0x00000000        0x0 /afs/localcell/cm/gv2.6/sysname/pkg.@sys/qct/software/llvm/release/arm/3.5.2.4/tools/lib32/lib/libc.a(wcrtomb.o)
 .data          0x00000000        0x0 /afs/localcell/cm/gv2.6/sysname/pkg.@sys/qct/software/llvm/release/arm/3.5.2.4/tools/lib32/lib/libc.a(__towrite.o)
 .bss           0x00000000        0x0 /afs/localcell/cm/gv2.6/sysname/pkg.@sys/qct/software/llvm/release/arm/3.5.2.4/tools/lib32/lib/libc.a(__towrite.o)
 .ARM.exidx     0x00000000       0x10 /afs/localcell/cm/gv2.6/sysname/pkg.@sys/qct/software/llvm/release/arm/3.5.2.4/tools/lib32/lib/libc.a(__towrite.o)
 .note.GNU-stack
                0x00000000        0x0 /afs/localcell/cm/gv2.6/sysname/pkg.@sys/qct/software/llvm/release/arm/3.5.2.4/tools/lib32/lib/libc.a(__towrite.o)
 .data          0x00000000        0x0 /afs/localcell/cm/gv2.6/sysname/pkg.@sys/qct/software/llvm/release/arm/3.5.2.4/tools/lib32/lib/libc.a(__stdio_exit.o)
 .ARM.exidx     0x00000000       0x10 /afs/localcell/cm/gv2.6/sysname/pkg.@sys/qct/software/llvm/release/arm/3.5.2.4/tools/lib32/lib/libc.a(__stdio_exit.o)
 .note.GNU-stack
                0x00000000        0x0 /afs/localcell/cm/gv2.6/sysname/pkg.@sys/qct/software/llvm/release/arm/3.5.2.4/tools/lib32/lib/libc.a(__stdio_exit.o)
 .data          0x00000000        0x0 /afs/localcell/cm/gv2.6/sysname/pkg.@sys/qct/software/llvm/release/arm/3.5.2.4/tools/lib32/lib/libc.a(__lock.o)
 .bss           0x00000000        0x0 /afs/localcell/cm/gv2.6/sysname/pkg.@sys/qct/software/llvm/release/arm/3.5.2.4/tools/lib32/lib/libc.a(__lock.o)
 .ARM.exidx     0x00000000       0x10 /afs/localcell/cm/gv2.6/sysname/pkg.@sys/qct/software/llvm/release/arm/3.5.2.4/tools/lib32/lib/libc.a(__lock.o)
 .note.GNU-stack
                0x00000000        0x0 /afs/localcell/cm/gv2.6/sysname/pkg.@sys/qct/software/llvm/release/arm/3.5.2.4/tools/lib32/lib/libc.a(__lock.o)
 .data          0x00000000        0x0 /afs/localcell/cm/gv2.6/sysname/pkg.@sys/qct/software/llvm/release/arm/3.5.2.4/lib/clang/3.5.2/lib/linux/libclang_rt.builtins-arm.a(aeabi_dcmp.S.o)
 .bss           0x00000000        0x0 /afs/localcell/cm/gv2.6/sysname/pkg.@sys/qct/software/llvm/release/arm/3.5.2.4/lib/clang/3.5.2/lib/linux/libclang_rt.builtins-arm.a(aeabi_dcmp.S.o)
 .data          0x00000000        0x0 /afs/localcell/cm/gv2.6/sysname/pkg.@sys/qct/software/llvm/release/arm/3.5.2.4/lib/clang/3.5.2/lib/linux/libclang_rt.builtins-arm.a(aeabi_memcpy.S.o)
 .bss           0x00000000        0x0 /afs/localcell/cm/gv2.6/sysname/pkg.@sys/qct/software/llvm/release/arm/3.5.2.4/lib/clang/3.5.2/lib/linux/libclang_rt.builtins-arm.a(aeabi_memcpy.S.o)
 .data          0x00000000        0x0 /afs/localcell/cm/gv2.6/sysname/pkg.@sys/qct/software/llvm/release/arm/3.5.2.4/lib/clang/3.5.2/lib/linux/libclang_rt.builtins-arm.a(aeabi_memset.S.o)
 .bss           0x00000000        0x0 /afs/localcell/cm/gv2.6/sysname/pkg.@sys/qct/software/llvm/release/arm/3.5.2.4/lib/clang/3.5.2/lib/linux/libclang_rt.builtins-arm.a(aeabi_memset.S.o)
 .data          0x00000000        0x0 /afs/localcell/cm/gv2.6/sysname/pkg.@sys/qct/software/llvm/release/arm/3.5.2.4/lib/clang/3.5.2/lib/linux/libclang_rt.builtins-arm.a(aeabi_uldivmod.S.o)
 .bss           0x00000000        0x0 /afs/localcell/cm/gv2.6/sysname/pkg.@sys/qct/software/llvm/release/arm/3.5.2.4/lib/clang/3.5.2/lib/linux/libclang_rt.builtins-arm.a(aeabi_uldivmod.S.o)
 .data          0x00000000        0x0 /afs/localcell/cm/gv2.6/sysname/pkg.@sys/qct/software/llvm/release/arm/3.5.2.4/lib/clang/3.5.2/lib/linux/libclang_rt.builtins-arm.a(comparedf2.c.o)
 .bss           0x00000000        0x0 /afs/localcell/cm/gv2.6/sysname/pkg.@sys/qct/software/llvm/release/arm/3.5.2.4/lib/clang/3.5.2/lib/linux/libclang_rt.builtins-arm.a(comparedf2.c.o)
 .ARM.exidx     0x00000000       0x38 /afs/localcell/cm/gv2.6/sysname/pkg.@sys/qct/software/llvm/release/arm/3.5.2.4/lib/clang/3.5.2/lib/linux/libclang_rt.builtins-arm.a(comparedf2.c.o)
 .data          0x00000000        0x0 /afs/localcell/cm/gv2.6/sysname/pkg.@sys/qct/software/llvm/release/arm/3.5.2.4/lib/clang/3.5.2/lib/linux/libclang_rt.builtins-arm.a(divdf3.c.o)
 .bss           0x00000000        0x0 /afs/localcell/cm/gv2.6/sysname/pkg.@sys/qct/software/llvm/release/arm/3.5.2.4/lib/clang/3.5.2/lib/linux/libclang_rt.builtins-arm.a(divdf3.c.o)
 .ARM.exidx     0x00000000        0x8 /afs/localcell/cm/gv2.6/sysname/pkg.@sys/qct/software/llvm/release/arm/3.5.2.4/lib/clang/3.5.2/lib/linux/libclang_rt.builtins-arm.a(divdf3.c.o)
 .data          0x00000000        0x0 /afs/localcell/cm/gv2.6/sysname/pkg.@sys/qct/software/llvm/release/arm/3.5.2.4/lib/clang/3.5.2/lib/linux/libclang_rt.builtins-arm.a(fixunsdfsi.c.o)
 .bss           0x00000000        0x0 /afs/localcell/cm/gv2.6/sysname/pkg.@sys/qct/software/llvm/release/arm/3.5.2.4/lib/clang/3.5.2/lib/linux/libclang_rt.builtins-arm.a(fixunsdfsi.c.o)
 .ARM.exidx     0x00000000        0x8 /afs/localcell/cm/gv2.6/sysname/pkg.@sys/qct/software/llvm/release/arm/3.5.2.4/lib/clang/3.5.2/lib/linux/libclang_rt.builtins-arm.a(fixunsdfsi.c.o)
 .data          0x00000000        0x0 /afs/localcell/cm/gv2.6/sysname/pkg.@sys/qct/software/llvm/release/arm/3.5.2.4/lib/clang/3.5.2/lib/linux/libclang_rt.builtins-arm.a(floatunsidf.c.o)
 .bss           0x00000000        0x0 /afs/localcell/cm/gv2.6/sysname/pkg.@sys/qct/software/llvm/release/arm/3.5.2.4/lib/clang/3.5.2/lib/linux/libclang_rt.builtins-arm.a(floatunsidf.c.o)
 .ARM.exidx     0x00000000        0x8 /afs/localcell/cm/gv2.6/sysname/pkg.@sys/qct/software/llvm/release/arm/3.5.2.4/lib/clang/3.5.2/lib/linux/libclang_rt.builtins-arm.a(floatunsidf.c.o)
 .data          0x00000000        0x0 /afs/localcell/cm/gv2.6/sysname/pkg.@sys/qct/software/llvm/release/arm/3.5.2.4/lib/clang/3.5.2/lib/linux/libclang_rt.builtins-arm.a(muldf3.c.o)
 .bss           0x00000000        0x0 /afs/localcell/cm/gv2.6/sysname/pkg.@sys/qct/software/llvm/release/arm/3.5.2.4/lib/clang/3.5.2/lib/linux/libclang_rt.builtins-arm.a(muldf3.c.o)
 .ARM.exidx     0x00000000        0x8 /afs/localcell/cm/gv2.6/sysname/pkg.@sys/qct/software/llvm/release/arm/3.5.2.4/lib/clang/3.5.2/lib/linux/libclang_rt.builtins-arm.a(muldf3.c.o)
 .data          0x00000000        0x0 /afs/localcell/cm/gv2.6/sysname/pkg.@sys/qct/software/llvm/release/arm/3.5.2.4/lib/clang/3.5.2/lib/linux/libclang_rt.builtins-arm.a(udivmoddi4.c.o)
 .bss           0x00000000        0x0 /afs/localcell/cm/gv2.6/sysname/pkg.@sys/qct/software/llvm/release/arm/3.5.2.4/lib/clang/3.5.2/lib/linux/libclang_rt.builtins-arm.a(udivmoddi4.c.o)
 .ARM.exidx     0x00000000        0x8 /afs/localcell/cm/gv2.6/sysname/pkg.@sys/qct/software/llvm/release/arm/3.5.2.4/lib/clang/3.5.2/lib/linux/libclang_rt.builtins-arm.a(udivmoddi4.c.o)
 .data          0x00000000        0x0 /afs/localcell/cm/gv2.6/sysname/pkg.@sys/qct/software/llvm/release/arm/3.5.2.4/lib/clang/3.5.2/lib/linux/libclang_rt.builtins-arm.a(udivsi3.c.o)
 .bss           0x00000000        0x0 /afs/localcell/cm/gv2.6/sysname/pkg.@sys/qct/software/llvm/release/arm/3.5.2.4/lib/clang/3.5.2/lib/linux/libclang_rt.builtins-arm.a(udivsi3.c.o)
 .ARM.exidx     0x00000000        0x8 /afs/localcell/cm/gv2.6/sysname/pkg.@sys/qct/software/llvm/release/arm/3.5.2.4/lib/clang/3.5.2/lib/linux/libclang_rt.builtins-arm.a(udivsi3.c.o)
 .data          0x00000000        0x0 /afs/localcell/cm/gv2.6/sysname/pkg.@sys/qct/software/llvm/release/arm/3.5.2.4/lib/clang/3.5.2/lib/linux/libclang_rt.builtins-arm.a(umoddi3.c.o)
 .bss           0x00000000        0x0 /afs/localcell/cm/gv2.6/sysname/pkg.@sys/qct/software/llvm/release/arm/3.5.2.4/lib/clang/3.5.2/lib/linux/libclang_rt.builtins-arm.a(umoddi3.c.o)
 .ARM.exidx     0x00000000        0x8 /afs/localcell/cm/gv2.6/sysname/pkg.@sys/qct/software/llvm/release/arm/3.5.2.4/lib/clang/3.5.2/lib/linux/libclang_rt.builtins-arm.a(umoddi3.c.o)
 .data          0x00000000        0x0 /afs/localcell/cm/gv2.6/sysname/pkg.@sys/qct/software/llvm/release/arm/3.5.2.4/lib/clang/3.5.2/lib/linux/libclang_rt.builtins-arm.a(umodsi3.c.o)
 .bss           0x00000000        0x0 /afs/localcell/cm/gv2.6/sysname/pkg.@sys/qct/software/llvm/release/arm/3.5.2.4/lib/clang/3.5.2/lib/linux/libclang_rt.builtins-arm.a(umodsi3.c.o)
 .ARM.exidx     0x00000000        0x8 /afs/localcell/cm/gv2.6/sysname/pkg.@sys/qct/software/llvm/release/arm/3.5.2.4/lib/clang/3.5.2/lib/linux/libclang_rt.builtins-arm.a(umodsi3.c.o)
 .ARM.exidx     0x00000000       0x60 /local/mnt/workspace/CRMBuilds/TZ.BF.4.0.3.c1-00005-M8996AAAAANAZT-1_20170110_230814/b/HK11/trustzone_images/apps/securemsm/trustzone/qsapps/secure_ui_sample/layouts/build/secure_ui_sample/scorpion/IADAANAA/secure_ui_layout.lib(layout_8996_fluid.o)
 .data          0x00000000        0x0 /local/mnt/workspace/CRMBuilds/TZ.BF.4.0.3.c1-00005-M8996AAAAANAZT-1_20170110_230814/b/HK11/trustzone_images/core/kernel/libstd/build/secure_ui_sample/scorpion/IADAANAA/libstd.lib(secure_memset.o)
 .bss           0x00000000        0x0 /local/mnt/workspace/CRMBuilds/TZ.BF.4.0.3.c1-00005-M8996AAAAANAZT-1_20170110_230814/b/HK11/trustzone_images/core/kernel/libstd/build/secure_ui_sample/scorpion/IADAANAA/libstd.lib(secure_memset.o)
 .ARM.exidx     0x00000000        0x8 /local/mnt/workspace/CRMBuilds/TZ.BF.4.0.3.c1-00005-M8996AAAAANAZT-1_20170110_230814/b/HK11/trustzone_images/core/kernel/libstd/build/secure_ui_sample/scorpion/IADAANAA/libstd.lib(secure_memset.o)
 .data          0x00000000        0x0 /local/mnt/workspace/CRMBuilds/TZ.BF.4.0.3.c1-00005-M8996AAAAANAZT-1_20170110_230814/b/HK11/trustzone_images/core/securemsm/sse/SecureTouch/layout/build/secure_ui_sample/scorpion/IADAANAA/sklayout.lib(layoutUtils.o)
 .bss           0x00000000        0x0 /local/mnt/workspace/CRMBuilds/TZ.BF.4.0.3.c1-00005-M8996AAAAANAZT-1_20170110_230814/b/HK11/trustzone_images/core/securemsm/sse/SecureTouch/layout/build/secure_ui_sample/scorpion/IADAANAA/sklayout.lib(layoutUtils.o)
 .ARM.exidx     0x00000000       0x48 /local/mnt/workspace/CRMBuilds/TZ.BF.4.0.3.c1-00005-M8996AAAAANAZT-1_20170110_230814/b/HK11/trustzone_images/core/securemsm/sse/SecureTouch/layout/build/secure_ui_sample/scorpion/IADAANAA/sklayout.lib(layoutUtils.o)
 .data          0x00000000        0x0 /local/mnt/workspace/CRMBuilds/TZ.BF.4.0.3.c1-00005-M8996AAAAANAZT-1_20170110_230814/b/HK11/trustzone_images/core/securemsm/sse/qsee/SecureDisplay/libgd/build/secure_ui_sample/scorpion/IADAANAA/libgd.lib(gd.o)
 .bss           0x00000000        0x0 /local/mnt/workspace/CRMBuilds/TZ.BF.4.0.3.c1-00005-M8996AAAAANAZT-1_20170110_230814/b/HK11/trustzone_images/core/securemsm/sse/qsee/SecureDisplay/libgd/build/secure_ui_sample/scorpion/IADAANAA/libgd.lib(gd.o)
 .ARM.exidx     0x00000000      0x250 /local/mnt/workspace/CRMBuilds/TZ.BF.4.0.3.c1-00005-M8996AAAAANAZT-1_20170110_230814/b/HK11/trustzone_images/core/securemsm/sse/qsee/SecureDisplay/libgd/build/secure_ui_sample/scorpion/IADAANAA/libgd.lib(gd.o)
 .data          0x00000000        0x0 /local/mnt/workspace/CRMBuilds/TZ.BF.4.0.3.c1-00005-M8996AAAAANAZT-1_20170110_230814/b/HK11/trustzone_images/core/securemsm/sse/qsee/SecureDisplay/libgd/build/secure_ui_sample/scorpion/IADAANAA/libgd.lib(gd_color.o)
 .bss           0x00000000        0x0 /local/mnt/workspace/CRMBuilds/TZ.BF.4.0.3.c1-00005-M8996AAAAANAZT-1_20170110_230814/b/HK11/trustzone_images/core/securemsm/sse/qsee/SecureDisplay/libgd/build/secure_ui_sample/scorpion/IADAANAA/libgd.lib(gd_color.o)
 .ARM.exidx     0x00000000        0x8 /local/mnt/workspace/CRMBuilds/TZ.BF.4.0.3.c1-00005-M8996AAAAANAZT-1_20170110_230814/b/HK11/trustzone_images/core/securemsm/sse/qsee/SecureDisplay/libgd/build/secure_ui_sample/scorpion/IADAANAA/libgd.lib(gd_color.o)
 .data          0x00000000        0x0 /local/mnt/workspace/CRMBuilds/TZ.BF.4.0.3.c1-00005-M8996AAAAANAZT-1_20170110_230814/b/HK11/trustzone_images/core/securemsm/sse/qsee/SecureDisplay/libgd/build/secure_ui_sample/scorpion/IADAANAA/libgd.lib(gd_security.o)
 .bss           0x00000000        0x0 /local/mnt/workspace/CRMBuilds/TZ.BF.4.0.3.c1-00005-M8996AAAAANAZT-1_20170110_230814/b/HK11/trustzone_images/core/securemsm/sse/qsee/SecureDisplay/libgd/build/secure_ui_sample/scorpion/IADAANAA/libgd.lib(gd_security.o)
 .ARM.exidx     0x00000000        0x8 /local/mnt/workspace/CRMBuilds/TZ.BF.4.0.3.c1-00005-M8996AAAAANAZT-1_20170110_230814/b/HK11/trustzone_images/core/securemsm/sse/qsee/SecureDisplay/libgd/build/secure_ui_sample/scorpion/IADAANAA/libgd.lib(gd_security.o)
 .text          0x00000000        0x0 /local/mnt/workspace/CRMBuilds/TZ.BF.4.0.3.c1-00005-M8996AAAAANAZT-1_20170110_230814/b/HK11/trustzone_images/core/securemsm/sse/qsee/SecureDisplay/libgd/build/secure_ui_sample/scorpion/IADAANAA/libgd.lib(gdtables.o)
 .data          0x00000000        0x0 /local/mnt/workspace/CRMBuilds/TZ.BF.4.0.3.c1-00005-M8996AAAAANAZT-1_20170110_230814/b/HK11/trustzone_images/core/securemsm/sse/qsee/SecureDisplay/libgd/build/secure_ui_sample/scorpion/IADAANAA/libgd.lib(gdtables.o)
 .bss           0x00000000        0x0 /local/mnt/workspace/CRMBuilds/TZ.BF.4.0.3.c1-00005-M8996AAAAANAZT-1_20170110_230814/b/HK11/trustzone_images/core/securemsm/sse/qsee/SecureDisplay/libgd/build/secure_ui_sample/scorpion/IADAANAA/libgd.lib(gdtables.o)
 .data          0x00000000        0x0 /local/mnt/workspace/CRMBuilds/TZ.BF.4.0.3.c1-00005-M8996AAAAANAZT-1_20170110_230814/b/HK11/trustzone_images/core/securemsm/sse/qsee/SecureDisplay/libpng/build/secure_ui_sample/scorpion/IADAANAA/libpng.lib(png.o)
 .bss           0x00000000        0x0 /local/mnt/workspace/CRMBuilds/TZ.BF.4.0.3.c1-00005-M8996AAAAANAZT-1_20170110_230814/b/HK11/trustzone_images/core/securemsm/sse/qsee/SecureDisplay/libpng/build/secure_ui_sample/scorpion/IADAANAA/libpng.lib(png.o)
 .ARM.exidx     0x00000000       0xa8 /local/mnt/workspace/CRMBuilds/TZ.BF.4.0.3.c1-00005-M8996AAAAANAZT-1_20170110_230814/b/HK11/trustzone_images/core/securemsm/sse/qsee/SecureDisplay/libpng/build/secure_ui_sample/scorpion/IADAANAA/libpng.lib(png.o)
 .data          0x00000000        0x0 /local/mnt/workspace/CRMBuilds/TZ.BF.4.0.3.c1-00005-M8996AAAAANAZT-1_20170110_230814/b/HK11/trustzone_images/core/securemsm/sse/qsee/SecureDisplay/libpng/build/secure_ui_sample/scorpion/IADAANAA/libpng.lib(pngerror.o)
 .bss           0x00000000        0x0 /local/mnt/workspace/CRMBuilds/TZ.BF.4.0.3.c1-00005-M8996AAAAANAZT-1_20170110_230814/b/HK11/trustzone_images/core/securemsm/sse/qsee/SecureDisplay/libpng/build/secure_ui_sample/scorpion/IADAANAA/libpng.lib(pngerror.o)
 .ARM.exidx     0x00000000       0x30 /local/mnt/workspace/CRMBuilds/TZ.BF.4.0.3.c1-00005-M8996AAAAANAZT-1_20170110_230814/b/HK11/trustzone_images/core/securemsm/sse/qsee/SecureDisplay/libpng/build/secure_ui_sample/scorpion/IADAANAA/libpng.lib(pngerror.o)
 .data          0x00000000        0x0 /local/mnt/workspace/CRMBuilds/TZ.BF.4.0.3.c1-00005-M8996AAAAANAZT-1_20170110_230814/b/HK11/trustzone_images/core/securemsm/sse/qsee/SecureDisplay/libpng/build/secure_ui_sample/scorpion/IADAANAA/libpng.lib(pngget.o)
 .bss           0x00000000        0x0 /local/mnt/workspace/CRMBuilds/TZ.BF.4.0.3.c1-00005-M8996AAAAANAZT-1_20170110_230814/b/HK11/trustzone_images/core/securemsm/sse/qsee/SecureDisplay/libpng/build/secure_ui_sample/scorpion/IADAANAA/libpng.lib(pngget.o)
 .ARM.exidx     0x00000000       0x38 /local/mnt/workspace/CRMBuilds/TZ.BF.4.0.3.c1-00005-M8996AAAAANAZT-1_20170110_230814/b/HK11/trustzone_images/core/securemsm/sse/qsee/SecureDisplay/libpng/build/secure_ui_sample/scorpion/IADAANAA/libpng.lib(pngget.o)
 .data          0x00000000        0x0 /local/mnt/workspace/CRMBuilds/TZ.BF.4.0.3.c1-00005-M8996AAAAANAZT-1_20170110_230814/b/HK11/trustzone_images/core/securemsm/sse/qsee/SecureDisplay/libpng/build/secure_ui_sample/scorpion/IADAANAA/libpng.lib(pngmem.o)
 .bss           0x00000000        0x0 /local/mnt/workspace/CRMBuilds/TZ.BF.4.0.3.c1-00005-M8996AAAAANAZT-1_20170110_230814/b/HK11/trustzone_images/core/securemsm/sse/qsee/SecureDisplay/libpng/build/secure_ui_sample/scorpion/IADAANAA/libpng.lib(pngmem.o)
 .ARM.exidx     0x00000000       0x50 /local/mnt/workspace/CRMBuilds/TZ.BF.4.0.3.c1-00005-M8996AAAAANAZT-1_20170110_230814/b/HK11/trustzone_images/core/securemsm/sse/qsee/SecureDisplay/libpng/build/secure_ui_sample/scorpion/IADAANAA/libpng.lib(pngmem.o)
 .data          0x00000000        0x0 /local/mnt/workspace/CRMBuilds/TZ.BF.4.0.3.c1-00005-M8996AAAAANAZT-1_20170110_230814/b/HK11/trustzone_images/core/securemsm/sse/qsee/SecureDisplay/libpng/build/secure_ui_sample/scorpion/IADAANAA/libpng.lib(pngread.o)
 .bss           0x00000000        0x0 /local/mnt/workspace/CRMBuilds/TZ.BF.4.0.3.c1-00005-M8996AAAAANAZT-1_20170110_230814/b/HK11/trustzone_images/core/securemsm/sse/qsee/SecureDisplay/libpng/build/secure_ui_sample/scorpion/IADAANAA/libpng.lib(pngread.o)
 .ARM.exidx     0x00000000       0x68 /local/mnt/workspace/CRMBuilds/TZ.BF.4.0.3.c1-00005-M8996AAAAANAZT-1_20170110_230814/b/HK11/trustzone_images/core/securemsm/sse/qsee/SecureDisplay/libpng/build/secure_ui_sample/scorpion/IADAANAA/libpng.lib(pngread.o)
 .data          0x00000000        0x0 /local/mnt/workspace/CRMBuilds/TZ.BF.4.0.3.c1-00005-M8996AAAAANAZT-1_20170110_230814/b/HK11/trustzone_images/core/securemsm/sse/qsee/SecureDisplay/libpng/build/secure_ui_sample/scorpion/IADAANAA/libpng.lib(pngrio.o)
 .bss           0x00000000        0x0 /local/mnt/workspace/CRMBuilds/TZ.BF.4.0.3.c1-00005-M8996AAAAANAZT-1_20170110_230814/b/HK11/trustzone_images/core/securemsm/sse/qsee/SecureDisplay/libpng/build/secure_ui_sample/scorpion/IADAANAA/libpng.lib(pngrio.o)
 .ARM.exidx     0x00000000       0x10 /local/mnt/workspace/CRMBuilds/TZ.BF.4.0.3.c1-00005-M8996AAAAANAZT-1_20170110_230814/b/HK11/trustzone_images/core/securemsm/sse/qsee/SecureDisplay/libpng/build/secure_ui_sample/scorpion/IADAANAA/libpng.lib(pngrio.o)
 .data          0x00000000        0x0 /local/mnt/workspace/CRMBuilds/TZ.BF.4.0.3.c1-00005-M8996AAAAANAZT-1_20170110_230814/b/HK11/trustzone_images/core/securemsm/sse/qsee/SecureDisplay/libpng/build/secure_ui_sample/scorpion/IADAANAA/libpng.lib(pngrutil.o)
 .bss           0x00000000        0x0 /local/mnt/workspace/CRMBuilds/TZ.BF.4.0.3.c1-00005-M8996AAAAANAZT-1_20170110_230814/b/HK11/trustzone_images/core/securemsm/sse/qsee/SecureDisplay/libpng/build/secure_ui_sample/scorpion/IADAANAA/libpng.lib(pngrutil.o)
 .ARM.exidx     0x00000000       0xb0 /local/mnt/workspace/CRMBuilds/TZ.BF.4.0.3.c1-00005-M8996AAAAANAZT-1_20170110_230814/b/HK11/trustzone_images/core/securemsm/sse/qsee/SecureDisplay/libpng/build/secure_ui_sample/scorpion/IADAANAA/libpng.lib(pngrutil.o)
 .data          0x00000000        0x0 /local/mnt/workspace/CRMBuilds/TZ.BF.4.0.3.c1-00005-M8996AAAAANAZT-1_20170110_230814/b/HK11/trustzone_images/core/securemsm/sse/qsee/SecureDisplay/libpng/build/secure_ui_sample/scorpion/IADAANAA/libpng.lib(pngset.o)
 .bss           0x00000000        0x0 /local/mnt/workspace/CRMBuilds/TZ.BF.4.0.3.c1-00005-M8996AAAAANAZT-1_20170110_230814/b/HK11/trustzone_images/core/securemsm/sse/qsee/SecureDisplay/libpng/build/secure_ui_sample/scorpion/IADAANAA/libpng.lib(pngset.o)
 .ARM.exidx     0x00000000       0x20 /local/mnt/workspace/CRMBuilds/TZ.BF.4.0.3.c1-00005-M8996AAAAANAZT-1_20170110_230814/b/HK11/trustzone_images/core/securemsm/sse/qsee/SecureDisplay/libpng/build/secure_ui_sample/scorpion/IADAANAA/libpng.lib(pngset.o)
 .data          0x00000000        0x0 /local/mnt/workspace/CRMBuilds/TZ.BF.4.0.3.c1-00005-M8996AAAAANAZT-1_20170110_230814/b/HK11/trustzone_images/core/securemsm/sse/qsee/SecureDisplay/zlib/build/secure_ui_sample/scorpion/IADAANAA/zlib.lib(crc32.o)
 .bss           0x00000000        0x0 /local/mnt/workspace/CRMBuilds/TZ.BF.4.0.3.c1-00005-M8996AAAAANAZT-1_20170110_230814/b/HK11/trustzone_images/core/securemsm/sse/qsee/SecureDisplay/zlib/build/secure_ui_sample/scorpion/IADAANAA/zlib.lib(crc32.o)
 .ARM.exidx     0x00000000       0x38 /local/mnt/workspace/CRMBuilds/TZ.BF.4.0.3.c1-00005-M8996AAAAANAZT-1_20170110_230814/b/HK11/trustzone_images/core/securemsm/sse/qsee/SecureDisplay/zlib/build/secure_ui_sample/scorpion/IADAANAA/zlib.lib(crc32.o)
 .data          0x00000000        0x0 /local/mnt/workspace/CRMBuilds/TZ.BF.4.0.3.c1-00005-M8996AAAAANAZT-1_20170110_230814/b/HK11/trustzone_images/core/securemsm/sse/qsee/SecureDisplay/zlib/build/secure_ui_sample/scorpion/IADAANAA/zlib.lib(inflate.o)
 .bss           0x00000000        0x0 /local/mnt/workspace/CRMBuilds/TZ.BF.4.0.3.c1-00005-M8996AAAAANAZT-1_20170110_230814/b/HK11/trustzone_images/core/securemsm/sse/qsee/SecureDisplay/zlib/build/secure_ui_sample/scorpion/IADAANAA/zlib.lib(inflate.o)
 .ARM.exidx     0x00000000       0x90 /local/mnt/workspace/CRMBuilds/TZ.BF.4.0.3.c1-00005-M8996AAAAANAZT-1_20170110_230814/b/HK11/trustzone_images/core/securemsm/sse/qsee/SecureDisplay/zlib/build/secure_ui_sample/scorpion/IADAANAA/zlib.lib(inflate.o)
 .data          0x00000000        0x0 /local/mnt/workspace/CRMBuilds/TZ.BF.4.0.3.c1-00005-M8996AAAAANAZT-1_20170110_230814/b/HK11/trustzone_images/core/securemsm/sse/qsee/SecureDisplay/zlib/build/secure_ui_sample/scorpion/IADAANAA/zlib.lib(inftrees.o)
 .bss           0x00000000        0x0 /local/mnt/workspace/CRMBuilds/TZ.BF.4.0.3.c1-00005-M8996AAAAANAZT-1_20170110_230814/b/HK11/trustzone_images/core/securemsm/sse/qsee/SecureDisplay/zlib/build/secure_ui_sample/scorpion/IADAANAA/zlib.lib(inftrees.o)
 .ARM.exidx     0x00000000        0x8 /local/mnt/workspace/CRMBuilds/TZ.BF.4.0.3.c1-00005-M8996AAAAANAZT-1_20170110_230814/b/HK11/trustzone_images/core/securemsm/sse/qsee/SecureDisplay/zlib/build/secure_ui_sample/scorpion/IADAANAA/zlib.lib(inftrees.o)
 .data          0x00000000        0x0 /local/mnt/workspace/CRMBuilds/TZ.BF.4.0.3.c1-00005-M8996AAAAANAZT-1_20170110_230814/b/HK11/trustzone_images/core/securemsm/sse/qsee/SecureDisplay/zlib/build/secure_ui_sample/scorpion/IADAANAA/zlib.lib(zutil.o)
 .bss           0x00000000        0x0 /local/mnt/workspace/CRMBuilds/TZ.BF.4.0.3.c1-00005-M8996AAAAANAZT-1_20170110_230814/b/HK11/trustzone_images/core/securemsm/sse/qsee/SecureDisplay/zlib/build/secure_ui_sample/scorpion/IADAANAA/zlib.lib(zutil.o)
 .ARM.exidx     0x00000000       0x28 /local/mnt/workspace/CRMBuilds/TZ.BF.4.0.3.c1-00005-M8996AAAAANAZT-1_20170110_230814/b/HK11/trustzone_images/core/securemsm/sse/qsee/SecureDisplay/zlib/build/secure_ui_sample/scorpion/IADAANAA/zlib.lib(zutil.o)
 .data          0x00000000        0x0 /local/mnt/workspace/CRMBuilds/TZ.BF.4.0.3.c1-00005-M8996AAAAANAZT-1_20170110_230814/b/HK11/trustzone_images/core/securemsm/sse/qsee/SecureDisplay/zlib/build/secure_ui_sample/scorpion/IADAANAA/zlib.lib(adler32.o)
 .bss           0x00000000        0x0 /local/mnt/workspace/CRMBuilds/TZ.BF.4.0.3.c1-00005-M8996AAAAANAZT-1_20170110_230814/b/HK11/trustzone_images/core/securemsm/sse/qsee/SecureDisplay/zlib/build/secure_ui_sample/scorpion/IADAANAA/zlib.lib(adler32.o)
 .ARM.exidx     0x00000000       0x20 /local/mnt/workspace/CRMBuilds/TZ.BF.4.0.3.c1-00005-M8996AAAAANAZT-1_20170110_230814/b/HK11/trustzone_images/core/securemsm/sse/qsee/SecureDisplay/zlib/build/secure_ui_sample/scorpion/IADAANAA/zlib.lib(adler32.o)
 .data          0x00000000        0x0 /local/mnt/workspace/CRMBuilds/TZ.BF.4.0.3.c1-00005-M8996AAAAANAZT-1_20170110_230814/b/HK11/trustzone_images/core/securemsm/sse/qsee/SecureDisplay/zlib/build/secure_ui_sample/scorpion/IADAANAA/zlib.lib(inffast.o)
 .bss           0x00000000        0x0 /local/mnt/workspace/CRMBuilds/TZ.BF.4.0.3.c1-00005-M8996AAAAANAZT-1_20170110_230814/b/HK11/trustzone_images/core/securemsm/sse/qsee/SecureDisplay/zlib/build/secure_ui_sample/scorpion/IADAANAA/zlib.lib(inffast.o)
 .ARM.exidx     0x00000000        0x8 /local/mnt/workspace/CRMBuilds/TZ.BF.4.0.3.c1-00005-M8996AAAAANAZT-1_20170110_230814/b/HK11/trustzone_images/core/securemsm/sse/qsee/SecureDisplay/zlib/build/secure_ui_sample/scorpion/IADAANAA/zlib.lib(inffast.o)
 .ARM.exidx     0x00000000        0x8 /local/mnt/workspace/CRMBuilds/TZ.BF.4.0.3.c1-00005-M8996AAAAANAZT-1_20170110_230814/b/HK11/trustzone_images/core/securemsm/sse/qsee/SecureTouch/drTs/lib/build/secure_ui_sample/scorpion/IADAANAA/touch_lib.lib(01_open.o)
 .data          0x00000000        0x0 /local/mnt/workspace/CRMBuilds/TZ.BF.4.0.3.c1-00005-M8996AAAAANAZT-1_20170110_230814/b/HK11/trustzone_images/core/securemsm/sse/qsee/SecureTouch/drTs/lib/build/secure_ui_sample/scorpion/IADAANAA/touch_lib.lib(02_close.o)
 .bss           0x00000000        0x0 /local/mnt/workspace/CRMBuilds/TZ.BF.4.0.3.c1-00005-M8996AAAAANAZT-1_20170110_230814/b/HK11/trustzone_images/core/securemsm/sse/qsee/SecureTouch/drTs/lib/build/secure_ui_sample/scorpion/IADAANAA/touch_lib.lib(02_close.o)
 .ARM.exidx     0x00000000        0x8 /local/mnt/workspace/CRMBuilds/TZ.BF.4.0.3.c1-00005-M8996AAAAANAZT-1_20170110_230814/b/HK11/trustzone_images/core/securemsm/sse/qsee/SecureTouch/drTs/lib/build/secure_ui_sample/scorpion/IADAANAA/touch_lib.lib(02_close.o)
 .data          0x00000000        0x0 /local/mnt/workspace/CRMBuilds/TZ.BF.4.0.3.c1-00005-M8996AAAAANAZT-1_20170110_230814/b/HK11/trustzone_images/core/securemsm/sse/qsee/SecureTouch/drTs/lib/build/secure_ui_sample/scorpion/IADAANAA/touch_lib.lib(03_getData.o)
 .ARM.exidx     0x00000000       0x10 /local/mnt/workspace/CRMBuilds/TZ.BF.4.0.3.c1-00005-M8996AAAAANAZT-1_20170110_230814/b/HK11/trustzone_images/core/securemsm/sse/qsee/SecureTouch/drTs/lib/build/secure_ui_sample/scorpion/IADAANAA/touch_lib.lib(03_getData.o)
 .data          0x00000000        0x0 /local/mnt/workspace/CRMBuilds/TZ.BF.4.0.3.c1-00005-M8996AAAAANAZT-1_20170110_230814/b/HK11/trustzone_images/core/securemsm/trustzone/qsapps/libs/applib/common_applib/build/secure_ui_sample/scorpion/IADAANAA/tzapp_entrylib.lib(gpPersistObjCommon.o)
 .ARM.exidx     0x00000000       0x40 /local/mnt/workspace/CRMBuilds/TZ.BF.4.0.3.c1-00005-M8996AAAAANAZT-1_20170110_230814/b/HK11/trustzone_images/core/securemsm/trustzone/qsapps/libs/applib/common_applib/build/secure_ui_sample/scorpion/IADAANAA/tzapp_entrylib.lib(gpPersistObjCommon.o)
 .data          0x00000000        0x0 /local/mnt/workspace/CRMBuilds/TZ.BF.4.0.3.c1-00005-M8996AAAAANAZT-1_20170110_230814/b/HK11/trustzone_images/core/securemsm/trustzone/qsapps/libs/applib/common_applib/build/secure_ui_sample/scorpion/IADAANAA/tzapp_entrylib.lib(gpPersistentObjects.o)
 .bss           0x00000000        0x0 /local/mnt/workspace/CRMBuilds/TZ.BF.4.0.3.c1-00005-M8996AAAAANAZT-1_20170110_230814/b/HK11/trustzone_images/core/securemsm/trustzone/qsapps/libs/applib/common_applib/build/secure_ui_sample/scorpion/IADAANAA/tzapp_entrylib.lib(gpPersistentObjects.o)
 .ARM.exidx     0x00000000       0x70 /local/mnt/workspace/CRMBuilds/TZ.BF.4.0.3.c1-00005-M8996AAAAANAZT-1_20170110_230814/b/HK11/trustzone_images/core/securemsm/trustzone/qsapps/libs/applib/common_applib/build/secure_ui_sample/scorpion/IADAANAA/tzapp_entrylib.lib(gpPersistentObjects.o)
 .data          0x00000000        0x0 /local/mnt/workspace/CRMBuilds/TZ.BF.4.0.3.c1-00005-M8996AAAAANAZT-1_20170110_230814/b/HK11/trustzone_images/core/securemsm/trustzone/qsapps/libs/applib/common_applib/build/secure_ui_sample/scorpion/IADAANAA/tzapp_entrylib.lib(gpPersistObjData.o)
 .ARM.exidx     0x00000000       0x88 /local/mnt/workspace/CRMBuilds/TZ.BF.4.0.3.c1-00005-M8996AAAAANAZT-1_20170110_230814/b/HK11/trustzone_images/core/securemsm/trustzone/qsapps/libs/applib/common_applib/build/secure_ui_sample/scorpion/IADAANAA/tzapp_entrylib.lib(gpPersistObjData.o)
 .ARM.exidx     0x00000000       0x38 /local/mnt/workspace/CRMBuilds/TZ.BF.4.0.3.c1-00005-M8996AAAAANAZT-1_20170110_230814/b/HK11/trustzone_images/core/securemsm/trustzone/qsapps/libs/applib/common_applib/build/secure_ui_sample/scorpion/IADAANAA/tzapp_entrylib.lib(gpPersistObjHandler.o)
 .data          0x00000000        0x0 /local/mnt/workspace/CRMBuilds/TZ.BF.4.0.3.c1-00005-M8996AAAAANAZT-1_20170110_230814/b/HK11/trustzone_images/core/securemsm/trustzone/qsapps/libs/applib/common_applib/build/secure_ui_sample/scorpion/IADAANAA/tzapp_entrylib.lib(gpPersistObjIndex.o)
 .ARM.exidx     0x00000000       0x60 /local/mnt/workspace/CRMBuilds/TZ.BF.4.0.3.c1-00005-M8996AAAAANAZT-1_20170110_230814/b/HK11/trustzone_images/core/securemsm/trustzone/qsapps/libs/applib/common_applib/build/secure_ui_sample/scorpion/IADAANAA/tzapp_entrylib.lib(gpPersistObjIndex.o)
 .ARM.exidx     0x00000000       0x48 /local/mnt/workspace/CRMBuilds/TZ.BF.4.0.3.c1-00005-M8996AAAAANAZT-1_20170110_230814/b/HK11/trustzone_images/core/securemsm/trustzone/qsapps/libs/applib/common_applib/build/secure_ui_sample/scorpion/IADAANAA/tzapp_entrylib.lib(gpPersistObjVersion.o)
 .data          0x00000000        0x0 /local/mnt/workspace/CRMBuilds/TZ.BF.4.0.3.c1-00005-M8996AAAAANAZT-1_20170110_230814/b/HK11/trustzone_images/core/securemsm/trustzone/qsapps/libs/applib/common_applib/build/secure_ui_sample/scorpion/IADAANAA/tzapp_entrylib.lib(gpPersistObjCrypto.o)
 .ARM.exidx     0x00000000       0x38 /local/mnt/workspace/CRMBuilds/TZ.BF.4.0.3.c1-00005-M8996AAAAANAZT-1_20170110_230814/b/HK11/trustzone_images/core/securemsm/trustzone/qsapps/libs/applib/common_applib/build/secure_ui_sample/scorpion/IADAANAA/tzapp_entrylib.lib(gpPersistObjCrypto.o)
 .data          0x00000000        0x0 /local/mnt/workspace/CRMBuilds/TZ.BF.4.0.3.c1-00005-M8996AAAAANAZT-1_20170110_230814/b/HK11/trustzone_images/core/securemsm/trustzone/qsapps/libs/applib/common_applib/build/secure_ui_sample/scorpion/IADAANAA/tzapp_entrylib.lib(gpPersistObjFileIO.o)
 .bss           0x00000000        0x0 /local/mnt/workspace/CRMBuilds/TZ.BF.4.0.3.c1-00005-M8996AAAAANAZT-1_20170110_230814/b/HK11/trustzone_images/core/securemsm/trustzone/qsapps/libs/applib/common_applib/build/secure_ui_sample/scorpion/IADAANAA/tzapp_entrylib.lib(gpPersistObjFileIO.o)
 .ARM.exidx     0x00000000       0x40 /local/mnt/workspace/CRMBuilds/TZ.BF.4.0.3.c1-00005-M8996AAAAANAZT-1_20170110_230814/b/HK11/trustzone_images/core/securemsm/trustzone/qsapps/libs/applib/common_applib/build/secure_ui_sample/scorpion/IADAANAA/tzapp_entrylib.lib(gpPersistObjFileIO.o)
 .data          0x00000000        0x0 /local/mnt/workspace/CRMBuilds/TZ.BF.4.0.3.c1-00005-M8996AAAAANAZT-1_20170110_230814/b/HK11/trustzone_images/core/securemsm/trustzone/qsapps/libs/applib/common_applib/build/secure_ui_sample/scorpion/IADAANAA/tzapp_entrylib.lib(gpFileService.o)
 .bss           0x00000000        0x0 /local/mnt/workspace/CRMBuilds/TZ.BF.4.0.3.c1-00005-M8996AAAAANAZT-1_20170110_230814/b/HK11/trustzone_images/core/securemsm/trustzone/qsapps/libs/applib/common_applib/build/secure_ui_sample/scorpion/IADAANAA/tzapp_entrylib.lib(gpFileService.o)
 .ARM.exidx     0x00000000       0x20 /local/mnt/workspace/CRMBuilds/TZ.BF.4.0.3.c1-00005-M8996AAAAANAZT-1_20170110_230814/b/HK11/trustzone_images/core/securemsm/trustzone/qsapps/libs/applib/common_applib/build/secure_ui_sample/scorpion/IADAANAA/tzapp_entrylib.lib(gpFileService.o)
 .data          0x00000000        0x0 /local/mnt/workspace/CRMBuilds/TZ.BF.4.0.3.c1-00005-M8996AAAAANAZT-1_20170110_230814/b/HK11/trustzone_images/core/securemsm/trustzone/qsapps/libs/applib/qsee/build/secure_ui_sample/scorpion/IADAANAA/tzapp_entrylib.lib(qsee_core_shim.o)
 .bss           0x00000000        0x0 /local/mnt/workspace/CRMBuilds/TZ.BF.4.0.3.c1-00005-M8996AAAAANAZT-1_20170110_230814/b/HK11/trustzone_images/core/securemsm/trustzone/qsapps/libs/applib/qsee/build/secure_ui_sample/scorpion/IADAANAA/tzapp_entrylib.lib(qsee_core_shim.o)
 .ARM.exidx     0x00000000       0x60 /local/mnt/workspace/CRMBuilds/TZ.BF.4.0.3.c1-00005-M8996AAAAANAZT-1_20170110_230814/b/HK11/trustzone_images/core/securemsm/trustzone/qsapps/libs/applib/qsee/build/secure_ui_sample/scorpion/IADAANAA/tzapp_entrylib.lib(qsee_core_shim.o)
 .data          0x00000000        0x0 /local/mnt/workspace/CRMBuilds/TZ.BF.4.0.3.c1-00005-M8996AAAAANAZT-1_20170110_230814/b/HK11/trustzone_images/core/securemsm/trustzone/qsapps/libs/applib/qsee/build/secure_ui_sample/scorpion/IADAANAA/tzapp_entrylib.lib(stor.o)
 .bss           0x00000000        0x0 /local/mnt/workspace/CRMBuilds/TZ.BF.4.0.3.c1-00005-M8996AAAAANAZT-1_20170110_230814/b/HK11/trustzone_images/core/securemsm/trustzone/qsapps/libs/applib/qsee/build/secure_ui_sample/scorpion/IADAANAA/tzapp_entrylib.lib(stor.o)
 .ARM.exidx     0x00000000       0x58 /local/mnt/workspace/CRMBuilds/TZ.BF.4.0.3.c1-00005-M8996AAAAANAZT-1_20170110_230814/b/HK11/trustzone_images/core/securemsm/trustzone/qsapps/libs/applib/qsee/build/secure_ui_sample/scorpion/IADAANAA/tzapp_entrylib.lib(stor.o)
 .ARM.exidx     0x00000000       0x70 /local/mnt/workspace/CRMBuilds/TZ.BF.4.0.3.c1-00005-M8996AAAAANAZT-1_20170110_230814/b/HK11/trustzone_images/core/securemsm/trustzone/qsapps/libs/applib/qsee/build/secure_ui_sample/scorpion/IADAANAA/tzapp_entrylib.lib(stor_gpt.o)
 .data          0x00000000        0x0 /local/mnt/workspace/CRMBuilds/TZ.BF.4.0.3.c1-00005-M8996AAAAANAZT-1_20170110_230814/b/HK11/trustzone_images/core/securemsm/trustzone/qsapps/libs/applib/qsee/build/secure_ui_sample/scorpion/IADAANAA/tzapp_entrylib.lib(stor_rpmbw.o)
 .bss           0x00000000        0x0 /local/mnt/workspace/CRMBuilds/TZ.BF.4.0.3.c1-00005-M8996AAAAANAZT-1_20170110_230814/b/HK11/trustzone_images/core/securemsm/trustzone/qsapps/libs/applib/qsee/build/secure_ui_sample/scorpion/IADAANAA/tzapp_entrylib.lib(stor_rpmbw.o)
 .ARM.exidx     0x00000000       0x50 /local/mnt/workspace/CRMBuilds/TZ.BF.4.0.3.c1-00005-M8996AAAAANAZT-1_20170110_230814/b/HK11/trustzone_images/core/securemsm/trustzone/qsapps/libs/applib/qsee/build/secure_ui_sample/scorpion/IADAANAA/tzapp_entrylib.lib(stor_rpmbw.o)
 .data          0x00000000        0x0 /local/mnt/workspace/CRMBuilds/TZ.BF.4.0.3.c1-00005-M8996AAAAANAZT-1_20170110_230814/b/HK11/trustzone_images/core/securemsm/trustzone/qsapps/libs/applib/qsee/build/secure_ui_sample/scorpion/IADAANAA/tzapp_entrylib.lib(qsee_cfg_prop_shim.o)
 .bss           0x00000000        0x0 /local/mnt/workspace/CRMBuilds/TZ.BF.4.0.3.c1-00005-M8996AAAAANAZT-1_20170110_230814/b/HK11/trustzone_images/core/securemsm/trustzone/qsapps/libs/applib/qsee/build/secure_ui_sample/scorpion/IADAANAA/tzapp_entrylib.lib(qsee_cfg_prop_shim.o)
 .ARM.exidx     0x00000000        0x8 /local/mnt/workspace/CRMBuilds/TZ.BF.4.0.3.c1-00005-M8996AAAAANAZT-1_20170110_230814/b/HK11/trustzone_images/core/securemsm/trustzone/qsapps/libs/applib/qsee/build/secure_ui_sample/scorpion/IADAANAA/tzapp_entrylib.lib(qsee_cfg_prop_shim.o)
 .data          0x00000000        0x0 /local/mnt/workspace/CRMBuilds/TZ.BF.4.0.3.c1-00005-M8996AAAAANAZT-1_20170110_230814/b/HK11/trustzone_images/core/securemsm/trustzone/qsapps/libs/applib/qsee/build/secure_ui_sample/scorpion/IADAANAA/tzapp_entrylib.lib(qsee_cipher.o)
 .bss           0x00000000        0x0 /local/mnt/workspace/CRMBuilds/TZ.BF.4.0.3.c1-00005-M8996AAAAANAZT-1_20170110_230814/b/HK11/trustzone_images/core/securemsm/trustzone/qsapps/libs/applib/qsee/build/secure_ui_sample/scorpion/IADAANAA/tzapp_entrylib.lib(qsee_cipher.o)
 .ARM.exidx     0x00000000       0x40 /local/mnt/workspace/CRMBuilds/TZ.BF.4.0.3.c1-00005-M8996AAAAANAZT-1_20170110_230814/b/HK11/trustzone_images/core/securemsm/trustzone/qsapps/libs/applib/qsee/build/secure_ui_sample/scorpion/IADAANAA/tzapp_entrylib.lib(qsee_cipher.o)
 .data          0x00000000        0x0 /local/mnt/workspace/CRMBuilds/TZ.BF.4.0.3.c1-00005-M8996AAAAANAZT-1_20170110_230814/b/HK11/trustzone_images/core/securemsm/trustzone/qsapps/libs/applib/qsee/build/secure_ui_sample/scorpion/IADAANAA/tzapp_entrylib.lib(qsee_hmac.o)
 .bss           0x00000000        0x0 /local/mnt/workspace/CRMBuilds/TZ.BF.4.0.3.c1-00005-M8996AAAAANAZT-1_20170110_230814/b/HK11/trustzone_images/core/securemsm/trustzone/qsapps/libs/applib/qsee/build/secure_ui_sample/scorpion/IADAANAA/tzapp_entrylib.lib(qsee_hmac.o)
 .ARM.exidx     0x00000000       0x38 /local/mnt/workspace/CRMBuilds/TZ.BF.4.0.3.c1-00005-M8996AAAAANAZT-1_20170110_230814/b/HK11/trustzone_images/core/securemsm/trustzone/qsapps/libs/applib/qsee/build/secure_ui_sample/scorpion/IADAANAA/tzapp_entrylib.lib(qsee_hmac.o)
 .data          0x00000000        0x0 /local/mnt/workspace/CRMBuilds/TZ.BF.4.0.3.c1-00005-M8996AAAAANAZT-1_20170110_230814/b/HK11/trustzone_images/core/securemsm/trustzone/qsapps/libs/applib/qsee/build/secure_ui_sample/scorpion/IADAANAA/tzapp_entrylib.lib(gpPersistObjPanic.o)
 .bss           0x00000000        0x0 /local/mnt/workspace/CRMBuilds/TZ.BF.4.0.3.c1-00005-M8996AAAAANAZT-1_20170110_230814/b/HK11/trustzone_images/core/securemsm/trustzone/qsapps/libs/applib/qsee/build/secure_ui_sample/scorpion/IADAANAA/tzapp_entrylib.lib(gpPersistObjPanic.o)
 .ARM.exidx     0x00000000       0x10 /local/mnt/workspace/CRMBuilds/TZ.BF.4.0.3.c1-00005-M8996AAAAANAZT-1_20170110_230814/b/HK11/trustzone_images/core/securemsm/trustzone/qsapps/libs/applib/qsee/build/secure_ui_sample/scorpion/IADAANAA/tzapp_entrylib.lib(gpPersistObjPanic.o)
 .data          0x00000000        0x0 /afs/localcell/cm/gv2.6/sysname/pkg.@sys/qct/software/llvm/release/arm/3.5.2.4/tools/lib32/lib/libc.a(abort.o)
 .bss           0x00000000        0x0 /afs/localcell/cm/gv2.6/sysname/pkg.@sys/qct/software/llvm/release/arm/3.5.2.4/tools/lib32/lib/libc.a(abort.o)
 .ARM.exidx     0x00000000        0x8 /afs/localcell/cm/gv2.6/sysname/pkg.@sys/qct/software/llvm/release/arm/3.5.2.4/tools/lib32/lib/libc.a(abort.o)
 .note.GNU-stack
                0x00000000        0x0 /afs/localcell/cm/gv2.6/sysname/pkg.@sys/qct/software/llvm/release/arm/3.5.2.4/tools/lib32/lib/libc.a(abort.o)
 .data          0x00000000        0x0 /afs/localcell/cm/gv2.6/sysname/pkg.@sys/qct/software/llvm/release/arm/3.5.2.4/tools/lib32/lib/libc.a(atan2.o)
 .bss           0x00000000        0x0 /afs/localcell/cm/gv2.6/sysname/pkg.@sys/qct/software/llvm/release/arm/3.5.2.4/tools/lib32/lib/libc.a(atan2.o)
 .ARM.exidx     0x00000000        0x8 /afs/localcell/cm/gv2.6/sysname/pkg.@sys/qct/software/llvm/release/arm/3.5.2.4/tools/lib32/lib/libc.a(atan2.o)
 .note.GNU-stack
                0x00000000        0x0 /afs/localcell/cm/gv2.6/sysname/pkg.@sys/qct/software/llvm/release/arm/3.5.2.4/tools/lib32/lib/libc.a(atan2.o)
 .data          0x00000000        0x0 /afs/localcell/cm/gv2.6/sysname/pkg.@sys/qct/software/llvm/release/arm/3.5.2.4/tools/lib32/lib/libc.a(cos.o)
 .bss           0x00000000        0x0 /afs/localcell/cm/gv2.6/sysname/pkg.@sys/qct/software/llvm/release/arm/3.5.2.4/tools/lib32/lib/libc.a(cos.o)
 .ARM.exidx     0x00000000        0x8 /afs/localcell/cm/gv2.6/sysname/pkg.@sys/qct/software/llvm/release/arm/3.5.2.4/tools/lib32/lib/libc.a(cos.o)
 .note.GNU-stack
                0x00000000        0x0 /afs/localcell/cm/gv2.6/sysname/pkg.@sys/qct/software/llvm/release/arm/3.5.2.4/tools/lib32/lib/libc.a(cos.o)
 .data          0x00000000        0x0 /afs/localcell/cm/gv2.6/sysname/pkg.@sys/qct/software/llvm/release/arm/3.5.2.4/tools/lib32/lib/libc.a(fabs.o)
 .bss           0x00000000        0x0 /afs/localcell/cm/gv2.6/sysname/pkg.@sys/qct/software/llvm/release/arm/3.5.2.4/tools/lib32/lib/libc.a(fabs.o)
 .ARM.exidx     0x00000000        0x8 /afs/localcell/cm/gv2.6/sysname/pkg.@sys/qct/software/llvm/release/arm/3.5.2.4/tools/lib32/lib/libc.a(fabs.o)
 .note.GNU-stack
                0x00000000        0x0 /afs/localcell/cm/gv2.6/sysname/pkg.@sys/qct/software/llvm/release/arm/3.5.2.4/tools/lib32/lib/libc.a(fabs.o)
 .data          0x00000000        0x0 /afs/localcell/cm/gv2.6/sysname/pkg.@sys/qct/software/llvm/release/arm/3.5.2.4/tools/lib32/lib/libc.a(floor.o)
 .bss           0x00000000        0x0 /afs/localcell/cm/gv2.6/sysname/pkg.@sys/qct/software/llvm/release/arm/3.5.2.4/tools/lib32/lib/libc.a(floor.o)
 .ARM.exidx     0x00000000        0x8 /afs/localcell/cm/gv2.6/sysname/pkg.@sys/qct/software/llvm/release/arm/3.5.2.4/tools/lib32/lib/libc.a(floor.o)
 .note.GNU-stack
                0x00000000        0x0 /afs/localcell/cm/gv2.6/sysname/pkg.@sys/qct/software/llvm/release/arm/3.5.2.4/tools/lib32/lib/libc.a(floor.o)
 .data          0x00000000        0x0 /afs/localcell/cm/gv2.6/sysname/pkg.@sys/qct/software/llvm/release/arm/3.5.2.4/tools/lib32/lib/libc.a(sin.o)
 .bss           0x00000000        0x0 /afs/localcell/cm/gv2.6/sysname/pkg.@sys/qct/software/llvm/release/arm/3.5.2.4/tools/lib32/lib/libc.a(sin.o)
 .ARM.exidx     0x00000000        0x8 /afs/localcell/cm/gv2.6/sysname/pkg.@sys/qct/software/llvm/release/arm/3.5.2.4/tools/lib32/lib/libc.a(sin.o)
 .note.GNU-stack
                0x00000000        0x0 /afs/localcell/cm/gv2.6/sysname/pkg.@sys/qct/software/llvm/release/arm/3.5.2.4/tools/lib32/lib/libc.a(sin.o)
 .data          0x00000000        0x0 /afs/localcell/cm/gv2.6/sysname/pkg.@sys/qct/software/llvm/release/arm/3.5.2.4/tools/lib32/lib/libc.a(sqrt.o)
 .bss           0x00000000        0x0 /afs/localcell/cm/gv2.6/sysname/pkg.@sys/qct/software/llvm/release/arm/3.5.2.4/tools/lib32/lib/libc.a(sqrt.o)
 .ARM.exidx     0x00000000        0x8 /afs/localcell/cm/gv2.6/sysname/pkg.@sys/qct/software/llvm/release/arm/3.5.2.4/tools/lib32/lib/libc.a(sqrt.o)
 .note.GNU-stack
                0x00000000        0x0 /afs/localcell/cm/gv2.6/sysname/pkg.@sys/qct/software/llvm/release/arm/3.5.2.4/tools/lib32/lib/libc.a(sqrt.o)
 .data          0x00000000        0x0 /afs/localcell/cm/gv2.6/sysname/pkg.@sys/qct/software/llvm/release/arm/3.5.2.4/tools/lib32/lib/libc.a(raise.o)
 .bss           0x00000000        0x0 /afs/localcell/cm/gv2.6/sysname/pkg.@sys/qct/software/llvm/release/arm/3.5.2.4/tools/lib32/lib/libc.a(raise.o)
 .ARM.exidx     0x00000000        0x8 /afs/localcell/cm/gv2.6/sysname/pkg.@sys/qct/software/llvm/release/arm/3.5.2.4/tools/lib32/lib/libc.a(raise.o)
 .note.GNU-stack
                0x00000000        0x0 /afs/localcell/cm/gv2.6/sysname/pkg.@sys/qct/software/llvm/release/arm/3.5.2.4/tools/lib32/lib/libc.a(raise.o)
 .data          0x00000000        0x0 /afs/localcell/cm/gv2.6/sysname/pkg.@sys/qct/software/llvm/release/arm/3.5.2.4/tools/lib32/lib/libc.a(fflush.o)
 .bss           0x00000000        0x4 /afs/localcell/cm/gv2.6/sysname/pkg.@sys/qct/software/llvm/release/arm/3.5.2.4/tools/lib32/lib/libc.a(fflush.o)
 .ARM.exidx     0x00000000       0x10 /afs/localcell/cm/gv2.6/sysname/pkg.@sys/qct/software/llvm/release/arm/3.5.2.4/tools/lib32/lib/libc.a(fflush.o)
 .note.GNU-stack
                0x00000000        0x0 /afs/localcell/cm/gv2.6/sysname/pkg.@sys/qct/software/llvm/release/arm/3.5.2.4/tools/lib32/lib/libc.a(fflush.o)
 .text          0x00000000        0x0 /afs/localcell/cm/gv2.6/sysname/pkg.@sys/qct/software/llvm/release/arm/3.5.2.4/tools/lib32/lib/libc.a(stderr.o)
 .data          0x00000000        0x0 /afs/localcell/cm/gv2.6/sysname/pkg.@sys/qct/software/llvm/release/arm/3.5.2.4/tools/lib32/lib/libc.a(stderr.o)
 .note.GNU-stack
                0x00000000        0x0 /afs/localcell/cm/gv2.6/sysname/pkg.@sys/qct/software/llvm/release/arm/3.5.2.4/tools/lib32/lib/libc.a(stderr.o)
 .data          0x00000000        0x0 /afs/localcell/cm/gv2.6/sysname/pkg.@sys/qct/software/llvm/release/arm/3.5.2.4/tools/lib32/lib/libc.a(memcmp.o)
 .bss           0x00000000        0x0 /afs/localcell/cm/gv2.6/sysname/pkg.@sys/qct/software/llvm/release/arm/3.5.2.4/tools/lib32/lib/libc.a(memcmp.o)
 .ARM.exidx     0x00000000        0x8 /afs/localcell/cm/gv2.6/sysname/pkg.@sys/qct/software/llvm/release/arm/3.5.2.4/tools/lib32/lib/libc.a(memcmp.o)
 .note.GNU-stack
                0x00000000        0x0 /afs/localcell/cm/gv2.6/sysname/pkg.@sys/qct/software/llvm/release/arm/3.5.2.4/tools/lib32/lib/libc.a(memcmp.o)
 .data          0x00000000        0x0 /afs/localcell/cm/gv2.6/sysname/pkg.@sys/qct/software/llvm/release/arm/3.5.2.4/tools/lib32/lib/libc.a(syscall_ret.o)
 .bss           0x00000000        0x0 /afs/localcell/cm/gv2.6/sysname/pkg.@sys/qct/software/llvm/release/arm/3.5.2.4/tools/lib32/lib/libc.a(syscall_ret.o)
 .ARM.exidx     0x00000000        0x8 /afs/localcell/cm/gv2.6/sysname/pkg.@sys/qct/software/llvm/release/arm/3.5.2.4/tools/lib32/lib/libc.a(syscall_ret.o)
 .note.GNU-stack
                0x00000000        0x0 /afs/localcell/cm/gv2.6/sysname/pkg.@sys/qct/software/llvm/release/arm/3.5.2.4/tools/lib32/lib/libc.a(syscall_ret.o)
 .data          0x00000000        0x0 /afs/localcell/cm/gv2.6/sysname/pkg.@sys/qct/software/llvm/release/arm/3.5.2.4/tools/lib32/lib/libc.a(__cos.o)
 .bss           0x00000000        0x0 /afs/localcell/cm/gv2.6/sysname/pkg.@sys/qct/software/llvm/release/arm/3.5.2.4/tools/lib32/lib/libc.a(__cos.o)
 .ARM.exidx     0x00000000        0x8 /afs/localcell/cm/gv2.6/sysname/pkg.@sys/qct/software/llvm/release/arm/3.5.2.4/tools/lib32/lib/libc.a(__cos.o)
 .note.GNU-stack
                0x00000000        0x0 /afs/localcell/cm/gv2.6/sysname/pkg.@sys/qct/software/llvm/release/arm/3.5.2.4/tools/lib32/lib/libc.a(__cos.o)
 .data          0x00000000        0x0 /afs/localcell/cm/gv2.6/sysname/pkg.@sys/qct/software/llvm/release/arm/3.5.2.4/tools/lib32/lib/libc.a(__rem_pio2.o)
 .bss           0x00000000        0x0 /afs/localcell/cm/gv2.6/sysname/pkg.@sys/qct/software/llvm/release/arm/3.5.2.4/tools/lib32/lib/libc.a(__rem_pio2.o)
 .ARM.exidx     0x00000000        0x8 /afs/localcell/cm/gv2.6/sysname/pkg.@sys/qct/software/llvm/release/arm/3.5.2.4/tools/lib32/lib/libc.a(__rem_pio2.o)
 .note.GNU-stack
                0x00000000        0x0 /afs/localcell/cm/gv2.6/sysname/pkg.@sys/qct/software/llvm/release/arm/3.5.2.4/tools/lib32/lib/libc.a(__rem_pio2.o)
 .data          0x00000000        0x0 /afs/localcell/cm/gv2.6/sysname/pkg.@sys/qct/software/llvm/release/arm/3.5.2.4/tools/lib32/lib/libc.a(__rem_pio2_large.o)
 .bss           0x00000000        0x0 /afs/localcell/cm/gv2.6/sysname/pkg.@sys/qct/software/llvm/release/arm/3.5.2.4/tools/lib32/lib/libc.a(__rem_pio2_large.o)
 .ARM.exidx     0x00000000        0x8 /afs/localcell/cm/gv2.6/sysname/pkg.@sys/qct/software/llvm/release/arm/3.5.2.4/tools/lib32/lib/libc.a(__rem_pio2_large.o)
 .note.GNU-stack
                0x00000000        0x0 /afs/localcell/cm/gv2.6/sysname/pkg.@sys/qct/software/llvm/release/arm/3.5.2.4/tools/lib32/lib/libc.a(__rem_pio2_large.o)
 .data          0x00000000        0x0 /afs/localcell/cm/gv2.6/sysname/pkg.@sys/qct/software/llvm/release/arm/3.5.2.4/tools/lib32/lib/libc.a(__sin.o)
 .bss           0x00000000        0x0 /afs/localcell/cm/gv2.6/sysname/pkg.@sys/qct/software/llvm/release/arm/3.5.2.4/tools/lib32/lib/libc.a(__sin.o)
 .ARM.exidx     0x00000000        0x8 /afs/localcell/cm/gv2.6/sysname/pkg.@sys/qct/software/llvm/release/arm/3.5.2.4/tools/lib32/lib/libc.a(__sin.o)
 .note.GNU-stack
                0x00000000        0x0 /afs/localcell/cm/gv2.6/sysname/pkg.@sys/qct/software/llvm/release/arm/3.5.2.4/tools/lib32/lib/libc.a(__sin.o)
 .data          0x00000000        0x0 /afs/localcell/cm/gv2.6/sysname/pkg.@sys/qct/software/llvm/release/arm/3.5.2.4/tools/lib32/lib/libc.a(atan.o)
 .bss           0x00000000        0x0 /afs/localcell/cm/gv2.6/sysname/pkg.@sys/qct/software/llvm/release/arm/3.5.2.4/tools/lib32/lib/libc.a(atan.o)
 .ARM.exidx     0x00000000        0x8 /afs/localcell/cm/gv2.6/sysname/pkg.@sys/qct/software/llvm/release/arm/3.5.2.4/tools/lib32/lib/libc.a(atan.o)
 .note.GNU-stack
                0x00000000        0x0 /afs/localcell/cm/gv2.6/sysname/pkg.@sys/qct/software/llvm/release/arm/3.5.2.4/tools/lib32/lib/libc.a(atan.o)
 .data          0x00000000        0x0 /afs/localcell/cm/gv2.6/sysname/pkg.@sys/qct/software/llvm/release/arm/3.5.2.4/tools/lib32/lib/libc.a(scalbn.o)
 .bss           0x00000000        0x0 /afs/localcell/cm/gv2.6/sysname/pkg.@sys/qct/software/llvm/release/arm/3.5.2.4/tools/lib32/lib/libc.a(scalbn.o)
 .ARM.exidx     0x00000000        0x8 /afs/localcell/cm/gv2.6/sysname/pkg.@sys/qct/software/llvm/release/arm/3.5.2.4/tools/lib32/lib/libc.a(scalbn.o)
 .note.GNU-stack
                0x00000000        0x0 /afs/localcell/cm/gv2.6/sysname/pkg.@sys/qct/software/llvm/release/arm/3.5.2.4/tools/lib32/lib/libc.a(scalbn.o)
 .data          0x00000000        0x0 /afs/localcell/cm/gv2.6/sysname/pkg.@sys/qct/software/llvm/release/arm/3.5.2.4/tools/lib32/lib/libc.a(block.o)
 .bss           0x00000000        0x0 /afs/localcell/cm/gv2.6/sysname/pkg.@sys/qct/software/llvm/release/arm/3.5.2.4/tools/lib32/lib/libc.a(block.o)
 .ARM.exidx     0x00000000       0x18 /afs/localcell/cm/gv2.6/sysname/pkg.@sys/qct/software/llvm/release/arm/3.5.2.4/tools/lib32/lib/libc.a(block.o)
 .note.GNU-stack
                0x00000000        0x0 /afs/localcell/cm/gv2.6/sysname/pkg.@sys/qct/software/llvm/release/arm/3.5.2.4/tools/lib32/lib/libc.a(block.o)
 .data          0x00000000        0x0 /afs/localcell/cm/gv2.6/sysname/pkg.@sys/qct/software/llvm/release/arm/3.5.2.4/tools/lib32/lib/libc.a(__stdio_close.o)
 .bss           0x00000000        0x0 /afs/localcell/cm/gv2.6/sysname/pkg.@sys/qct/software/llvm/release/arm/3.5.2.4/tools/lib32/lib/libc.a(__stdio_close.o)
 .ARM.exidx     0x00000000        0x8 /afs/localcell/cm/gv2.6/sysname/pkg.@sys/qct/software/llvm/release/arm/3.5.2.4/tools/lib32/lib/libc.a(__stdio_close.o)
 .note.GNU-stack
                0x00000000        0x0 /afs/localcell/cm/gv2.6/sysname/pkg.@sys/qct/software/llvm/release/arm/3.5.2.4/tools/lib32/lib/libc.a(__stdio_close.o)
 .data          0x00000000        0x0 /afs/localcell/cm/gv2.6/sysname/pkg.@sys/qct/software/llvm/release/arm/3.5.2.4/tools/lib32/lib/libc.a(__stdio_seek.o)
 .bss           0x00000000        0x0 /afs/localcell/cm/gv2.6/sysname/pkg.@sys/qct/software/llvm/release/arm/3.5.2.4/tools/lib32/lib/libc.a(__stdio_seek.o)
 .ARM.exidx     0x00000000        0x8 /afs/localcell/cm/gv2.6/sysname/pkg.@sys/qct/software/llvm/release/arm/3.5.2.4/tools/lib32/lib/libc.a(__stdio_seek.o)
 .note.GNU-stack
                0x00000000        0x0 /afs/localcell/cm/gv2.6/sysname/pkg.@sys/qct/software/llvm/release/arm/3.5.2.4/tools/lib32/lib/libc.a(__stdio_seek.o)
 .data          0x00000000        0x0 /afs/localcell/cm/gv2.6/sysname/pkg.@sys/qct/software/llvm/release/arm/3.5.2.4/tools/lib32/lib/libc.a(__stdio_write.o)
 .bss           0x00000000        0x0 /afs/localcell/cm/gv2.6/sysname/pkg.@sys/qct/software/llvm/release/arm/3.5.2.4/tools/lib32/lib/libc.a(__stdio_write.o)
 .ARM.exidx     0x00000000       0x10 /afs/localcell/cm/gv2.6/sysname/pkg.@sys/qct/software/llvm/release/arm/3.5.2.4/tools/lib32/lib/libc.a(__stdio_write.o)
 .note.GNU-stack
                0x00000000        0x0 /afs/localcell/cm/gv2.6/sysname/pkg.@sys/qct/software/llvm/release/arm/3.5.2.4/tools/lib32/lib/libc.a(__stdio_write.o)
 .data          0x00000000        0x0 /afs/localcell/cm/gv2.6/sysname/pkg.@sys/qct/software/llvm/release/arm/3.5.2.4/tools/lib32/lib/libc.a(__syscall_cp.o)
 .bss           0x00000000        0x0 /afs/localcell/cm/gv2.6/sysname/pkg.@sys/qct/software/llvm/release/arm/3.5.2.4/tools/lib32/lib/libc.a(__syscall_cp.o)
 .ARM.exidx     0x00000000       0x10 /afs/localcell/cm/gv2.6/sysname/pkg.@sys/qct/software/llvm/release/arm/3.5.2.4/tools/lib32/lib/libc.a(__syscall_cp.o)
 .note.GNU-stack
                0x00000000        0x0 /afs/localcell/cm/gv2.6/sysname/pkg.@sys/qct/software/llvm/release/arm/3.5.2.4/tools/lib32/lib/libc.a(__syscall_cp.o)
 .data          0x00000000        0x0 /afs/localcell/cm/gv2.6/sysname/pkg.@sys/qct/software/llvm/release/arm/3.5.2.4/tools/lib32/lib/libc.a(pthread_cleanup_push.o)
 .bss           0x00000000        0x0 /afs/localcell/cm/gv2.6/sysname/pkg.@sys/qct/software/llvm/release/arm/3.5.2.4/tools/lib32/lib/libc.a(pthread_cleanup_push.o)
 .ARM.exidx     0x00000000       0x18 /afs/localcell/cm/gv2.6/sysname/pkg.@sys/qct/software/llvm/release/arm/3.5.2.4/tools/lib32/lib/libc.a(pthread_cleanup_push.o)
 .note.GNU-stack
                0x00000000        0x0 /afs/localcell/cm/gv2.6/sysname/pkg.@sys/qct/software/llvm/release/arm/3.5.2.4/tools/lib32/lib/libc.a(pthread_cleanup_push.o)
 .data          0x00000000        0x0 /afs/localcell/cm/gv2.6/sysname/pkg.@sys/qct/software/llvm/release/arm/3.5.2.4/lib/clang/3.5.2/lib/linux/libclang_rt.builtins-arm.a(adddf3.c.o)
 .bss           0x00000000        0x0 /afs/localcell/cm/gv2.6/sysname/pkg.@sys/qct/software/llvm/release/arm/3.5.2.4/lib/clang/3.5.2/lib/linux/libclang_rt.builtins-arm.a(adddf3.c.o)
 .ARM.exidx     0x00000000        0x8 /afs/localcell/cm/gv2.6/sysname/pkg.@sys/qct/software/llvm/release/arm/3.5.2.4/lib/clang/3.5.2/lib/linux/libclang_rt.builtins-arm.a(adddf3.c.o)
 .data          0x00000000        0x0 /afs/localcell/cm/gv2.6/sysname/pkg.@sys/qct/software/llvm/release/arm/3.5.2.4/lib/clang/3.5.2/lib/linux/libclang_rt.builtins-arm.a(divsf3.c.o)
 .bss           0x00000000        0x0 /afs/localcell/cm/gv2.6/sysname/pkg.@sys/qct/software/llvm/release/arm/3.5.2.4/lib/clang/3.5.2/lib/linux/libclang_rt.builtins-arm.a(divsf3.c.o)
 .ARM.exidx     0x00000000        0x8 /afs/localcell/cm/gv2.6/sysname/pkg.@sys/qct/software/llvm/release/arm/3.5.2.4/lib/clang/3.5.2/lib/linux/libclang_rt.builtins-arm.a(divsf3.c.o)
 .data          0x00000000        0x0 /afs/localcell/cm/gv2.6/sysname/pkg.@sys/qct/software/llvm/release/arm/3.5.2.4/lib/clang/3.5.2/lib/linux/libclang_rt.builtins-arm.a(extendsfdf2.c.o)
 .bss           0x00000000        0x0 /afs/localcell/cm/gv2.6/sysname/pkg.@sys/qct/software/llvm/release/arm/3.5.2.4/lib/clang/3.5.2/lib/linux/libclang_rt.builtins-arm.a(extendsfdf2.c.o)
 .ARM.exidx     0x00000000        0x8 /afs/localcell/cm/gv2.6/sysname/pkg.@sys/qct/software/llvm/release/arm/3.5.2.4/lib/clang/3.5.2/lib/linux/libclang_rt.builtins-arm.a(extendsfdf2.c.o)
 .data          0x00000000        0x0 /afs/localcell/cm/gv2.6/sysname/pkg.@sys/qct/software/llvm/release/arm/3.5.2.4/lib/clang/3.5.2/lib/linux/libclang_rt.builtins-arm.a(fixdfsi.c.o)
 .bss           0x00000000        0x0 /afs/localcell/cm/gv2.6/sysname/pkg.@sys/qct/software/llvm/release/arm/3.5.2.4/lib/clang/3.5.2/lib/linux/libclang_rt.builtins-arm.a(fixdfsi.c.o)
 .ARM.exidx     0x00000000        0x8 /afs/localcell/cm/gv2.6/sysname/pkg.@sys/qct/software/llvm/release/arm/3.5.2.4/lib/clang/3.5.2/lib/linux/libclang_rt.builtins-arm.a(fixdfsi.c.o)
 .data          0x00000000        0x0 /afs/localcell/cm/gv2.6/sysname/pkg.@sys/qct/software/llvm/release/arm/3.5.2.4/lib/clang/3.5.2/lib/linux/libclang_rt.builtins-arm.a(floatsidf.c.o)
 .bss           0x00000000        0x0 /afs/localcell/cm/gv2.6/sysname/pkg.@sys/qct/software/llvm/release/arm/3.5.2.4/lib/clang/3.5.2/lib/linux/libclang_rt.builtins-arm.a(floatsidf.c.o)
 .ARM.exidx     0x00000000        0x8 /afs/localcell/cm/gv2.6/sysname/pkg.@sys/qct/software/llvm/release/arm/3.5.2.4/lib/clang/3.5.2/lib/linux/libclang_rt.builtins-arm.a(floatsidf.c.o)
 .data          0x00000000        0x0 /afs/localcell/cm/gv2.6/sysname/pkg.@sys/qct/software/llvm/release/arm/3.5.2.4/lib/clang/3.5.2/lib/linux/libclang_rt.builtins-arm.a(floatsisf.c.o)
 .bss           0x00000000        0x0 /afs/localcell/cm/gv2.6/sysname/pkg.@sys/qct/software/llvm/release/arm/3.5.2.4/lib/clang/3.5.2/lib/linux/libclang_rt.builtins-arm.a(floatsisf.c.o)
 .ARM.exidx     0x00000000        0x8 /afs/localcell/cm/gv2.6/sysname/pkg.@sys/qct/software/llvm/release/arm/3.5.2.4/lib/clang/3.5.2/lib/linux/libclang_rt.builtins-arm.a(floatsisf.c.o)
 .data          0x00000000        0x0 /local/mnt/workspace/CRMBuilds/TZ.BF.4.0.3.c1-00005-M8996AAAAANAZT-1_20170110_230814/b/HK11/trustzone_images/core/kernel/libstd/build/secure_ui_sample/scorpion/IADAANAA/libstd.lib(timesafe_memcmp.o)
 .bss           0x00000000        0x0 /local/mnt/workspace/CRMBuilds/TZ.BF.4.0.3.c1-00005-M8996AAAAANAZT-1_20170110_230814/b/HK11/trustzone_images/core/kernel/libstd/build/secure_ui_sample/scorpion/IADAANAA/libstd.lib(timesafe_memcmp.o)
 .ARM.exidx     0x00000000        0x8 /local/mnt/workspace/CRMBuilds/TZ.BF.4.0.3.c1-00005-M8996AAAAANAZT-1_20170110_230814/b/HK11/trustzone_images/core/kernel/libstd/build/secure_ui_sample/scorpion/IADAANAA/libstd.lib(timesafe_memcmp.o)
 .data          0x00000000        0x0 /local/mnt/workspace/CRMBuilds/TZ.BF.4.0.3.c1-00005-M8996AAAAANAZT-1_20170110_230814/b/HK11/trustzone_images/core/securemsm/sse/SecureTouch/controller/build/secure_ui_sample/scorpion/IADAANAA/drts_controller_msm8996.lib(atmel_mxt_ts.o)
 .ARM.exidx     0x00000000       0x48 /local/mnt/workspace/CRMBuilds/TZ.BF.4.0.3.c1-00005-M8996AAAAANAZT-1_20170110_230814/b/HK11/trustzone_images/core/securemsm/sse/SecureTouch/controller/build/secure_ui_sample/scorpion/IADAANAA/drts_controller_msm8996.lib(atmel_mxt_ts.o)
 .data          0x00000000        0x0 /local/mnt/workspace/CRMBuilds/TZ.BF.4.0.3.c1-00005-M8996AAAAANAZT-1_20170110_230814/b/HK11/trustzone_images/core/securemsm/sse/SecureTouch/controller/build/secure_ui_sample/scorpion/IADAANAA/drts_controller_msm8996.lib(synaptics_ts.o)
 .ARM.exidx     0x00000000       0x28 /local/mnt/workspace/CRMBuilds/TZ.BF.4.0.3.c1-00005-M8996AAAAANAZT-1_20170110_230814/b/HK11/trustzone_images/core/securemsm/sse/SecureTouch/controller/build/secure_ui_sample/scorpion/IADAANAA/drts_controller_msm8996.lib(synaptics_ts.o)
 .data          0x00000000        0x0 /local/mnt/workspace/CRMBuilds/TZ.BF.4.0.3.c1-00005-M8996AAAAANAZT-1_20170110_230814/b/HK11/trustzone_images/core/securemsm/sse/log/build/secure_ui_sample/scorpion/IADAANAA/sselog.lib(sselog.o)
 .bss           0x00000000        0x0 /local/mnt/workspace/CRMBuilds/TZ.BF.4.0.3.c1-00005-M8996AAAAANAZT-1_20170110_230814/b/HK11/trustzone_images/core/securemsm/sse/log/build/secure_ui_sample/scorpion/IADAANAA/sselog.lib(sselog.o)
 .ARM.exidx     0x00000000        0x8 /local/mnt/workspace/CRMBuilds/TZ.BF.4.0.3.c1-00005-M8996AAAAANAZT-1_20170110_230814/b/HK11/trustzone_images/core/securemsm/sse/log/build/secure_ui_sample/scorpion/IADAANAA/sselog.lib(sselog.o)
 .data          0x00000000        0x0 /local/mnt/workspace/CRMBuilds/TZ.BF.4.0.3.c1-00005-M8996AAAAANAZT-1_20170110_230814/b/HK11/trustzone_images/core/securemsm/sse/qsee/SecureTouch/drTs/controller/build/secure_ui_sample/scorpion/IADAANAA/touch_controller_i2c_msm8996.lib(atmel_mxt_ts_i2c.o)
 .bss           0x00000000        0x0 /local/mnt/workspace/CRMBuilds/TZ.BF.4.0.3.c1-00005-M8996AAAAANAZT-1_20170110_230814/b/HK11/trustzone_images/core/securemsm/sse/qsee/SecureTouch/drTs/controller/build/secure_ui_sample/scorpion/IADAANAA/touch_controller_i2c_msm8996.lib(atmel_mxt_ts_i2c.o)
 .ARM.exidx     0x00000000       0x18 /local/mnt/workspace/CRMBuilds/TZ.BF.4.0.3.c1-00005-M8996AAAAANAZT-1_20170110_230814/b/HK11/trustzone_images/core/securemsm/sse/qsee/SecureTouch/drTs/controller/build/secure_ui_sample/scorpion/IADAANAA/touch_controller_i2c_msm8996.lib(atmel_mxt_ts_i2c.o)
 .data          0x00000000        0x0 /local/mnt/workspace/CRMBuilds/TZ.BF.4.0.3.c1-00005-M8996AAAAANAZT-1_20170110_230814/b/HK11/trustzone_images/core/securemsm/sse/qsee/SecureTouch/drTs/controller/build/secure_ui_sample/scorpion/IADAANAA/touch_controller_i2c_msm8996.lib(synaptics_ts_i2c.o)
 .bss           0x00000000        0x0 /local/mnt/workspace/CRMBuilds/TZ.BF.4.0.3.c1-00005-M8996AAAAANAZT-1_20170110_230814/b/HK11/trustzone_images/core/securemsm/sse/qsee/SecureTouch/drTs/controller/build/secure_ui_sample/scorpion/IADAANAA/touch_controller_i2c_msm8996.lib(synaptics_ts_i2c.o)
 .ARM.exidx     0x00000000       0x20 /local/mnt/workspace/CRMBuilds/TZ.BF.4.0.3.c1-00005-M8996AAAAANAZT-1_20170110_230814/b/HK11/trustzone_images/core/securemsm/sse/qsee/SecureTouch/drTs/controller/build/secure_ui_sample/scorpion/IADAANAA/touch_controller_i2c_msm8996.lib(synaptics_ts_i2c.o)
 .data          0x00000000        0x0 /local/mnt/workspace/CRMBuilds/TZ.BF.4.0.3.c1-00005-M8996AAAAANAZT-1_20170110_230814/b/HK11/trustzone_images/core/securemsm/trustzone/qsapps/libs/applib/qsee/build/secure_ui_sample/scorpion/IADAANAA/tzapp_entrylib.lib(qsee_i2c.o)
 .bss           0x00000000        0x0 /local/mnt/workspace/CRMBuilds/TZ.BF.4.0.3.c1-00005-M8996AAAAANAZT-1_20170110_230814/b/HK11/trustzone_images/core/securemsm/trustzone/qsapps/libs/applib/qsee/build/secure_ui_sample/scorpion/IADAANAA/tzapp_entrylib.lib(qsee_i2c.o)
 .ARM.exidx     0x00000000       0x28 /local/mnt/workspace/CRMBuilds/TZ.BF.4.0.3.c1-00005-M8996AAAAANAZT-1_20170110_230814/b/HK11/trustzone_images/core/securemsm/trustzone/qsapps/libs/applib/qsee/build/secure_ui_sample/scorpion/IADAANAA/tzapp_entrylib.lib(qsee_i2c.o)
 .data          0x00000000        0x0 /afs/localcell/cm/gv2.6/sysname/pkg.@sys/qct/software/llvm/release/arm/3.5.2.4/tools/lib32/lib/libc.a(snprintf.o)
 .bss           0x00000000        0x0 /afs/localcell/cm/gv2.6/sysname/pkg.@sys/qct/software/llvm/release/arm/3.5.2.4/tools/lib32/lib/libc.a(snprintf.o)
 .ARM.exidx     0x00000000        0x8 /afs/localcell/cm/gv2.6/sysname/pkg.@sys/qct/software/llvm/release/arm/3.5.2.4/tools/lib32/lib/libc.a(snprintf.o)
 .note.GNU-stack
                0x00000000        0x0 /afs/localcell/cm/gv2.6/sysname/pkg.@sys/qct/software/llvm/release/arm/3.5.2.4/tools/lib32/lib/libc.a(snprintf.o)

Memory Configuration

Name             Origin             Length             Attributes
*default*        0x00000000         0xffffffff

Linker script and memory map


.text           0x00000000    0xaadd7
 *\tzapp_entry.o(SORT(TZAPPENTRYCODE))
 TZAPPENTRYCODE
                0x00000000       0x4c /local/mnt/workspace/CRMBuilds/TZ.BF.4.0.3.c1-00005-M8996AAAAANAZT-1_20170110_230814/b/HK11/trustzone_images/core/securemsm/trustzone/qsapps/libs/applib/qsee/build/secure_ui_sample/scorpion/IADAANAA/src/tzapp_entry.o
                0x00000000                __main
                0x00000000                TZAPPENTRY
                0x00000000                _main
                0x0000003c                get_cmnlib_ctx_ptr
 *(SORT(.text) SORT(.text.*) SORT(kthread_shared))
 *fill*         0x0000004c        0x4 
 .text          0x00000050     0x1718 /afs/localcell/cm/gv2.6/sysname/pkg.@sys/qct/software/llvm/release/arm/3.5.2.4/tools/lib32/lib/libc.a(vfprintf.o)
                0x00000050                vfprintf
 .text          0x00001768       0x68 /afs/localcell/cm/gv2.6/sysname/pkg.@sys/qct/software/llvm/release/arm/3.5.2.4/tools/lib32/lib/libc.a(frexp.o)
                0x00001768                frexp
 .text          0x000017d0      0x308 /afs/localcell/cm/gv2.6/sysname/pkg.@sys/qct/software/llvm/release/arm/3.5.2.4/lib/clang/3.5.2/lib/linux/libclang_rt.builtins-arm.a(divdf3.c.o)
                0x000017d0                __aeabi_ddiv
                0x000017d0                __divdf3
 .text          0x00001ad8      0x320 /afs/localcell/cm/gv2.6/sysname/pkg.@sys/qct/software/llvm/release/arm/3.5.2.4/lib/clang/3.5.2/lib/linux/libclang_rt.builtins-arm.a(muldf3.c.o)
                0x00001ad8                __aeabi_dmul
                0x00001ad8                __muldf3
 .text          0x00001df8      0x198 /afs/localcell/cm/gv2.6/sysname/pkg.@sys/qct/software/llvm/release/arm/3.5.2.4/tools/lib32/lib/libc.a(atan2.o)
                0x00001df8                atan2
 .text          0x00001f90      0x108 /afs/localcell/cm/gv2.6/sysname/pkg.@sys/qct/software/llvm/release/arm/3.5.2.4/tools/lib32/lib/libc.a(cos.o)
                0x00001f90                cos
 .text          0x00002098       0x90 /afs/localcell/cm/gv2.6/sysname/pkg.@sys/qct/software/llvm/release/arm/3.5.2.4/tools/lib32/lib/libc.a(floor.o)
                0x00002098                floor
 .text          0x00002128      0x128 /afs/localcell/cm/gv2.6/sysname/pkg.@sys/qct/software/llvm/release/arm/3.5.2.4/tools/lib32/lib/libc.a(sin.o)
                0x00002128                sin
 .text          0x00002250       0xa8 /afs/localcell/cm/gv2.6/sysname/pkg.@sys/qct/software/llvm/release/arm/3.5.2.4/tools/lib32/lib/libc.a(__cos.o)
                0x00002250                __cos
 .text          0x000022f8      0x3b0 /afs/localcell/cm/gv2.6/sysname/pkg.@sys/qct/software/llvm/release/arm/3.5.2.4/tools/lib32/lib/libc.a(__rem_pio2.o)
                0x000022f8                __rem_pio2
 .text          0x000026a8      0x670 /afs/localcell/cm/gv2.6/sysname/pkg.@sys/qct/software/llvm/release/arm/3.5.2.4/tools/lib32/lib/libc.a(__rem_pio2_large.o)
                0x000026a8                __rem_pio2_large
 .text          0x00002d18       0xa8 /afs/localcell/cm/gv2.6/sysname/pkg.@sys/qct/software/llvm/release/arm/3.5.2.4/tools/lib32/lib/libc.a(__sin.o)
                0x00002d18                __sin
 .text          0x00002dc0      0x238 /afs/localcell/cm/gv2.6/sysname/pkg.@sys/qct/software/llvm/release/arm/3.5.2.4/tools/lib32/lib/libc.a(atan.o)
                0x00002dc0                atan
 .text          0x00002ff8       0x90 /afs/localcell/cm/gv2.6/sysname/pkg.@sys/qct/software/llvm/release/arm/3.5.2.4/tools/lib32/lib/libc.a(scalbn.o)
                0x00002ff8                scalbn
 .text          0x00003088      0x398 /afs/localcell/cm/gv2.6/sysname/pkg.@sys/qct/software/llvm/release/arm/3.5.2.4/lib/clang/3.5.2/lib/linux/libclang_rt.builtins-arm.a(adddf3.c.o)
                0x00003088                __adddf3
                0x00003088                __aeabi_dadd
 .text          0x00003420     0x13e0 /local/mnt/workspace/CRMBuilds/TZ.BF.4.0.3.c1-00005-M8996AAAAANAZT-1_20170110_230814/b/HK11/trustzone_images/apps/securemsm/trustzone/qsapps/secure_ui_sample/build/secure_ui_sample/scorpion/IADAANAA/app_main.o
                0x00003420                copy_dot
                0x0000351c                draw_dot
                0x000037f8                provision
                0x00003908                tz_app_init
                0x00003a9c                test_app_buffer
                0x00003cc8                alloc_init_screen
                0x00003d34                start_disp_fullscreen
                0x00003f10                show_image
                0x00003fec                show_image_ptr
                0x000040d8                tz_app_cmd_handler
                0x00004700                tz_app_shutdown
 .text          0x00004800       0x18 /local/mnt/workspace/CRMBuilds/TZ.BF.4.0.3.c1-00005-M8996AAAAANAZT-1_20170110_230814/b/HK11/trustzone_images/core/kernel/libstd/build/secure_ui_sample/scorpion/IADAANAA/libstd.lib(memscpy.o)
                0x00004800                memscpy
 .text          0x00004818       0x64 /local/mnt/workspace/CRMBuilds/TZ.BF.4.0.3.c1-00005-M8996AAAAANAZT-1_20170110_230814/b/HK11/trustzone_images/core/kernel/libstd/build/secure_ui_sample/scorpion/IADAANAA/libstd.lib(strlcat.o)
                0x00004818                strlcat
 .text          0x0000487c       0x32 /local/mnt/workspace/CRMBuilds/TZ.BF.4.0.3.c1-00005-M8996AAAAANAZT-1_20170110_230814/b/HK11/trustzone_images/core/kernel/libstd/build/secure_ui_sample/scorpion/IADAANAA/libstd.lib(strlcpy.o)
                0x0000487c                strlcpy
 *fill*         0x000048ae        0x2 
 .text          0x000048b0     0x1e14 /local/mnt/workspace/CRMBuilds/TZ.BF.4.0.3.c1-00005-M8996AAAAANAZT-1_20170110_230814/b/HK11/trustzone_images/core/securemsm/sse/qsee/SecureUI/build/secure_ui_sample/scorpion/IADAANAA/secure_ui.lib(SecureUI.o)
                0x000048b0                sec_ui_get_disp_properties
                0x000049f4                sec_ui_start_disp_fullscreen
                0x00005454                session_is_unchanged
                0x00005564                sec_ui_stop_disp
                0x000058f8                sec_ui_show_buf
                0x00005c10                sec_ui_copy_to_buffer
                0x00005eb4                sec_ui_hlos_release
                0x00005f30                sec_ui_alloc_app_buffer
                0x00006264                sec_ui_free_app_buffer
 .text          0x000066c4     0x30a0 /local/mnt/workspace/CRMBuilds/TZ.BF.4.0.3.c1-00005-M8996AAAAANAZT-1_20170110_230814/b/HK11/trustzone_images/core/securemsm/sse/qsee/SecureUI/build/secure_ui_sample/scorpion/IADAANAA/secure_ui_tui.lib(qsee_tui_dialogs.o)
                0x000066c4                manage_layout_event
                0x000075d4                qsee_tui_init
                0x000075d8                qsee_tui_dialog
                0x000092b4                qsee_tui_get_secure_indicator_buffer
                0x00009358                qsee_tui_release_secure_indicator
                0x000093ac                qsee_tui_tear_down
 .text          0x00009764     0x2660 /local/mnt/workspace/CRMBuilds/TZ.BF.4.0.3.c1-00005-M8996AAAAANAZT-1_20170110_230814/b/HK11/trustzone_images/core/securemsm/sse/qsee/SecureUI/build/secure_ui_sample/scorpion/IADAANAA/secure_ui_tui.lib(layout_manager.o)
                0x00009764                layout_mgr_delete_input_last_character
                0x000097dc                layout_mgr_load_layout
                0x000099a0                layout_mgr_eval_event
                0x0000a558                layout_mgr_render_layout
                0x0000a684                layout_mgr_render_bg_image
                0x0000a744                layout_mgr_set_label_text
                0x0000aafc                set_label_buffer
                0x0000ab4c                layout_mgr_set_label_buffer
                0x0000aca4                layout_mgr_set_input_display_mode
                0x0000add8                layout_mgr_set_show_flag
                0x0000aed0                layout_mgr_set_dirty_bit
                0x0000afc0                layout_mgr_set_button_disabled
                0x0000b140                layout_mgr_set_focus_input
                0x0000b2d8                layout_mgr_set_image
                0x0000b41c                layout_mgr_set_active_keyboard
                0x0000b5d8                layout_mgr_randomize_keyboard
                0x0000b988                layout_mgr_get_input_len
                0x0000bad8                layout_mgr_set_input_len_to_max
                0x0000bbd0                layout_mgr_clear_input_buffer
 .text          0x0000bdc4     0x2b1c /local/mnt/workspace/CRMBuilds/TZ.BF.4.0.3.c1-00005-M8996AAAAANAZT-1_20170110_230814/b/HK11/trustzone_images/core/securemsm/sse/qsee/SecureUI/build/secure_ui_sample/scorpion/IADAANAA/secure_ui_tui.lib(secure_display_renderer.o)
                0x0000bdc4                get_utf8_len
                0x0000bec0                render_bg_image
                0x0000c85c                render_layout
 .text          0x0000e8e0     0x1c94 /local/mnt/workspace/CRMBuilds/TZ.BF.4.0.3.c1-00005-M8996AAAAANAZT-1_20170110_230814/b/HK11/trustzone_images/core/securemsm/sse/qsee/SecureUI/build/secure_ui_sample/scorpion/IADAANAA/secure_ui_tui.lib(font_manager.o)
                0x0000e8e0                font_mgr_prepare_gdfont
                0x0001010c                font_mgr_cleanup
 .text          0x00010574      0x1b4 /local/mnt/workspace/CRMBuilds/TZ.BF.4.0.3.c1-00005-M8996AAAAANAZT-1_20170110_230814/b/HK11/trustzone_images/core/securemsm/sse/qsee/SecureUILib/lib/build/secure_ui_sample/scorpion/IADAANAA/secure_ui_lib.lib(SecureUILib.o)
                0x00010574                secUiProcessCmd
                0x0001064c                secUiCmd
                0x000106e4                secUiRegisterTouchCallback
                0x000106f4                secUiTouchIsActive
                0x0001070c                secUiSetPanelSize
 .text          0x00010728      0x138 /local/mnt/workspace/CRMBuilds/TZ.BF.4.0.3.c1-00005-M8996AAAAANAZT-1_20170110_230814/b/HK11/trustzone_images/core/securemsm/sse/qsee/SecureUILib/lib/build/secure_ui_sample/scorpion/IADAANAA/secure_ui_lib.lib(01_startTouch.o)
                0x00010728                processCmdStartTouch
 .text          0x00010860      0x218 /local/mnt/workspace/CRMBuilds/TZ.BF.4.0.3.c1-00005-M8996AAAAANAZT-1_20170110_230814/b/HK11/trustzone_images/core/securemsm/sse/qsee/SecureUILib/lib/build/secure_ui_sample/scorpion/IADAANAA/secure_ui_lib.lib(02_processTouch.o)
                0x00010860                processCmdProcessTouch
 .text          0x00010a78      0x12c /local/mnt/workspace/CRMBuilds/TZ.BF.4.0.3.c1-00005-M8996AAAAANAZT-1_20170110_230814/b/HK11/trustzone_images/core/securemsm/sse/qsee/SecureUILib/lib/build/secure_ui_sample/scorpion/IADAANAA/secure_ui_lib.lib(03_stopTouch.o)
                0x00010a78                secUiTouchStop
                0x00010b10                processCmdStopTouch
 .text          0x00010ba4       0xc0 /local/mnt/workspace/CRMBuilds/TZ.BF.4.0.3.c1-00005-M8996AAAAANAZT-1_20170110_230814/b/HK11/trustzone_images/core/securemsm/sse/qsee/SecureUILib/lib/build/secure_ui_sample/scorpion/IADAANAA/secure_ui_lib.lib(04_prepareRequest.o)
                0x00010ba4                processCmdPrepareRequest
 .text          0x00010c64       0xf0 /local/mnt/workspace/CRMBuilds/TZ.BF.4.0.3.c1-00005-M8996AAAAANAZT-1_20170110_230814/b/HK11/trustzone_images/core/securemsm/sse/qsee/SecureUILib/lib/build/secure_ui_sample/scorpion/IADAANAA/secure_ui_lib.lib(05_storeIndicator.o)
                0x00010c64                processCmdStoreIndicator
 .text          0x00010d54      0x770 /local/mnt/workspace/CRMBuilds/TZ.BF.4.0.3.c1-00005-M8996AAAAANAZT-1_20170110_230814/b/HK11/trustzone_images/core/securemsm/trustzone/qsapps/libs/applib/common_applib/build/secure_ui_sample/scorpion/IADAANAA/tzapp_entrylib.lib(common_applib.o)
                0x00010d54                qsee_err_fatal
                0x00010d74                platform_err_fatal
                0x00010d78                platform_get_random
                0x00010d7c                __stack_chk_fail
                0x00010d80                _sys_command_string
                0x00010d8c                get_app_req_resp
                0x00010d98                qsee_read_register
                0x00010db8                qsee_request_service
                0x00010e38                qsee_prepare_shared_buf_for_nosecure_read
                0x00010e58                qsee_prepare_shared_buf_for_secure_read
                0x00010e78                qsee_set_global_flag
                0x00010e98                qsee_get_global_flag
                0x00010eb8                qsee_oem_process_cmd
                0x00010edc                qsee_enforce_hdmi_hdcp_encryption
                0x00010efc                qsee_write_hdcp2p2_key_riv_enable
                0x00010f20                qsee_read_hdcp2p2_min_encryption_level
                0x00010f40                qsee_write_hdcp2p2_min_encryption_level
                0x00010f60                qsee_get_hdcp_min_enc_level
                0x00010f80                qsee_set_hdcp_min_enc_level
                0x00010fa0                qsee_write_hdcp1_key
                0x00010fc0                qsee_set_hdcp_cpi_assert
                0x00010fe0                qsee_get_secure_state
                0x00011000                qsee_malloc
                0x00011008                qsee_realloc
                0x0001103c                qsee_realloc_common
                0x000110b8                qsee_free
                0x000110e8                qsee_cmnlib_malloc
                0x0001111c                qsee_cmnlib_free
                0x0001114c                tzlib_app_entry
                0x00011284                get_ta_app_name
                0x00011294                get_app_md
 .text.tz_module_open
                0x000114c4        0xc /local/mnt/workspace/CRMBuilds/TZ.BF.4.0.3.c1-00005-M8996AAAAANAZT-1_20170110_230814/b/HK11/trustzone_images/core/securemsm/trustzone/qsapps/libs/applib/common_applib/build/secure_ui_sample/scorpion/IADAANAA/tzapp_entrylib.lib(common_applib.o)
                0x000114c4                tz_module_open
 .text          0x000114d0      0x580 /local/mnt/workspace/CRMBuilds/TZ.BF.4.0.3.c1-00005-M8996AAAAANAZT-1_20170110_230814/b/HK11/trustzone_images/core/securemsm/trustzone/qsapps/libs/applib/proxy/build/secure_ui_sample/scorpion/IADAANAA/tzlib_proxy.lib(prxy_services.o)
                0x000114d0                qsee_kdf
                0x00011504                qsee_log
                0x00011590                qsee_log_set_mask
                0x000115b4                qsee_log_get_mask
                0x000115dc                open
                0x0001161c                read
                0x00011648                write
                0x00011674                close
                0x00011698                lstat
                0x000116bc                mkdir
                0x000116e0                frename
                0x00011704                opendir
                0x00011728                readdir
                0x0001174c                rmdir
                0x00011770                testdir
                0x00011794                file_get_partition_free_size
                0x000117b8                fstat
                0x000117dc                lseek
                0x00011808                time_getsystime
                0x0001182c                time_getutcsec
                0x00011850                time_is_leap_year
                0x00011874                remove
                0x00011898                unlink
                0x000118bc                link
                0x000118e0                telldir
                0x00011904                fsync
                0x00011928                openat
                0x00011964                unlinkat
                0x00011990                fcntl
                0x000119d0                creat
                0x000119f4                file_dir_chown_chmod
                0x00011a28                get_error_number
 .text          0x00011a50      0x2c4 /local/mnt/workspace/CRMBuilds/TZ.BF.4.0.3.c1-00005-M8996AAAAANAZT-1_20170110_230814/b/HK11/trustzone_images/core/securemsm/trustzone/qsapps/libs/applib/proxy/build/secure_ui_sample/scorpion/IADAANAA/tzlib_proxy.lib(prxy_qsee_shim.o)
                0x00011a50                qsee_rsa_key_gen
                0x00011a60                qsee_secpkcs8_parse
                0x00011a70                qsee_rsa_sign_hash
                0x00011aa4                qsee_rsa_verify_signature
                0x00011ad8                qsee_rsa_encrypt
                0x00011b04                qsee_rsa_decrypt
                0x00011b30                qsee_BIGINT_read_unsigned_bin
                0x00011b40                qsee_util_init_s_bigint
                0x00011b50                qsee_util_free_s_bigint
                0x00011b54                qsee_BIGINT_read_radix
                0x00011b68                qsee_rsa_exptmod
                0x00011b8c                qsee_util_count_bytes
                0x00011b90                qsee_SW_ECC_PubPrivate_Key_generate
                0x00011ba4                qsee_SW_ECDH_Shared_Key_Derive
                0x00011bb8                qsee_SW_ECDSA_Sign
                0x00011bcc                qsee_SW_ECDSA_Verify
                0x00011be0                qsee_ECC_hash_to_bigval
                0x00011be4                qsee_toggle_random_bit
                0x00011be8                qsee_get_random_bytes
                0x00011bec                qsee_in_curveP
                0x00011bfc                qsee_SW_GENERIC_ECC_init
                0x00011c34                qsee_SW_GENERIC_ECDSA_sign
                0x00011c54                qsee_SW_GENERIC_ECDSA_verify
                0x00011c74                qsee_SW_GENERIC_ECDH_shared_key_derive
                0x00011c88                qsee_SW_GENERIC_ECC_keypair_generate
                0x00011c9c                qsee_SW_GENERIC_ECC_binary_to_bigval
                0x00011cbc                qsee_SW_GENERIC_ECC_bigval_to_binary
                0x00011cdc                qsee_SW_GENERIC_ECC_compare
                0x00011cf0                qsee_SW_GENERIC_ECC_convert_input_to_bigval
                0x00011d04                qsee_SW_Cipher_DES_Init
                0x00011d08                qsee_SW_Cipher_DES_DeInit
                0x00011d0c                qsee_SW_CipherDESData
                0x00011d10                qsee_SW_Cipher_DES_SetParam
 .text          0x00011d14       0xb0 /local/mnt/workspace/CRMBuilds/TZ.BF.4.0.3.c1-00005-M8996AAAAANAZT-1_20170110_230814/b/HK11/trustzone_images/core/securemsm/trustzone/qsapps/libs/applib/proxy/build/secure_ui_sample/scorpion/IADAANAA/tzlib_proxy.lib(prxy_ufdes.o)
                0x00011d14                SW_Cipher_DES_Init
                0x00011d38                SW_Cipher_DES_DeInit
                0x00011d5c                SW_CipherDESData
                0x00011d90                SW_Cipher_DES_SetParam
 .text          0x00011dc4       0x50 /local/mnt/workspace/CRMBuilds/TZ.BF.4.0.3.c1-00005-M8996AAAAANAZT-1_20170110_230814/b/HK11/trustzone_images/core/securemsm/trustzone/qsapps/libs/applib/proxy/build/secure_ui_sample/scorpion/IADAANAA/tzlib_proxy.lib(prxy_secmath.o)
                0x00011dc4                secmath_BIGINT_read_unsigned_bin
                0x00011dec                secmath_BIGINT_read_radix
 .text          0x00011e14      0x1c8 /local/mnt/workspace/CRMBuilds/TZ.BF.4.0.3.c1-00005-M8996AAAAANAZT-1_20170110_230814/b/HK11/trustzone_images/core/securemsm/trustzone/qsapps/libs/applib/proxy/build/secure_ui_sample/scorpion/IADAANAA/tzlib_proxy.lib(prxy_secrsa.o)
                0x00011e14                secpkcs8_parse
                0x00011e3c                ce_rsa_key_gen
                0x00011e70                ce_rsa_encrypt
                0x00011ea4                ce_rsa_decrypt
                0x00011ed8                ce_rsa_sign_hash
                0x00011f0c                ce_rsa_verify_signature
                0x00011f40                ce_util_init_s_bigint
                0x00011f64                ce_util_free_s_bigint
                0x00011f84                ce_util_count_bytes
                0x00011fa8                ce_rsa_exptmod
 .text          0x00011fdc      0x2ec /local/mnt/workspace/CRMBuilds/TZ.BF.4.0.3.c1-00005-M8996AAAAANAZT-1_20170110_230814/b/HK11/trustzone_images/core/securemsm/trustzone/qsapps/libs/applib/proxy/build/secure_ui_sample/scorpion/IADAANAA/tzlib_proxy.lib(prxy_ecc.o)
                0x00011fdc                SW_ECC_PubPrivate_Key_generate
                0x00012000                SW_ECDH_Shared_Key_Derive
                0x00012028                SW_ECDSA_Sign
                0x00012050                SW_ECDSA_Verify
                0x00012078                ECC_hash_to_bigval
                0x000120a0                toggle_random_bit
                0x000120c4                in_curveP
                0x000120e8                get_random_bytes
                0x0001210c                SW_GENERIC_ECC_init
                0x00012140                SW_GENERIC_ECDSA_sign
                0x00012174                SW_GENERIC_ECDSA_verify
                0x000121a8                SW_GENERIC_ECDH_shared_key_derive
                0x000121dc                SW_GENERIC_ECC_keypair_generate
                0x00012204                SW_GENERIC_ECC_binary_to_bigval
                0x00012238                SW_GENERIC_ECC_bigval_to_binary
                0x0001226c                SW_GENERIC_ECC_compare
                0x00012294                SW_GENERIC_ECC_convert_input_to_bigval
 .text          0x000122c8      0x2a0 /local/mnt/workspace/CRMBuilds/TZ.BF.4.0.3.c1-00005-M8996AAAAANAZT-1_20170110_230814/b/HK11/trustzone_images/core/securemsm/trustzone/qsapps/libs/applib/qsee/build/secure_ui_sample/scorpion/IADAANAA/tzapp_entrylib.lib(mink_shared_code.o)
                0x000122c8                UThread_syscall
                0x000122e8                minkIPC
                0x00012414                minkServerLoop
                0x00012528                minkServerEntry
 .text          0x00012568      0x230 /local/mnt/workspace/CRMBuilds/TZ.BF.4.0.3.c1-00005-M8996AAAAANAZT-1_20170110_230814/b/HK11/trustzone_images/core/securemsm/trustzone/qsapps/libs/applib/qsee/build/secure_ui_sample/scorpion/IADAANAA/tzapp_entrylib.lib(qsee_env.o)
                0x00012568                qsee_set_env
                0x00012584                qsee_open
                0x000125ec                qsee_open_singleton
                0x000126ec                qsee_printf_ap
                0x00012754                qsee_printf
 .text          0x00012798       0x54 /local/mnt/workspace/CRMBuilds/TZ.BF.4.0.3.c1-00005-M8996AAAAANAZT-1_20170110_230814/b/HK11/trustzone_images/core/securemsm/trustzone/qsapps/libs/applib/qsee/build/secure_ui_sample/scorpion/IADAANAA/tzapp_entrylib.lib(qsee_prng.o)
                0x00012798                qsee_prng_getdata
 .text          0x000127ec       0xb8 /local/mnt/workspace/CRMBuilds/TZ.BF.4.0.3.c1-00005-M8996AAAAANAZT-1_20170110_230814/b/HK11/trustzone_images/core/securemsm/trustzone/qsapps/libs/applib/qsee/build/secure_ui_sample/scorpion/IADAANAA/tzapp_entrylib.lib(qsee_secdisp.o)
                0x000127ec                qsee_sd_get_session
                0x00012848                qsee_sd_set_stop_allowed
 .text          0x000128a4      0x1ec /local/mnt/workspace/CRMBuilds/TZ.BF.4.0.3.c1-00005-M8996AAAAANAZT-1_20170110_230814/b/HK11/trustzone_images/core/securemsm/trustzone/qsapps/libs/applib/qsee/build/secure_ui_sample/scorpion/IADAANAA/tzapp_entrylib.lib(qsee_nsmem.o)
                0x000128a4                qsee_is_s_tag_area
                0x0001293c                qsee_is_ns_range
                0x000129a8                qsee_vm_mem_count
                0x00012a20                qsee_tag_mem
 .text          0x00012a90       0x64 /local/mnt/workspace/CRMBuilds/TZ.BF.4.0.3.c1-00005-M8996AAAAANAZT-1_20170110_230814/b/HK11/trustzone_images/core/securemsm/trustzone/qsapps/libs/applib/qsee/build/secure_ui_sample/scorpion/IADAANAA/tzapp_entrylib.lib(qsee_timer_shim.o)
                0x00012a90                qsee_get_uptime
                0x00012ab4                qsee_wdog_stop
                0x00012ad4                qsee_wdog_pet
 .text          0x00012af4      0x54c /local/mnt/workspace/CRMBuilds/TZ.BF.4.0.3.c1-00005-M8996AAAAANAZT-1_20170110_230814/b/HK11/trustzone_images/core/securemsm/trustzone/qsapps/libs/applib/qsee/build/secure_ui_sample/scorpion/IADAANAA/tzapp_entrylib.lib(qsee_hash.o)
                0x00012af4                qsee_hash_init
                0x00012b54                qsee_hash_free_ctx
                0x00012b80                qsee_hash_update
                0x00012bf4                qsee_hash_final
                0x00012c68                qsee_hash_set_param
                0x00012d78                qsee_hash
                0x00012dec                qsee_hashcipher_encrypt
                0x00012ef0                qsee_hashcipher_decrypt
                0x00012ff4                qsee_hash_reset
 .text          0x00013040      0x104 /local/mnt/workspace/CRMBuilds/TZ.BF.4.0.3.c1-00005-M8996AAAAANAZT-1_20170110_230814/b/HK11/trustzone_images/core/securemsm/trustzone/qsapps/libs/applib/qsee/build/secure_ui_sample/scorpion/IADAANAA/tzapp_entrylib.lib(qsee_shared_buffer.o)
                0x00013040                qsee_register_shared_buffer
                0x000130cc                qsee_deregister_shared_buffer
 .text          0x00013144      0x198 /local/mnt/workspace/CRMBuilds/TZ.BF.4.0.3.c1-00005-M8996AAAAANAZT-1_20170110_230814/b/HK11/trustzone_images/core/securemsm/trustzone/qsapps/libs/applib/qsee/build/secure_ui_sample/scorpion/IADAANAA/tzapp_entrylib.lib(qsee_appmessage.o)
                0x00013144                qsee_encapsulate_inter_app_message
                0x00013224                qsee_decapsulate_inter_app_message
 .text          0x000132dc      0x7bc /local/mnt/workspace/CRMBuilds/TZ.BF.4.0.3.c1-00005-M8996AAAAANAZT-1_20170110_230814/b/HK11/trustzone_images/core/securemsm/trustzone/qsapps/libs/applib/qsee/build/secure_ui_sample/scorpion/IADAANAA/tzapp_entrylib.lib(sfs_api.o)
                0x000132dc                qsee_sfs_open
                0x000134b4                qsee_sfs_close
                0x000134b8                qsee_sfs_read
                0x00013550                qsee_sfs_write
                0x000135c0                qsee_sfs_seek
                0x000136b4                qsee_sfs_getSize
                0x0001375c                qsee_sfs_mkdir
                0x00013760                qsee_sfs_rmdir
                0x00013764                qsee_sfs_rm
                0x000137f0                qsee_sfs_error
                0x000137fc                qsee_sfs_get_file_list
                0x00013a1c                qsee_sfs_clean_file_list
                0x00013a58                qsee_sfs_is_anti_rollback_enabled
 .text          0x00013a98       0xdc /local/mnt/workspace/CRMBuilds/TZ.BF.4.0.3.c1-00005-M8996AAAAANAZT-1_20170110_230814/b/HK11/trustzone_images/core/securemsm/trustzone/qsapps/libs/applib/qsee/build/secure_ui_sample/scorpion/IADAANAA/tzapp_entrylib.lib(tzapp_lib_main.o)
                0x00013a98                get_app_stack_base
                0x00013aa4                get_app_stack_size
                0x00013abc                get_app_heap_base
                0x00013ac8                get_app_heap_size
                0x00013ae0                CApp_handleRequest
                0x00013afc                CApp_invoke
                0x00013b5c                secure_app_init
                0x00013b68                secure_app_shutdown
 kthread_shared
                0x00013b74       0x2c /local/mnt/workspace/CRMBuilds/TZ.BF.4.0.3.c1-00005-M8996AAAAANAZT-1_20170110_230814/b/HK11/trustzone_images/core/securemsm/trustzone/qsapps/libs/applib/qsee/build/secure_ui_sample/scorpion/IADAANAA/tzapp_entrylib.lib(kthread_shared.o)
                0x00013b74                mink_generic_syscall
 .text          0x00013ba0       0x9a /afs/localcell/cm/gv2.6/sysname/pkg.@sys/qct/software/llvm/release/arm/3.5.2.4/tools/lib32/lib/libc.a(vsnprintf.o)
                0x00013ba0                vsnprintf
 *fill*         0x00013c3a        0x2 
 .text          0x00013c3c      0x30c /afs/localcell/cm/gv2.6/sysname/pkg.@sys/qct/software/llvm/release/arm/3.5.2.4/tools/lib32/lib/libc.a(memcpy.o)
                0x00013c3c                memcpy
 .text          0x00013f48       0x24 /afs/localcell/cm/gv2.6/sysname/pkg.@sys/qct/software/llvm/release/arm/3.5.2.4/tools/lib32/lib/libc.a(strcmp.o)
                0x00013f48                strcmp
 .text          0x00013f6c       0x44 /afs/localcell/cm/gv2.6/sysname/pkg.@sys/qct/software/llvm/release/arm/3.5.2.4/tools/lib32/lib/libc.a(strlen.o)
                0x00013f6c                strlen
 .text          0x00013fb0       0x46 /afs/localcell/cm/gv2.6/sysname/pkg.@sys/qct/software/llvm/release/arm/3.5.2.4/tools/lib32/lib/libc.a(strncmp.o)
                0x00013fb0                strncmp
 *fill*         0x00013ff6        0x2 
 .text          0x00013ff8       0x24 /afs/localcell/cm/gv2.6/sysname/pkg.@sys/qct/software/llvm/release/arm/3.5.2.4/tools/lib32/lib/libc.a(__errno_location.o)
                0x00013ff8                __errno_location
 .text          0x0001401c       0xa8 /afs/localcell/cm/gv2.6/sysname/pkg.@sys/qct/software/llvm/release/arm/3.5.2.4/tools/lib32/lib/libc.a(memchr.o)
                0x0001401c                memchr
 .text          0x000140c4       0xe4 /afs/localcell/cm/gv2.6/sysname/pkg.@sys/qct/software/llvm/release/arm/3.5.2.4/tools/lib32/lib/libc.a(memset.o)
                0x000140c4                memset
 .text          0x000141a8       0x6c /afs/localcell/cm/gv2.6/sysname/pkg.@sys/qct/software/llvm/release/arm/3.5.2.4/tools/lib32/lib/libc.a(strerror.o)
                0x000141a8                strerror_l
                0x000141a8                __strerror_l
                0x000141f4                strerror
 .text          0x00014214       0x28 /afs/localcell/cm/gv2.6/sysname/pkg.@sys/qct/software/llvm/release/arm/3.5.2.4/tools/lib32/lib/libc.a(__lctrans.o)
                0x00014214                __lctrans_impl
                0x00014214                dummy
                0x00014218                __lctrans
                0x0001421c                __lctrans_cur
 .text          0x0001423c        0x4 /afs/localcell/cm/gv2.6/sysname/pkg.@sys/qct/software/llvm/release/arm/3.5.2.4/tools/lib32/lib/libc.a(frexpl.o)
                0x0001423c                frexpl
 .text          0x00014240        0xe /afs/localcell/cm/gv2.6/sysname/pkg.@sys/qct/software/llvm/release/arm/3.5.2.4/tools/lib32/lib/libc.a(wctomb.o)
                0x00014240                wctomb
 *fill*         0x0001424e        0x2 
 .text          0x00014250       0xc8 /afs/localcell/cm/gv2.6/sysname/pkg.@sys/qct/software/llvm/release/arm/3.5.2.4/tools/lib32/lib/libc.a(__lockfile.o)
                0x00014250                __lockfile
                0x000142cc                __unlockfile
 .text          0x00014318       0xf4 /afs/localcell/cm/gv2.6/sysname/pkg.@sys/qct/software/llvm/release/arm/3.5.2.4/tools/lib32/lib/libc.a(fwrite.o)
                0x00014318                __fwritex
                0x000143b4                fwrite_unlocked
                0x000143b4                fwrite
 .text          0x0001440c       0xb8 /afs/localcell/cm/gv2.6/sysname/pkg.@sys/qct/software/llvm/release/arm/3.5.2.4/tools/lib32/lib/libc.a(__wait.o)
                0x0001440c                __wait
 .text          0x000144c4       0x30 /afs/localcell/cm/gv2.6/sysname/pkg.@sys/qct/software/llvm/release/arm/3.5.2.4/tools/lib32/lib/libc.a(syscall.o)
                0x000144c4                __syscall
 .text          0x000144f4       0xa6 /afs/localcell/cm/gv2.6/sysname/pkg.@sys/qct/software/llvm/release/arm/3.5.2.4/tools/lib32/lib/libc.a(wcrtomb.o)
                0x000144f4                wcrtomb
 *fill*         0x0001459a        0x2 
 .text          0x0001459c       0x40 /afs/localcell/cm/gv2.6/sysname/pkg.@sys/qct/software/llvm/release/arm/3.5.2.4/tools/lib32/lib/libc.a(__towrite.o)
                0x0001459c                __towrite
                0x000145d8                __towrite_needs_stdio_exit
 .text          0x000145dc       0x8a /afs/localcell/cm/gv2.6/sysname/pkg.@sys/qct/software/llvm/release/arm/3.5.2.4/tools/lib32/lib/libc.a(__stdio_exit.o)
                0x000145dc                __stdio_exit
                0x000145dc                __stdio_exit_needed
 *fill*         0x00014666        0x2 
 .text          0x00014668       0x96 /afs/localcell/cm/gv2.6/sysname/pkg.@sys/qct/software/llvm/release/arm/3.5.2.4/tools/lib32/lib/libc.a(__lock.o)
                0x00014668                __lock
                0x000146b0                __unlock
 *fill*         0x000146fe        0x2 
 .text          0x00014700       0xa0 /afs/localcell/cm/gv2.6/sysname/pkg.@sys/qct/software/llvm/release/arm/3.5.2.4/lib/clang/3.5.2/lib/linux/libclang_rt.builtins-arm.a(aeabi_dcmp.S.o)
                0x00014700                __aeabi_dcmpeq
                0x00014720                __aeabi_dcmplt
                0x00014740                __aeabi_dcmple
                0x00014760                __aeabi_dcmpge
                0x00014780                __aeabi_dcmpgt
 .text          0x000147a0        0x4 /afs/localcell/cm/gv2.6/sysname/pkg.@sys/qct/software/llvm/release/arm/3.5.2.4/lib/clang/3.5.2/lib/linux/libclang_rt.builtins-arm.a(aeabi_memcpy.S.o)
                0x000147a0                __aeabi_memcpy
                0x000147a0                __aeabi_memcpy4
                0x000147a0                __aeabi_memcpy8
 .text          0x000147a4       0x1c /afs/localcell/cm/gv2.6/sysname/pkg.@sys/qct/software/llvm/release/arm/3.5.2.4/lib/clang/3.5.2/lib/linux/libclang_rt.builtins-arm.a(aeabi_memset.S.o)
                0x000147a4                __aeabi_memset
                0x000147a4                __aeabi_memset8
                0x000147a4                __aeabi_memset4
                0x000147b4                __aeabi_memclr8
                0x000147b4                __aeabi_memclr
                0x000147b4                __aeabi_memclr4
 .text          0x000147c0       0x24 /afs/localcell/cm/gv2.6/sysname/pkg.@sys/qct/software/llvm/release/arm/3.5.2.4/lib/clang/3.5.2/lib/linux/libclang_rt.builtins-arm.a(aeabi_uldivmod.S.o)
                0x000147c0                __aeabi_uldivmod
 .text          0x000147e4      0x4be /afs/localcell/cm/gv2.6/sysname/pkg.@sys/qct/software/llvm/release/arm/3.5.2.4/lib/clang/3.5.2/lib/linux/libclang_rt.builtins-arm.a(comparedf2.c.o)
                0x000147e4                __ledf2
                0x000148a4                __gedf2
                0x00014964                __aeabi_dcmpun
                0x00014964                __unorddf2
                0x000149a4                __eqdf2
                0x00014a64                __ltdf2
                0x00014b24                __nedf2
                0x00014be4                __gtdf2
 *fill*         0x00014ca2        0x2 
 .text          0x00014ca4       0x28 /afs/localcell/cm/gv2.6/sysname/pkg.@sys/qct/software/llvm/release/arm/3.5.2.4/lib/clang/3.5.2/lib/linux/libclang_rt.builtins-arm.a(fixunsdfsi.c.o)
                0x00014ca4                __fixunsdfsi
                0x00014ca4                __aeabi_d2uiz
 .text          0x00014ccc       0x4c /afs/localcell/cm/gv2.6/sysname/pkg.@sys/qct/software/llvm/release/arm/3.5.2.4/lib/clang/3.5.2/lib/linux/libclang_rt.builtins-arm.a(floatunsidf.c.o)
                0x00014ccc                __aeabi_ui2d
                0x00014ccc                __floatunsidf
 .text          0x00014d18      0x416 /afs/localcell/cm/gv2.6/sysname/pkg.@sys/qct/software/llvm/release/arm/3.5.2.4/lib/clang/3.5.2/lib/linux/libclang_rt.builtins-arm.a(udivmoddi4.c.o)
                0x00014d18                __udivmoddi4
 *fill*         0x0001512e        0x2 
 .text          0x00015130      0x154 /afs/localcell/cm/gv2.6/sysname/pkg.@sys/qct/software/llvm/release/arm/3.5.2.4/lib/clang/3.5.2/lib/linux/libclang_rt.builtins-arm.a(udivsi3.c.o)
                0x00015130                __udivsi3
                0x00015130                __aeabi_uidiv
 .text          0x00015284       0x18 /afs/localcell/cm/gv2.6/sysname/pkg.@sys/qct/software/llvm/release/arm/3.5.2.4/lib/clang/3.5.2/lib/linux/libclang_rt.builtins-arm.a(umoddi3.c.o)
                0x00015284                __umoddi3
 .text          0x0001529c       0x10 /afs/localcell/cm/gv2.6/sysname/pkg.@sys/qct/software/llvm/release/arm/3.5.2.4/lib/clang/3.5.2/lib/linux/libclang_rt.builtins-arm.a(umodsi3.c.o)
                0x0001529c                __umodsi3
 .text          0x000152ac    0x70c2c /local/mnt/workspace/CRMBuilds/TZ.BF.4.0.3.c1-00005-M8996AAAAANAZT-1_20170110_230814/b/HK11/trustzone_images/apps/securemsm/trustzone/qsapps/secure_ui_sample/layouts/build/secure_ui_sample/scorpion/IADAANAA/secure_ui_layout.lib(layout_8996_fluid.o)
                0x00085b8c                gdFontGetgdfontqualcomm_regular100propExt
                0x00085b9c                gdFontGetgdfontqualcomm_regular42propExt
                0x00085bac                gdFontGetgdfontqualcomm_regular48propExt
                0x00085bbc                reset_vars
                0x00085e08                create_layout
                0x00085e68                get_layout_by_name
 .text          0x00085ed8       0x18 /local/mnt/workspace/CRMBuilds/TZ.BF.4.0.3.c1-00005-M8996AAAAANAZT-1_20170110_230814/b/HK11/trustzone_images/core/kernel/libstd/build/secure_ui_sample/scorpion/IADAANAA/libstd.lib(secure_memset.o)
                0x00085ed8                secure_memset
 .text          0x00085ef0     0x16d4 /local/mnt/workspace/CRMBuilds/TZ.BF.4.0.3.c1-00005-M8996AAAAANAZT-1_20170110_230814/b/HK11/trustzone_images/core/securemsm/sse/SecureTouch/layout/build/secure_ui_sample/scorpion/IADAANAA/sklayout.lib(layoutUtils.o)
                0x00085ef0                setVisible
                0x00085f08                showKeyboard
                0x00085fac                updateKeyboard
                0x00085fe4                unclickObject
                0x00086040                findObject
                0x00086300                verifyLayout
                0x00086ea0                updatePage
 .text          0x000875c4     0x4226 /local/mnt/workspace/CRMBuilds/TZ.BF.4.0.3.c1-00005-M8996AAAAANAZT-1_20170110_230814/b/HK11/trustzone_images/core/securemsm/sse/qsee/SecureDisplay/libgd/build/secure_ui_sample/scorpion/IADAANAA/libgd.lib(gd.o)
                0x000875c4                gd_stderr_error
                0x00087684                gd_error
                0x000876cc                gd_error_ex
                0x0008771c                gdSetErrorMethod
                0x00087728                gdClearErrorMethod
                0x00087740                gdImageCreate
                0x00087744                gdImageCreateExt
                0x00087844                gdImageCreateTrueColor
                0x00087848                gdImageCreateTrueColorExt
                0x00087938                gdImageDestroyEx
                0x00087980                gdImageColorClosest
                0x00087998                gdImageColorClosestAlpha
                0x00087a38                gdImageColorExact
                0x00087a50                gdImageColorExactAlpha
                0x00087ac8                gdImageColorAllocate
                0x00087ae0                gdImageColorAllocateAlpha
                0x00087b5c                gdImageColorResolve
                0x00087b74                gdImageColorResolveAlpha
                0x00087c58                gdImageColorDeallocate
                0x00087c74                gdImageColorTransparent
                0x00087ccc                gdImagePaletteCopy
                0x00087e3c                gdImageColorReplace
                0x00087f78                gdImageSetPixel
                0x0008823c                gdImageColorReplaceThreshold
                0x00088544                gdAlphaBlend
                0x000885d8                gdImageSetLine
                0x00088608                gdImageGetPixel
                0x00088668                gdImageGetTrueColorPixel
                0x000886ac                gdImageAABlend
                0x000886b0                gdImageLine
                0x0008907c                gdImageDashedLine
                0x000894b0                gdImageBoundsSafe
                0x000894e8                gdFontFindIndex
                0x0008951c                gdImageCharExt
                0x000895c8                getUnicode
                0x00089670                gdImageStringExt
                0x000896c8                gdImageCharVarWidth
                0x0008978c                gdImageStringVarWidth
                0x000897e8                gdGetMaxLenForWidth
                0x00089848                gdIsValidUTF8String
                0x000898cc                lsqrt
                0x000898e0                gdImageArc
                0x00089918                gdImageFilledArc
                0x00089c00                gdImageFilledPolygon
                0x00089ef0                gdImageEllipse
                0x00089fdc                gdImageFilledEllipse
                0x0008a0e4                gdImageGradientFilledEllipse
                0x0008a628                gdImageFillToBorder
                0x0008a7ac                gdImageRectangle
                0x0008a998                gdImageFilledRectangle
                0x0008ab40                gdImageQuickFilledRectangle
                0x0008abe4                gdImageFilledRoundedRectangle
                0x0008ad54                gdImageGradientFilledRectangle
                0x0008b010                gdImageCopyResized
                0x0008b2ec                gdImagePolygon
                0x0008b334                gdImageOpenPolygon
                0x0008b378                gdImageSetThickness
                0x0008b380                gdImageSetBrush
                0x0008b41c                gdImageSetTile
                0x0008b4b8                gdImageSetAntiAliased
                0x0008b4d4                gdImageSetAntiAliasedDontBlend
                0x0008b4f0                gdImageInterlace
                0x0008b4f8                gdImageCompare
                0x0008b674                gdImageAlphaBlending
                0x0008b67c                gdImageSaveAlpha
                0x0008b684                gdImageSetClip
                0x0008b6dc                gdImageGetClip
                0x0008b704                gdImageSetResolution
 *fill*         0x0008b7ea        0x2 
 .text          0x0008b7ec       0xca /local/mnt/workspace/CRMBuilds/TZ.BF.4.0.3.c1-00005-M8996AAAAANAZT-1_20170110_230814/b/HK11/trustzone_images/core/securemsm/sse/qsee/SecureDisplay/libgd/build/secure_ui_sample/scorpion/IADAANAA/libgd.lib(gd_color.o)
                0x0008b7ec                gdColorMatch
 *fill*         0x0008b8b6        0x2 
 .text          0x0008b8b8       0x38 /local/mnt/workspace/CRMBuilds/TZ.BF.4.0.3.c1-00005-M8996AAAAANAZT-1_20170110_230814/b/HK11/trustzone_images/core/securemsm/sse/qsee/SecureDisplay/libgd/build/secure_ui_sample/scorpion/IADAANAA/libgd.lib(gd_security.o)
                0x0008b8b8                overflow2
 .text          0x0008b8f0      0x4e6 /local/mnt/workspace/CRMBuilds/TZ.BF.4.0.3.c1-00005-M8996AAAAANAZT-1_20170110_230814/b/HK11/trustzone_images/core/securemsm/sse/qsee/SecureDisplay/libpng/build/secure_ui_sample/scorpion/IADAANAA/libpng.lib(png.o)
                0x0008b8f0                png_set_sig_bytes
                0x0008b908                png_sig_cmp
                0x0008b97c                png_zalloc
                0x0008b994                png_zfree
                0x0008b998                png_reset_crc
                0x0008b9b0                png_calculate_crc
                0x0008ba04                png_user_version_check
                0x0008ba70                png_get_header_ver
                0x0008ba7c                png_create_png_struct
                0x0008bb24                png_create_info_struct
                0x0008bb44                png_destroy_info_struct
                0x0008bb84                png_free_data
                0x0008bbd8                png_data_freer
                0x0008bc08                png_get_io_ptr
                0x0008bc14                png_get_copyright
                0x0008bc20                png_get_libpng_ver
                0x0008bc2c                png_get_header_version
                0x0008bc38                png_reset_zstream
                0x0008bc48                png_access_version_number
                0x0008bc50                png_zstream_error
                0x0008bce8                png_check_IHDR
 *fill*         0x0008bdd6        0x2 
 .text          0x0008bdd8       0x8c /local/mnt/workspace/CRMBuilds/TZ.BF.4.0.3.c1-00005-M8996AAAAANAZT-1_20170110_230814/b/HK11/trustzone_images/core/securemsm/sse/qsee/SecureDisplay/libpng/build/secure_ui_sample/scorpion/IADAANAA/libpng.lib(pngerror.o)
                0x0008bdd8                png_err
                0x0008bdf4                png_safecat
                0x0008be2c                png_chunk_report
                0x0008be44                png_longjmp
                0x0008be4c                png_set_error_fn
                0x0008be58                png_get_error_ptr
 .text          0x0008be64      0x116 /local/mnt/workspace/CRMBuilds/TZ.BF.4.0.3.c1-00005-M8996AAAAANAZT-1_20170110_230814/b/HK11/trustzone_images/core/securemsm/sse/qsee/SecureDisplay/libpng/build/secure_ui_sample/scorpion/IADAANAA/libpng.lib(pngget.o)
                0x0008be64                png_get_valid
                0x0008be78                png_get_rowbytes
                0x0008be88                png_get_channels
                0x0008be98                png_get_signature
                0x0008beb4                png_get_IHDR
                0x0008bf40                png_get_PLTE
                0x0008bf6c                png_get_compression_buffer_size
 *fill*         0x0008bf7a        0x2 
 .text          0x0008bf7c      0x11a /local/mnt/workspace/CRMBuilds/TZ.BF.4.0.3.c1-00005-M8996AAAAANAZT-1_20170110_230814/b/HK11/trustzone_images/core/securemsm/sse/qsee/SecureDisplay/libpng/build/secure_ui_sample/scorpion/IADAANAA/libpng.lib(pngmem.o)
                0x0008bf7c                png_destroy_png_struct
                0x0008bfcc                png_free
                0x0008bfe4                png_calloc
                0x0008c000                png_malloc
                0x0008c01c                png_malloc_base
                0x0008c038                png_malloc_default
                0x0008c054                png_malloc_warn
                0x0008c06c                png_free_default
                0x0008c07c                png_set_mem_fn
                0x0008c088                png_get_mem_ptr
 *fill*         0x0008c096        0x2 
 .text          0x0008c098      0x4c6 /local/mnt/workspace/CRMBuilds/TZ.BF.4.0.3.c1-00005-M8996AAAAANAZT-1_20170110_230814/b/HK11/trustzone_images/core/securemsm/sse/qsee/SecureDisplay/libpng/build/secure_ui_sample/scorpion/IADAANAA/libpng.lib(pngread.o)
                0x0008c098                malloc_fn
                0x0008c0a0                free_fn
                0x0008c0a8                png_create_read_struct
                0x0008c0e4                png_create_read_struct_2
                0x0008c128                png_read_info
                0x0008c1fc                png_read_update_info
                0x0008c218                png_start_read_image
                0x0008c234                png_read_row
                0x0008c368                png_read_rows
                0x0008c3f0                png_read_image
                0x0008c42c                png_read_end
                0x0008c4d8                png_destroy_read_struct
                0x0008c554                png_set_read_status_fn
 *fill*         0x0008c55e        0x2 
 .text          0x0008c560       0x1e /local/mnt/workspace/CRMBuilds/TZ.BF.4.0.3.c1-00005-M8996AAAAANAZT-1_20170110_230814/b/HK11/trustzone_images/core/securemsm/sse/qsee/SecureDisplay/libpng/build/secure_ui_sample/scorpion/IADAANAA/libpng.lib(pngrio.o)
                0x0008c560                png_read_data
                0x0008c574                png_set_read_fn
 *fill*         0x0008c57e        0x2 
 .text          0x0008c580      0xc68 /local/mnt/workspace/CRMBuilds/TZ.BF.4.0.3.c1-00005-M8996AAAAANAZT-1_20170110_230814/b/HK11/trustzone_images/core/securemsm/sse/qsee/SecureDisplay/libpng/build/secure_ui_sample/scorpion/IADAANAA/libpng.lib(pngrutil.o)
                0x0008c580                png_get_uint_31
                0x0008c5ac                png_read_sig
                0x0008c60c                png_read_chunk_header
                0x0008c694                png_check_chunk_name
                0x0008c6c8                png_crc_read
                0x0008c6f4                png_crc_finish
                0x0008c784                png_crc_error
                0x0008c7f8                png_handle_IHDR
                0x0008c908                png_handle_PLTE
                0x0008ca48                png_handle_IEND
                0x0008ca74                png_handle_unknown
                0x0008ca94                png_combine_row
                0x0008cb3c                png_read_filter_row
                0x0008cbc0                png_read_IDAT_data
                0x0008cd30                png_read_finish_IDAT
                0x0008cd88                png_read_finish_row
                0x0008ce6c                png_read_start_row
 .text          0x0008d1e8      0x17c /local/mnt/workspace/CRMBuilds/TZ.BF.4.0.3.c1-00005-M8996AAAAANAZT-1_20170110_230814/b/HK11/trustzone_images/core/securemsm/sse/qsee/SecureDisplay/libpng/build/secure_ui_sample/scorpion/IADAANAA/libpng.lib(pngset.o)
                0x0008d1e8                png_set_IHDR
                0x0008d28c                png_set_PLTE
                0x0008d338                png_set_compression_buffer_size
                0x0008d354                png_set_invalid
 .text          0x0008d364      0x3c6 /local/mnt/workspace/CRMBuilds/TZ.BF.4.0.3.c1-00005-M8996AAAAANAZT-1_20170110_230814/b/HK11/trustzone_images/core/securemsm/sse/qsee/SecureDisplay/zlib/build/secure_ui_sample/scorpion/IADAANAA/zlib.lib(crc32.o)
                0x0008d364                get_crc_table
                0x0008d370                crc32
                0x0008d5f8                crc32_combine
                0x0008d6cc                crc32_combine64
 *fill*         0x0008d72a        0x2 
 .text          0x0008d72c     0x1c9c /local/mnt/workspace/CRMBuilds/TZ.BF.4.0.3.c1-00005-M8996AAAAANAZT-1_20170110_230814/b/HK11/trustzone_images/core/securemsm/sse/qsee/SecureDisplay/zlib/build/secure_ui_sample/scorpion/IADAANAA/zlib.lib(inflate.o)
                0x0008d72c                inflateResetKeep
                0x0008d788                inflateReset
                0x0008d7a4                inflateReset2
                0x0008d80c                inflateInit2_
                0x0008d8a0                inflateInit_
                0x0008d8ac                inflatePrime
                0x0008d908                inflate
                0x0008efa8                inflateEnd
                0x0008efd8                inflateGetDictionary
                0x0008f030                inflateSetDictionary
                0x0008f0ac                inflateGetHeader
                0x0008f0d0                inflateSync
                0x0008f23c                inflateSyncPoint
                0x0008f264                inflateCopy
                0x0008f370                inflateUndermine
                0x0008f38c                inflateMark
 .text          0x0008f3c8      0x400 /local/mnt/workspace/CRMBuilds/TZ.BF.4.0.3.c1-00005-M8996AAAAANAZT-1_20170110_230814/b/HK11/trustzone_images/core/securemsm/sse/qsee/SecureDisplay/zlib/build/secure_ui_sample/scorpion/IADAANAA/zlib.lib(inftrees.o)
                0x0008f3c8                inflate_table
 .text          0x0008f7c8       0x4a /local/mnt/workspace/CRMBuilds/TZ.BF.4.0.3.c1-00005-M8996AAAAANAZT-1_20170110_230814/b/HK11/trustzone_images/core/securemsm/sse/qsee/SecureDisplay/zlib/build/secure_ui_sample/scorpion/IADAANAA/zlib.lib(zutil.o)
                0x0008f7c8                zlibVersion
                0x0008f7d4                zlibCompileFlags
                0x0008f7d8                zError
                0x0008f7ec                zcalloc
                0x0008f80c                zcfree
 *fill*         0x0008f812        0x2 
 .text          0x0008f814      0x368 /local/mnt/workspace/CRMBuilds/TZ.BF.4.0.3.c1-00005-M8996AAAAANAZT-1_20170110_230814/b/HK11/trustzone_images/core/securemsm/sse/qsee/SecureDisplay/zlib/build/secure_ui_sample/scorpion/IADAANAA/zlib.lib(adler32.o)
                0x0008f814                adler32
                0x0008fae0                adler32_combine
                0x0008fb78                adler32_combine64
 .text          0x0008fb7c      0x594 /local/mnt/workspace/CRMBuilds/TZ.BF.4.0.3.c1-00005-M8996AAAAANAZT-1_20170110_230814/b/HK11/trustzone_images/core/securemsm/sse/qsee/SecureDisplay/zlib/build/secure_ui_sample/scorpion/IADAANAA/zlib.lib(inffast.o)
                0x0008fb7c                inflate_fast
 .text          0x00090110      0x130 /local/mnt/workspace/CRMBuilds/TZ.BF.4.0.3.c1-00005-M8996AAAAANAZT-1_20170110_230814/b/HK11/trustzone_images/core/securemsm/sse/qsee/SecureTouch/drTs/lib/build/secure_ui_sample/scorpion/IADAANAA/touch_lib.lib(01_open.o)
                0x00090110                touchOpen
 .text          0x00090240       0xe8 /local/mnt/workspace/CRMBuilds/TZ.BF.4.0.3.c1-00005-M8996AAAAANAZT-1_20170110_230814/b/HK11/trustzone_images/core/securemsm/sse/qsee/SecureTouch/drTs/lib/build/secure_ui_sample/scorpion/IADAANAA/touch_lib.lib(02_close.o)
                0x00090240                touchClose
 .text          0x00090328      0x200 /local/mnt/workspace/CRMBuilds/TZ.BF.4.0.3.c1-00005-M8996AAAAANAZT-1_20170110_230814/b/HK11/trustzone_images/core/securemsm/sse/qsee/SecureTouch/drTs/lib/build/secure_ui_sample/scorpion/IADAANAA/touch_lib.lib(03_getData.o)
                0x00090328                touchGetData
                0x00090440                drNotifyEvent
 .text          0x00090528      0x5e4 /local/mnt/workspace/CRMBuilds/TZ.BF.4.0.3.c1-00005-M8996AAAAANAZT-1_20170110_230814/b/HK11/trustzone_images/core/securemsm/trustzone/qsapps/libs/applib/common_applib/build/secure_ui_sample/scorpion/IADAANAA/tzapp_entrylib.lib(gpPersistObjCommon.o)
                0x00090528                gpCommon_Copy_Attributes
                0x00090684                gpCommon_Init_Handles
                0x00090764                gpCommon_Init_App_Info
                0x000907c0                gpCommon_Clean_Attributes
                0x00090808                gpCommon_Clean_Object_Handle
                0x00090848                gpCommon_Get_Object_Info
                0x000908a4                gpCommon_Close_Object
                0x00090950                gpCommon_Get_File_Path
 .text          0x00090b0c      0xef4 /local/mnt/workspace/CRMBuilds/TZ.BF.4.0.3.c1-00005-M8996AAAAANAZT-1_20170110_230814/b/HK11/trustzone_images/core/securemsm/trustzone/qsapps/libs/applib/common_applib/build/secure_ui_sample/scorpion/IADAANAA/tzapp_entrylib.lib(gpPersistentObjects.o)
                0x00090b0c                TEE_OpenPersistentObject
                0x00090d08                TEE_CreatePersistentObject
                0x00090f74                TEE_CloseAndDeletePersistentObject1
                0x0009106c                TEE_CloseAndDeletePersistentObject
                0x00091070                TEE_ReadObjectData
                0x00091184                TEE_WriteObjectData
                0x00091308                TEE_TruncateObjectData
                0x00091450                TEE_SeekObjectData
                0x0009152c                TEE_RenamePersistentObject
                0x00091634                TEE_AllocatePersistentObjectEnumerator
                0x00091730                TEE_FreePersistentObjectEnumerator
                0x000917a8                TEE_ResetPersistentObjectEnumerator
                0x00091828                TEE_StartPersistentObjectEnumerator
                0x0009191c                TEE_GetNextPersistentObject
 .text          0x00091a00     0x26b4 /local/mnt/workspace/CRMBuilds/TZ.BF.4.0.3.c1-00005-M8996AAAAANAZT-1_20170110_230814/b/HK11/trustzone_images/core/securemsm/trustzone/qsapps/libs/applib/common_applib/build/secure_ui_sample/scorpion/IADAANAA/tzapp_entrylib.lib(gpPersistObjData.o)
                0x00091a00                gpData_Create_Object
                0x000921dc                gpData_Delete_Object
                0x000922f4                gpData_Open_Object
                0x00092450                gpData_Close_Object
                0x00092488                gpData_Write_Data
                0x00092968                gpData_Read_Data
                0x00092b78                gpData_Trunc_Data
                0x00092df0                gpData_Seek_Data
 .text          0x000940b4      0x6ec /local/mnt/workspace/CRMBuilds/TZ.BF.4.0.3.c1-00005-M8996AAAAANAZT-1_20170110_230814/b/HK11/trustzone_images/core/securemsm/trustzone/qsapps/libs/applib/common_applib/build/secure_ui_sample/scorpion/IADAANAA/tzapp_entrylib.lib(gpPersistObjHandler.o)
                0x000940b4                gpHandler_Create_Handle
                0x000943bc                gpHandler_Delete_Handle
                0x00094454                gpHandler_Close_Handle
                0x00094588                gpHandler_Open_Handle
                0x00094620                gpHandler_Update_Handle
                0x00094680                gpHandler_Rename_Handle
 .text          0x000947a0     0x13cc /local/mnt/workspace/CRMBuilds/TZ.BF.4.0.3.c1-00005-M8996AAAAANAZT-1_20170110_230814/b/HK11/trustzone_images/core/securemsm/trustzone/qsapps/libs/applib/common_applib/build/secure_ui_sample/scorpion/IADAANAA/tzapp_entrylib.lib(gpPersistObjIndex.o)
                0x000947a0                index_Get_Index_Info
                0x000949dc                gpIndex_Create_Entry
                0x00094bbc                gpIndex_Delete_Entry
                0x00094cec                gpIndex_Get_Entry
                0x00094f60                gpIndex_Set_Entry
                0x0009509c                gpIndex_Rename_Entry
                0x000952b0                gpIndex_Get_Enum_Entry
                0x000954d8                gpIndex_Get_Index_Info
 .text          0x00095b6c      0xe08 /local/mnt/workspace/CRMBuilds/TZ.BF.4.0.3.c1-00005-M8996AAAAANAZT-1_20170110_230814/b/HK11/trustzone_images/core/securemsm/trustzone/qsapps/libs/applib/common_applib/build/secure_ui_sample/scorpion/IADAANAA/tzapp_entrylib.lib(gpPersistObjVersion.o)
                0x00095b6c                version_Is_Rpmb_Usage_Enabled
                0x00095c20                gpVersion_Get_Version
                0x0009621c                gpVersion_Set_Version
                0x0009643c                gpVersion_Inc_Version
                0x00096478                gpVersion_Delete_Version
 .text          0x00096974      0x990 /local/mnt/workspace/CRMBuilds/TZ.BF.4.0.3.c1-00005-M8996AAAAANAZT-1_20170110_230814/b/HK11/trustzone_images/core/securemsm/trustzone/qsapps/libs/applib/common_applib/build/secure_ui_sample/scorpion/IADAANAA/tzapp_entrylib.lib(gpPersistObjCrypto.o)
                0x00096974                gpCrypto_Encrypt
                0x00096cf0                gpCrypto_Integrity_Protect
                0x00096ec4                gpCrypto_Decrypt
                0x000970b0                gpCrypto_Integrity_Verify
 .text          0x00097304      0x39c /local/mnt/workspace/CRMBuilds/TZ.BF.4.0.3.c1-00005-M8996AAAAANAZT-1_20170110_230814/b/HK11/trustzone_images/core/securemsm/trustzone/qsapps/libs/applib/common_applib/build/secure_ui_sample/scorpion/IADAANAA/tzapp_entrylib.lib(gpPersistObjFileIO.o)
                0x00097304                fileIO_Read_Data
                0x00097368                fileIO_Write_Data
                0x000973d4                fileIO_Remove_Data
                0x00097430                fileIO_Rename_Data
                0x0009748c                gpFileIO_Read_File
                0x00097518                gpFileIO_Write_File
                0x000975c0                gpFileIO_Remove_File
                0x00097624                gpFileIO_Rename_File
 .text          0x000976a0      0x774 /local/mnt/workspace/CRMBuilds/TZ.BF.4.0.3.c1-00005-M8996AAAAANAZT-1_20170110_230814/b/HK11/trustzone_images/core/securemsm/trustzone/qsapps/libs/applib/common_applib/build/secure_ui_sample/scorpion/IADAANAA/tzapp_entrylib.lib(gpFileService.o)
                0x000976a0                gpFileRead
                0x0009791c                gpFileWrite
                0x00097b9c                gpFileRemove
                0x00097ccc                gpFileRename
 .text          0x00097e14      0x204 /local/mnt/workspace/CRMBuilds/TZ.BF.4.0.3.c1-00005-M8996AAAAANAZT-1_20170110_230814/b/HK11/trustzone_images/core/securemsm/trustzone/qsapps/libs/applib/qsee/build/secure_ui_sample/scorpion/IADAANAA/tzapp_entrylib.lib(qsee_core_shim.o)
                0x00097e14                qsee_exec_protect_memory
                0x00097e38                qsee_is_sw_fuse_blown
                0x00097e58                qsee_blow_sw_fuse
                0x00097e78                qsee_ks_decrypt
                0x00097ec8                qsee_ks_get_key
                0x00097f30                qsee_ks_delete_key
                0x00097f50                qsee_ce_pipe_key_select
                0x00097f74                qsee_ce_disable_sequence
                0x00097f94                qsee_ice_set_context_config
                0x00097fb8                qsee_hdmi_status_read
                0x00097fd8                qsee_get_tz_app_id
                0x00097ff8                qsee_blsp_modify_ownership
 .text          0x00098018      0x192 /local/mnt/workspace/CRMBuilds/TZ.BF.4.0.3.c1-00005-M8996AAAAANAZT-1_20170110_230814/b/HK11/trustzone_images/core/securemsm/trustzone/qsapps/libs/applib/qsee/build/secure_ui_sample/scorpion/IADAANAA/tzapp_entrylib.lib(stor.o)
                0x00098018                check_rpmb_handle
                0x00098044                qsee_stor_device_init
                0x00098060                qsee_stor_open_partition
                0x00098088                qsee_stor_device_get_info
                0x000980ac                qsee_stor_client_get_info
                0x000980d4                qsee_stor_add_partition
                0x000980f4                qsee_stor_read_sectors
                0x0009812c                qsee_stor_write_sectors
                0x00098164                qsee_stor_read_wp_config
                0x00098174                qsee_stor_write_wp_config
                0x00098184                qsee_stor_remove_client
 *fill*         0x000981aa        0x2 
 .text          0x000981ac     0x159c /local/mnt/workspace/CRMBuilds/TZ.BF.4.0.3.c1-00005-M8996AAAAANAZT-1_20170110_230814/b/HK11/trustzone_images/core/securemsm/trustzone/qsapps/libs/applib/qsee/build/secure_ui_sample/scorpion/IADAANAA/tzapp_entrylib.lib(stor_gpt.o)
                0x000981ac                add_gpt_device_handle
                0x000982f8                add_gpt_client
                0x000983fc                gpt_dev_init
                0x000985e8                gpt_qsee_read_sectors
                0x00098854                gpt_qsee_write_sectors
                0x00098ab8                gpt_add_partitions
                0x00098e28                gpt_config_partitions
                0x00098f98                gpt_init
                0x00099214                gpt_open_partition
                0x000992fc                gpt_device_get_info
                0x00099404                gpt_client_get_info
                0x00099514                gpt_add_partition
                0x00099574                gpt_read_sectors
                0x00099654                gpt_write_sectors
 .text          0x00099748      0x1da /local/mnt/workspace/CRMBuilds/TZ.BF.4.0.3.c1-00005-M8996AAAAANAZT-1_20170110_230814/b/HK11/trustzone_images/core/securemsm/trustzone/qsapps/libs/applib/qsee/build/secure_ui_sample/scorpion/IADAANAA/tzapp_entrylib.lib(stor_rpmbw.o)
                0x00099748                rpmbw_init
                0x00099774                rpmbw_open_partition
                0x000997a4                rpmbw_device_get_info
                0x000997d4                rpmbw_client_get_info
                0x00099804                rpmbw_add_partition
                0x00099830                rpmbw_read_sectors
                0x00099868                rpmbw_write_sectors
                0x000998a0                rpmbw_read_wp_config
                0x000998cc                rpmbw_write_wp_config
                0x000998f8                rpmbw_remove_client
 *fill*         0x00099922        0x2 
 .text          0x00099924       0x24 /local/mnt/workspace/CRMBuilds/TZ.BF.4.0.3.c1-00005-M8996AAAAANAZT-1_20170110_230814/b/HK11/trustzone_images/core/securemsm/trustzone/qsapps/libs/applib/qsee/build/secure_ui_sample/scorpion/IADAANAA/tzapp_entrylib.lib(qsee_cfg_prop_shim.o)
                0x00099924                qsee_cfg_getpropval
 .text          0x00099948      0x48c /local/mnt/workspace/CRMBuilds/TZ.BF.4.0.3.c1-00005-M8996AAAAANAZT-1_20170110_230814/b/HK11/trustzone_images/core/securemsm/trustzone/qsapps/libs/applib/qsee/build/secure_ui_sample/scorpion/IADAANAA/tzapp_entrylib.lib(qsee_cipher.o)
                0x00099948                qsee_cipher_init
                0x000999ac                qsee_cipher_free_ctx
                0x000999d8                qsee_cipher_set_param
                0x00099b18                qsee_cipher_get_param
                0x00099c48                qsee_cipher_encrypt
                0x00099ce8                qsee_cipher_decrypt
                0x00099d88                qsee_cipher_reset
 .text          0x00099dd4      0x274 /local/mnt/workspace/CRMBuilds/TZ.BF.4.0.3.c1-00005-M8996AAAAANAZT-1_20170110_230814/b/HK11/trustzone_images/core/securemsm/trustzone/qsapps/libs/applib/qsee/build/secure_ui_sample/scorpion/IADAANAA/tzapp_entrylib.lib(qsee_hmac.o)
                0x00099dd4                qsee_hmac_init
                0x00099e44                qsee_hmac_free_ctx
                0x00099e70                qsee_hmac_update
                0x00099ee4                qsee_hmac_final
                0x00099f58                qsee_hmac_set_param
                0x00099fe0                qsee_hmac
 .text          0x0009a048        0x8 /local/mnt/workspace/CRMBuilds/TZ.BF.4.0.3.c1-00005-M8996AAAAANAZT-1_20170110_230814/b/HK11/trustzone_images/core/securemsm/trustzone/qsapps/libs/applib/qsee/build/secure_ui_sample/scorpion/IADAANAA/tzapp_entrylib.lib(gpPersistObjPanic.o)
                0x0009a048                TEE_Panic
                0x0009a04c                GPMemoryMgmt_verifyHandle
 .text          0x0009a050       0x10 /afs/localcell/cm/gv2.6/sysname/pkg.@sys/qct/software/llvm/release/arm/3.5.2.4/tools/lib32/lib/libc.a(abort.o)
                0x0009a050                abort
 .text          0x0009a060        0x6 /afs/localcell/cm/gv2.6/sysname/pkg.@sys/qct/software/llvm/release/arm/3.5.2.4/tools/lib32/lib/libc.a(fabs.o)
                0x0009a060                fabs
 *fill*         0x0009a066        0x2 
 .text          0x0009a068      0x19e /afs/localcell/cm/gv2.6/sysname/pkg.@sys/qct/software/llvm/release/arm/3.5.2.4/tools/lib32/lib/libc.a(sqrt.o)
                0x0009a068                sqrt
 *fill*         0x0009a206        0x2 
 .text          0x0009a208       0x3c /afs/localcell/cm/gv2.6/sysname/pkg.@sys/qct/software/llvm/release/arm/3.5.2.4/tools/lib32/lib/libc.a(raise.o)
                0x0009a208                raise
 .text          0x0009a244       0xee /afs/localcell/cm/gv2.6/sysname/pkg.@sys/qct/software/llvm/release/arm/3.5.2.4/tools/lib32/lib/libc.a(fflush.o)
                0x0009a244                fflush
                0x0009a2e8                fflush_unlocked
 *fill*         0x0009a332        0x2 
 .text          0x0009a334       0x22 /afs/localcell/cm/gv2.6/sysname/pkg.@sys/qct/software/llvm/release/arm/3.5.2.4/tools/lib32/lib/libc.a(memcmp.o)
                0x0009a334                memcmp
 *fill*         0x0009a356        0x2 
 .text          0x0009a358       0x1c /afs/localcell/cm/gv2.6/sysname/pkg.@sys/qct/software/llvm/release/arm/3.5.2.4/tools/lib32/lib/libc.a(syscall_ret.o)
                0x0009a358                __syscall_ret
 .text          0x0009a374       0x58 /afs/localcell/cm/gv2.6/sysname/pkg.@sys/qct/software/llvm/release/arm/3.5.2.4/tools/lib32/lib/libc.a(block.o)
                0x0009a374                __block_all_sigs
                0x0009a394                __block_app_sigs
                0x0009a3b4                __restore_sigs
 .text          0x0009a3cc       0x12 /afs/localcell/cm/gv2.6/sysname/pkg.@sys/qct/software/llvm/release/arm/3.5.2.4/tools/lib32/lib/libc.a(__stdio_close.o)
                0x0009a3cc                __stdio_close
 *fill*         0x0009a3de        0x2 
 .text          0x0009a3e0       0x38 /afs/localcell/cm/gv2.6/sysname/pkg.@sys/qct/software/llvm/release/arm/3.5.2.4/tools/lib32/lib/libc.a(__stdio_seek.o)
                0x0009a3e0                __stdio_seek
 .text          0x0009a418       0xe8 /afs/localcell/cm/gv2.6/sysname/pkg.@sys/qct/software/llvm/release/arm/3.5.2.4/tools/lib32/lib/libc.a(__stdio_write.o)
                0x0009a418                __stdio_write
 .text          0x0009a500       0x20 /afs/localcell/cm/gv2.6/sysname/pkg.@sys/qct/software/llvm/release/arm/3.5.2.4/tools/lib32/lib/libc.a(__syscall_cp.o)
                0x0009a500                __syscall_cp_c
                0x0009a51c                __syscall_cp
 .text          0x0009a520       0x26 /afs/localcell/cm/gv2.6/sysname/pkg.@sys/qct/software/llvm/release/arm/3.5.2.4/tools/lib32/lib/libc.a(pthread_cleanup_push.o)
                0x0009a520                __do_cleanup_push
                0x0009a520                __do_cleanup_pop
                0x0009a524                _pthread_cleanup_push
                0x0009a52c                _pthread_cleanup_pop
 *fill*         0x0009a546        0x2 
 .text          0x0009a548      0x190 /afs/localcell/cm/gv2.6/sysname/pkg.@sys/qct/software/llvm/release/arm/3.5.2.4/lib/clang/3.5.2/lib/linux/libclang_rt.builtins-arm.a(divsf3.c.o)
                0x0009a548                __divsf3
                0x0009a548                __aeabi_fdiv
 .text          0x0009a6d8       0x7c /afs/localcell/cm/gv2.6/sysname/pkg.@sys/qct/software/llvm/release/arm/3.5.2.4/lib/clang/3.5.2/lib/linux/libclang_rt.builtins-arm.a(extendsfdf2.c.o)
                0x0009a6d8                __extendsfdf2
                0x0009a6d8                __aeabi_f2d
 .text          0x0009a754       0x5e /afs/localcell/cm/gv2.6/sysname/pkg.@sys/qct/software/llvm/release/arm/3.5.2.4/lib/clang/3.5.2/lib/linux/libclang_rt.builtins-arm.a(fixdfsi.c.o)
                0x0009a754                __fixdfsi
                0x0009a754                __aeabi_d2iz
 *fill*         0x0009a7b2        0x2 
 .text          0x0009a7b4       0x5c /afs/localcell/cm/gv2.6/sysname/pkg.@sys/qct/software/llvm/release/arm/3.5.2.4/lib/clang/3.5.2/lib/linux/libclang_rt.builtins-arm.a(floatsidf.c.o)
                0x0009a7b4                __floatsidf
                0x0009a7b4                __aeabi_i2d
 .text          0x0009a810       0x7c /afs/localcell/cm/gv2.6/sysname/pkg.@sys/qct/software/llvm/release/arm/3.5.2.4/lib/clang/3.5.2/lib/linux/libclang_rt.builtins-arm.a(floatsisf.c.o)
                0x0009a810                __aeabi_i2f
                0x0009a810                __floatsisf
 .text          0x0009a88c       0x38 /local/mnt/workspace/CRMBuilds/TZ.BF.4.0.3.c1-00005-M8996AAAAANAZT-1_20170110_230814/b/HK11/trustzone_images/core/kernel/libstd/build/secure_ui_sample/scorpion/IADAANAA/libstd.lib(timesafe_memcmp.o)
                0x0009a88c                timesafe_memcmp
 .text          0x0009a8c4      0xc54 /local/mnt/workspace/CRMBuilds/TZ.BF.4.0.3.c1-00005-M8996AAAAANAZT-1_20170110_230814/b/HK11/trustzone_images/core/securemsm/sse/SecureTouch/controller/build/secure_ui_sample/scorpion/IADAANAA/drts_controller_msm8996.lib(atmel_mxt_ts.o)
                0x0009a8c4                dumpT9
                0x0009a98c                dumpT100
                0x0009a9ec                dumpT15
                0x0009ab14                dumpT42
                0x0009ab40                processT9
                0x0009abd0                processT100
                0x0009acb8                atmel_drTsOpen
                0x0009b2d4                atmel_drTsClose
                0x0009b35c                atmel_drTsProcessEvents
 .text          0x0009b518      0xb94 /local/mnt/workspace/CRMBuilds/TZ.BF.4.0.3.c1-00005-M8996AAAAANAZT-1_20170110_230814/b/HK11/trustzone_images/core/securemsm/sse/SecureTouch/controller/build/secure_ui_sample/scorpion/IADAANAA/drts_controller_msm8996.lib(synaptics_ts.o)
                0x0009b518                synReadF12
                0x0009b7ac                synaptics_drTsOpen
                0x0009bea8                synaptics_drTsClose
                0x0009bf30                synaptics_drTsProcessEvents
 .text          0x0009c0ac       0xd8 /local/mnt/workspace/CRMBuilds/TZ.BF.4.0.3.c1-00005-M8996AAAAANAZT-1_20170110_230814/b/HK11/trustzone_images/core/securemsm/sse/log/build/secure_ui_sample/scorpion/IADAANAA/sselog.lib(sselog.o)
                0x0009c0ac                dumpHex
 .text          0x0009c184      0x15c /local/mnt/workspace/CRMBuilds/TZ.BF.4.0.3.c1-00005-M8996AAAAANAZT-1_20170110_230814/b/HK11/trustzone_images/core/securemsm/sse/qsee/SecureTouch/drTs/controller/build/secure_ui_sample/scorpion/IADAANAA/touch_controller_i2c_msm8996.lib(atmel_mxt_ts_i2c.o)
                0x0009c184                atmel_i2cReadReg
                0x0009c228                atmel_i2cOpen
                0x0009c284                atmel_i2cClose
 .text          0x0009c2e0      0x148 /local/mnt/workspace/CRMBuilds/TZ.BF.4.0.3.c1-00005-M8996AAAAANAZT-1_20170110_230814/b/HK11/trustzone_images/core/securemsm/sse/qsee/SecureTouch/drTs/controller/build/secure_ui_sample/scorpion/IADAANAA/touch_controller_i2c_msm8996.lib(synaptics_ts_i2c.o)
                0x0009c2e0                synaptics_i2cReadReg
                0x0009c37c                synaptics_i2cWriteReg
                0x0009c3c8                synaptics_i2cOpen
                0x0009c3f8                synaptics_i2cClose
 .text          0x0009c428      0x31c /local/mnt/workspace/CRMBuilds/TZ.BF.4.0.3.c1-00005-M8996AAAAANAZT-1_20170110_230814/b/HK11/trustzone_images/core/securemsm/trustzone/qsapps/libs/applib/qsee/build/secure_ui_sample/scorpion/IADAANAA/tzapp_entrylib.lib(qsee_i2c.o)
                0x0009c428                qsee_i2c_open
                0x0009c4c4                qsee_i2c_close
                0x0009c550                qsee_i2c_read
                0x0009c694                qsee_i2c_write
 .text          0x0009c744       0x1a /afs/localcell/cm/gv2.6/sysname/pkg.@sys/qct/software/llvm/release/arm/3.5.2.4/tools/lib32/lib/libc.a(snprintf.o)
                0x0009c744                snprintf
 *(SORT(tzapp_syscall_asm))
 *fill*         0x0009c75e       0xa2 
 tzapp_syscall_asm
                0x0009c800       0x88 /local/mnt/workspace/CRMBuilds/TZ.BF.4.0.3.c1-00005-M8996AAAAANAZT-1_20170110_230814/b/HK11/trustzone_images/core/securemsm/trustzone/qsapps/libs/applib/qsee/build/secure_ui_sample/scorpion/IADAANAA/tzapp_entrylib.lib(tzapp_syscall.o)
                0x0009c800                app_export_init_info_to_qsee
                0x0009c838                qsee_wait_default_signal_syscall
                0x0009c864                qsee_generic_syscall
 tzapp_syscall_asm.__stub
                0x0009c888       0x10 linker stubs
 *(SORT(.rodata))
 *fill*         0x0009c898        0x8 
 .rodata        0x0009c8a0       0x14 /local/mnt/workspace/CRMBuilds/TZ.BF.4.0.3.c1-00005-M8996AAAAANAZT-1_20170110_230814/b/HK11/trustzone_images/core/securemsm/sse/qsee/SecureUI/build/secure_ui_sample/scorpion/IADAANAA/secure_ui.lib(SecureUI.o)
 *fill*         0x0009c8b4        0xc 
 .rodata        0x0009c8c0       0x58 /local/mnt/workspace/CRMBuilds/TZ.BF.4.0.3.c1-00005-M8996AAAAANAZT-1_20170110_230814/b/HK11/trustzone_images/core/securemsm/trustzone/qsapps/libs/applib/qsee/build/secure_ui_sample/scorpion/IADAANAA/tzapp_entrylib.lib(qsee_appmessage.o)
 *fill*         0x0009c918        0x8 
 .rodata        0x0009c920       0x30 /local/mnt/workspace/CRMBuilds/TZ.BF.4.0.3.c1-00005-M8996AAAAANAZT-1_20170110_230814/b/HK11/trustzone_images/core/securemsm/trustzone/qsapps/libs/applib/qsee/build/secure_ui_sample/scorpion/IADAANAA/tzapp_entrylib.lib(qsee_cipher.o)
 .rodata        0x0009c950       0x40 /afs/localcell/cm/gv2.6/sysname/pkg.@sys/qct/software/llvm/release/arm/3.5.2.4/tools/lib32/lib/libc.a(atan2.o)
 .rodata        0x0009c990      0x148 /afs/localcell/cm/gv2.6/sysname/pkg.@sys/qct/software/llvm/release/arm/3.5.2.4/tools/lib32/lib/libc.a(__rem_pio2_large.o)
 .rodata        0x0009cad8       0x40 /afs/localcell/cm/gv2.6/sysname/pkg.@sys/qct/software/llvm/release/arm/3.5.2.4/tools/lib32/lib/libc.a(atan.o)
 .rodata        0x0009cb18        0x4 /local/mnt/workspace/CRMBuilds/TZ.BF.4.0.3.c1-00005-M8996AAAAANAZT-1_20170110_230814/b/HK11/trustzone_images/apps/securemsm/trustzone/qsapps/secure_ui_sample/build/secure_ui_sample/scorpion/IADAANAA/metadata.o
                0x0009cb18                TA_ACCEPT_BUF_SIZE
 .rodata        0x0009cb1c       0x18 /local/mnt/workspace/CRMBuilds/TZ.BF.4.0.3.c1-00005-M8996AAAAANAZT-1_20170110_230814/b/HK11/trustzone_images/core/securemsm/sse/qsee/SecureUI/build/secure_ui_sample/scorpion/IADAANAA/secure_ui_tui.lib(font_manager.o)
 .rodata        0x0009cb34        0xc /local/mnt/workspace/CRMBuilds/TZ.BF.4.0.3.c1-00005-M8996AAAAANAZT-1_20170110_230814/b/HK11/trustzone_images/core/securemsm/trustzone/qsapps/libs/applib/qsee/build/secure_ui_sample/scorpion/IADAANAA/tzapp_entrylib.lib(qsee_hash.o)
 .rodata        0x0009cb40      0xb40 /local/mnt/workspace/CRMBuilds/TZ.BF.4.0.3.c1-00005-M8996AAAAANAZT-1_20170110_230814/b/HK11/trustzone_images/core/securemsm/sse/qsee/SecureDisplay/libgd/build/secure_ui_sample/scorpion/IADAANAA/libgd.lib(gdtables.o)
                0x0009cb40                gdCosT
                0x0009d0e0                gdSinT
 .rodata        0x0009d680     0x2000 /local/mnt/workspace/CRMBuilds/TZ.BF.4.0.3.c1-00005-M8996AAAAANAZT-1_20170110_230814/b/HK11/trustzone_images/core/securemsm/sse/qsee/SecureDisplay/zlib/build/secure_ui_sample/scorpion/IADAANAA/zlib.lib(crc32.o)
 .rodata        0x0009f680       0x10 /afs/localcell/cm/gv2.6/sysname/pkg.@sys/qct/software/llvm/release/arm/3.5.2.4/tools/lib32/lib/libc.a(block.o)
 .rodata        0x0009f690        0xc /local/mnt/workspace/CRMBuilds/TZ.BF.4.0.3.c1-00005-M8996AAAAANAZT-1_20170110_230814/b/HK11/trustzone_images/core/securemsm/trustzone/qsapps/libs/applib/qsee/build/secure_ui_sample/scorpion/IADAANAA/tzapp_entrylib.lib(qsee_i2c.o)
 .rodata        0x0009f69c      0x8a6 /local/mnt/workspace/CRMBuilds/TZ.BF.4.0.3.c1-00005-M8996AAAAANAZT-1_20170110_230814/b/HK11/trustzone_images/core/securemsm/sse/qsee/SecureDisplay/zlib/build/secure_ui_sample/scorpion/IADAANAA/zlib.lib(inflate.o)
 .rodata        0x0009ff42      0x12c /local/mnt/workspace/CRMBuilds/TZ.BF.4.0.3.c1-00005-M8996AAAAANAZT-1_20170110_230814/b/HK11/trustzone_images/core/securemsm/sse/qsee/SecureDisplay/zlib/build/secure_ui_sample/scorpion/IADAANAA/zlib.lib(inftrees.o)
                0x0009ff42                inflate_copyright
 .rodata        0x000a006e      0x1d0 /afs/localcell/cm/gv2.6/sysname/pkg.@sys/qct/software/llvm/release/arm/3.5.2.4/tools/lib32/lib/libc.a(vfprintf.o)
 .rodata        0x000a023e      0x70c /afs/localcell/cm/gv2.6/sysname/pkg.@sys/qct/software/llvm/release/arm/3.5.2.4/tools/lib32/lib/libc.a(strerror.o)
 .rodata        0x000a094a       0x1c /local/mnt/workspace/CRMBuilds/TZ.BF.4.0.3.c1-00005-M8996AAAAANAZT-1_20170110_230814/b/HK11/trustzone_images/core/securemsm/sse/qsee/SecureDisplay/libpng/build/secure_ui_sample/scorpion/IADAANAA/libpng.lib(pngrutil.o)
 .rodata        0x000a0966      0x140 /local/mnt/workspace/CRMBuilds/TZ.BF.4.0.3.c1-00005-M8996AAAAANAZT-1_20170110_230814/b/HK11/trustzone_images/core/securemsm/sse/qsee/SecureDisplay/zlib/build/secure_ui_sample/scorpion/IADAANAA/zlib.lib(zutil.o)
                0x000a0966                z_errmsg
 *(SORT(EXCLUDE_FILE(*\metadata.o) .rodata.*))
 *fill*         0x000a0aa6        0x2 
 .rodata.cst16  0x000a0aa8       0x10 /afs/localcell/cm/gv2.6/sysname/pkg.@sys/qct/software/llvm/release/arm/3.5.2.4/tools/lib32/lib/libc.a(__rem_pio2_large.o)
 .rodata.str1.1
                0x000a0ab8      0xa57 /local/mnt/workspace/CRMBuilds/TZ.BF.4.0.3.c1-00005-M8996AAAAANAZT-1_20170110_230814/b/HK11/trustzone_images/apps/securemsm/trustzone/qsapps/secure_ui_sample/build/secure_ui_sample/scorpion/IADAANAA/app_main.o
                                0xa58 (size before relaxing)
 .rodata.str1.1
                0x000a150f      0x8db /local/mnt/workspace/CRMBuilds/TZ.BF.4.0.3.c1-00005-M8996AAAAANAZT-1_20170110_230814/b/HK11/trustzone_images/core/securemsm/sse/qsee/SecureUI/build/secure_ui_sample/scorpion/IADAANAA/secure_ui.lib(SecureUI.o)
                                0x906 (size before relaxing)
 .rodata.str1.1
                0x000a1dea     0x26d8 /local/mnt/workspace/CRMBuilds/TZ.BF.4.0.3.c1-00005-M8996AAAAANAZT-1_20170110_230814/b/HK11/trustzone_images/core/securemsm/sse/qsee/SecureUI/build/secure_ui_sample/scorpion/IADAANAA/secure_ui_tui.lib(qsee_tui_dialogs.o)
                               0x2719 (size before relaxing)
 .rodata.str1.1
                0x000a44c2     0x174e /local/mnt/workspace/CRMBuilds/TZ.BF.4.0.3.c1-00005-M8996AAAAANAZT-1_20170110_230814/b/HK11/trustzone_images/core/securemsm/sse/qsee/SecureUI/build/secure_ui_sample/scorpion/IADAANAA/secure_ui_tui.lib(layout_manager.o)
                               0x179d (size before relaxing)
 .rodata.str1.1
                0x000a5c10     0x13cd /local/mnt/workspace/CRMBuilds/TZ.BF.4.0.3.c1-00005-M8996AAAAANAZT-1_20170110_230814/b/HK11/trustzone_images/core/securemsm/sse/qsee/SecureUI/build/secure_ui_sample/scorpion/IADAANAA/secure_ui_tui.lib(secure_display_renderer.o)
                               0x140a (size before relaxing)
 .rodata.str1.1
                0x000a6fdd      0xb2f /local/mnt/workspace/CRMBuilds/TZ.BF.4.0.3.c1-00005-M8996AAAAANAZT-1_20170110_230814/b/HK11/trustzone_images/core/securemsm/sse/qsee/SecureUI/build/secure_ui_sample/scorpion/IADAANAA/secure_ui_tui.lib(font_manager.o)
                                0xb67 (size before relaxing)
 .rodata.str1.1
                0x000a7b0c       0x5d /local/mnt/workspace/CRMBuilds/TZ.BF.4.0.3.c1-00005-M8996AAAAANAZT-1_20170110_230814/b/HK11/trustzone_images/core/securemsm/sse/qsee/SecureUILib/lib/build/secure_ui_sample/scorpion/IADAANAA/secure_ui_lib.lib(SecureUILib.o)
                                 0x63 (size before relaxing)
 .rodata.str1.1
                0x000a7b69       0x84 /local/mnt/workspace/CRMBuilds/TZ.BF.4.0.3.c1-00005-M8996AAAAANAZT-1_20170110_230814/b/HK11/trustzone_images/core/securemsm/sse/qsee/SecureUILib/lib/build/secure_ui_sample/scorpion/IADAANAA/secure_ui_lib.lib(01_startTouch.o)
                                 0xa0 (size before relaxing)
 .rodata.str1.1
                0x000a7bed       0xa4 /local/mnt/workspace/CRMBuilds/TZ.BF.4.0.3.c1-00005-M8996AAAAANAZT-1_20170110_230814/b/HK11/trustzone_images/core/securemsm/sse/qsee/SecureUILib/lib/build/secure_ui_sample/scorpion/IADAANAA/secure_ui_lib.lib(02_processTouch.o)
                                 0xd6 (size before relaxing)
 .rodata.str1.1
                0x000a7c91       0x52 /local/mnt/workspace/CRMBuilds/TZ.BF.4.0.3.c1-00005-M8996AAAAANAZT-1_20170110_230814/b/HK11/trustzone_images/core/securemsm/sse/qsee/SecureUILib/lib/build/secure_ui_sample/scorpion/IADAANAA/secure_ui_lib.lib(03_stopTouch.o)
                                 0x99 (size before relaxing)
 .rodata.str1.1
                0x000a7ce3       0x4f /local/mnt/workspace/CRMBuilds/TZ.BF.4.0.3.c1-00005-M8996AAAAANAZT-1_20170110_230814/b/HK11/trustzone_images/core/securemsm/sse/qsee/SecureUILib/lib/build/secure_ui_sample/scorpion/IADAANAA/secure_ui_lib.lib(04_prepareRequest.o)
                                 0x6b (size before relaxing)
 .rodata.str1.1
                0x000a7d32       0x9c /local/mnt/workspace/CRMBuilds/TZ.BF.4.0.3.c1-00005-M8996AAAAANAZT-1_20170110_230814/b/HK11/trustzone_images/core/securemsm/sse/qsee/SecureUILib/lib/build/secure_ui_sample/scorpion/IADAANAA/secure_ui_lib.lib(05_storeIndicator.o)
                                 0xc8 (size before relaxing)
 .rodata.str1.1
                0x000a7dce        0x9 /local/mnt/workspace/CRMBuilds/TZ.BF.4.0.3.c1-00005-M8996AAAAANAZT-1_20170110_230814/b/HK11/trustzone_images/core/securemsm/trustzone/qsapps/libs/applib/common_applib/build/secure_ui_sample/scorpion/IADAANAA/tzapp_entrylib.lib(common_applib.o)
 .rodata.str1.1
                0x000a7dd7       0xe5 /local/mnt/workspace/CRMBuilds/TZ.BF.4.0.3.c1-00005-M8996AAAAANAZT-1_20170110_230814/b/HK11/trustzone_images/core/securemsm/trustzone/qsapps/libs/applib/qsee/build/secure_ui_sample/scorpion/IADAANAA/tzapp_entrylib.lib(qsee_shared_buffer.o)
 .rodata.str1.1
                0x000a7ebc       0xc0 /local/mnt/workspace/CRMBuilds/TZ.BF.4.0.3.c1-00005-M8996AAAAANAZT-1_20170110_230814/b/HK11/trustzone_images/core/securemsm/trustzone/qsapps/libs/applib/qsee/build/secure_ui_sample/scorpion/IADAANAA/tzapp_entrylib.lib(sfs_api.o)
 .rodata.str1.1
                0x000a7f7c       0x36 /afs/localcell/cm/gv2.6/sysname/pkg.@sys/qct/software/llvm/release/arm/3.5.2.4/tools/lib32/lib/libc.a(vfprintf.o)
 .rodata.cst16  0x000a7fb2       0x10 /afs/localcell/cm/gv2.6/sysname/pkg.@sys/qct/software/llvm/release/arm/3.5.2.4/tools/lib32/lib/libc.a(vfprintf.o)
 .rodata.str1.1
                0x000a7fc2       0x58 /afs/localcell/cm/gv2.6/sysname/pkg.@sys/qct/software/llvm/release/arm/3.5.2.4/tools/lib32/lib/libc.a(strerror.o)
 .rodata.str1.1
                0x000a801a      0x51d /local/mnt/workspace/CRMBuilds/TZ.BF.4.0.3.c1-00005-M8996AAAAANAZT-1_20170110_230814/b/HK11/trustzone_images/apps/securemsm/trustzone/qsapps/secure_ui_sample/layouts/build/secure_ui_sample/scorpion/IADAANAA/secure_ui_layout.lib(layout_8996_fluid.o)
                                0x667 (size before relaxing)
 .rodata.str1.1
                0x000a8537      0x8eb /local/mnt/workspace/CRMBuilds/TZ.BF.4.0.3.c1-00005-M8996AAAAANAZT-1_20170110_230814/b/HK11/trustzone_images/core/securemsm/sse/SecureTouch/layout/build/secure_ui_sample/scorpion/IADAANAA/sklayout.lib(layoutUtils.o)
                                0x917 (size before relaxing)
 .rodata.str1.1
                0x000a8e22       0x39 /local/mnt/workspace/CRMBuilds/TZ.BF.4.0.3.c1-00005-M8996AAAAANAZT-1_20170110_230814/b/HK11/trustzone_images/core/securemsm/sse/qsee/SecureDisplay/libgd/build/secure_ui_sample/scorpion/IADAANAA/libgd.lib(gd.o)
 .rodata.str1.1
                0x000a8e5b       0xc7 /local/mnt/workspace/CRMBuilds/TZ.BF.4.0.3.c1-00005-M8996AAAAANAZT-1_20170110_230814/b/HK11/trustzone_images/core/securemsm/sse/qsee/SecureDisplay/libgd/build/secure_ui_sample/scorpion/IADAANAA/libgd.lib(gd_security.o)
 .rodata.str1.1
                0x000a8f22      0x1b3 /local/mnt/workspace/CRMBuilds/TZ.BF.4.0.3.c1-00005-M8996AAAAANAZT-1_20170110_230814/b/HK11/trustzone_images/core/securemsm/sse/qsee/SecureDisplay/libpng/build/secure_ui_sample/scorpion/IADAANAA/libpng.lib(png.o)
                                0x1ba (size before relaxing)
 .rodata.str1.1
                0x00000000        0x1 /local/mnt/workspace/CRMBuilds/TZ.BF.4.0.3.c1-00005-M8996AAAAANAZT-1_20170110_230814/b/HK11/trustzone_images/core/securemsm/sse/qsee/SecureDisplay/libpng/build/secure_ui_sample/scorpion/IADAANAA/libpng.lib(pngerror.o)
 .rodata.str1.1
                0x000a90d5       0x15 /local/mnt/workspace/CRMBuilds/TZ.BF.4.0.3.c1-00005-M8996AAAAANAZT-1_20170110_230814/b/HK11/trustzone_images/core/securemsm/sse/qsee/SecureDisplay/libpng/build/secure_ui_sample/scorpion/IADAANAA/libpng.lib(pngrutil.o)
 .rodata.str1.1
                0x000a90ea      0x1cd /local/mnt/workspace/CRMBuilds/TZ.BF.4.0.3.c1-00005-M8996AAAAANAZT-1_20170110_230814/b/HK11/trustzone_images/core/securemsm/sse/qsee/SecureDisplay/zlib/build/secure_ui_sample/scorpion/IADAANAA/zlib.lib(inflate.o)
 .rodata.str1.1
                0x00000000        0x6 /local/mnt/workspace/CRMBuilds/TZ.BF.4.0.3.c1-00005-M8996AAAAANAZT-1_20170110_230814/b/HK11/trustzone_images/core/securemsm/sse/qsee/SecureDisplay/zlib/build/secure_ui_sample/scorpion/IADAANAA/zlib.lib(zutil.o)
 .rodata.str1.1
                0x00000000       0x50 /local/mnt/workspace/CRMBuilds/TZ.BF.4.0.3.c1-00005-M8996AAAAANAZT-1_20170110_230814/b/HK11/trustzone_images/core/securemsm/sse/qsee/SecureDisplay/zlib/build/secure_ui_sample/scorpion/IADAANAA/zlib.lib(inffast.o)
 .rodata.str1.1
                0x000a92b7       0x98 /local/mnt/workspace/CRMBuilds/TZ.BF.4.0.3.c1-00005-M8996AAAAANAZT-1_20170110_230814/b/HK11/trustzone_images/core/securemsm/sse/qsee/SecureTouch/drTs/lib/build/secure_ui_sample/scorpion/IADAANAA/touch_lib.lib(01_open.o)
                                 0xb4 (size before relaxing)
 .rodata.str1.1
                0x000a934f       0xbc /local/mnt/workspace/CRMBuilds/TZ.BF.4.0.3.c1-00005-M8996AAAAANAZT-1_20170110_230814/b/HK11/trustzone_images/core/securemsm/sse/qsee/SecureTouch/drTs/lib/build/secure_ui_sample/scorpion/IADAANAA/touch_lib.lib(02_close.o)
                                 0xd8 (size before relaxing)
 .rodata.str1.1
                0x000a940b      0x116 /local/mnt/workspace/CRMBuilds/TZ.BF.4.0.3.c1-00005-M8996AAAAANAZT-1_20170110_230814/b/HK11/trustzone_images/core/securemsm/sse/qsee/SecureTouch/drTs/lib/build/secure_ui_sample/scorpion/IADAANAA/touch_lib.lib(03_getData.o)
                                0x13c (size before relaxing)
 .rodata.str1.1
                0x000a9521       0xb1 /local/mnt/workspace/CRMBuilds/TZ.BF.4.0.3.c1-00005-M8996AAAAANAZT-1_20170110_230814/b/HK11/trustzone_images/core/securemsm/trustzone/qsapps/libs/applib/common_applib/build/secure_ui_sample/scorpion/IADAANAA/tzapp_entrylib.lib(gpPersistObjCommon.o)
                                 0xcb (size before relaxing)
 .rodata.str1.1
                0x000a95d2      0x172 /local/mnt/workspace/CRMBuilds/TZ.BF.4.0.3.c1-00005-M8996AAAAANAZT-1_20170110_230814/b/HK11/trustzone_images/core/securemsm/trustzone/qsapps/libs/applib/common_applib/build/secure_ui_sample/scorpion/IADAANAA/tzapp_entrylib.lib(gpPersistentObjects.o)
                                0x18a (size before relaxing)
 .rodata.str1.1
                0x000a9744      0x31c /local/mnt/workspace/CRMBuilds/TZ.BF.4.0.3.c1-00005-M8996AAAAANAZT-1_20170110_230814/b/HK11/trustzone_images/core/securemsm/trustzone/qsapps/libs/applib/common_applib/build/secure_ui_sample/scorpion/IADAANAA/tzapp_entrylib.lib(gpPersistObjData.o)
                                0x334 (size before relaxing)
 .rodata.str1.1
                0x000a9a60       0xcc /local/mnt/workspace/CRMBuilds/TZ.BF.4.0.3.c1-00005-M8996AAAAANAZT-1_20170110_230814/b/HK11/trustzone_images/core/securemsm/trustzone/qsapps/libs/applib/common_applib/build/secure_ui_sample/scorpion/IADAANAA/tzapp_entrylib.lib(gpPersistObjHandler.o)
                                 0xe4 (size before relaxing)
 .rodata.str1.1
                0x000a9b2c      0x182 /local/mnt/workspace/CRMBuilds/TZ.BF.4.0.3.c1-00005-M8996AAAAANAZT-1_20170110_230814/b/HK11/trustzone_images/core/securemsm/trustzone/qsapps/libs/applib/common_applib/build/secure_ui_sample/scorpion/IADAANAA/tzapp_entrylib.lib(gpPersistObjIndex.o)
                                0x19f (size before relaxing)
 .rodata.str1.1
                0x000a9cae      0x1e5 /local/mnt/workspace/CRMBuilds/TZ.BF.4.0.3.c1-00005-M8996AAAAANAZT-1_20170110_230814/b/HK11/trustzone_images/core/securemsm/trustzone/qsapps/libs/applib/common_applib/build/secure_ui_sample/scorpion/IADAANAA/tzapp_entrylib.lib(gpPersistObjVersion.o)
                                0x202 (size before relaxing)
 .rodata.str1.1
                0x000a9e93      0x163 /local/mnt/workspace/CRMBuilds/TZ.BF.4.0.3.c1-00005-M8996AAAAANAZT-1_20170110_230814/b/HK11/trustzone_images/core/securemsm/trustzone/qsapps/libs/applib/common_applib/build/secure_ui_sample/scorpion/IADAANAA/tzapp_entrylib.lib(gpPersistObjCrypto.o)
                                0x17b (size before relaxing)
 .rodata.str1.1
                0x000a9ff6       0x9a /local/mnt/workspace/CRMBuilds/TZ.BF.4.0.3.c1-00005-M8996AAAAANAZT-1_20170110_230814/b/HK11/trustzone_images/core/securemsm/trustzone/qsapps/libs/applib/common_applib/build/secure_ui_sample/scorpion/IADAANAA/tzapp_entrylib.lib(gpPersistObjFileIO.o)
                                 0xb2 (size before relaxing)
 .rodata.str1.1
                0x000aa090       0x31 /local/mnt/workspace/CRMBuilds/TZ.BF.4.0.3.c1-00005-M8996AAAAANAZT-1_20170110_230814/b/HK11/trustzone_images/core/securemsm/trustzone/qsapps/libs/applib/common_applib/build/secure_ui_sample/scorpion/IADAANAA/tzapp_entrylib.lib(gpFileService.o)
                                 0x49 (size before relaxing)
 .rodata.str1.1
                0x00000000        0x1 /local/mnt/workspace/CRMBuilds/TZ.BF.4.0.3.c1-00005-M8996AAAAANAZT-1_20170110_230814/b/HK11/trustzone_images/core/securemsm/trustzone/qsapps/libs/applib/qsee/build/secure_ui_sample/scorpion/IADAANAA/tzapp_entrylib.lib(qsee_core_shim.o)
 .rodata.str1.1
                0x000aa0c1      0x534 /local/mnt/workspace/CRMBuilds/TZ.BF.4.0.3.c1-00005-M8996AAAAANAZT-1_20170110_230814/b/HK11/trustzone_images/core/securemsm/sse/SecureTouch/controller/build/secure_ui_sample/scorpion/IADAANAA/drts_controller_msm8996.lib(atmel_mxt_ts.o)
                                0x550 (size before relaxing)
 .rodata.str1.1
                0x000aa5f5      0x6c1 /local/mnt/workspace/CRMBuilds/TZ.BF.4.0.3.c1-00005-M8996AAAAANAZT-1_20170110_230814/b/HK11/trustzone_images/core/securemsm/sse/SecureTouch/controller/build/secure_ui_sample/scorpion/IADAANAA/drts_controller_msm8996.lib(synaptics_ts.o)
                                0x73a (size before relaxing)
 .rodata.str1.1
                0x000aacb6       0x2c /local/mnt/workspace/CRMBuilds/TZ.BF.4.0.3.c1-00005-M8996AAAAANAZT-1_20170110_230814/b/HK11/trustzone_images/core/securemsm/sse/log/build/secure_ui_sample/scorpion/IADAANAA/sselog.lib(sselog.o)
 .rodata.str1.1
                0x000aace2       0x5a /local/mnt/workspace/CRMBuilds/TZ.BF.4.0.3.c1-00005-M8996AAAAANAZT-1_20170110_230814/b/HK11/trustzone_images/core/securemsm/sse/qsee/SecureTouch/drTs/controller/build/secure_ui_sample/scorpion/IADAANAA/touch_controller_i2c_msm8996.lib(atmel_mxt_ts_i2c.o)
 .rodata.str1.1
                0x000aad3c       0x8a /local/mnt/workspace/CRMBuilds/TZ.BF.4.0.3.c1-00005-M8996AAAAANAZT-1_20170110_230814/b/HK11/trustzone_images/core/securemsm/sse/qsee/SecureTouch/drTs/controller/build/secure_ui_sample/scorpion/IADAANAA/touch_controller_i2c_msm8996.lib(synaptics_ts_i2c.o)
                                 0xcc (size before relaxing)
 *metadata.o(SORT(.rodata.str1.1))
 .rodata.str1.1
                0x000aadc6       0x11 /local/mnt/workspace/CRMBuilds/TZ.BF.4.0.3.c1-00005-M8996AAAAANAZT-1_20170110_230814/b/HK11/trustzone_images/apps/securemsm/trustzone/qsapps/secure_ui_sample/build/secure_ui_sample/scorpion/IADAANAA/metadata.o

.glue_7         0x000aadd8        0x0
 .glue_7        0x00000000        0x0 linker stubs

.glue_7t        0x000aadd8        0x0
 .glue_7t       0x00000000        0x0 linker stubs

.vfp11_veneer   0x000aadd8        0x0
 .vfp11_veneer  0x00000000        0x0 linker stubs

.v4_bx          0x000aadd8        0x0
 .v4_bx         0x00000000        0x0 linker stubs

.dynbss         0x000aadd7        0x0
 .dynbss        0x00000000        0x0 /local/mnt/workspace/CRMBuilds/TZ.BF.4.0.3.c1-00005-M8996AAAAANAZT-1_20170110_230814/b/HK11/trustzone_images/core/securemsm/trustzone/qsapps/libs/applib/qsee/build/secure_ui_sample/scorpion/IADAANAA/src/tzapp_entry.o

.plt            0x000aadd8        0x0
 .plt           0x00000000        0x0 /local/mnt/workspace/CRMBuilds/TZ.BF.4.0.3.c1-00005-M8996AAAAANAZT-1_20170110_230814/b/HK11/trustzone_images/core/securemsm/trustzone/qsapps/libs/applib/qsee/build/secure_ui_sample/scorpion/IADAANAA/src/tzapp_entry.o

.iplt           0x000aadd8        0x0
 .iplt          0x00000000        0x0 /local/mnt/workspace/CRMBuilds/TZ.BF.4.0.3.c1-00005-M8996AAAAANAZT-1_20170110_230814/b/HK11/trustzone_images/core/securemsm/trustzone/qsapps/libs/applib/qsee/build/secure_ui_sample/scorpion/IADAANAA/src/tzapp_entry.o

.sentinel       0x000aadd7       0x32
 *(SORT(.rodata.sentinel))
 .rodata.sentinel
                0x000aadd7       0x32 /local/mnt/workspace/CRMBuilds/TZ.BF.4.0.3.c1-00005-M8996AAAAANAZT-1_20170110_230814/b/HK11/trustzone_images/apps/securemsm/trustzone/qsapps/secure_ui_sample/build/secure_ui_sample/scorpion/IADAANAA/metadata.o
                0x000aadd7                TA_METADATA
                0x00000001                ASSERT ((SIZEOF (.sentinel) != 0x0), No sentinel section defined.)

.metadata_check
                0x000aae09        0x0
 *metadata.o(SORT(.rodata.*))
                0x00000001                ASSERT ((SIZEOF (.metadata_check) == 0x0), New metadata not accounted for here)

.data           0x000ab000   0x1740d6
 *(SORT(.data) SORT(TZAPPENTRYSTACK) SORT(.bss) SORT(COMMON))
 TZAPPENTRYSTACK
                0x000ab000       0x80 /local/mnt/workspace/CRMBuilds/TZ.BF.4.0.3.c1-00005-M8996AAAAANAZT-1_20170110_230814/b/HK11/trustzone_images/core/securemsm/trustzone/qsapps/libs/applib/qsee/build/secure_ui_sample/scorpion/IADAANAA/src/tzapp_entry.o
 .bss           0x000ab080       0x20 /local/mnt/workspace/CRMBuilds/TZ.BF.4.0.3.c1-00005-M8996AAAAANAZT-1_20170110_230814/b/HK11/trustzone_images/core/securemsm/sse/qsee/SecureUI/build/secure_ui_sample/scorpion/IADAANAA/secure_ui.lib(SecureUI.o)
 .bss           0x000ab0a0       0xac /local/mnt/workspace/CRMBuilds/TZ.BF.4.0.3.c1-00005-M8996AAAAANAZT-1_20170110_230814/b/HK11/trustzone_images/core/securemsm/sse/qsee/SecureUI/build/secure_ui_sample/scorpion/IADAANAA/secure_ui_tui.lib(qsee_tui_dialogs.o)
                0x000ab0a0                manage_layout_event_custom
 *fill*         0x000ab14c        0x4 
 .bss           0x000ab150       0x20 /local/mnt/workspace/CRMBuilds/TZ.BF.4.0.3.c1-00005-M8996AAAAANAZT-1_20170110_230814/b/HK11/trustzone_images/core/securemsm/sse/qsee/SecureUI/build/secure_ui_sample/scorpion/IADAANAA/secure_ui_tui.lib(layout_manager.o)
 .bss           0x000ab170    0x309a0 /local/mnt/workspace/CRMBuilds/TZ.BF.4.0.3.c1-00005-M8996AAAAANAZT-1_20170110_230814/b/HK11/trustzone_images/core/securemsm/sse/qsee/SecureUI/build/secure_ui_sample/scorpion/IADAANAA/secure_ui_tui.lib(font_manager.o)
 .data          0x000dbb10      0x240 /local/mnt/workspace/CRMBuilds/TZ.BF.4.0.3.c1-00005-M8996AAAAANAZT-1_20170110_230814/b/HK11/trustzone_images/core/securemsm/trustzone/qsapps/libs/applib/common_applib/build/secure_ui_sample/scorpion/IADAANAA/tzapp_entrylib.lib(common_applib.o)
                0x000dbb10                magic_num
                0x000dbb24                magic_num_index_array
                0x000dbb30                mem_magic_number
                0x000dbb3c                __stack_chk_guard
 .bss           0x000dbd50       0x88 /local/mnt/workspace/CRMBuilds/TZ.BF.4.0.3.c1-00005-M8996AAAAANAZT-1_20170110_230814/b/HK11/trustzone_images/core/securemsm/trustzone/qsapps/libs/applib/common_applib/build/secure_ui_sample/scorpion/IADAANAA/tzapp_entrylib.lib(common_applib.o)
                0x000dbd50                pgCmnlib
 *fill*         0x000dbdd8        0x8 
 .bss           0x000dbde0      0x140 /local/mnt/workspace/CRMBuilds/TZ.BF.4.0.3.c1-00005-M8996AAAAANAZT-1_20170110_230814/b/HK11/trustzone_images/core/securemsm/trustzone/qsapps/libs/applib/qsee/build/secure_ui_sample/scorpion/IADAANAA/tzapp_entrylib.lib(qsee_env.o)
 .bss           0x000dbf20     0x1044 /local/mnt/workspace/CRMBuilds/TZ.BF.4.0.3.c1-00005-M8996AAAAANAZT-1_20170110_230814/b/HK11/trustzone_images/core/securemsm/trustzone/qsapps/libs/applib/common_applib/build/secure_ui_sample/scorpion/IADAANAA/tzapp_entrylib.lib(gpPersistObjData.o)
 *fill*         0x000dcf64        0xc 
 .bss           0x000dcf70      0x488 /local/mnt/workspace/CRMBuilds/TZ.BF.4.0.3.c1-00005-M8996AAAAANAZT-1_20170110_230814/b/HK11/trustzone_images/core/securemsm/trustzone/qsapps/libs/applib/common_applib/build/secure_ui_sample/scorpion/IADAANAA/tzapp_entrylib.lib(gpPersistObjVersion.o)
 *fill*         0x000dd3f8        0x8 
 .bss           0x000dd400       0x50 /local/mnt/workspace/CRMBuilds/TZ.BF.4.0.3.c1-00005-M8996AAAAANAZT-1_20170110_230814/b/HK11/trustzone_images/core/securemsm/trustzone/qsapps/libs/applib/common_applib/build/secure_ui_sample/scorpion/IADAANAA/tzapp_entrylib.lib(gpPersistObjCrypto.o)
 .bss           0x000dd450      0x724 /local/mnt/workspace/CRMBuilds/TZ.BF.4.0.3.c1-00005-M8996AAAAANAZT-1_20170110_230814/b/HK11/trustzone_images/core/securemsm/trustzone/qsapps/libs/applib/qsee/build/secure_ui_sample/scorpion/IADAANAA/tzapp_entrylib.lib(stor_gpt.o)
 *fill*         0x000ddb74        0xc 
 .bss           0x000ddb80       0xc0 /local/mnt/workspace/CRMBuilds/TZ.BF.4.0.3.c1-00005-M8996AAAAANAZT-1_20170110_230814/b/HK11/trustzone_images/core/securemsm/sse/SecureTouch/controller/build/secure_ui_sample/scorpion/IADAANAA/drts_controller_msm8996.lib(atmel_mxt_ts.o)
 .data          0x000ddc40       0x64 /local/mnt/workspace/CRMBuilds/TZ.BF.4.0.3.c1-00005-M8996AAAAANAZT-1_20170110_230814/b/HK11/trustzone_images/core/securemsm/sse/qsee/SecureUI/build/secure_ui_sample/scorpion/IADAANAA/secure_ui.lib(SecureUI.o)
 .data          0x000ddca4       0x68 /local/mnt/workspace/CRMBuilds/TZ.BF.4.0.3.c1-00005-M8996AAAAANAZT-1_20170110_230814/b/HK11/trustzone_images/apps/securemsm/trustzone/qsapps/secure_ui_sample/build/secure_ui_sample/scorpion/IADAANAA/app_main.o
                0x000ddca4                sfs_sec_ind_path
                0x000ddcd7                fs_sec_ind_path
                0x000ddcf3                fs_logo_path
 .bss           0x000ddd0c      0x9b0 /local/mnt/workspace/CRMBuilds/TZ.BF.4.0.3.c1-00005-M8996AAAAANAZT-1_20170110_230814/b/HK11/trustzone_images/apps/securemsm/trustzone/qsapps/secure_ui_sample/build/secure_ui_sample/scorpion/IADAANAA/app_main.o
                0x000ddd0c                dispH
                0x000ddd10                dispW
                0x000ddd14                dispS
                0x000ddd18                pixelW
                0x000ddd1c                rotation
                0x000ddd20                g_screen
                0x000ddd24                g_screen_last
                0x000ddd28                queue
                0x000de69c                sec_ind_size
                0x000de6a0                logo_size
                0x000de6a4                status
                0x000de6a8                sec_ind_buffer
                0x000de6ac                logo_buffer
                0x000de6b0                received_pin_len
                0x000de6b4                received_username_len
                0x000de6b8                received_password_len
 .bss           0x000de6bc     0x1000 /local/mnt/workspace/CRMBuilds/TZ.BF.4.0.3.c1-00005-M8996AAAAANAZT-1_20170110_230814/b/HK11/trustzone_images/apps/securemsm/trustzone/qsapps/secure_ui_sample/build/secure_ui_sample/scorpion/IADAANAA/metadata.o
                0x000de6bc                ta_acceptBuf
 .data          0x000df6bc        0xc /local/mnt/workspace/CRMBuilds/TZ.BF.4.0.3.c1-00005-M8996AAAAANAZT-1_20170110_230814/b/HK11/trustzone_images/core/securemsm/sse/qsee/SecureUI/build/secure_ui_sample/scorpion/IADAANAA/secure_ui_tui.lib(qsee_tui_dialogs.o)
 .data          0x000df6c8       0x10 /local/mnt/workspace/CRMBuilds/TZ.BF.4.0.3.c1-00005-M8996AAAAANAZT-1_20170110_230814/b/HK11/trustzone_images/core/securemsm/sse/qsee/SecureUI/build/secure_ui_sample/scorpion/IADAANAA/secure_ui_tui.lib(layout_manager.o)
 .bss           0x000df6d8        0x4 /local/mnt/workspace/CRMBuilds/TZ.BF.4.0.3.c1-00005-M8996AAAAANAZT-1_20170110_230814/b/HK11/trustzone_images/core/securemsm/sse/qsee/SecureUI/build/secure_ui_sample/scorpion/IADAANAA/secure_ui_tui.lib(secure_display_renderer.o)
 .data          0x000df6dc        0xc /local/mnt/workspace/CRMBuilds/TZ.BF.4.0.3.c1-00005-M8996AAAAANAZT-1_20170110_230814/b/HK11/trustzone_images/core/securemsm/sse/qsee/SecureUILib/lib/build/secure_ui_sample/scorpion/IADAANAA/secure_ui_lib.lib(SecureUILib.o)
                0x000df6dc                g_sid
                0x000df6e0                g_width
                0x000df6e4                g_height
 .bss           0x000df6e8        0x4 /local/mnt/workspace/CRMBuilds/TZ.BF.4.0.3.c1-00005-M8996AAAAANAZT-1_20170110_230814/b/HK11/trustzone_images/core/securemsm/sse/qsee/SecureUILib/lib/build/secure_ui_sample/scorpion/IADAANAA/secure_ui_lib.lib(SecureUILib.o)
                0x000df6e8                g_touch_callback
 COMMON         0x000df6ec       0x14 /local/mnt/workspace/CRMBuilds/TZ.BF.4.0.3.c1-00005-M8996AAAAANAZT-1_20170110_230814/b/HK11/trustzone_images/core/securemsm/trustzone/qsapps/libs/applib/common_applib/build/secure_ui_sample/scorpion/IADAANAA/tzapp_entrylib.lib(common_applib.o)
                0x000df6ec                apps_request_resp
 .bss           0x000df700        0x4 /local/mnt/workspace/CRMBuilds/TZ.BF.4.0.3.c1-00005-M8996AAAAANAZT-1_20170110_230814/b/HK11/trustzone_images/core/securemsm/trustzone/qsapps/libs/applib/qsee/build/secure_ui_sample/scorpion/IADAANAA/tzapp_entrylib.lib(sfs_api.o)
 .bss           0x000df704        0x4 /afs/localcell/cm/gv2.6/sysname/pkg.@sys/qct/software/llvm/release/arm/3.5.2.4/tools/lib32/lib/libc.a(__errno_location.o)
 .bss           0x000df708        0x8 /afs/localcell/cm/gv2.6/sysname/pkg.@sys/qct/software/llvm/release/arm/3.5.2.4/tools/lib32/lib/libc.a(libc.o)
                0x000df708                __progname
                0x000df708                program_invocation_short_name
                0x000df70c                program_invocation_name
                0x000df70c                __progname_full
 COMMON         0x000df710       0x54 /afs/localcell/cm/gv2.6/sysname/pkg.@sys/qct/software/llvm/release/arm/3.5.2.4/tools/lib32/lib/libc.a(libc.o)
                0x000df710                __hwcap
                0x000df714                __libc
                0x000df760                __sysinfo
 .bss           0x000df764        0x4 /afs/localcell/cm/gv2.6/sysname/pkg.@sys/qct/software/llvm/release/arm/3.5.2.4/tools/lib32/lib/libc.a(__stdio_exit.o)
                0x000df764                __stdout_used
                0x000df764                __stdin_used
 .data          0x000df768    0xd1e67 /local/mnt/workspace/CRMBuilds/TZ.BF.4.0.3.c1-00005-M8996AAAAANAZT-1_20170110_230814/b/HK11/trustzone_images/apps/securemsm/trustzone/qsapps/secure_ui_sample/layouts/build/secure_ui_sample/scorpion/IADAANAA/secure_ui_layout.lib(layout_8996_fluid.o)
                0x000df768                tui_number_of_layouts
                0x000df76c                gdFontgdfontqualcomm_regular100propData
                0x00100368                gdFontgdfontqualcomm_regular42propData
                0x0010287c                gdFontgdfontqualcomm_regular48propData
                0x001036f8                publicRSAExponent
                0x001036fb                publicRSAModulus
                0x001037fb                image_buffer_0
                0x0011f854                image_buffer_1
                0x0012338b                image_buffer_2
                0x00127e7d                image_buffer_3
                0x0012a2bb                image_buffer_4
                0x001300d8                image_buffer_5
                0x00136384                image_buffer_6
                0x0013b9a1                image_buffer_7
                0x0013e75f                image_buffer_8
                0x001420e4                image_buffer_9
                0x00143ec8                image_buffer_10
                0x0014a4c0                image_buffer_11
                0x001511b8                image_buffer_12
                0x00156628                image_buffer_13
                0x001727a9                image_buffer_14
                0x0017482d                image_buffer_15
                0x0017648d                image_buffer_16
                0x00177865                image_buffer_17
                0x0017a42f                image_buffer_18
                0x0017dc19                image_buffer_19
                0x0017fb8b                image_buffer_20
                0x001849f2                image_buffer_21
                0x00189671                image_buffer_22
                0x0018dfa2                image_buffer_23
                0x00192699                image_buffer_24
                0x00194dcc                image_buffer_25
                0x00198a03                image_buffer_26
                0x0019c637                image_buffer_27
                0x0019f62d                image_buffer_28
                0x001a2fdf                image_buffer_29
                0x001a522f                image_buffer_30
                0x001ab314                image_buffer_31
                0x001adeea                image_buffer_32
 *fill*         0x001b15cf        0x1 
 .bss           0x001b15d0    0x12424 /local/mnt/workspace/CRMBuilds/TZ.BF.4.0.3.c1-00005-M8996AAAAANAZT-1_20170110_230814/b/HK11/trustzone_images/apps/securemsm/trustzone/qsapps/secure_ui_sample/layouts/build/secure_ui_sample/scorpion/IADAANAA/secure_ui_layout.lib(layout_8996_fluid.o)
 .data          0x001c39f4        0x4 /local/mnt/workspace/CRMBuilds/TZ.BF.4.0.3.c1-00005-M8996AAAAANAZT-1_20170110_230814/b/HK11/trustzone_images/core/securemsm/sse/qsee/SecureTouch/drTs/lib/build/secure_ui_sample/scorpion/IADAANAA/touch_lib.lib(01_open.o)
                0x001c39f4                g_drTs_sid
 .bss           0x001c39f8        0xc /local/mnt/workspace/CRMBuilds/TZ.BF.4.0.3.c1-00005-M8996AAAAANAZT-1_20170110_230814/b/HK11/trustzone_images/core/securemsm/sse/qsee/SecureTouch/drTs/lib/build/secure_ui_sample/scorpion/IADAANAA/touch_lib.lib(01_open.o)
                0x001c39f8                g_ts_dr_func
 .bss           0x001c3a04        0x4 /local/mnt/workspace/CRMBuilds/TZ.BF.4.0.3.c1-00005-M8996AAAAANAZT-1_20170110_230814/b/HK11/trustzone_images/core/securemsm/sse/qsee/SecureTouch/drTs/lib/build/secure_ui_sample/scorpion/IADAANAA/touch_lib.lib(03_getData.o)
                0x001c3a04                g_fingers_ptr
 .bss           0x001c3a08       0x81 /local/mnt/workspace/CRMBuilds/TZ.BF.4.0.3.c1-00005-M8996AAAAANAZT-1_20170110_230814/b/HK11/trustzone_images/core/securemsm/trustzone/qsapps/libs/applib/common_applib/build/secure_ui_sample/scorpion/IADAANAA/tzapp_entrylib.lib(gpPersistObjCommon.o)
 *fill*         0x001c3a89        0x3 
 .data          0x001c3a8c     0x1110 /local/mnt/workspace/CRMBuilds/TZ.BF.4.0.3.c1-00005-M8996AAAAANAZT-1_20170110_230814/b/HK11/trustzone_images/core/securemsm/trustzone/qsapps/libs/applib/common_applib/build/secure_ui_sample/scorpion/IADAANAA/tzapp_entrylib.lib(gpPersistObjHandler.o)
 .bss           0x001c4b9c        0x4 /local/mnt/workspace/CRMBuilds/TZ.BF.4.0.3.c1-00005-M8996AAAAANAZT-1_20170110_230814/b/HK11/trustzone_images/core/securemsm/trustzone/qsapps/libs/applib/common_applib/build/secure_ui_sample/scorpion/IADAANAA/tzapp_entrylib.lib(gpPersistObjHandler.o)
 .bss           0x001c4ba0     0x2024 /local/mnt/workspace/CRMBuilds/TZ.BF.4.0.3.c1-00005-M8996AAAAANAZT-1_20170110_230814/b/HK11/trustzone_images/core/securemsm/trustzone/qsapps/libs/applib/common_applib/build/secure_ui_sample/scorpion/IADAANAA/tzapp_entrylib.lib(gpPersistObjIndex.o)
 .data          0x001c6bc4        0x1 /local/mnt/workspace/CRMBuilds/TZ.BF.4.0.3.c1-00005-M8996AAAAANAZT-1_20170110_230814/b/HK11/trustzone_images/core/securemsm/trustzone/qsapps/libs/applib/common_applib/build/secure_ui_sample/scorpion/IADAANAA/tzapp_entrylib.lib(gpPersistObjVersion.o)
 *fill*         0x001c6bc5        0x3 
 .data          0x001c6bc8        0x4 /local/mnt/workspace/CRMBuilds/TZ.BF.4.0.3.c1-00005-M8996AAAAANAZT-1_20170110_230814/b/HK11/trustzone_images/core/securemsm/trustzone/qsapps/libs/applib/qsee/build/secure_ui_sample/scorpion/IADAANAA/tzapp_entrylib.lib(stor_gpt.o)
 .bss           0x001c6bcc        0x8 /afs/localcell/cm/gv2.6/sysname/pkg.@sys/qct/software/llvm/release/arm/3.5.2.4/tools/lib32/lib/libc.a(stderr.o)
 .bss           0x001c6bd4       0x96 /local/mnt/workspace/CRMBuilds/TZ.BF.4.0.3.c1-00005-M8996AAAAANAZT-1_20170110_230814/b/HK11/trustzone_images/core/securemsm/sse/SecureTouch/controller/build/secure_ui_sample/scorpion/IADAANAA/drts_controller_msm8996.lib(synaptics_ts.o)
 COMMON         0x001c6c6a      0x62c /local/mnt/workspace/CRMBuilds/TZ.BF.4.0.3.c1-00005-M8996AAAAANAZT-1_20170110_230814/b/HK11/trustzone_images/apps/securemsm/trustzone/qsapps/secure_ui_sample/build/secure_ui_sample/scorpion/IADAANAA/app_main.o
                0x001c6c6a                red_dot
                0x001c6c92                received_pin
                0x001c6e86                received_password
                0x001c707a                received_username
                0x001c726e                green_dot
 COMMON         0x001c7296    0x57e40 /local/mnt/workspace/CRMBuilds/TZ.BF.4.0.3.c1-00005-M8996AAAAANAZT-1_20170110_230814/b/HK11/trustzone_images/core/securemsm/sse/qsee/SecureUI/build/secure_ui_sample/scorpion/IADAANAA/secure_ui_tui.lib(secure_display_renderer.o)
                0x001c7296                img_array

.rel.text       0x0021f0d8        0x0
 *(SORT(.rel.text))
 .rel.text      0x00000000        0x0 /local/mnt/workspace/CRMBuilds/TZ.BF.4.0.3.c1-00005-M8996AAAAANAZT-1_20170110_230814/b/HK11/trustzone_images/core/securemsm/trustzone/qsapps/libs/applib/qsee/build/secure_ui_sample/scorpion/IADAANAA/src/tzapp_entry.o

.rel.rodata
 *(SORT(.rel.rodata))

.data.rel.ro.local
                0x0021f0d8       0x8c
 *(SORT(.data.rel.ro.local))
 .data.rel.ro.local
                0x0021f0d8       0x88 /afs/localcell/cm/gv2.6/sysname/pkg.@sys/qct/software/llvm/release/arm/3.5.2.4/tools/lib32/lib/libc.a(vsnprintf.o)
 .data.rel.ro.local
                0x0021f160        0x4 /afs/localcell/cm/gv2.6/sysname/pkg.@sys/qct/software/llvm/release/arm/3.5.2.4/tools/lib32/lib/libc.a(stderr.o)
                0x0021f160                stderr

.data.rel.ro    0x0021f164       0x28
 *(SORT(.data.rel.ro))
 .data.rel.ro   0x0021f164       0x28 /local/mnt/workspace/CRMBuilds/TZ.BF.4.0.3.c1-00005-M8996AAAAANAZT-1_20170110_230814/b/HK11/trustzone_images/core/securemsm/sse/qsee/SecureUILib/lib/build/secure_ui_sample/scorpion/IADAANAA/secure_ui_lib.lib(SecureUILib.o)

.rel.data
 *(SORT(.rel.data))

.rel.plt        0x0021f18c        0x0
 *(SORT(.rel.plt))
 .rel.plt       0x00000000        0x0 /local/mnt/workspace/CRMBuilds/TZ.BF.4.0.3.c1-00005-M8996AAAAANAZT-1_20170110_230814/b/HK11/trustzone_images/core/securemsm/trustzone/qsapps/libs/applib/qsee/build/secure_ui_sample/scorpion/IADAANAA/src/tzapp_entry.o

.gnu.version_d  0x0021f18c        0x0
 .gnu.version_d
                0x00000000        0x0 /local/mnt/workspace/CRMBuilds/TZ.BF.4.0.3.c1-00005-M8996AAAAANAZT-1_20170110_230814/b/HK11/trustzone_images/core/securemsm/trustzone/qsapps/libs/applib/qsee/build/secure_ui_sample/scorpion/IADAANAA/src/tzapp_entry.o

.gnu.version    0x0021f18c        0x0
 .gnu.version   0x00000000        0x0 /local/mnt/workspace/CRMBuilds/TZ.BF.4.0.3.c1-00005-M8996AAAAANAZT-1_20170110_230814/b/HK11/trustzone_images/core/securemsm/trustzone/qsapps/libs/applib/qsee/build/secure_ui_sample/scorpion/IADAANAA/src/tzapp_entry.o

.gnu.version_r  0x0021f18c        0x0
 .gnu.version_r
                0x00000000        0x0 /local/mnt/workspace/CRMBuilds/TZ.BF.4.0.3.c1-00005-M8996AAAAANAZT-1_20170110_230814/b/HK11/trustzone_images/core/securemsm/trustzone/qsapps/libs/applib/qsee/build/secure_ui_sample/scorpion/IADAANAA/src/tzapp_entry.o

.data.rel       0x0021f190       0xd4
 *(SORT(.data.rel))
 .data.rel      0x0021f190       0x88 /afs/localcell/cm/gv2.6/sysname/pkg.@sys/qct/software/llvm/release/arm/3.5.2.4/tools/lib32/lib/libc.a(stderr.o)
 .data.rel      0x0021f218       0x48 /local/mnt/workspace/CRMBuilds/TZ.BF.4.0.3.c1-00005-M8996AAAAANAZT-1_20170110_230814/b/HK11/trustzone_images/apps/securemsm/trustzone/qsapps/secure_ui_sample/layouts/build/secure_ui_sample/scorpion/IADAANAA/secure_ui_layout.lib(layout_8996_fluid.o)
                0x0021f218                gdFontgdfontqualcomm_regular100propRep
                0x0021f22c                gdFontgdfontqualcomm_regular100propExt
                0x0021f230                gdFontgdfontqualcomm_regular42propRep
                0x0021f244                gdFontgdfontqualcomm_regular42propExt
                0x0021f248                gdFontgdfontqualcomm_regular48propRep
                0x0021f25c                gdFontgdfontqualcomm_regular48propExt
 .data.rel      0x0021f260        0x4 /local/mnt/workspace/CRMBuilds/TZ.BF.4.0.3.c1-00005-M8996AAAAANAZT-1_20170110_230814/b/HK11/trustzone_images/core/securemsm/sse/qsee/SecureDisplay/libgd/build/secure_ui_sample/scorpion/IADAANAA/libgd.lib(gd.o)

.data.rel.local
                0x0021f270      0x128
 *(SORT(.data.rel.local))
 .data.rel.local
                0x0021f270       0x84 /local/mnt/workspace/CRMBuilds/TZ.BF.4.0.3.c1-00005-M8996AAAAANAZT-1_20170110_230814/b/HK11/trustzone_images/core/securemsm/sse/SecureTouch/controller/build/secure_ui_sample/scorpion/IADAANAA/drts_controller_msm8996.lib(atmel_mxt_ts.o)
 *fill*         0x0021f2f4        0xc 
 .data.rel.local
                0x0021f300       0x2c /local/mnt/workspace/CRMBuilds/TZ.BF.4.0.3.c1-00005-M8996AAAAANAZT-1_20170110_230814/b/HK11/trustzone_images/core/securemsm/sse/qsee/SecureTouch/drTs/controller/build/secure_ui_sample/scorpion/IADAANAA/touch_controller_i2c_msm8996.lib(atmel_mxt_ts_i2c.o)
 *fill*         0x0021f32c        0x4 
 .data.rel.local
                0x0021f330       0x2c /local/mnt/workspace/CRMBuilds/TZ.BF.4.0.3.c1-00005-M8996AAAAANAZT-1_20170110_230814/b/HK11/trustzone_images/core/securemsm/sse/qsee/SecureTouch/drTs/controller/build/secure_ui_sample/scorpion/IADAANAA/touch_controller_i2c_msm8996.lib(synaptics_ts_i2c.o)
 .data.rel.local
                0x0021f35c        0x4 /local/mnt/workspace/CRMBuilds/TZ.BF.4.0.3.c1-00005-M8996AAAAANAZT-1_20170110_230814/b/HK11/trustzone_images/apps/securemsm/trustzone/qsapps/secure_ui_sample/build/secure_ui_sample/scorpion/IADAANAA/metadata.o
                0x0021f35c                TA_APP_NAME
 .data.rel.local
                0x0021f360        0x4 /local/mnt/workspace/CRMBuilds/TZ.BF.4.0.3.c1-00005-M8996AAAAANAZT-1_20170110_230814/b/HK11/trustzone_images/core/securemsm/trustzone/qsapps/libs/applib/common_applib/build/secure_ui_sample/scorpion/IADAANAA/tzapp_entrylib.lib(common_applib.o)
                0x0021f360                dummy_str
 .data.rel.local
                0x0021f364       0x30 /local/mnt/workspace/CRMBuilds/TZ.BF.4.0.3.c1-00005-M8996AAAAANAZT-1_20170110_230814/b/HK11/trustzone_images/apps/securemsm/trustzone/qsapps/secure_ui_sample/layouts/build/secure_ui_sample/scorpion/IADAANAA/secure_ui_layout.lib(layout_8996_fluid.o)
                0x0021f364                tui_layout_functions
 .data.rel.local
                0x0021f394        0x4 /afs/localcell/cm/gv2.6/sysname/pkg.@sys/qct/software/llvm/release/arm/3.5.2.4/tools/lib32/lib/libc.a(stderr.o)
                0x0021f394                __stderr_used

TZ_APP_STACK    0x0021f398    0x12000
                0x0021f398                Image$$TZ_APP_STACK$$ZI$$Base = .
                0x00231398                . = (. + 0x12000)
 *fill*         0x0021f398    0x12000 
                0x00231398                Image$$TZ_APP_STACK$$ZI$$Limit = .

TZ_APP_HEAP     0x00231398   0x100000
                0x00231398                Image$$TZ_APP_HEAP$$ZI$$Base = .
                0x00331398                . = (. + 0x100000)
 *fill*         0x00231398   0x100000 
                0x00331398                Image$$TZ_APP_HEAP$$ZI$$Limit = .

.got            0x00332000      0x1e8
 *(SORT(.got.plt))
 .got.plt       0x00332000        0xc /local/mnt/workspace/CRMBuilds/TZ.BF.4.0.3.c1-00005-M8996AAAAANAZT-1_20170110_230814/b/HK11/trustzone_images/core/securemsm/trustzone/qsapps/libs/applib/qsee/build/secure_ui_sample/scorpion/IADAANAA/src/tzapp_entry.o
                0x00332000                _GLOBAL_OFFSET_TABLE_
 *(SORT(.igot.plt))
 .igot.plt      0x00000000        0x0 /local/mnt/workspace/CRMBuilds/TZ.BF.4.0.3.c1-00005-M8996AAAAANAZT-1_20170110_230814/b/HK11/trustzone_images/core/securemsm/trustzone/qsapps/libs/applib/qsee/build/secure_ui_sample/scorpion/IADAANAA/src/tzapp_entry.o
 *(SORT(.got))
 .got           0x0033200c      0x1dc /local/mnt/workspace/CRMBuilds/TZ.BF.4.0.3.c1-00005-M8996AAAAANAZT-1_20170110_230814/b/HK11/trustzone_images/core/securemsm/trustzone/qsapps/libs/applib/qsee/build/secure_ui_sample/scorpion/IADAANAA/src/tzapp_entry.o
 *(SORT(.igot))

.dynamic        0x00333000       0x58
 *(SORT(.dynamic))
 .dynamic       0x00333000       0x58 /local/mnt/workspace/CRMBuilds/TZ.BF.4.0.3.c1-00005-M8996AAAAANAZT-1_20170110_230814/b/HK11/trustzone_images/core/securemsm/trustzone/qsapps/libs/applib/qsee/build/secure_ui_sample/scorpion/IADAANAA/src/tzapp_entry.o
                0x00333000                _DYNAMIC

.rel.dyn        0x00334000      0x508
 *(SORT(.rel.dyn))
 .rel.got       0x00334000      0x3b8 /local/mnt/workspace/CRMBuilds/TZ.BF.4.0.3.c1-00005-M8996AAAAANAZT-1_20170110_230814/b/HK11/trustzone_images/core/securemsm/trustzone/qsapps/libs/applib/qsee/build/secure_ui_sample/scorpion/IADAANAA/src/tzapp_entry.o
 .rel.iplt      0x00000000        0x0 /local/mnt/workspace/CRMBuilds/TZ.BF.4.0.3.c1-00005-M8996AAAAANAZT-1_20170110_230814/b/HK11/trustzone_images/core/securemsm/trustzone/qsapps/libs/applib/qsee/build/secure_ui_sample/scorpion/IADAANAA/src/tzapp_entry.o
 .relTZAPPENTRYCODE
                0x003343b8        0x8 /local/mnt/workspace/CRMBuilds/TZ.BF.4.0.3.c1-00005-M8996AAAAANAZT-1_20170110_230814/b/HK11/trustzone_images/core/securemsm/trustzone/qsapps/libs/applib/qsee/build/secure_ui_sample/scorpion/IADAANAA/src/tzapp_entry.o
 .rel.data.rel.local
                0x003343c0       0xb8 /local/mnt/workspace/CRMBuilds/TZ.BF.4.0.3.c1-00005-M8996AAAAANAZT-1_20170110_230814/b/HK11/trustzone_images/core/securemsm/trustzone/qsapps/libs/applib/qsee/build/secure_ui_sample/scorpion/IADAANAA/src/tzapp_entry.o
 .rel.data.rel.ro
                0x00334478       0x28 /local/mnt/workspace/CRMBuilds/TZ.BF.4.0.3.c1-00005-M8996AAAAANAZT-1_20170110_230814/b/HK11/trustzone_images/core/securemsm/trustzone/qsapps/libs/applib/qsee/build/secure_ui_sample/scorpion/IADAANAA/src/tzapp_entry.o
 .rel.data.rel.ro.local
                0x003344a0       0x10 /local/mnt/workspace/CRMBuilds/TZ.BF.4.0.3.c1-00005-M8996AAAAANAZT-1_20170110_230814/b/HK11/trustzone_images/core/securemsm/trustzone/qsapps/libs/applib/qsee/build/secure_ui_sample/scorpion/IADAANAA/src/tzapp_entry.o
 .rel.data.rel  0x003344b0       0x58 /local/mnt/workspace/CRMBuilds/TZ.BF.4.0.3.c1-00005-M8996AAAAANAZT-1_20170110_230814/b/HK11/trustzone_images/core/securemsm/trustzone/qsapps/libs/applib/qsee/build/secure_ui_sample/scorpion/IADAANAA/src/tzapp_entry.o

.gnu.attributes
 *(SORT(.gnu.attributes))

.note.gnu.arm.ident
 *(SORT(.note.gnu.arm.ident))

/DISCARD/
 *(SORT(.hash))
 *(SORT(.dynsym))
 *(SORT(.dynstr))
 *(SORT(.ARM.exidx*))
 *(SORT(.note.GNU-stack))
 *(SORT(.gnu_debuglink))
 *(SORT(.gnu.lto_*))
 *(SORT(.init))
 *(SORT(.fini))
START GROUP
LOAD /local/mnt/workspace/CRMBuilds/TZ.BF.4.0.3.c1-00005-M8996AAAAANAZT-1_20170110_230814/b/HK11/trustzone_images/core/kernel/libstd/build/secure_ui_sample/scorpion/IADAANAA/libstd.lib
LOAD /local/mnt/workspace/CRMBuilds/TZ.BF.4.0.3.c1-00005-M8996AAAAANAZT-1_20170110_230814/b/HK11/trustzone_images/core/securemsm/sse/SecureTouch/controller/build/secure_ui_sample/scorpion/IADAANAA/drts_controller_msm8996.lib
LOAD /local/mnt/workspace/CRMBuilds/TZ.BF.4.0.3.c1-00005-M8996AAAAANAZT-1_20170110_230814/b/HK11/trustzone_images/core/securemsm/sse/SecureTouch/layout/build/secure_ui_sample/scorpion/IADAANAA/sklayout.lib
LOAD /local/mnt/workspace/CRMBuilds/TZ.BF.4.0.3.c1-00005-M8996AAAAANAZT-1_20170110_230814/b/HK11/trustzone_images/core/securemsm/sse/log/build/secure_ui_sample/scorpion/IADAANAA/sselog.lib
LOAD /local/mnt/workspace/CRMBuilds/TZ.BF.4.0.3.c1-00005-M8996AAAAANAZT-1_20170110_230814/b/HK11/trustzone_images/core/securemsm/sse/qsee/SecureDisplay/libgd/build/secure_ui_sample/scorpion/IADAANAA/libgd.lib
LOAD /local/mnt/workspace/CRMBuilds/TZ.BF.4.0.3.c1-00005-M8996AAAAANAZT-1_20170110_230814/b/HK11/trustzone_images/core/securemsm/sse/qsee/SecureDisplay/libpng/build/secure_ui_sample/scorpion/IADAANAA/libpng.lib
LOAD /local/mnt/workspace/CRMBuilds/TZ.BF.4.0.3.c1-00005-M8996AAAAANAZT-1_20170110_230814/b/HK11/trustzone_images/core/securemsm/sse/qsee/SecureDisplay/zlib/build/secure_ui_sample/scorpion/IADAANAA/zlib.lib
LOAD /local/mnt/workspace/CRMBuilds/TZ.BF.4.0.3.c1-00005-M8996AAAAANAZT-1_20170110_230814/b/HK11/trustzone_images/core/securemsm/sse/qsee/SecureTouch/drTs/controller/build/secure_ui_sample/scorpion/IADAANAA/touch_controller_i2c_msm8996.lib
LOAD /local/mnt/workspace/CRMBuilds/TZ.BF.4.0.3.c1-00005-M8996AAAAANAZT-1_20170110_230814/b/HK11/trustzone_images/core/securemsm/sse/qsee/SecureTouch/drTs/lib/build/secure_ui_sample/scorpion/IADAANAA/touch_lib.lib
LOAD /local/mnt/workspace/CRMBuilds/TZ.BF.4.0.3.c1-00005-M8996AAAAANAZT-1_20170110_230814/b/HK11/trustzone_images/core/securemsm/sse/qsee/SecureUI/build/secure_ui_sample/scorpion/IADAANAA/secure_ui.lib
LOAD /local/mnt/workspace/CRMBuilds/TZ.BF.4.0.3.c1-00005-M8996AAAAANAZT-1_20170110_230814/b/HK11/trustzone_images/core/securemsm/sse/qsee/SecureUI/build/secure_ui_sample/scorpion/IADAANAA/secure_ui_tui.lib
LOAD /local/mnt/workspace/CRMBuilds/TZ.BF.4.0.3.c1-00005-M8996AAAAANAZT-1_20170110_230814/b/HK11/trustzone_images/core/securemsm/sse/qsee/SecureUILib/lib/build/secure_ui_sample/scorpion/IADAANAA/secure_ui_lib.lib
LOAD /local/mnt/workspace/CRMBuilds/TZ.BF.4.0.3.c1-00005-M8996AAAAANAZT-1_20170110_230814/b/HK11/trustzone_images/core/securemsm/trustzone/qsapps/libs/applib/common_applib/build/secure_ui_sample/scorpion/IADAANAA/tzapp_entrylib.lib
LOAD /local/mnt/workspace/CRMBuilds/TZ.BF.4.0.3.c1-00005-M8996AAAAANAZT-1_20170110_230814/b/HK11/trustzone_images/core/securemsm/trustzone/qsapps/libs/applib/proxy/build/secure_ui_sample/scorpion/IADAANAA/tzlib_proxy.lib
LOAD /local/mnt/workspace/CRMBuilds/TZ.BF.4.0.3.c1-00005-M8996AAAAANAZT-1_20170110_230814/b/HK11/trustzone_images/core/securemsm/trustzone/qsapps/libs/applib/qsee/build/secure_ui_sample/scorpion/IADAANAA/tzapp_entrylib.lib
LOAD /local/mnt/workspace/CRMBuilds/TZ.BF.4.0.3.c1-00005-M8996AAAAANAZT-1_20170110_230814/b/HK11/trustzone_images/core/securemsm/trustzone/qsapps/libs/services/build/secure_ui_sample/scorpion/IADAANAA/qsee_services.lib
LOAD /afs/localcell/cm/gv2.6/sysname/pkg.@sys/qct/software/llvm/release/arm/3.5.2.4/tools/lib32/lib/libc.a
LOAD /afs/localcell/cm/gv2.6/sysname/pkg.@sys/qct/software/llvm/release/arm/3.5.2.4/lib/clang/3.5.2/lib/linux/libclang_rt.builtins-arm.a
LOAD /local/mnt/workspace/CRMBuilds/TZ.BF.4.0.3.c1-00005-M8996AAAAANAZT-1_20170110_230814/b/HK11/trustzone_images/apps/securemsm/trustzone/qsapps/secure_ui_sample/layouts/build/secure_ui_sample/scorpion/IADAANAA/secure_ui_layout.lib
LOAD /local/mnt/workspace/CRMBuilds/TZ.BF.4.0.3.c1-00005-M8996AAAAANAZT-1_20170110_230814/b/HK11/trustzone_images/core/securemsm/trustzone/qsapps/libs/applib/qsee/build/secure_ui_sample/scorpion/IADAANAA/src/tzapp_entry.o
LOAD /local/mnt/workspace/CRMBuilds/TZ.BF.4.0.3.c1-00005-M8996AAAAANAZT-1_20170110_230814/b/HK11/trustzone_images/apps/securemsm/trustzone/qsapps/secure_ui_sample/build/secure_ui_sample/scorpion/IADAANAA/app_main.o
LOAD /local/mnt/workspace/CRMBuilds/TZ.BF.4.0.3.c1-00005-M8996AAAAANAZT-1_20170110_230814/b/HK11/trustzone_images/apps/securemsm/trustzone/qsapps/secure_ui_sample/build/secure_ui_sample/scorpion/IADAANAA/metadata.o
END GROUP
OUTPUT(/local/mnt/workspace/CRMBuilds/TZ.BF.4.0.3.c1-00005-M8996AAAAANAZT-1_20170110_230814/b/HK11/trustzone_images/apps/bsp/trustzone/qsapps/secure_ui_sample/build/IADAANAA/secure_ui_sample.elf elf32-littlearm)

.ARM.attributes
                0x00000000       0x3d
 .ARM.attributes
                0x00000000       0x37 /local/mnt/workspace/CRMBuilds/TZ.BF.4.0.3.c1-00005-M8996AAAAANAZT-1_20170110_230814/b/HK11/trustzone_images/apps/securemsm/trustzone/qsapps/secure_ui_sample/build/secure_ui_sample/scorpion/IADAANAA/app_main.o
 .ARM.attributes
                0x00000037       0x37 /local/mnt/workspace/CRMBuilds/TZ.BF.4.0.3.c1-00005-M8996AAAAANAZT-1_20170110_230814/b/HK11/trustzone_images/apps/securemsm/trustzone/qsapps/secure_ui_sample/build/secure_ui_sample/scorpion/IADAANAA/metadata.o
 .ARM.attributes
                0x0000006e       0x37 /local/mnt/workspace/CRMBuilds/TZ.BF.4.0.3.c1-00005-M8996AAAAANAZT-1_20170110_230814/b/HK11/trustzone_images/core/kernel/libstd/build/secure_ui_sample/scorpion/IADAANAA/libstd.lib(memscpy.o)
 .ARM.attributes
                0x000000a5       0x37 /local/mnt/workspace/CRMBuilds/TZ.BF.4.0.3.c1-00005-M8996AAAAANAZT-1_20170110_230814/b/HK11/trustzone_images/core/kernel/libstd/build/secure_ui_sample/scorpion/IADAANAA/libstd.lib(strlcat.o)
 .ARM.attributes
                0x000000dc       0x37 /local/mnt/workspace/CRMBuilds/TZ.BF.4.0.3.c1-00005-M8996AAAAANAZT-1_20170110_230814/b/HK11/trustzone_images/core/kernel/libstd/build/secure_ui_sample/scorpion/IADAANAA/libstd.lib(strlcpy.o)
 .ARM.attributes
                0x00000113       0x37 /local/mnt/workspace/CRMBuilds/TZ.BF.4.0.3.c1-00005-M8996AAAAANAZT-1_20170110_230814/b/HK11/trustzone_images/core/securemsm/sse/qsee/SecureUI/build/secure_ui_sample/scorpion/IADAANAA/secure_ui.lib(SecureUI.o)
 .ARM.attributes
                0x0000014a       0x37 /local/mnt/workspace/CRMBuilds/TZ.BF.4.0.3.c1-00005-M8996AAAAANAZT-1_20170110_230814/b/HK11/trustzone_images/core/securemsm/sse/qsee/SecureUI/build/secure_ui_sample/scorpion/IADAANAA/secure_ui_tui.lib(qsee_tui_dialogs.o)
 .ARM.attributes
                0x00000181       0x37 /local/mnt/workspace/CRMBuilds/TZ.BF.4.0.3.c1-00005-M8996AAAAANAZT-1_20170110_230814/b/HK11/trustzone_images/core/securemsm/sse/qsee/SecureUI/build/secure_ui_sample/scorpion/IADAANAA/secure_ui_tui.lib(layout_manager.o)
 .ARM.attributes
                0x000001b8       0x37 /local/mnt/workspace/CRMBuilds/TZ.BF.4.0.3.c1-00005-M8996AAAAANAZT-1_20170110_230814/b/HK11/trustzone_images/core/securemsm/sse/qsee/SecureUI/build/secure_ui_sample/scorpion/IADAANAA/secure_ui_tui.lib(secure_display_renderer.o)
 .ARM.attributes
                0x000001ef       0x37 /local/mnt/workspace/CRMBuilds/TZ.BF.4.0.3.c1-00005-M8996AAAAANAZT-1_20170110_230814/b/HK11/trustzone_images/core/securemsm/sse/qsee/SecureUI/build/secure_ui_sample/scorpion/IADAANAA/secure_ui_tui.lib(font_manager.o)
 .ARM.attributes
                0x00000226       0x37 /local/mnt/workspace/CRMBuilds/TZ.BF.4.0.3.c1-00005-M8996AAAAANAZT-1_20170110_230814/b/HK11/trustzone_images/core/securemsm/sse/qsee/SecureUILib/lib/build/secure_ui_sample/scorpion/IADAANAA/secure_ui_lib.lib(SecureUILib.o)
 .ARM.attributes
                0x0000025d       0x37 /local/mnt/workspace/CRMBuilds/TZ.BF.4.0.3.c1-00005-M8996AAAAANAZT-1_20170110_230814/b/HK11/trustzone_images/core/securemsm/sse/qsee/SecureUILib/lib/build/secure_ui_sample/scorpion/IADAANAA/secure_ui_lib.lib(01_startTouch.o)
 .ARM.attributes
                0x00000294       0x37 /local/mnt/workspace/CRMBuilds/TZ.BF.4.0.3.c1-00005-M8996AAAAANAZT-1_20170110_230814/b/HK11/trustzone_images/core/securemsm/sse/qsee/SecureUILib/lib/build/secure_ui_sample/scorpion/IADAANAA/secure_ui_lib.lib(02_processTouch.o)
 .ARM.attributes
                0x000002cb       0x37 /local/mnt/workspace/CRMBuilds/TZ.BF.4.0.3.c1-00005-M8996AAAAANAZT-1_20170110_230814/b/HK11/trustzone_images/core/securemsm/sse/qsee/SecureUILib/lib/build/secure_ui_sample/scorpion/IADAANAA/secure_ui_lib.lib(03_stopTouch.o)
 .ARM.attributes
                0x00000302       0x37 /local/mnt/workspace/CRMBuilds/TZ.BF.4.0.3.c1-00005-M8996AAAAANAZT-1_20170110_230814/b/HK11/trustzone_images/core/securemsm/sse/qsee/SecureUILib/lib/build/secure_ui_sample/scorpion/IADAANAA/secure_ui_lib.lib(04_prepareRequest.o)
 .ARM.attributes
                0x00000339       0x37 /local/mnt/workspace/CRMBuilds/TZ.BF.4.0.3.c1-00005-M8996AAAAANAZT-1_20170110_230814/b/HK11/trustzone_images/core/securemsm/sse/qsee/SecureUILib/lib/build/secure_ui_sample/scorpion/IADAANAA/secure_ui_lib.lib(05_storeIndicator.o)
 .ARM.attributes
                0x00000370       0x37 /local/mnt/workspace/CRMBuilds/TZ.BF.4.0.3.c1-00005-M8996AAAAANAZT-1_20170110_230814/b/HK11/trustzone_images/core/securemsm/trustzone/qsapps/libs/applib/common_applib/build/secure_ui_sample/scorpion/IADAANAA/tzapp_entrylib.lib(common_applib.o)
 .ARM.attributes
                0x000003a7       0x37 /local/mnt/workspace/CRMBuilds/TZ.BF.4.0.3.c1-00005-M8996AAAAANAZT-1_20170110_230814/b/HK11/trustzone_images/core/securemsm/trustzone/qsapps/libs/applib/proxy/build/secure_ui_sample/scorpion/IADAANAA/tzlib_proxy.lib(prxy_services.o)
 .ARM.attributes
                0x000003de       0x37 /local/mnt/workspace/CRMBuilds/TZ.BF.4.0.3.c1-00005-M8996AAAAANAZT-1_20170110_230814/b/HK11/trustzone_images/core/securemsm/trustzone/qsapps/libs/applib/proxy/build/secure_ui_sample/scorpion/IADAANAA/tzlib_proxy.lib(prxy_qsee_shim.o)
 .ARM.attributes
                0x00000415       0x37 /local/mnt/workspace/CRMBuilds/TZ.BF.4.0.3.c1-00005-M8996AAAAANAZT-1_20170110_230814/b/HK11/trustzone_images/core/securemsm/trustzone/qsapps/libs/applib/proxy/build/secure_ui_sample/scorpion/IADAANAA/tzlib_proxy.lib(prxy_ufdes.o)
 .ARM.attributes
                0x0000044c       0x37 /local/mnt/workspace/CRMBuilds/TZ.BF.4.0.3.c1-00005-M8996AAAAANAZT-1_20170110_230814/b/HK11/trustzone_images/core/securemsm/trustzone/qsapps/libs/applib/proxy/build/secure_ui_sample/scorpion/IADAANAA/tzlib_proxy.lib(prxy_secmath.o)
 .ARM.attributes
                0x00000483       0x37 /local/mnt/workspace/CRMBuilds/TZ.BF.4.0.3.c1-00005-M8996AAAAANAZT-1_20170110_230814/b/HK11/trustzone_images/core/securemsm/trustzone/qsapps/libs/applib/proxy/build/secure_ui_sample/scorpion/IADAANAA/tzlib_proxy.lib(prxy_secrsa.o)
 .ARM.attributes
                0x000004ba       0x37 /local/mnt/workspace/CRMBuilds/TZ.BF.4.0.3.c1-00005-M8996AAAAANAZT-1_20170110_230814/b/HK11/trustzone_images/core/securemsm/trustzone/qsapps/libs/applib/proxy/build/secure_ui_sample/scorpion/IADAANAA/tzlib_proxy.lib(prxy_ecc.o)
 .ARM.attributes
                0x000004f1       0x37 /local/mnt/workspace/CRMBuilds/TZ.BF.4.0.3.c1-00005-M8996AAAAANAZT-1_20170110_230814/b/HK11/trustzone_images/core/securemsm/trustzone/qsapps/libs/applib/qsee/build/secure_ui_sample/scorpion/IADAANAA/tzapp_entrylib.lib(mink_shared_code.o)
 .ARM.attributes
                0x00000528       0x37 /local/mnt/workspace/CRMBuilds/TZ.BF.4.0.3.c1-00005-M8996AAAAANAZT-1_20170110_230814/b/HK11/trustzone_images/core/securemsm/trustzone/qsapps/libs/applib/qsee/build/secure_ui_sample/scorpion/IADAANAA/tzapp_entrylib.lib(qsee_env.o)
 .ARM.attributes
                0x0000055f       0x37 /local/mnt/workspace/CRMBuilds/TZ.BF.4.0.3.c1-00005-M8996AAAAANAZT-1_20170110_230814/b/HK11/trustzone_images/core/securemsm/trustzone/qsapps/libs/applib/qsee/build/secure_ui_sample/scorpion/IADAANAA/tzapp_entrylib.lib(qsee_prng.o)
 .ARM.attributes
                0x00000596       0x37 /local/mnt/workspace/CRMBuilds/TZ.BF.4.0.3.c1-00005-M8996AAAAANAZT-1_20170110_230814/b/HK11/trustzone_images/core/securemsm/trustzone/qsapps/libs/applib/qsee/build/secure_ui_sample/scorpion/IADAANAA/tzapp_entrylib.lib(qsee_secdisp.o)
 .ARM.attributes
                0x000005cd       0x37 /local/mnt/workspace/CRMBuilds/TZ.BF.4.0.3.c1-00005-M8996AAAAANAZT-1_20170110_230814/b/HK11/trustzone_images/core/securemsm/trustzone/qsapps/libs/applib/qsee/build/secure_ui_sample/scorpion/IADAANAA/tzapp_entrylib.lib(qsee_nsmem.o)
 .ARM.attributes
                0x00000604       0x37 /local/mnt/workspace/CRMBuilds/TZ.BF.4.0.3.c1-00005-M8996AAAAANAZT-1_20170110_230814/b/HK11/trustzone_images/core/securemsm/trustzone/qsapps/libs/applib/qsee/build/secure_ui_sample/scorpion/IADAANAA/tzapp_entrylib.lib(qsee_timer_shim.o)
 .ARM.attributes
                0x0000063b       0x37 /local/mnt/workspace/CRMBuilds/TZ.BF.4.0.3.c1-00005-M8996AAAAANAZT-1_20170110_230814/b/HK11/trustzone_images/core/securemsm/trustzone/qsapps/libs/applib/qsee/build/secure_ui_sample/scorpion/IADAANAA/tzapp_entrylib.lib(qsee_hash.o)
 .ARM.attributes
                0x00000672       0x37 /local/mnt/workspace/CRMBuilds/TZ.BF.4.0.3.c1-00005-M8996AAAAANAZT-1_20170110_230814/b/HK11/trustzone_images/core/securemsm/trustzone/qsapps/libs/applib/qsee/build/secure_ui_sample/scorpion/IADAANAA/tzapp_entrylib.lib(qsee_shared_buffer.o)
 .ARM.attributes
                0x000006a9       0x37 /local/mnt/workspace/CRMBuilds/TZ.BF.4.0.3.c1-00005-M8996AAAAANAZT-1_20170110_230814/b/HK11/trustzone_images/core/securemsm/trustzone/qsapps/libs/applib/qsee/build/secure_ui_sample/scorpion/IADAANAA/tzapp_entrylib.lib(qsee_appmessage.o)
 .ARM.attributes
                0x000006e0       0x37 /local/mnt/workspace/CRMBuilds/TZ.BF.4.0.3.c1-00005-M8996AAAAANAZT-1_20170110_230814/b/HK11/trustzone_images/core/securemsm/trustzone/qsapps/libs/applib/qsee/build/secure_ui_sample/scorpion/IADAANAA/tzapp_entrylib.lib(sfs_api.o)
 .ARM.attributes
                0x00000717       0x37 /local/mnt/workspace/CRMBuilds/TZ.BF.4.0.3.c1-00005-M8996AAAAANAZT-1_20170110_230814/b/HK11/trustzone_images/core/securemsm/trustzone/qsapps/libs/applib/qsee/build/secure_ui_sample/scorpion/IADAANAA/tzapp_entrylib.lib(tzapp_lib_main.o)
 .ARM.attributes
                0x0000074e       0x12 /local/mnt/workspace/CRMBuilds/TZ.BF.4.0.3.c1-00005-M8996AAAAANAZT-1_20170110_230814/b/HK11/trustzone_images/core/securemsm/trustzone/qsapps/libs/applib/qsee/build/secure_ui_sample/scorpion/IADAANAA/tzapp_entrylib.lib(kthread_shared.o)
 .ARM.attributes
                0x00000760       0x39 /afs/localcell/cm/gv2.6/sysname/pkg.@sys/qct/software/llvm/release/arm/3.5.2.4/tools/lib32/lib/libc.a(vsnprintf.o)
 .ARM.attributes
                0x00000799       0x1f /afs/localcell/cm/gv2.6/sysname/pkg.@sys/qct/software/llvm/release/arm/3.5.2.4/tools/lib32/lib/libc.a(memcpy.o)
 .ARM.attributes
                0x000007b8       0x39 /afs/localcell/cm/gv2.6/sysname/pkg.@sys/qct/software/llvm/release/arm/3.5.2.4/tools/lib32/lib/libc.a(strcmp.o)
 .ARM.attributes
                0x000007f1       0x39 /afs/localcell/cm/gv2.6/sysname/pkg.@sys/qct/software/llvm/release/arm/3.5.2.4/tools/lib32/lib/libc.a(strlen.o)
 .ARM.attributes
                0x0000082a       0x39 /afs/localcell/cm/gv2.6/sysname/pkg.@sys/qct/software/llvm/release/arm/3.5.2.4/tools/lib32/lib/libc.a(strncmp.o)
 .ARM.attributes
                0x00000863       0x39 /afs/localcell/cm/gv2.6/sysname/pkg.@sys/qct/software/llvm/release/arm/3.5.2.4/tools/lib32/lib/libc.a(__errno_location.o)
 .ARM.attributes
                0x0000089c       0x39 /afs/localcell/cm/gv2.6/sysname/pkg.@sys/qct/software/llvm/release/arm/3.5.2.4/tools/lib32/lib/libc.a(libc.o)
 .ARM.attributes
                0x000008d5       0x39 /afs/localcell/cm/gv2.6/sysname/pkg.@sys/qct/software/llvm/release/arm/3.5.2.4/tools/lib32/lib/libc.a(vfprintf.o)
 .ARM.attributes
                0x0000090e       0x39 /afs/localcell/cm/gv2.6/sysname/pkg.@sys/qct/software/llvm/release/arm/3.5.2.4/tools/lib32/lib/libc.a(memchr.o)
 .ARM.attributes
                0x00000947       0x39 /afs/localcell/cm/gv2.6/sysname/pkg.@sys/qct/software/llvm/release/arm/3.5.2.4/tools/lib32/lib/libc.a(memset.o)
 .ARM.attributes
                0x00000980       0x39 /afs/localcell/cm/gv2.6/sysname/pkg.@sys/qct/software/llvm/release/arm/3.5.2.4/tools/lib32/lib/libc.a(strerror.o)
 .ARM.attributes
                0x000009b9       0x39 /afs/localcell/cm/gv2.6/sysname/pkg.@sys/qct/software/llvm/release/arm/3.5.2.4/tools/lib32/lib/libc.a(__lctrans.o)
 .ARM.attributes
                0x000009f2       0x39 /afs/localcell/cm/gv2.6/sysname/pkg.@sys/qct/software/llvm/release/arm/3.5.2.4/tools/lib32/lib/libc.a(frexpl.o)
 .ARM.attributes
                0x00000a2b       0x39 /afs/localcell/cm/gv2.6/sysname/pkg.@sys/qct/software/llvm/release/arm/3.5.2.4/tools/lib32/lib/libc.a(wctomb.o)
 .ARM.attributes
                0x00000a64       0x39 /afs/localcell/cm/gv2.6/sysname/pkg.@sys/qct/software/llvm/release/arm/3.5.2.4/tools/lib32/lib/libc.a(__lockfile.o)
 .ARM.attributes
                0x00000a9d       0x39 /afs/localcell/cm/gv2.6/sysname/pkg.@sys/qct/software/llvm/release/arm/3.5.2.4/tools/lib32/lib/libc.a(fwrite.o)
 .ARM.attributes
                0x00000ad6       0x39 /afs/localcell/cm/gv2.6/sysname/pkg.@sys/qct/software/llvm/release/arm/3.5.2.4/tools/lib32/lib/libc.a(__wait.o)
 .ARM.attributes
                0x00000b0f       0x1f /afs/localcell/cm/gv2.6/sysname/pkg.@sys/qct/software/llvm/release/arm/3.5.2.4/tools/lib32/lib/libc.a(syscall.o)
 .ARM.attributes
                0x00000b2e       0x39 /afs/localcell/cm/gv2.6/sysname/pkg.@sys/qct/software/llvm/release/arm/3.5.2.4/tools/lib32/lib/libc.a(frexp.o)
 .ARM.attributes
                0x00000b67       0x39 /afs/localcell/cm/gv2.6/sysname/pkg.@sys/qct/software/llvm/release/arm/3.5.2.4/tools/lib32/lib/libc.a(wcrtomb.o)
 .ARM.attributes
                0x00000ba0       0x39 /afs/localcell/cm/gv2.6/sysname/pkg.@sys/qct/software/llvm/release/arm/3.5.2.4/tools/lib32/lib/libc.a(__towrite.o)
 .ARM.attributes
                0x00000bd9       0x39 /afs/localcell/cm/gv2.6/sysname/pkg.@sys/qct/software/llvm/release/arm/3.5.2.4/tools/lib32/lib/libc.a(__stdio_exit.o)
 .ARM.attributes
                0x00000c12       0x39 /afs/localcell/cm/gv2.6/sysname/pkg.@sys/qct/software/llvm/release/arm/3.5.2.4/tools/lib32/lib/libc.a(__lock.o)
 .ARM.attributes
                0x00000c4b       0x2b /afs/localcell/cm/gv2.6/sysname/pkg.@sys/qct/software/llvm/release/arm/3.5.2.4/lib/clang/3.5.2/lib/linux/libclang_rt.builtins-arm.a(aeabi_dcmp.S.o)
 .ARM.attributes
                0x00000c76       0x2b /afs/localcell/cm/gv2.6/sysname/pkg.@sys/qct/software/llvm/release/arm/3.5.2.4/lib/clang/3.5.2/lib/linux/libclang_rt.builtins-arm.a(aeabi_memcpy.S.o)
 .ARM.attributes
                0x00000ca1       0x2b /afs/localcell/cm/gv2.6/sysname/pkg.@sys/qct/software/llvm/release/arm/3.5.2.4/lib/clang/3.5.2/lib/linux/libclang_rt.builtins-arm.a(aeabi_memset.S.o)
 .ARM.attributes
                0x00000ccc       0x2b /afs/localcell/cm/gv2.6/sysname/pkg.@sys/qct/software/llvm/release/arm/3.5.2.4/lib/clang/3.5.2/lib/linux/libclang_rt.builtins-arm.a(aeabi_uldivmod.S.o)
 .ARM.attributes
                0x00000cf7       0x41 /afs/localcell/cm/gv2.6/sysname/pkg.@sys/qct/software/llvm/release/arm/3.5.2.4/lib/clang/3.5.2/lib/linux/libclang_rt.builtins-arm.a(comparedf2.c.o)
 .ARM.attributes
                0x00000d38       0x41 /afs/localcell/cm/gv2.6/sysname/pkg.@sys/qct/software/llvm/release/arm/3.5.2.4/lib/clang/3.5.2/lib/linux/libclang_rt.builtins-arm.a(divdf3.c.o)
 .ARM.attributes
                0x00000d79       0x41 /afs/localcell/cm/gv2.6/sysname/pkg.@sys/qct/software/llvm/release/arm/3.5.2.4/lib/clang/3.5.2/lib/linux/libclang_rt.builtins-arm.a(fixunsdfsi.c.o)
 .ARM.attributes
                0x00000dba       0x41 /afs/localcell/cm/gv2.6/sysname/pkg.@sys/qct/software/llvm/release/arm/3.5.2.4/lib/clang/3.5.2/lib/linux/libclang_rt.builtins-arm.a(floatunsidf.c.o)
 .ARM.attributes
                0x00000dfb       0x41 /afs/localcell/cm/gv2.6/sysname/pkg.@sys/qct/software/llvm/release/arm/3.5.2.4/lib/clang/3.5.2/lib/linux/libclang_rt.builtins-arm.a(muldf3.c.o)
 .ARM.attributes
                0x00000e3c       0x41 /afs/localcell/cm/gv2.6/sysname/pkg.@sys/qct/software/llvm/release/arm/3.5.2.4/lib/clang/3.5.2/lib/linux/libclang_rt.builtins-arm.a(udivmoddi4.c.o)
 .ARM.attributes
                0x00000e7d       0x41 /afs/localcell/cm/gv2.6/sysname/pkg.@sys/qct/software/llvm/release/arm/3.5.2.4/lib/clang/3.5.2/lib/linux/libclang_rt.builtins-arm.a(udivsi3.c.o)
 .ARM.attributes
                0x00000ebe       0x41 /afs/localcell/cm/gv2.6/sysname/pkg.@sys/qct/software/llvm/release/arm/3.5.2.4/lib/clang/3.5.2/lib/linux/libclang_rt.builtins-arm.a(umoddi3.c.o)
 .ARM.attributes
                0x00000eff       0x41 /afs/localcell/cm/gv2.6/sysname/pkg.@sys/qct/software/llvm/release/arm/3.5.2.4/lib/clang/3.5.2/lib/linux/libclang_rt.builtins-arm.a(umodsi3.c.o)
 .ARM.attributes
                0x00000f40       0x37 /local/mnt/workspace/CRMBuilds/TZ.BF.4.0.3.c1-00005-M8996AAAAANAZT-1_20170110_230814/b/HK11/trustzone_images/apps/securemsm/trustzone/qsapps/secure_ui_sample/layouts/build/secure_ui_sample/scorpion/IADAANAA/secure_ui_layout.lib(layout_8996_fluid.o)
 .ARM.attributes
                0x00000f77       0x37 /local/mnt/workspace/CRMBuilds/TZ.BF.4.0.3.c1-00005-M8996AAAAANAZT-1_20170110_230814/b/HK11/trustzone_images/core/kernel/libstd/build/secure_ui_sample/scorpion/IADAANAA/libstd.lib(secure_memset.o)
 .ARM.attributes
                0x00000fae       0x37 /local/mnt/workspace/CRMBuilds/TZ.BF.4.0.3.c1-00005-M8996AAAAANAZT-1_20170110_230814/b/HK11/trustzone_images/core/securemsm/sse/SecureTouch/layout/build/secure_ui_sample/scorpion/IADAANAA/sklayout.lib(layoutUtils.o)
 .ARM.attributes
                0x00000fe5       0x37 /local/mnt/workspace/CRMBuilds/TZ.BF.4.0.3.c1-00005-M8996AAAAANAZT-1_20170110_230814/b/HK11/trustzone_images/core/securemsm/sse/qsee/SecureDisplay/libgd/build/secure_ui_sample/scorpion/IADAANAA/libgd.lib(gd.o)
 .ARM.attributes
                0x0000101c       0x37 /local/mnt/workspace/CRMBuilds/TZ.BF.4.0.3.c1-00005-M8996AAAAANAZT-1_20170110_230814/b/HK11/trustzone_images/core/securemsm/sse/qsee/SecureDisplay/libgd/build/secure_ui_sample/scorpion/IADAANAA/libgd.lib(gd_color.o)
 .ARM.attributes
                0x00001053       0x37 /local/mnt/workspace/CRMBuilds/TZ.BF.4.0.3.c1-00005-M8996AAAAANAZT-1_20170110_230814/b/HK11/trustzone_images/core/securemsm/sse/qsee/SecureDisplay/libgd/build/secure_ui_sample/scorpion/IADAANAA/libgd.lib(gd_security.o)
 .ARM.attributes
                0x0000108a       0x37 /local/mnt/workspace/CRMBuilds/TZ.BF.4.0.3.c1-00005-M8996AAAAANAZT-1_20170110_230814/b/HK11/trustzone_images/core/securemsm/sse/qsee/SecureDisplay/libgd/build/secure_ui_sample/scorpion/IADAANAA/libgd.lib(gdtables.o)
 .ARM.attributes
                0x000010c1       0x37 /local/mnt/workspace/CRMBuilds/TZ.BF.4.0.3.c1-00005-M8996AAAAANAZT-1_20170110_230814/b/HK11/trustzone_images/core/securemsm/sse/qsee/SecureDisplay/libpng/build/secure_ui_sample/scorpion/IADAANAA/libpng.lib(png.o)
 .ARM.attributes
                0x000010f8       0x37 /local/mnt/workspace/CRMBuilds/TZ.BF.4.0.3.c1-00005-M8996AAAAANAZT-1_20170110_230814/b/HK11/trustzone_images/core/securemsm/sse/qsee/SecureDisplay/libpng/build/secure_ui_sample/scorpion/IADAANAA/libpng.lib(pngerror.o)
 .ARM.attributes
                0x0000112f       0x37 /local/mnt/workspace/CRMBuilds/TZ.BF.4.0.3.c1-00005-M8996AAAAANAZT-1_20170110_230814/b/HK11/trustzone_images/core/securemsm/sse/qsee/SecureDisplay/libpng/build/secure_ui_sample/scorpion/IADAANAA/libpng.lib(pngget.o)
 .ARM.attributes
                0x00001166       0x37 /local/mnt/workspace/CRMBuilds/TZ.BF.4.0.3.c1-00005-M8996AAAAANAZT-1_20170110_230814/b/HK11/trustzone_images/core/securemsm/sse/qsee/SecureDisplay/libpng/build/secure_ui_sample/scorpion/IADAANAA/libpng.lib(pngmem.o)
 .ARM.attributes
                0x0000119d       0x37 /local/mnt/workspace/CRMBuilds/TZ.BF.4.0.3.c1-00005-M8996AAAAANAZT-1_20170110_230814/b/HK11/trustzone_images/core/securemsm/sse/qsee/SecureDisplay/libpng/build/secure_ui_sample/scorpion/IADAANAA/libpng.lib(pngread.o)
 .ARM.attributes
                0x000011d4       0x37 /local/mnt/workspace/CRMBuilds/TZ.BF.4.0.3.c1-00005-M8996AAAAANAZT-1_20170110_230814/b/HK11/trustzone_images/core/securemsm/sse/qsee/SecureDisplay/libpng/build/secure_ui_sample/scorpion/IADAANAA/libpng.lib(pngrio.o)
 .ARM.attributes
                0x0000120b       0x37 /local/mnt/workspace/CRMBuilds/TZ.BF.4.0.3.c1-00005-M8996AAAAANAZT-1_20170110_230814/b/HK11/trustzone_images/core/securemsm/sse/qsee/SecureDisplay/libpng/build/secure_ui_sample/scorpion/IADAANAA/libpng.lib(pngrutil.o)
 .ARM.attributes
                0x00001242       0x37 /local/mnt/workspace/CRMBuilds/TZ.BF.4.0.3.c1-00005-M8996AAAAANAZT-1_20170110_230814/b/HK11/trustzone_images/core/securemsm/sse/qsee/SecureDisplay/libpng/build/secure_ui_sample/scorpion/IADAANAA/libpng.lib(pngset.o)
 .ARM.attributes
                0x00001279       0x37 /local/mnt/workspace/CRMBuilds/TZ.BF.4.0.3.c1-00005-M8996AAAAANAZT-1_20170110_230814/b/HK11/trustzone_images/core/securemsm/sse/qsee/SecureDisplay/zlib/build/secure_ui_sample/scorpion/IADAANAA/zlib.lib(crc32.o)
 .ARM.attributes
                0x000012b0       0x37 /local/mnt/workspace/CRMBuilds/TZ.BF.4.0.3.c1-00005-M8996AAAAANAZT-1_20170110_230814/b/HK11/trustzone_images/core/securemsm/sse/qsee/SecureDisplay/zlib/build/secure_ui_sample/scorpion/IADAANAA/zlib.lib(inflate.o)
 .ARM.attributes
                0x000012e7       0x37 /local/mnt/workspace/CRMBuilds/TZ.BF.4.0.3.c1-00005-M8996AAAAANAZT-1_20170110_230814/b/HK11/trustzone_images/core/securemsm/sse/qsee/SecureDisplay/zlib/build/secure_ui_sample/scorpion/IADAANAA/zlib.lib(inftrees.o)
 .ARM.attributes
                0x0000131e       0x37 /local/mnt/workspace/CRMBuilds/TZ.BF.4.0.3.c1-00005-M8996AAAAANAZT-1_20170110_230814/b/HK11/trustzone_images/core/securemsm/sse/qsee/SecureDisplay/zlib/build/secure_ui_sample/scorpion/IADAANAA/zlib.lib(zutil.o)
 .ARM.attributes
                0x00001355       0x37 /local/mnt/workspace/CRMBuilds/TZ.BF.4.0.3.c1-00005-M8996AAAAANAZT-1_20170110_230814/b/HK11/trustzone_images/core/securemsm/sse/qsee/SecureDisplay/zlib/build/secure_ui_sample/scorpion/IADAANAA/zlib.lib(adler32.o)
 .ARM.attributes
                0x0000138c       0x37 /local/mnt/workspace/CRMBuilds/TZ.BF.4.0.3.c1-00005-M8996AAAAANAZT-1_20170110_230814/b/HK11/trustzone_images/core/securemsm/sse/qsee/SecureDisplay/zlib/build/secure_ui_sample/scorpion/IADAANAA/zlib.lib(inffast.o)
 .ARM.attributes
                0x000013c3       0x37 /local/mnt/workspace/CRMBuilds/TZ.BF.4.0.3.c1-00005-M8996AAAAANAZT-1_20170110_230814/b/HK11/trustzone_images/core/securemsm/sse/qsee/SecureTouch/drTs/lib/build/secure_ui_sample/scorpion/IADAANAA/touch_lib.lib(01_open.o)
 .ARM.attributes
                0x000013fa       0x37 /local/mnt/workspace/CRMBuilds/TZ.BF.4.0.3.c1-00005-M8996AAAAANAZT-1_20170110_230814/b/HK11/trustzone_images/core/securemsm/sse/qsee/SecureTouch/drTs/lib/build/secure_ui_sample/scorpion/IADAANAA/touch_lib.lib(02_close.o)
 .ARM.attributes
                0x00001431       0x37 /local/mnt/workspace/CRMBuilds/TZ.BF.4.0.3.c1-00005-M8996AAAAANAZT-1_20170110_230814/b/HK11/trustzone_images/core/securemsm/sse/qsee/SecureTouch/drTs/lib/build/secure_ui_sample/scorpion/IADAANAA/touch_lib.lib(03_getData.o)
 .ARM.attributes
                0x00001468       0x37 /local/mnt/workspace/CRMBuilds/TZ.BF.4.0.3.c1-00005-M8996AAAAANAZT-1_20170110_230814/b/HK11/trustzone_images/core/securemsm/trustzone/qsapps/libs/applib/common_applib/build/secure_ui_sample/scorpion/IADAANAA/tzapp_entrylib.lib(gpPersistObjCommon.o)
 .ARM.attributes
                0x0000149f       0x37 /local/mnt/workspace/CRMBuilds/TZ.BF.4.0.3.c1-00005-M8996AAAAANAZT-1_20170110_230814/b/HK11/trustzone_images/core/securemsm/trustzone/qsapps/libs/applib/common_applib/build/secure_ui_sample/scorpion/IADAANAA/tzapp_entrylib.lib(gpPersistentObjects.o)
 .ARM.attributes
                0x000014d6       0x37 /local/mnt/workspace/CRMBuilds/TZ.BF.4.0.3.c1-00005-M8996AAAAANAZT-1_20170110_230814/b/HK11/trustzone_images/core/securemsm/trustzone/qsapps/libs/applib/common_applib/build/secure_ui_sample/scorpion/IADAANAA/tzapp_entrylib.lib(gpPersistObjData.o)
 .ARM.attributes
                0x0000150d       0x37 /local/mnt/workspace/CRMBuilds/TZ.BF.4.0.3.c1-00005-M8996AAAAANAZT-1_20170110_230814/b/HK11/trustzone_images/core/securemsm/trustzone/qsapps/libs/applib/common_applib/build/secure_ui_sample/scorpion/IADAANAA/tzapp_entrylib.lib(gpPersistObjHandler.o)
 .ARM.attributes
                0x00001544       0x37 /local/mnt/workspace/CRMBuilds/TZ.BF.4.0.3.c1-00005-M8996AAAAANAZT-1_20170110_230814/b/HK11/trustzone_images/core/securemsm/trustzone/qsapps/libs/applib/common_applib/build/secure_ui_sample/scorpion/IADAANAA/tzapp_entrylib.lib(gpPersistObjIndex.o)
 .ARM.attributes
                0x0000157b       0x37 /local/mnt/workspace/CRMBuilds/TZ.BF.4.0.3.c1-00005-M8996AAAAANAZT-1_20170110_230814/b/HK11/trustzone_images/core/securemsm/trustzone/qsapps/libs/applib/common_applib/build/secure_ui_sample/scorpion/IADAANAA/tzapp_entrylib.lib(gpPersistObjVersion.o)
 .ARM.attributes
                0x000015b2       0x37 /local/mnt/workspace/CRMBuilds/TZ.BF.4.0.3.c1-00005-M8996AAAAANAZT-1_20170110_230814/b/HK11/trustzone_images/core/securemsm/trustzone/qsapps/libs/applib/common_applib/build/secure_ui_sample/scorpion/IADAANAA/tzapp_entrylib.lib(gpPersistObjCrypto.o)
 .ARM.attributes
                0x000015e9       0x37 /local/mnt/workspace/CRMBuilds/TZ.BF.4.0.3.c1-00005-M8996AAAAANAZT-1_20170110_230814/b/HK11/trustzone_images/core/securemsm/trustzone/qsapps/libs/applib/common_applib/build/secure_ui_sample/scorpion/IADAANAA/tzapp_entrylib.lib(gpPersistObjFileIO.o)
 .ARM.attributes
                0x00001620       0x37 /local/mnt/workspace/CRMBuilds/TZ.BF.4.0.3.c1-00005-M8996AAAAANAZT-1_20170110_230814/b/HK11/trustzone_images/core/securemsm/trustzone/qsapps/libs/applib/common_applib/build/secure_ui_sample/scorpion/IADAANAA/tzapp_entrylib.lib(gpFileService.o)
 .ARM.attributes
                0x00001657       0x37 /local/mnt/workspace/CRMBuilds/TZ.BF.4.0.3.c1-00005-M8996AAAAANAZT-1_20170110_230814/b/HK11/trustzone_images/core/securemsm/trustzone/qsapps/libs/applib/qsee/build/secure_ui_sample/scorpion/IADAANAA/tzapp_entrylib.lib(qsee_core_shim.o)
 .ARM.attributes
                0x0000168e       0x37 /local/mnt/workspace/CRMBuilds/TZ.BF.4.0.3.c1-00005-M8996AAAAANAZT-1_20170110_230814/b/HK11/trustzone_images/core/securemsm/trustzone/qsapps/libs/applib/qsee/build/secure_ui_sample/scorpion/IADAANAA/tzapp_entrylib.lib(stor.o)
 .ARM.attributes
                0x000016c5       0x37 /local/mnt/workspace/CRMBuilds/TZ.BF.4.0.3.c1-00005-M8996AAAAANAZT-1_20170110_230814/b/HK11/trustzone_images/core/securemsm/trustzone/qsapps/libs/applib/qsee/build/secure_ui_sample/scorpion/IADAANAA/tzapp_entrylib.lib(stor_gpt.o)
 .ARM.attributes
                0x000016fc       0x37 /local/mnt/workspace/CRMBuilds/TZ.BF.4.0.3.c1-00005-M8996AAAAANAZT-1_20170110_230814/b/HK11/trustzone_images/core/securemsm/trustzone/qsapps/libs/applib/qsee/build/secure_ui_sample/scorpion/IADAANAA/tzapp_entrylib.lib(stor_rpmbw.o)
 .ARM.attributes
                0x00001733       0x37 /local/mnt/workspace/CRMBuilds/TZ.BF.4.0.3.c1-00005-M8996AAAAANAZT-1_20170110_230814/b/HK11/trustzone_images/core/securemsm/trustzone/qsapps/libs/applib/qsee/build/secure_ui_sample/scorpion/IADAANAA/tzapp_entrylib.lib(qsee_cfg_prop_shim.o)
 .ARM.attributes
                0x0000176a       0x37 /local/mnt/workspace/CRMBuilds/TZ.BF.4.0.3.c1-00005-M8996AAAAANAZT-1_20170110_230814/b/HK11/trustzone_images/core/securemsm/trustzone/qsapps/libs/applib/qsee/build/secure_ui_sample/scorpion/IADAANAA/tzapp_entrylib.lib(qsee_cipher.o)
 .ARM.attributes
                0x000017a1       0x37 /local/mnt/workspace/CRMBuilds/TZ.BF.4.0.3.c1-00005-M8996AAAAANAZT-1_20170110_230814/b/HK11/trustzone_images/core/securemsm/trustzone/qsapps/libs/applib/qsee/build/secure_ui_sample/scorpion/IADAANAA/tzapp_entrylib.lib(qsee_hmac.o)
 .ARM.attributes
                0x000017d8       0x37 /local/mnt/workspace/CRMBuilds/TZ.BF.4.0.3.c1-00005-M8996AAAAANAZT-1_20170110_230814/b/HK11/trustzone_images/core/securemsm/trustzone/qsapps/libs/applib/qsee/build/secure_ui_sample/scorpion/IADAANAA/tzapp_entrylib.lib(gpPersistObjPanic.o)
 .ARM.attributes
                0x0000180f       0x39 /afs/localcell/cm/gv2.6/sysname/pkg.@sys/qct/software/llvm/release/arm/3.5.2.4/tools/lib32/lib/libc.a(abort.o)
 .ARM.attributes
                0x00001848       0x39 /afs/localcell/cm/gv2.6/sysname/pkg.@sys/qct/software/llvm/release/arm/3.5.2.4/tools/lib32/lib/libc.a(atan2.o)
 .ARM.attributes
                0x00001881       0x39 /afs/localcell/cm/gv2.6/sysname/pkg.@sys/qct/software/llvm/release/arm/3.5.2.4/tools/lib32/lib/libc.a(cos.o)
 .ARM.attributes
                0x000018ba       0x39 /afs/localcell/cm/gv2.6/sysname/pkg.@sys/qct/software/llvm/release/arm/3.5.2.4/tools/lib32/lib/libc.a(fabs.o)
 .ARM.attributes
                0x000018f3       0x39 /afs/localcell/cm/gv2.6/sysname/pkg.@sys/qct/software/llvm/release/arm/3.5.2.4/tools/lib32/lib/libc.a(floor.o)
 .ARM.attributes
                0x0000192c       0x39 /afs/localcell/cm/gv2.6/sysname/pkg.@sys/qct/software/llvm/release/arm/3.5.2.4/tools/lib32/lib/libc.a(sin.o)
 .ARM.attributes
                0x00001965       0x39 /afs/localcell/cm/gv2.6/sysname/pkg.@sys/qct/software/llvm/release/arm/3.5.2.4/tools/lib32/lib/libc.a(sqrt.o)
 .ARM.attributes
                0x0000199e       0x39 /afs/localcell/cm/gv2.6/sysname/pkg.@sys/qct/software/llvm/release/arm/3.5.2.4/tools/lib32/lib/libc.a(raise.o)
 .ARM.attributes
                0x000019d7       0x39 /afs/localcell/cm/gv2.6/sysname/pkg.@sys/qct/software/llvm/release/arm/3.5.2.4/tools/lib32/lib/libc.a(fflush.o)
 .ARM.attributes
                0x00001a10       0x39 /afs/localcell/cm/gv2.6/sysname/pkg.@sys/qct/software/llvm/release/arm/3.5.2.4/tools/lib32/lib/libc.a(stderr.o)
 .ARM.attributes
                0x00001a49       0x39 /afs/localcell/cm/gv2.6/sysname/pkg.@sys/qct/software/llvm/release/arm/3.5.2.4/tools/lib32/lib/libc.a(memcmp.o)
 .ARM.attributes
                0x00001a82       0x39 /afs/localcell/cm/gv2.6/sysname/pkg.@sys/qct/software/llvm/release/arm/3.5.2.4/tools/lib32/lib/libc.a(syscall_ret.o)
 .ARM.attributes
                0x00001abb       0x39 /afs/localcell/cm/gv2.6/sysname/pkg.@sys/qct/software/llvm/release/arm/3.5.2.4/tools/lib32/lib/libc.a(__cos.o)
 .ARM.attributes
                0x00001af4       0x39 /afs/localcell/cm/gv2.6/sysname/pkg.@sys/qct/software/llvm/release/arm/3.5.2.4/tools/lib32/lib/libc.a(__rem_pio2.o)
 .ARM.attributes
                0x00001b2d       0x39 /afs/localcell/cm/gv2.6/sysname/pkg.@sys/qct/software/llvm/release/arm/3.5.2.4/tools/lib32/lib/libc.a(__rem_pio2_large.o)
 .ARM.attributes
                0x00001b66       0x39 /afs/localcell/cm/gv2.6/sysname/pkg.@sys/qct/software/llvm/release/arm/3.5.2.4/tools/lib32/lib/libc.a(__sin.o)
 .ARM.attributes
                0x00001b9f       0x39 /afs/localcell/cm/gv2.6/sysname/pkg.@sys/qct/software/llvm/release/arm/3.5.2.4/tools/lib32/lib/libc.a(atan.o)
 .ARM.attributes
                0x00001bd8       0x39 /afs/localcell/cm/gv2.6/sysname/pkg.@sys/qct/software/llvm/release/arm/3.5.2.4/tools/lib32/lib/libc.a(scalbn.o)
 .ARM.attributes
                0x00001c11       0x39 /afs/localcell/cm/gv2.6/sysname/pkg.@sys/qct/software/llvm/release/arm/3.5.2.4/tools/lib32/lib/libc.a(block.o)
 .ARM.attributes
                0x00001c4a       0x39 /afs/localcell/cm/gv2.6/sysname/pkg.@sys/qct/software/llvm/release/arm/3.5.2.4/tools/lib32/lib/libc.a(__stdio_close.o)
 .ARM.attributes
                0x00001c83       0x39 /afs/localcell/cm/gv2.6/sysname/pkg.@sys/qct/software/llvm/release/arm/3.5.2.4/tools/lib32/lib/libc.a(__stdio_seek.o)
 .ARM.attributes
                0x00001cbc       0x39 /afs/localcell/cm/gv2.6/sysname/pkg.@sys/qct/software/llvm/release/arm/3.5.2.4/tools/lib32/lib/libc.a(__stdio_write.o)
 .ARM.attributes
                0x00001cf5       0x39 /afs/localcell/cm/gv2.6/sysname/pkg.@sys/qct/software/llvm/release/arm/3.5.2.4/tools/lib32/lib/libc.a(__syscall_cp.o)
 .ARM.attributes
                0x00001d2e       0x39 /afs/localcell/cm/gv2.6/sysname/pkg.@sys/qct/software/llvm/release/arm/3.5.2.4/tools/lib32/lib/libc.a(pthread_cleanup_push.o)
 .ARM.attributes
                0x00001d67       0x41 /afs/localcell/cm/gv2.6/sysname/pkg.@sys/qct/software/llvm/release/arm/3.5.2.4/lib/clang/3.5.2/lib/linux/libclang_rt.builtins-arm.a(adddf3.c.o)
 .ARM.attributes
                0x00001da8       0x41 /afs/localcell/cm/gv2.6/sysname/pkg.@sys/qct/software/llvm/release/arm/3.5.2.4/lib/clang/3.5.2/lib/linux/libclang_rt.builtins-arm.a(divsf3.c.o)
 .ARM.attributes
                0x00001de9       0x41 /afs/localcell/cm/gv2.6/sysname/pkg.@sys/qct/software/llvm/release/arm/3.5.2.4/lib/clang/3.5.2/lib/linux/libclang_rt.builtins-arm.a(extendsfdf2.c.o)
 .ARM.attributes
                0x00001e2a       0x41 /afs/localcell/cm/gv2.6/sysname/pkg.@sys/qct/software/llvm/release/arm/3.5.2.4/lib/clang/3.5.2/lib/linux/libclang_rt.builtins-arm.a(fixdfsi.c.o)
 .ARM.attributes
                0x00001e6b       0x41 /afs/localcell/cm/gv2.6/sysname/pkg.@sys/qct/software/llvm/release/arm/3.5.2.4/lib/clang/3.5.2/lib/linux/libclang_rt.builtins-arm.a(floatsidf.c.o)
 .ARM.attributes
                0x00001eac       0x41 /afs/localcell/cm/gv2.6/sysname/pkg.@sys/qct/software/llvm/release/arm/3.5.2.4/lib/clang/3.5.2/lib/linux/libclang_rt.builtins-arm.a(floatsisf.c.o)
 .ARM.attributes
                0x00001eed       0x37 /local/mnt/workspace/CRMBuilds/TZ.BF.4.0.3.c1-00005-M8996AAAAANAZT-1_20170110_230814/b/HK11/trustzone_images/core/kernel/libstd/build/secure_ui_sample/scorpion/IADAANAA/libstd.lib(timesafe_memcmp.o)
 .ARM.attributes
                0x00001f24       0x37 /local/mnt/workspace/CRMBuilds/TZ.BF.4.0.3.c1-00005-M8996AAAAANAZT-1_20170110_230814/b/HK11/trustzone_images/core/securemsm/sse/SecureTouch/controller/build/secure_ui_sample/scorpion/IADAANAA/drts_controller_msm8996.lib(atmel_mxt_ts.o)
 .ARM.attributes
                0x00001f5b       0x37 /local/mnt/workspace/CRMBuilds/TZ.BF.4.0.3.c1-00005-M8996AAAAANAZT-1_20170110_230814/b/HK11/trustzone_images/core/securemsm/sse/SecureTouch/controller/build/secure_ui_sample/scorpion/IADAANAA/drts_controller_msm8996.lib(synaptics_ts.o)
 .ARM.attributes
                0x00001f92       0x37 /local/mnt/workspace/CRMBuilds/TZ.BF.4.0.3.c1-00005-M8996AAAAANAZT-1_20170110_230814/b/HK11/trustzone_images/core/securemsm/sse/log/build/secure_ui_sample/scorpion/IADAANAA/sselog.lib(sselog.o)
 .ARM.attributes
                0x00001fc9       0x37 /local/mnt/workspace/CRMBuilds/TZ.BF.4.0.3.c1-00005-M8996AAAAANAZT-1_20170110_230814/b/HK11/trustzone_images/core/securemsm/sse/qsee/SecureTouch/drTs/controller/build/secure_ui_sample/scorpion/IADAANAA/touch_controller_i2c_msm8996.lib(atmel_mxt_ts_i2c.o)
 .ARM.attributes
                0x00002000       0x37 /local/mnt/workspace/CRMBuilds/TZ.BF.4.0.3.c1-00005-M8996AAAAANAZT-1_20170110_230814/b/HK11/trustzone_images/core/securemsm/sse/qsee/SecureTouch/drTs/controller/build/secure_ui_sample/scorpion/IADAANAA/touch_controller_i2c_msm8996.lib(synaptics_ts_i2c.o)
 .ARM.attributes
                0x00002037       0x37 /local/mnt/workspace/CRMBuilds/TZ.BF.4.0.3.c1-00005-M8996AAAAANAZT-1_20170110_230814/b/HK11/trustzone_images/core/securemsm/trustzone/qsapps/libs/applib/qsee/build/secure_ui_sample/scorpion/IADAANAA/tzapp_entrylib.lib(qsee_i2c.o)
 .ARM.attributes
                0x0000206e       0x39 /afs/localcell/cm/gv2.6/sysname/pkg.@sys/qct/software/llvm/release/arm/3.5.2.4/tools/lib32/lib/libc.a(snprintf.o)

.comment        0x00000000       0x44
 .comment       0x00000000       0x23 /local/mnt/workspace/CRMBuilds/TZ.BF.4.0.3.c1-00005-M8996AAAAANAZT-1_20170110_230814/b/HK11/trustzone_images/apps/securemsm/trustzone/qsapps/secure_ui_sample/build/secure_ui_sample/scorpion/IADAANAA/app_main.o
                                 0x24 (size before relaxing)
 .comment       0x00000000       0x24 /local/mnt/workspace/CRMBuilds/TZ.BF.4.0.3.c1-00005-M8996AAAAANAZT-1_20170110_230814/b/HK11/trustzone_images/apps/securemsm/trustzone/qsapps/secure_ui_sample/build/secure_ui_sample/scorpion/IADAANAA/metadata.o
 .comment       0x00000000       0x24 /local/mnt/workspace/CRMBuilds/TZ.BF.4.0.3.c1-00005-M8996AAAAANAZT-1_20170110_230814/b/HK11/trustzone_images/core/kernel/libstd/build/secure_ui_sample/scorpion/IADAANAA/libstd.lib(memscpy.o)
 .comment       0x00000000       0x24 /local/mnt/workspace/CRMBuilds/TZ.BF.4.0.3.c1-00005-M8996AAAAANAZT-1_20170110_230814/b/HK11/trustzone_images/core/kernel/libstd/build/secure_ui_sample/scorpion/IADAANAA/libstd.lib(strlcat.o)
 .comment       0x00000000       0x24 /local/mnt/workspace/CRMBuilds/TZ.BF.4.0.3.c1-00005-M8996AAAAANAZT-1_20170110_230814/b/HK11/trustzone_images/core/kernel/libstd/build/secure_ui_sample/scorpion/IADAANAA/libstd.lib(strlcpy.o)
 .comment       0x00000000       0x24 /local/mnt/workspace/CRMBuilds/TZ.BF.4.0.3.c1-00005-M8996AAAAANAZT-1_20170110_230814/b/HK11/trustzone_images/core/securemsm/sse/qsee/SecureUI/build/secure_ui_sample/scorpion/IADAANAA/secure_ui.lib(SecureUI.o)
 .comment       0x00000000       0x24 /local/mnt/workspace/CRMBuilds/TZ.BF.4.0.3.c1-00005-M8996AAAAANAZT-1_20170110_230814/b/HK11/trustzone_images/core/securemsm/sse/qsee/SecureUI/build/secure_ui_sample/scorpion/IADAANAA/secure_ui_tui.lib(qsee_tui_dialogs.o)
 .comment       0x00000000       0x24 /local/mnt/workspace/CRMBuilds/TZ.BF.4.0.3.c1-00005-M8996AAAAANAZT-1_20170110_230814/b/HK11/trustzone_images/core/securemsm/sse/qsee/SecureUI/build/secure_ui_sample/scorpion/IADAANAA/secure_ui_tui.lib(layout_manager.o)
 .comment       0x00000000       0x24 /local/mnt/workspace/CRMBuilds/TZ.BF.4.0.3.c1-00005-M8996AAAAANAZT-1_20170110_230814/b/HK11/trustzone_images/core/securemsm/sse/qsee/SecureUI/build/secure_ui_sample/scorpion/IADAANAA/secure_ui_tui.lib(secure_display_renderer.o)
 .comment       0x00000000       0x24 /local/mnt/workspace/CRMBuilds/TZ.BF.4.0.3.c1-00005-M8996AAAAANAZT-1_20170110_230814/b/HK11/trustzone_images/core/securemsm/sse/qsee/SecureUI/build/secure_ui_sample/scorpion/IADAANAA/secure_ui_tui.lib(font_manager.o)
 .comment       0x00000000       0x24 /local/mnt/workspace/CRMBuilds/TZ.BF.4.0.3.c1-00005-M8996AAAAANAZT-1_20170110_230814/b/HK11/trustzone_images/core/securemsm/sse/qsee/SecureUILib/lib/build/secure_ui_sample/scorpion/IADAANAA/secure_ui_lib.lib(SecureUILib.o)
 .comment       0x00000000       0x24 /local/mnt/workspace/CRMBuilds/TZ.BF.4.0.3.c1-00005-M8996AAAAANAZT-1_20170110_230814/b/HK11/trustzone_images/core/securemsm/sse/qsee/SecureUILib/lib/build/secure_ui_sample/scorpion/IADAANAA/secure_ui_lib.lib(01_startTouch.o)
 .comment       0x00000000       0x24 /local/mnt/workspace/CRMBuilds/TZ.BF.4.0.3.c1-00005-M8996AAAAANAZT-1_20170110_230814/b/HK11/trustzone_images/core/securemsm/sse/qsee/SecureUILib/lib/build/secure_ui_sample/scorpion/IADAANAA/secure_ui_lib.lib(02_processTouch.o)
 .comment       0x00000000       0x24 /local/mnt/workspace/CRMBuilds/TZ.BF.4.0.3.c1-00005-M8996AAAAANAZT-1_20170110_230814/b/HK11/trustzone_images/core/securemsm/sse/qsee/SecureUILib/lib/build/secure_ui_sample/scorpion/IADAANAA/secure_ui_lib.lib(03_stopTouch.o)
 .comment       0x00000000       0x24 /local/mnt/workspace/CRMBuilds/TZ.BF.4.0.3.c1-00005-M8996AAAAANAZT-1_20170110_230814/b/HK11/trustzone_images/core/securemsm/sse/qsee/SecureUILib/lib/build/secure_ui_sample/scorpion/IADAANAA/secure_ui_lib.lib(04_prepareRequest.o)
 .comment       0x00000000       0x24 /local/mnt/workspace/CRMBuilds/TZ.BF.4.0.3.c1-00005-M8996AAAAANAZT-1_20170110_230814/b/HK11/trustzone_images/core/securemsm/sse/qsee/SecureUILib/lib/build/secure_ui_sample/scorpion/IADAANAA/secure_ui_lib.lib(05_storeIndicator.o)
 .comment       0x00000000       0x24 /local/mnt/workspace/CRMBuilds/TZ.BF.4.0.3.c1-00005-M8996AAAAANAZT-1_20170110_230814/b/HK11/trustzone_images/core/securemsm/trustzone/qsapps/libs/applib/common_applib/build/secure_ui_sample/scorpion/IADAANAA/tzapp_entrylib.lib(common_applib.o)
 .comment       0x00000000       0x24 /local/mnt/workspace/CRMBuilds/TZ.BF.4.0.3.c1-00005-M8996AAAAANAZT-1_20170110_230814/b/HK11/trustzone_images/core/securemsm/trustzone/qsapps/libs/applib/proxy/build/secure_ui_sample/scorpion/IADAANAA/tzlib_proxy.lib(prxy_services.o)
 .comment       0x00000000       0x24 /local/mnt/workspace/CRMBuilds/TZ.BF.4.0.3.c1-00005-M8996AAAAANAZT-1_20170110_230814/b/HK11/trustzone_images/core/securemsm/trustzone/qsapps/libs/applib/proxy/build/secure_ui_sample/scorpion/IADAANAA/tzlib_proxy.lib(prxy_qsee_shim.o)
 .comment       0x00000000       0x24 /local/mnt/workspace/CRMBuilds/TZ.BF.4.0.3.c1-00005-M8996AAAAANAZT-1_20170110_230814/b/HK11/trustzone_images/core/securemsm/trustzone/qsapps/libs/applib/proxy/build/secure_ui_sample/scorpion/IADAANAA/tzlib_proxy.lib(prxy_ufdes.o)
 .comment       0x00000000       0x24 /local/mnt/workspace/CRMBuilds/TZ.BF.4.0.3.c1-00005-M8996AAAAANAZT-1_20170110_230814/b/HK11/trustzone_images/core/securemsm/trustzone/qsapps/libs/applib/proxy/build/secure_ui_sample/scorpion/IADAANAA/tzlib_proxy.lib(prxy_secmath.o)
 .comment       0x00000000       0x24 /local/mnt/workspace/CRMBuilds/TZ.BF.4.0.3.c1-00005-M8996AAAAANAZT-1_20170110_230814/b/HK11/trustzone_images/core/securemsm/trustzone/qsapps/libs/applib/proxy/build/secure_ui_sample/scorpion/IADAANAA/tzlib_proxy.lib(prxy_secrsa.o)
 .comment       0x00000000       0x24 /local/mnt/workspace/CRMBuilds/TZ.BF.4.0.3.c1-00005-M8996AAAAANAZT-1_20170110_230814/b/HK11/trustzone_images/core/securemsm/trustzone/qsapps/libs/applib/proxy/build/secure_ui_sample/scorpion/IADAANAA/tzlib_proxy.lib(prxy_ecc.o)
 .comment       0x00000000       0x24 /local/mnt/workspace/CRMBuilds/TZ.BF.4.0.3.c1-00005-M8996AAAAANAZT-1_20170110_230814/b/HK11/trustzone_images/core/securemsm/trustzone/qsapps/libs/applib/qsee/build/secure_ui_sample/scorpion/IADAANAA/tzapp_entrylib.lib(mink_shared_code.o)
 .comment       0x00000000       0x24 /local/mnt/workspace/CRMBuilds/TZ.BF.4.0.3.c1-00005-M8996AAAAANAZT-1_20170110_230814/b/HK11/trustzone_images/core/securemsm/trustzone/qsapps/libs/applib/qsee/build/secure_ui_sample/scorpion/IADAANAA/tzapp_entrylib.lib(qsee_env.o)
 .comment       0x00000000       0x24 /local/mnt/workspace/CRMBuilds/TZ.BF.4.0.3.c1-00005-M8996AAAAANAZT-1_20170110_230814/b/HK11/trustzone_images/core/securemsm/trustzone/qsapps/libs/applib/qsee/build/secure_ui_sample/scorpion/IADAANAA/tzapp_entrylib.lib(qsee_prng.o)
 .comment       0x00000000       0x24 /local/mnt/workspace/CRMBuilds/TZ.BF.4.0.3.c1-00005-M8996AAAAANAZT-1_20170110_230814/b/HK11/trustzone_images/core/securemsm/trustzone/qsapps/libs/applib/qsee/build/secure_ui_sample/scorpion/IADAANAA/tzapp_entrylib.lib(qsee_secdisp.o)
 .comment       0x00000000       0x24 /local/mnt/workspace/CRMBuilds/TZ.BF.4.0.3.c1-00005-M8996AAAAANAZT-1_20170110_230814/b/HK11/trustzone_images/core/securemsm/trustzone/qsapps/libs/applib/qsee/build/secure_ui_sample/scorpion/IADAANAA/tzapp_entrylib.lib(qsee_nsmem.o)
 .comment       0x00000000       0x24 /local/mnt/workspace/CRMBuilds/TZ.BF.4.0.3.c1-00005-M8996AAAAANAZT-1_20170110_230814/b/HK11/trustzone_images/core/securemsm/trustzone/qsapps/libs/applib/qsee/build/secure_ui_sample/scorpion/IADAANAA/tzapp_entrylib.lib(qsee_timer_shim.o)
 .comment       0x00000000       0x24 /local/mnt/workspace/CRMBuilds/TZ.BF.4.0.3.c1-00005-M8996AAAAANAZT-1_20170110_230814/b/HK11/trustzone_images/core/securemsm/trustzone/qsapps/libs/applib/qsee/build/secure_ui_sample/scorpion/IADAANAA/tzapp_entrylib.lib(qsee_hash.o)
 .comment       0x00000000       0x24 /local/mnt/workspace/CRMBuilds/TZ.BF.4.0.3.c1-00005-M8996AAAAANAZT-1_20170110_230814/b/HK11/trustzone_images/core/securemsm/trustzone/qsapps/libs/applib/qsee/build/secure_ui_sample/scorpion/IADAANAA/tzapp_entrylib.lib(qsee_shared_buffer.o)
 .comment       0x00000000       0x24 /local/mnt/workspace/CRMBuilds/TZ.BF.4.0.3.c1-00005-M8996AAAAANAZT-1_20170110_230814/b/HK11/trustzone_images/core/securemsm/trustzone/qsapps/libs/applib/qsee/build/secure_ui_sample/scorpion/IADAANAA/tzapp_entrylib.lib(qsee_appmessage.o)
 .comment       0x00000000       0x24 /local/mnt/workspace/CRMBuilds/TZ.BF.4.0.3.c1-00005-M8996AAAAANAZT-1_20170110_230814/b/HK11/trustzone_images/core/securemsm/trustzone/qsapps/libs/applib/qsee/build/secure_ui_sample/scorpion/IADAANAA/tzapp_entrylib.lib(sfs_api.o)
 .comment       0x00000000       0x24 /local/mnt/workspace/CRMBuilds/TZ.BF.4.0.3.c1-00005-M8996AAAAANAZT-1_20170110_230814/b/HK11/trustzone_images/core/securemsm/trustzone/qsapps/libs/applib/qsee/build/secure_ui_sample/scorpion/IADAANAA/tzapp_entrylib.lib(tzapp_lib_main.o)
 .comment       0x00000023       0x21 /afs/localcell/cm/gv2.6/sysname/pkg.@sys/qct/software/llvm/release/arm/3.5.2.4/tools/lib32/lib/libc.a(vsnprintf.o)
                                 0x22 (size before relaxing)
 .comment       0x00000000       0x22 /afs/localcell/cm/gv2.6/sysname/pkg.@sys/qct/software/llvm/release/arm/3.5.2.4/tools/lib32/lib/libc.a(strcmp.o)
 .comment       0x00000000       0x22 /afs/localcell/cm/gv2.6/sysname/pkg.@sys/qct/software/llvm/release/arm/3.5.2.4/tools/lib32/lib/libc.a(strlen.o)
 .comment       0x00000000       0x22 /afs/localcell/cm/gv2.6/sysname/pkg.@sys/qct/software/llvm/release/arm/3.5.2.4/tools/lib32/lib/libc.a(strncmp.o)
 .comment       0x00000000       0x22 /afs/localcell/cm/gv2.6/sysname/pkg.@sys/qct/software/llvm/release/arm/3.5.2.4/tools/lib32/lib/libc.a(__errno_location.o)
 .comment       0x00000000       0x22 /afs/localcell/cm/gv2.6/sysname/pkg.@sys/qct/software/llvm/release/arm/3.5.2.4/tools/lib32/lib/libc.a(libc.o)
 .comment       0x00000000       0x22 /afs/localcell/cm/gv2.6/sysname/pkg.@sys/qct/software/llvm/release/arm/3.5.2.4/tools/lib32/lib/libc.a(vfprintf.o)
 .comment       0x00000000       0x22 /afs/localcell/cm/gv2.6/sysname/pkg.@sys/qct/software/llvm/release/arm/3.5.2.4/tools/lib32/lib/libc.a(memchr.o)
 .comment       0x00000000       0x22 /afs/localcell/cm/gv2.6/sysname/pkg.@sys/qct/software/llvm/release/arm/3.5.2.4/tools/lib32/lib/libc.a(memset.o)
 .comment       0x00000000       0x22 /afs/localcell/cm/gv2.6/sysname/pkg.@sys/qct/software/llvm/release/arm/3.5.2.4/tools/lib32/lib/libc.a(strerror.o)
 .comment       0x00000000       0x22 /afs/localcell/cm/gv2.6/sysname/pkg.@sys/qct/software/llvm/release/arm/3.5.2.4/tools/lib32/lib/libc.a(__lctrans.o)
 .comment       0x00000000       0x22 /afs/localcell/cm/gv2.6/sysname/pkg.@sys/qct/software/llvm/release/arm/3.5.2.4/tools/lib32/lib/libc.a(frexpl.o)
 .comment       0x00000000       0x22 /afs/localcell/cm/gv2.6/sysname/pkg.@sys/qct/software/llvm/release/arm/3.5.2.4/tools/lib32/lib/libc.a(wctomb.o)
 .comment       0x00000000       0x22 /afs/localcell/cm/gv2.6/sysname/pkg.@sys/qct/software/llvm/release/arm/3.5.2.4/tools/lib32/lib/libc.a(__lockfile.o)
 .comment       0x00000000       0x22 /afs/localcell/cm/gv2.6/sysname/pkg.@sys/qct/software/llvm/release/arm/3.5.2.4/tools/lib32/lib/libc.a(fwrite.o)
 .comment       0x00000000       0x22 /afs/localcell/cm/gv2.6/sysname/pkg.@sys/qct/software/llvm/release/arm/3.5.2.4/tools/lib32/lib/libc.a(__wait.o)
 .comment       0x00000000       0x22 /afs/localcell/cm/gv2.6/sysname/pkg.@sys/qct/software/llvm/release/arm/3.5.2.4/tools/lib32/lib/libc.a(frexp.o)
 .comment       0x00000000       0x22 /afs/localcell/cm/gv2.6/sysname/pkg.@sys/qct/software/llvm/release/arm/3.5.2.4/tools/lib32/lib/libc.a(wcrtomb.o)
 .comment       0x00000000       0x22 /afs/localcell/cm/gv2.6/sysname/pkg.@sys/qct/software/llvm/release/arm/3.5.2.4/tools/lib32/lib/libc.a(__towrite.o)
 .comment       0x00000000       0x22 /afs/localcell/cm/gv2.6/sysname/pkg.@sys/qct/software/llvm/release/arm/3.5.2.4/tools/lib32/lib/libc.a(__stdio_exit.o)
 .comment       0x00000000       0x22 /afs/localcell/cm/gv2.6/sysname/pkg.@sys/qct/software/llvm/release/arm/3.5.2.4/tools/lib32/lib/libc.a(__lock.o)
 .comment       0x00000000       0x24 /afs/localcell/cm/gv2.6/sysname/pkg.@sys/qct/software/llvm/release/arm/3.5.2.4/lib/clang/3.5.2/lib/linux/libclang_rt.builtins-arm.a(comparedf2.c.o)
 .comment       0x00000000       0x24 /afs/localcell/cm/gv2.6/sysname/pkg.@sys/qct/software/llvm/release/arm/3.5.2.4/lib/clang/3.5.2/lib/linux/libclang_rt.builtins-arm.a(divdf3.c.o)
 .comment       0x00000000       0x24 /afs/localcell/cm/gv2.6/sysname/pkg.@sys/qct/software/llvm/release/arm/3.5.2.4/lib/clang/3.5.2/lib/linux/libclang_rt.builtins-arm.a(fixunsdfsi.c.o)
 .comment       0x00000000       0x24 /afs/localcell/cm/gv2.6/sysname/pkg.@sys/qct/software/llvm/release/arm/3.5.2.4/lib/clang/3.5.2/lib/linux/libclang_rt.builtins-arm.a(floatunsidf.c.o)
 .comment       0x00000000       0x24 /afs/localcell/cm/gv2.6/sysname/pkg.@sys/qct/software/llvm/release/arm/3.5.2.4/lib/clang/3.5.2/lib/linux/libclang_rt.builtins-arm.a(muldf3.c.o)
 .comment       0x00000000       0x24 /afs/localcell/cm/gv2.6/sysname/pkg.@sys/qct/software/llvm/release/arm/3.5.2.4/lib/clang/3.5.2/lib/linux/libclang_rt.builtins-arm.a(udivmoddi4.c.o)
 .comment       0x00000000       0x24 /afs/localcell/cm/gv2.6/sysname/pkg.@sys/qct/software/llvm/release/arm/3.5.2.4/lib/clang/3.5.2/lib/linux/libclang_rt.builtins-arm.a(udivsi3.c.o)
 .comment       0x00000000       0x24 /afs/localcell/cm/gv2.6/sysname/pkg.@sys/qct/software/llvm/release/arm/3.5.2.4/lib/clang/3.5.2/lib/linux/libclang_rt.builtins-arm.a(umoddi3.c.o)
 .comment       0x00000000       0x24 /afs/localcell/cm/gv2.6/sysname/pkg.@sys/qct/software/llvm/release/arm/3.5.2.4/lib/clang/3.5.2/lib/linux/libclang_rt.builtins-arm.a(umodsi3.c.o)
 .comment       0x00000000       0x24 /local/mnt/workspace/CRMBuilds/TZ.BF.4.0.3.c1-00005-M8996AAAAANAZT-1_20170110_230814/b/HK11/trustzone_images/apps/securemsm/trustzone/qsapps/secure_ui_sample/layouts/build/secure_ui_sample/scorpion/IADAANAA/secure_ui_layout.lib(layout_8996_fluid.o)
 .comment       0x00000000       0x24 /local/mnt/workspace/CRMBuilds/TZ.BF.4.0.3.c1-00005-M8996AAAAANAZT-1_20170110_230814/b/HK11/trustzone_images/core/kernel/libstd/build/secure_ui_sample/scorpion/IADAANAA/libstd.lib(secure_memset.o)
 .comment       0x00000000       0x24 /local/mnt/workspace/CRMBuilds/TZ.BF.4.0.3.c1-00005-M8996AAAAANAZT-1_20170110_230814/b/HK11/trustzone_images/core/securemsm/sse/SecureTouch/layout/build/secure_ui_sample/scorpion/IADAANAA/sklayout.lib(layoutUtils.o)
 .comment       0x00000000       0x24 /local/mnt/workspace/CRMBuilds/TZ.BF.4.0.3.c1-00005-M8996AAAAANAZT-1_20170110_230814/b/HK11/trustzone_images/core/securemsm/sse/qsee/SecureDisplay/libgd/build/secure_ui_sample/scorpion/IADAANAA/libgd.lib(gd.o)
 .comment       0x00000000       0x24 /local/mnt/workspace/CRMBuilds/TZ.BF.4.0.3.c1-00005-M8996AAAAANAZT-1_20170110_230814/b/HK11/trustzone_images/core/securemsm/sse/qsee/SecureDisplay/libgd/build/secure_ui_sample/scorpion/IADAANAA/libgd.lib(gd_color.o)
 .comment       0x00000000       0x24 /local/mnt/workspace/CRMBuilds/TZ.BF.4.0.3.c1-00005-M8996AAAAANAZT-1_20170110_230814/b/HK11/trustzone_images/core/securemsm/sse/qsee/SecureDisplay/libgd/build/secure_ui_sample/scorpion/IADAANAA/libgd.lib(gd_security.o)
 .comment       0x00000000       0x24 /local/mnt/workspace/CRMBuilds/TZ.BF.4.0.3.c1-00005-M8996AAAAANAZT-1_20170110_230814/b/HK11/trustzone_images/core/securemsm/sse/qsee/SecureDisplay/libgd/build/secure_ui_sample/scorpion/IADAANAA/libgd.lib(gdtables.o)
 .comment       0x00000000       0x24 /local/mnt/workspace/CRMBuilds/TZ.BF.4.0.3.c1-00005-M8996AAAAANAZT-1_20170110_230814/b/HK11/trustzone_images/core/securemsm/sse/qsee/SecureDisplay/libpng/build/secure_ui_sample/scorpion/IADAANAA/libpng.lib(png.o)
 .comment       0x00000000       0x24 /local/mnt/workspace/CRMBuilds/TZ.BF.4.0.3.c1-00005-M8996AAAAANAZT-1_20170110_230814/b/HK11/trustzone_images/core/securemsm/sse/qsee/SecureDisplay/libpng/build/secure_ui_sample/scorpion/IADAANAA/libpng.lib(pngerror.o)
 .comment       0x00000000       0x24 /local/mnt/workspace/CRMBuilds/TZ.BF.4.0.3.c1-00005-M8996AAAAANAZT-1_20170110_230814/b/HK11/trustzone_images/core/securemsm/sse/qsee/SecureDisplay/libpng/build/secure_ui_sample/scorpion/IADAANAA/libpng.lib(pngget.o)
 .comment       0x00000000       0x24 /local/mnt/workspace/CRMBuilds/TZ.BF.4.0.3.c1-00005-M8996AAAAANAZT-1_20170110_230814/b/HK11/trustzone_images/core/securemsm/sse/qsee/SecureDisplay/libpng/build/secure_ui_sample/scorpion/IADAANAA/libpng.lib(pngmem.o)
 .comment       0x00000000       0x24 /local/mnt/workspace/CRMBuilds/TZ.BF.4.0.3.c1-00005-M8996AAAAANAZT-1_20170110_230814/b/HK11/trustzone_images/core/securemsm/sse/qsee/SecureDisplay/libpng/build/secure_ui_sample/scorpion/IADAANAA/libpng.lib(pngread.o)
 .comment       0x00000000       0x24 /local/mnt/workspace/CRMBuilds/TZ.BF.4.0.3.c1-00005-M8996AAAAANAZT-1_20170110_230814/b/HK11/trustzone_images/core/securemsm/sse/qsee/SecureDisplay/libpng/build/secure_ui_sample/scorpion/IADAANAA/libpng.lib(pngrio.o)
 .comment       0x00000000       0x24 /local/mnt/workspace/CRMBuilds/TZ.BF.4.0.3.c1-00005-M8996AAAAANAZT-1_20170110_230814/b/HK11/trustzone_images/core/securemsm/sse/qsee/SecureDisplay/libpng/build/secure_ui_sample/scorpion/IADAANAA/libpng.lib(pngrutil.o)
 .comment       0x00000000       0x24 /local/mnt/workspace/CRMBuilds/TZ.BF.4.0.3.c1-00005-M8996AAAAANAZT-1_20170110_230814/b/HK11/trustzone_images/core/securemsm/sse/qsee/SecureDisplay/libpng/build/secure_ui_sample/scorpion/IADAANAA/libpng.lib(pngset.o)
 .comment       0x00000000       0x24 /local/mnt/workspace/CRMBuilds/TZ.BF.4.0.3.c1-00005-M8996AAAAANAZT-1_20170110_230814/b/HK11/trustzone_images/core/securemsm/sse/qsee/SecureDisplay/zlib/build/secure_ui_sample/scorpion/IADAANAA/zlib.lib(crc32.o)
 .comment       0x00000000       0x24 /local/mnt/workspace/CRMBuilds/TZ.BF.4.0.3.c1-00005-M8996AAAAANAZT-1_20170110_230814/b/HK11/trustzone_images/core/securemsm/sse/qsee/SecureDisplay/zlib/build/secure_ui_sample/scorpion/IADAANAA/zlib.lib(inflate.o)
 .comment       0x00000000       0x24 /local/mnt/workspace/CRMBuilds/TZ.BF.4.0.3.c1-00005-M8996AAAAANAZT-1_20170110_230814/b/HK11/trustzone_images/core/securemsm/sse/qsee/SecureDisplay/zlib/build/secure_ui_sample/scorpion/IADAANAA/zlib.lib(inftrees.o)
 .comment       0x00000000       0x24 /local/mnt/workspace/CRMBuilds/TZ.BF.4.0.3.c1-00005-M8996AAAAANAZT-1_20170110_230814/b/HK11/trustzone_images/core/securemsm/sse/qsee/SecureDisplay/zlib/build/secure_ui_sample/scorpion/IADAANAA/zlib.lib(zutil.o)
 .comment       0x00000000       0x24 /local/mnt/workspace/CRMBuilds/TZ.BF.4.0.3.c1-00005-M8996AAAAANAZT-1_20170110_230814/b/HK11/trustzone_images/core/securemsm/sse/qsee/SecureDisplay/zlib/build/secure_ui_sample/scorpion/IADAANAA/zlib.lib(adler32.o)
 .comment       0x00000000       0x24 /local/mnt/workspace/CRMBuilds/TZ.BF.4.0.3.c1-00005-M8996AAAAANAZT-1_20170110_230814/b/HK11/trustzone_images/core/securemsm/sse/qsee/SecureDisplay/zlib/build/secure_ui_sample/scorpion/IADAANAA/zlib.lib(inffast.o)
 .comment       0x00000000       0x24 /local/mnt/workspace/CRMBuilds/TZ.BF.4.0.3.c1-00005-M8996AAAAANAZT-1_20170110_230814/b/HK11/trustzone_images/core/securemsm/sse/qsee/SecureTouch/drTs/lib/build/secure_ui_sample/scorpion/IADAANAA/touch_lib.lib(01_open.o)
 .comment       0x00000000       0x24 /local/mnt/workspace/CRMBuilds/TZ.BF.4.0.3.c1-00005-M8996AAAAANAZT-1_20170110_230814/b/HK11/trustzone_images/core/securemsm/sse/qsee/SecureTouch/drTs/lib/build/secure_ui_sample/scorpion/IADAANAA/touch_lib.lib(02_close.o)
 .comment       0x00000000       0x24 /local/mnt/workspace/CRMBuilds/TZ.BF.4.0.3.c1-00005-M8996AAAAANAZT-1_20170110_230814/b/HK11/trustzone_images/core/securemsm/sse/qsee/SecureTouch/drTs/lib/build/secure_ui_sample/scorpion/IADAANAA/touch_lib.lib(03_getData.o)
 .comment       0x00000000       0x24 /local/mnt/workspace/CRMBuilds/TZ.BF.4.0.3.c1-00005-M8996AAAAANAZT-1_20170110_230814/b/HK11/trustzone_images/core/securemsm/trustzone/qsapps/libs/applib/common_applib/build/secure_ui_sample/scorpion/IADAANAA/tzapp_entrylib.lib(gpPersistObjCommon.o)
 .comment       0x00000000       0x24 /local/mnt/workspace/CRMBuilds/TZ.BF.4.0.3.c1-00005-M8996AAAAANAZT-1_20170110_230814/b/HK11/trustzone_images/core/securemsm/trustzone/qsapps/libs/applib/common_applib/build/secure_ui_sample/scorpion/IADAANAA/tzapp_entrylib.lib(gpPersistentObjects.o)
 .comment       0x00000000       0x24 /local/mnt/workspace/CRMBuilds/TZ.BF.4.0.3.c1-00005-M8996AAAAANAZT-1_20170110_230814/b/HK11/trustzone_images/core/securemsm/trustzone/qsapps/libs/applib/common_applib/build/secure_ui_sample/scorpion/IADAANAA/tzapp_entrylib.lib(gpPersistObjData.o)
 .comment       0x00000000       0x24 /local/mnt/workspace/CRMBuilds/TZ.BF.4.0.3.c1-00005-M8996AAAAANAZT-1_20170110_230814/b/HK11/trustzone_images/core/securemsm/trustzone/qsapps/libs/applib/common_applib/build/secure_ui_sample/scorpion/IADAANAA/tzapp_entrylib.lib(gpPersistObjHandler.o)
 .comment       0x00000000       0x24 /local/mnt/workspace/CRMBuilds/TZ.BF.4.0.3.c1-00005-M8996AAAAANAZT-1_20170110_230814/b/HK11/trustzone_images/core/securemsm/trustzone/qsapps/libs/applib/common_applib/build/secure_ui_sample/scorpion/IADAANAA/tzapp_entrylib.lib(gpPersistObjIndex.o)
 .comment       0x00000000       0x24 /local/mnt/workspace/CRMBuilds/TZ.BF.4.0.3.c1-00005-M8996AAAAANAZT-1_20170110_230814/b/HK11/trustzone_images/core/securemsm/trustzone/qsapps/libs/applib/common_applib/build/secure_ui_sample/scorpion/IADAANAA/tzapp_entrylib.lib(gpPersistObjVersion.o)
 .comment       0x00000000       0x24 /local/mnt/workspace/CRMBuilds/TZ.BF.4.0.3.c1-00005-M8996AAAAANAZT-1_20170110_230814/b/HK11/trustzone_images/core/securemsm/trustzone/qsapps/libs/applib/common_applib/build/secure_ui_sample/scorpion/IADAANAA/tzapp_entrylib.lib(gpPersistObjCrypto.o)
 .comment       0x00000000       0x24 /local/mnt/workspace/CRMBuilds/TZ.BF.4.0.3.c1-00005-M8996AAAAANAZT-1_20170110_230814/b/HK11/trustzone_images/core/securemsm/trustzone/qsapps/libs/applib/common_applib/build/secure_ui_sample/scorpion/IADAANAA/tzapp_entrylib.lib(gpPersistObjFileIO.o)
 .comment       0x00000000       0x24 /local/mnt/workspace/CRMBuilds/TZ.BF.4.0.3.c1-00005-M8996AAAAANAZT-1_20170110_230814/b/HK11/trustzone_images/core/securemsm/trustzone/qsapps/libs/applib/common_applib/build/secure_ui_sample/scorpion/IADAANAA/tzapp_entrylib.lib(gpFileService.o)
 .comment       0x00000000       0x24 /local/mnt/workspace/CRMBuilds/TZ.BF.4.0.3.c1-00005-M8996AAAAANAZT-1_20170110_230814/b/HK11/trustzone_images/core/securemsm/trustzone/qsapps/libs/applib/qsee/build/secure_ui_sample/scorpion/IADAANAA/tzapp_entrylib.lib(qsee_core_shim.o)
 .comment       0x00000000       0x24 /local/mnt/workspace/CRMBuilds/TZ.BF.4.0.3.c1-00005-M8996AAAAANAZT-1_20170110_230814/b/HK11/trustzone_images/core/securemsm/trustzone/qsapps/libs/applib/qsee/build/secure_ui_sample/scorpion/IADAANAA/tzapp_entrylib.lib(stor.o)
 .comment       0x00000000       0x24 /local/mnt/workspace/CRMBuilds/TZ.BF.4.0.3.c1-00005-M8996AAAAANAZT-1_20170110_230814/b/HK11/trustzone_images/core/securemsm/trustzone/qsapps/libs/applib/qsee/build/secure_ui_sample/scorpion/IADAANAA/tzapp_entrylib.lib(stor_gpt.o)
 .comment       0x00000000       0x24 /local/mnt/workspace/CRMBuilds/TZ.BF.4.0.3.c1-00005-M8996AAAAANAZT-1_20170110_230814/b/HK11/trustzone_images/core/securemsm/trustzone/qsapps/libs/applib/qsee/build/secure_ui_sample/scorpion/IADAANAA/tzapp_entrylib.lib(stor_rpmbw.o)
 .comment       0x00000000       0x24 /local/mnt/workspace/CRMBuilds/TZ.BF.4.0.3.c1-00005-M8996AAAAANAZT-1_20170110_230814/b/HK11/trustzone_images/core/securemsm/trustzone/qsapps/libs/applib/qsee/build/secure_ui_sample/scorpion/IADAANAA/tzapp_entrylib.lib(qsee_cfg_prop_shim.o)
 .comment       0x00000000       0x24 /local/mnt/workspace/CRMBuilds/TZ.BF.4.0.3.c1-00005-M8996AAAAANAZT-1_20170110_230814/b/HK11/trustzone_images/core/securemsm/trustzone/qsapps/libs/applib/qsee/build/secure_ui_sample/scorpion/IADAANAA/tzapp_entrylib.lib(qsee_cipher.o)
 .comment       0x00000000       0x24 /local/mnt/workspace/CRMBuilds/TZ.BF.4.0.3.c1-00005-M8996AAAAANAZT-1_20170110_230814/b/HK11/trustzone_images/core/securemsm/trustzone/qsapps/libs/applib/qsee/build/secure_ui_sample/scorpion/IADAANAA/tzapp_entrylib.lib(qsee_hmac.o)
 .comment       0x00000000       0x24 /local/mnt/workspace/CRMBuilds/TZ.BF.4.0.3.c1-00005-M8996AAAAANAZT-1_20170110_230814/b/HK11/trustzone_images/core/securemsm/trustzone/qsapps/libs/applib/qsee/build/secure_ui_sample/scorpion/IADAANAA/tzapp_entrylib.lib(gpPersistObjPanic.o)
 .comment       0x00000000       0x22 /afs/localcell/cm/gv2.6/sysname/pkg.@sys/qct/software/llvm/release/arm/3.5.2.4/tools/lib32/lib/libc.a(abort.o)
 .comment       0x00000000       0x22 /afs/localcell/cm/gv2.6/sysname/pkg.@sys/qct/software/llvm/release/arm/3.5.2.4/tools/lib32/lib/libc.a(atan2.o)
 .comment       0x00000000       0x22 /afs/localcell/cm/gv2.6/sysname/pkg.@sys/qct/software/llvm/release/arm/3.5.2.4/tools/lib32/lib/libc.a(cos.o)
 .comment       0x00000000       0x22 /afs/localcell/cm/gv2.6/sysname/pkg.@sys/qct/software/llvm/release/arm/3.5.2.4/tools/lib32/lib/libc.a(fabs.o)
 .comment       0x00000000       0x22 /afs/localcell/cm/gv2.6/sysname/pkg.@sys/qct/software/llvm/release/arm/3.5.2.4/tools/lib32/lib/libc.a(floor.o)
 .comment       0x00000000       0x22 /afs/localcell/cm/gv2.6/sysname/pkg.@sys/qct/software/llvm/release/arm/3.5.2.4/tools/lib32/lib/libc.a(sin.o)
 .comment       0x00000000       0x22 /afs/localcell/cm/gv2.6/sysname/pkg.@sys/qct/software/llvm/release/arm/3.5.2.4/tools/lib32/lib/libc.a(sqrt.o)
 .comment       0x00000000       0x22 /afs/localcell/cm/gv2.6/sysname/pkg.@sys/qct/software/llvm/release/arm/3.5.2.4/tools/lib32/lib/libc.a(raise.o)
 .comment       0x00000000       0x22 /afs/localcell/cm/gv2.6/sysname/pkg.@sys/qct/software/llvm/release/arm/3.5.2.4/tools/lib32/lib/libc.a(fflush.o)
 .comment       0x00000000       0x22 /afs/localcell/cm/gv2.6/sysname/pkg.@sys/qct/software/llvm/release/arm/3.5.2.4/tools/lib32/lib/libc.a(stderr.o)
 .comment       0x00000000       0x22 /afs/localcell/cm/gv2.6/sysname/pkg.@sys/qct/software/llvm/release/arm/3.5.2.4/tools/lib32/lib/libc.a(memcmp.o)
 .comment       0x00000000       0x22 /afs/localcell/cm/gv2.6/sysname/pkg.@sys/qct/software/llvm/release/arm/3.5.2.4/tools/lib32/lib/libc.a(syscall_ret.o)
 .comment       0x00000000       0x22 /afs/localcell/cm/gv2.6/sysname/pkg.@sys/qct/software/llvm/release/arm/3.5.2.4/tools/lib32/lib/libc.a(__cos.o)
 .comment       0x00000000       0x22 /afs/localcell/cm/gv2.6/sysname/pkg.@sys/qct/software/llvm/release/arm/3.5.2.4/tools/lib32/lib/libc.a(__rem_pio2.o)
 .comment       0x00000000       0x22 /afs/localcell/cm/gv2.6/sysname/pkg.@sys/qct/software/llvm/release/arm/3.5.2.4/tools/lib32/lib/libc.a(__rem_pio2_large.o)
 .comment       0x00000000       0x22 /afs/localcell/cm/gv2.6/sysname/pkg.@sys/qct/software/llvm/release/arm/3.5.2.4/tools/lib32/lib/libc.a(__sin.o)
 .comment       0x00000000       0x22 /afs/localcell/cm/gv2.6/sysname/pkg.@sys/qct/software/llvm/release/arm/3.5.2.4/tools/lib32/lib/libc.a(atan.o)
 .comment       0x00000000       0x22 /afs/localcell/cm/gv2.6/sysname/pkg.@sys/qct/software/llvm/release/arm/3.5.2.4/tools/lib32/lib/libc.a(scalbn.o)
 .comment       0x00000000       0x22 /afs/localcell/cm/gv2.6/sysname/pkg.@sys/qct/software/llvm/release/arm/3.5.2.4/tools/lib32/lib/libc.a(block.o)
 .comment       0x00000000       0x22 /afs/localcell/cm/gv2.6/sysname/pkg.@sys/qct/software/llvm/release/arm/3.5.2.4/tools/lib32/lib/libc.a(__stdio_close.o)
 .comment       0x00000000       0x22 /afs/localcell/cm/gv2.6/sysname/pkg.@sys/qct/software/llvm/release/arm/3.5.2.4/tools/lib32/lib/libc.a(__stdio_seek.o)
 .comment       0x00000000       0x22 /afs/localcell/cm/gv2.6/sysname/pkg.@sys/qct/software/llvm/release/arm/3.5.2.4/tools/lib32/lib/libc.a(__stdio_write.o)
 .comment       0x00000000       0x22 /afs/localcell/cm/gv2.6/sysname/pkg.@sys/qct/software/llvm/release/arm/3.5.2.4/tools/lib32/lib/libc.a(__syscall_cp.o)
 .comment       0x00000000       0x22 /afs/localcell/cm/gv2.6/sysname/pkg.@sys/qct/software/llvm/release/arm/3.5.2.4/tools/lib32/lib/libc.a(pthread_cleanup_push.o)
 .comment       0x00000000       0x24 /afs/localcell/cm/gv2.6/sysname/pkg.@sys/qct/software/llvm/release/arm/3.5.2.4/lib/clang/3.5.2/lib/linux/libclang_rt.builtins-arm.a(adddf3.c.o)
 .comment       0x00000000       0x24 /afs/localcell/cm/gv2.6/sysname/pkg.@sys/qct/software/llvm/release/arm/3.5.2.4/lib/clang/3.5.2/lib/linux/libclang_rt.builtins-arm.a(divsf3.c.o)
 .comment       0x00000000       0x24 /afs/localcell/cm/gv2.6/sysname/pkg.@sys/qct/software/llvm/release/arm/3.5.2.4/lib/clang/3.5.2/lib/linux/libclang_rt.builtins-arm.a(extendsfdf2.c.o)
 .comment       0x00000000       0x24 /afs/localcell/cm/gv2.6/sysname/pkg.@sys/qct/software/llvm/release/arm/3.5.2.4/lib/clang/3.5.2/lib/linux/libclang_rt.builtins-arm.a(fixdfsi.c.o)
 .comment       0x00000000       0x24 /afs/localcell/cm/gv2.6/sysname/pkg.@sys/qct/software/llvm/release/arm/3.5.2.4/lib/clang/3.5.2/lib/linux/libclang_rt.builtins-arm.a(floatsidf.c.o)
 .comment       0x00000000       0x24 /afs/localcell/cm/gv2.6/sysname/pkg.@sys/qct/software/llvm/release/arm/3.5.2.4/lib/clang/3.5.2/lib/linux/libclang_rt.builtins-arm.a(floatsisf.c.o)
 .comment       0x00000000       0x24 /local/mnt/workspace/CRMBuilds/TZ.BF.4.0.3.c1-00005-M8996AAAAANAZT-1_20170110_230814/b/HK11/trustzone_images/core/kernel/libstd/build/secure_ui_sample/scorpion/IADAANAA/libstd.lib(timesafe_memcmp.o)
 .comment       0x00000000       0x24 /local/mnt/workspace/CRMBuilds/TZ.BF.4.0.3.c1-00005-M8996AAAAANAZT-1_20170110_230814/b/HK11/trustzone_images/core/securemsm/sse/SecureTouch/controller/build/secure_ui_sample/scorpion/IADAANAA/drts_controller_msm8996.lib(atmel_mxt_ts.o)
 .comment       0x00000000       0x24 /local/mnt/workspace/CRMBuilds/TZ.BF.4.0.3.c1-00005-M8996AAAAANAZT-1_20170110_230814/b/HK11/trustzone_images/core/securemsm/sse/SecureTouch/controller/build/secure_ui_sample/scorpion/IADAANAA/drts_controller_msm8996.lib(synaptics_ts.o)
 .comment       0x00000000       0x24 /local/mnt/workspace/CRMBuilds/TZ.BF.4.0.3.c1-00005-M8996AAAAANAZT-1_20170110_230814/b/HK11/trustzone_images/core/securemsm/sse/log/build/secure_ui_sample/scorpion/IADAANAA/sselog.lib(sselog.o)
 .comment       0x00000000       0x24 /local/mnt/workspace/CRMBuilds/TZ.BF.4.0.3.c1-00005-M8996AAAAANAZT-1_20170110_230814/b/HK11/trustzone_images/core/securemsm/sse/qsee/SecureTouch/drTs/controller/build/secure_ui_sample/scorpion/IADAANAA/touch_controller_i2c_msm8996.lib(atmel_mxt_ts_i2c.o)
 .comment       0x00000000       0x24 /local/mnt/workspace/CRMBuilds/TZ.BF.4.0.3.c1-00005-M8996AAAAANAZT-1_20170110_230814/b/HK11/trustzone_images/core/securemsm/sse/qsee/SecureTouch/drTs/controller/build/secure_ui_sample/scorpion/IADAANAA/touch_controller_i2c_msm8996.lib(synaptics_ts_i2c.o)
 .comment       0x00000000       0x24 /local/mnt/workspace/CRMBuilds/TZ.BF.4.0.3.c1-00005-M8996AAAAANAZT-1_20170110_230814/b/HK11/trustzone_images/core/securemsm/trustzone/qsapps/libs/applib/qsee/build/secure_ui_sample/scorpion/IADAANAA/tzapp_entrylib.lib(qsee_i2c.o)
 .comment       0x00000000       0x22 /afs/localcell/cm/gv2.6/sysname/pkg.@sys/qct/software/llvm/release/arm/3.5.2.4/tools/lib32/lib/libc.a(snprintf.o)

.debug_info     0x00000000    0x3cd72
 .debug_info    0x00000000     0x1d0d /local/mnt/workspace/CRMBuilds/TZ.BF.4.0.3.c1-00005-M8996AAAAANAZT-1_20170110_230814/b/HK11/trustzone_images/apps/securemsm/trustzone/qsapps/secure_ui_sample/build/secure_ui_sample/scorpion/IADAANAA/app_main.o
 .debug_info    0x00001d0d       0xa5 /local/mnt/workspace/CRMBuilds/TZ.BF.4.0.3.c1-00005-M8996AAAAANAZT-1_20170110_230814/b/HK11/trustzone_images/apps/securemsm/trustzone/qsapps/secure_ui_sample/build/secure_ui_sample/scorpion/IADAANAA/metadata.o
 .debug_info    0x00001db2       0xa2 /local/mnt/workspace/CRMBuilds/TZ.BF.4.0.3.c1-00005-M8996AAAAANAZT-1_20170110_230814/b/HK11/trustzone_images/core/kernel/libstd/build/secure_ui_sample/scorpion/IADAANAA/libstd.lib(memscpy.o)
 .debug_info    0x00001e54       0xcd /local/mnt/workspace/CRMBuilds/TZ.BF.4.0.3.c1-00005-M8996AAAAANAZT-1_20170110_230814/b/HK11/trustzone_images/core/kernel/libstd/build/secure_ui_sample/scorpion/IADAANAA/libstd.lib(strlcat.o)
 .debug_info    0x00001f21       0xbe /local/mnt/workspace/CRMBuilds/TZ.BF.4.0.3.c1-00005-M8996AAAAANAZT-1_20170110_230814/b/HK11/trustzone_images/core/kernel/libstd/build/secure_ui_sample/scorpion/IADAANAA/libstd.lib(strlcpy.o)
 .debug_info    0x00001fdf     0x1a0d /local/mnt/workspace/CRMBuilds/TZ.BF.4.0.3.c1-00005-M8996AAAAANAZT-1_20170110_230814/b/HK11/trustzone_images/core/securemsm/sse/qsee/SecureUI/build/secure_ui_sample/scorpion/IADAANAA/secure_ui.lib(SecureUI.o)
 .debug_info    0x000039ec     0x250d /local/mnt/workspace/CRMBuilds/TZ.BF.4.0.3.c1-00005-M8996AAAAANAZT-1_20170110_230814/b/HK11/trustzone_images/core/securemsm/sse/qsee/SecureUI/build/secure_ui_sample/scorpion/IADAANAA/secure_ui_tui.lib(qsee_tui_dialogs.o)
 .debug_info    0x00005ef9     0x2628 /local/mnt/workspace/CRMBuilds/TZ.BF.4.0.3.c1-00005-M8996AAAAANAZT-1_20170110_230814/b/HK11/trustzone_images/core/securemsm/sse/qsee/SecureUI/build/secure_ui_sample/scorpion/IADAANAA/secure_ui_tui.lib(layout_manager.o)
 .debug_info    0x00008521     0x2d65 /local/mnt/workspace/CRMBuilds/TZ.BF.4.0.3.c1-00005-M8996AAAAANAZT-1_20170110_230814/b/HK11/trustzone_images/core/securemsm/sse/qsee/SecureUI/build/secure_ui_sample/scorpion/IADAANAA/secure_ui_tui.lib(secure_display_renderer.o)
 .debug_info    0x0000b286     0x20d6 /local/mnt/workspace/CRMBuilds/TZ.BF.4.0.3.c1-00005-M8996AAAAANAZT-1_20170110_230814/b/HK11/trustzone_images/core/securemsm/sse/qsee/SecureUI/build/secure_ui_sample/scorpion/IADAANAA/secure_ui_tui.lib(font_manager.o)
 .debug_info    0x0000d35c      0x96c /local/mnt/workspace/CRMBuilds/TZ.BF.4.0.3.c1-00005-M8996AAAAANAZT-1_20170110_230814/b/HK11/trustzone_images/core/securemsm/sse/qsee/SecureUILib/lib/build/secure_ui_sample/scorpion/IADAANAA/secure_ui_lib.lib(SecureUILib.o)
 .debug_info    0x0000dcc8      0x347 /local/mnt/workspace/CRMBuilds/TZ.BF.4.0.3.c1-00005-M8996AAAAANAZT-1_20170110_230814/b/HK11/trustzone_images/core/securemsm/sse/qsee/SecureUILib/lib/build/secure_ui_sample/scorpion/IADAANAA/secure_ui_lib.lib(01_startTouch.o)
 .debug_info    0x0000e00f      0x421 /local/mnt/workspace/CRMBuilds/TZ.BF.4.0.3.c1-00005-M8996AAAAANAZT-1_20170110_230814/b/HK11/trustzone_images/core/securemsm/sse/qsee/SecureUILib/lib/build/secure_ui_sample/scorpion/IADAANAA/secure_ui_lib.lib(02_processTouch.o)
 .debug_info    0x0000e430      0x38a /local/mnt/workspace/CRMBuilds/TZ.BF.4.0.3.c1-00005-M8996AAAAANAZT-1_20170110_230814/b/HK11/trustzone_images/core/securemsm/sse/qsee/SecureUILib/lib/build/secure_ui_sample/scorpion/IADAANAA/secure_ui_lib.lib(03_stopTouch.o)
 .debug_info    0x0000e7ba      0x394 /local/mnt/workspace/CRMBuilds/TZ.BF.4.0.3.c1-00005-M8996AAAAANAZT-1_20170110_230814/b/HK11/trustzone_images/core/securemsm/sse/qsee/SecureUILib/lib/build/secure_ui_sample/scorpion/IADAANAA/secure_ui_lib.lib(04_prepareRequest.o)
 .debug_info    0x0000eb4e      0x410 /local/mnt/workspace/CRMBuilds/TZ.BF.4.0.3.c1-00005-M8996AAAAANAZT-1_20170110_230814/b/HK11/trustzone_images/core/securemsm/sse/qsee/SecureUILib/lib/build/secure_ui_sample/scorpion/IADAANAA/secure_ui_lib.lib(05_storeIndicator.o)
 .debug_info    0x0000ef5e     0x1424 /local/mnt/workspace/CRMBuilds/TZ.BF.4.0.3.c1-00005-M8996AAAAANAZT-1_20170110_230814/b/HK11/trustzone_images/core/securemsm/trustzone/qsapps/libs/applib/common_applib/build/secure_ui_sample/scorpion/IADAANAA/tzapp_entrylib.lib(common_applib.o)
 .debug_info    0x00010382     0x2c8f /local/mnt/workspace/CRMBuilds/TZ.BF.4.0.3.c1-00005-M8996AAAAANAZT-1_20170110_230814/b/HK11/trustzone_images/core/securemsm/trustzone/qsapps/libs/applib/proxy/build/secure_ui_sample/scorpion/IADAANAA/tzlib_proxy.lib(prxy_services.o)
 .debug_info    0x00013011     0x173b /local/mnt/workspace/CRMBuilds/TZ.BF.4.0.3.c1-00005-M8996AAAAANAZT-1_20170110_230814/b/HK11/trustzone_images/core/securemsm/trustzone/qsapps/libs/applib/proxy/build/secure_ui_sample/scorpion/IADAANAA/tzlib_proxy.lib(prxy_qsee_shim.o)
 .debug_info    0x0001474c     0x2553 /local/mnt/workspace/CRMBuilds/TZ.BF.4.0.3.c1-00005-M8996AAAAANAZT-1_20170110_230814/b/HK11/trustzone_images/core/securemsm/trustzone/qsapps/libs/applib/proxy/build/secure_ui_sample/scorpion/IADAANAA/tzlib_proxy.lib(prxy_ufdes.o)
 .debug_info    0x00016c9f     0x24d9 /local/mnt/workspace/CRMBuilds/TZ.BF.4.0.3.c1-00005-M8996AAAAANAZT-1_20170110_230814/b/HK11/trustzone_images/core/securemsm/trustzone/qsapps/libs/applib/proxy/build/secure_ui_sample/scorpion/IADAANAA/tzlib_proxy.lib(prxy_secmath.o)
 .debug_info    0x00019178     0x2832 /local/mnt/workspace/CRMBuilds/TZ.BF.4.0.3.c1-00005-M8996AAAAANAZT-1_20170110_230814/b/HK11/trustzone_images/core/securemsm/trustzone/qsapps/libs/applib/proxy/build/secure_ui_sample/scorpion/IADAANAA/tzlib_proxy.lib(prxy_secrsa.o)
 .debug_info    0x0001b9aa     0x29aa /local/mnt/workspace/CRMBuilds/TZ.BF.4.0.3.c1-00005-M8996AAAAANAZT-1_20170110_230814/b/HK11/trustzone_images/core/securemsm/trustzone/qsapps/libs/applib/proxy/build/secure_ui_sample/scorpion/IADAANAA/tzlib_proxy.lib(prxy_ecc.o)
 .debug_info    0x0001e354      0x581 /local/mnt/workspace/CRMBuilds/TZ.BF.4.0.3.c1-00005-M8996AAAAANAZT-1_20170110_230814/b/HK11/trustzone_images/core/securemsm/trustzone/qsapps/libs/applib/qsee/build/secure_ui_sample/scorpion/IADAANAA/tzapp_entrylib.lib(mink_shared_code.o)
 .debug_info    0x0001e8d5      0x627 /local/mnt/workspace/CRMBuilds/TZ.BF.4.0.3.c1-00005-M8996AAAAANAZT-1_20170110_230814/b/HK11/trustzone_images/core/securemsm/trustzone/qsapps/libs/applib/qsee/build/secure_ui_sample/scorpion/IADAANAA/tzapp_entrylib.lib(qsee_env.o)
 .debug_info    0x0001eefc      0x2c4 /local/mnt/workspace/CRMBuilds/TZ.BF.4.0.3.c1-00005-M8996AAAAANAZT-1_20170110_230814/b/HK11/trustzone_images/core/securemsm/trustzone/qsapps/libs/applib/qsee/build/secure_ui_sample/scorpion/IADAANAA/tzapp_entrylib.lib(qsee_prng.o)
 .debug_info    0x0001f1c0      0x362 /local/mnt/workspace/CRMBuilds/TZ.BF.4.0.3.c1-00005-M8996AAAAANAZT-1_20170110_230814/b/HK11/trustzone_images/core/securemsm/trustzone/qsapps/libs/applib/qsee/build/secure_ui_sample/scorpion/IADAANAA/tzapp_entrylib.lib(qsee_secdisp.o)
 .debug_info    0x0001f522      0x5e7 /local/mnt/workspace/CRMBuilds/TZ.BF.4.0.3.c1-00005-M8996AAAAANAZT-1_20170110_230814/b/HK11/trustzone_images/core/securemsm/trustzone/qsapps/libs/applib/qsee/build/secure_ui_sample/scorpion/IADAANAA/tzapp_entrylib.lib(qsee_nsmem.o)
 .debug_info    0x0001fb09       0x68 /local/mnt/workspace/CRMBuilds/TZ.BF.4.0.3.c1-00005-M8996AAAAANAZT-1_20170110_230814/b/HK11/trustzone_images/core/securemsm/trustzone/qsapps/libs/applib/qsee/build/secure_ui_sample/scorpion/IADAANAA/tzapp_entrylib.lib(qsee_timer_shim.o)
 .debug_info    0x0001fb71      0xddc /local/mnt/workspace/CRMBuilds/TZ.BF.4.0.3.c1-00005-M8996AAAAANAZT-1_20170110_230814/b/HK11/trustzone_images/core/securemsm/trustzone/qsapps/libs/applib/qsee/build/secure_ui_sample/scorpion/IADAANAA/tzapp_entrylib.lib(qsee_hash.o)
 .debug_info    0x0002094d      0x3c8 /local/mnt/workspace/CRMBuilds/TZ.BF.4.0.3.c1-00005-M8996AAAAANAZT-1_20170110_230814/b/HK11/trustzone_images/core/securemsm/trustzone/qsapps/libs/applib/qsee/build/secure_ui_sample/scorpion/IADAANAA/tzapp_entrylib.lib(qsee_shared_buffer.o)
 .debug_info    0x00020d15      0x53f /local/mnt/workspace/CRMBuilds/TZ.BF.4.0.3.c1-00005-M8996AAAAANAZT-1_20170110_230814/b/HK11/trustzone_images/core/securemsm/trustzone/qsapps/libs/applib/qsee/build/secure_ui_sample/scorpion/IADAANAA/tzapp_entrylib.lib(qsee_appmessage.o)
 .debug_info    0x00021254      0xa05 /local/mnt/workspace/CRMBuilds/TZ.BF.4.0.3.c1-00005-M8996AAAAANAZT-1_20170110_230814/b/HK11/trustzone_images/core/securemsm/trustzone/qsapps/libs/applib/qsee/build/secure_ui_sample/scorpion/IADAANAA/tzapp_entrylib.lib(sfs_api.o)
 .debug_info    0x00021c59      0x39f /local/mnt/workspace/CRMBuilds/TZ.BF.4.0.3.c1-00005-M8996AAAAANAZT-1_20170110_230814/b/HK11/trustzone_images/core/securemsm/trustzone/qsapps/libs/applib/qsee/build/secure_ui_sample/scorpion/IADAANAA/tzapp_entrylib.lib(tzapp_lib_main.o)
 .debug_info    0x00021ff8     0x2574 /local/mnt/workspace/CRMBuilds/TZ.BF.4.0.3.c1-00005-M8996AAAAANAZT-1_20170110_230814/b/HK11/trustzone_images/apps/securemsm/trustzone/qsapps/secure_ui_sample/layouts/build/secure_ui_sample/scorpion/IADAANAA/secure_ui_layout.lib(layout_8996_fluid.o)
 .debug_info    0x0002456c       0xb8 /local/mnt/workspace/CRMBuilds/TZ.BF.4.0.3.c1-00005-M8996AAAAANAZT-1_20170110_230814/b/HK11/trustzone_images/core/kernel/libstd/build/secure_ui_sample/scorpion/IADAANAA/libstd.lib(secure_memset.o)
 .debug_info    0x00024624     0x139b /local/mnt/workspace/CRMBuilds/TZ.BF.4.0.3.c1-00005-M8996AAAAANAZT-1_20170110_230814/b/HK11/trustzone_images/core/securemsm/sse/SecureTouch/layout/build/secure_ui_sample/scorpion/IADAANAA/sklayout.lib(layoutUtils.o)
 .debug_info    0x000259bf     0x3433 /local/mnt/workspace/CRMBuilds/TZ.BF.4.0.3.c1-00005-M8996AAAAANAZT-1_20170110_230814/b/HK11/trustzone_images/core/securemsm/sse/qsee/SecureDisplay/libgd/build/secure_ui_sample/scorpion/IADAANAA/libgd.lib(gd.o)
 .debug_info    0x00028df2      0x441 /local/mnt/workspace/CRMBuilds/TZ.BF.4.0.3.c1-00005-M8996AAAAANAZT-1_20170110_230814/b/HK11/trustzone_images/core/securemsm/sse/qsee/SecureDisplay/libgd/build/secure_ui_sample/scorpion/IADAANAA/libgd.lib(gd_color.o)
 .debug_info    0x00029233       0x63 /local/mnt/workspace/CRMBuilds/TZ.BF.4.0.3.c1-00005-M8996AAAAANAZT-1_20170110_230814/b/HK11/trustzone_images/core/securemsm/sse/qsee/SecureDisplay/libgd/build/secure_ui_sample/scorpion/IADAANAA/libgd.lib(gd_security.o)
 .debug_info    0x00029296       0x64 /local/mnt/workspace/CRMBuilds/TZ.BF.4.0.3.c1-00005-M8996AAAAANAZT-1_20170110_230814/b/HK11/trustzone_images/core/securemsm/sse/qsee/SecureDisplay/libgd/build/secure_ui_sample/scorpion/IADAANAA/libgd.lib(gdtables.o)
 .debug_info    0x000292fa      0xe61 /local/mnt/workspace/CRMBuilds/TZ.BF.4.0.3.c1-00005-M8996AAAAANAZT-1_20170110_230814/b/HK11/trustzone_images/core/securemsm/sse/qsee/SecureDisplay/libpng/build/secure_ui_sample/scorpion/IADAANAA/libpng.lib(png.o)
 .debug_info    0x0002a15b      0x8c2 /local/mnt/workspace/CRMBuilds/TZ.BF.4.0.3.c1-00005-M8996AAAAANAZT-1_20170110_230814/b/HK11/trustzone_images/core/securemsm/sse/qsee/SecureDisplay/libpng/build/secure_ui_sample/scorpion/IADAANAA/libpng.lib(pngerror.o)
 .debug_info    0x0002aa1d      0xa60 /local/mnt/workspace/CRMBuilds/TZ.BF.4.0.3.c1-00005-M8996AAAAANAZT-1_20170110_230814/b/HK11/trustzone_images/core/securemsm/sse/qsee/SecureDisplay/libpng/build/secure_ui_sample/scorpion/IADAANAA/libpng.lib(pngget.o)
 .debug_info    0x0002b47d      0x994 /local/mnt/workspace/CRMBuilds/TZ.BF.4.0.3.c1-00005-M8996AAAAANAZT-1_20170110_230814/b/HK11/trustzone_images/core/securemsm/sse/qsee/SecureDisplay/libpng/build/secure_ui_sample/scorpion/IADAANAA/libpng.lib(pngmem.o)
 .debug_info    0x0002be11      0xd2f /local/mnt/workspace/CRMBuilds/TZ.BF.4.0.3.c1-00005-M8996AAAAANAZT-1_20170110_230814/b/HK11/trustzone_images/core/securemsm/sse/qsee/SecureDisplay/libpng/build/secure_ui_sample/scorpion/IADAANAA/libpng.lib(pngread.o)
 .debug_info    0x0002cb40      0x783 /local/mnt/workspace/CRMBuilds/TZ.BF.4.0.3.c1-00005-M8996AAAAANAZT-1_20170110_230814/b/HK11/trustzone_images/core/securemsm/sse/qsee/SecureDisplay/libpng/build/secure_ui_sample/scorpion/IADAANAA/libpng.lib(pngrio.o)
 .debug_info    0x0002d2c3     0x13fa /local/mnt/workspace/CRMBuilds/TZ.BF.4.0.3.c1-00005-M8996AAAAANAZT-1_20170110_230814/b/HK11/trustzone_images/core/securemsm/sse/qsee/SecureDisplay/libpng/build/secure_ui_sample/scorpion/IADAANAA/libpng.lib(pngrutil.o)
 .debug_info    0x0002e6bd      0x9d1 /local/mnt/workspace/CRMBuilds/TZ.BF.4.0.3.c1-00005-M8996AAAAANAZT-1_20170110_230814/b/HK11/trustzone_images/core/securemsm/sse/qsee/SecureDisplay/libpng/build/secure_ui_sample/scorpion/IADAANAA/libpng.lib(pngset.o)
 .debug_info    0x0002f08e      0x396 /local/mnt/workspace/CRMBuilds/TZ.BF.4.0.3.c1-00005-M8996AAAAANAZT-1_20170110_230814/b/HK11/trustzone_images/core/securemsm/sse/qsee/SecureDisplay/zlib/build/secure_ui_sample/scorpion/IADAANAA/zlib.lib(crc32.o)
 .debug_info    0x0002f424      0xd29 /local/mnt/workspace/CRMBuilds/TZ.BF.4.0.3.c1-00005-M8996AAAAANAZT-1_20170110_230814/b/HK11/trustzone_images/core/securemsm/sse/qsee/SecureDisplay/zlib/build/secure_ui_sample/scorpion/IADAANAA/zlib.lib(inflate.o)
 .debug_info    0x0003014d      0x2f3 /local/mnt/workspace/CRMBuilds/TZ.BF.4.0.3.c1-00005-M8996AAAAANAZT-1_20170110_230814/b/HK11/trustzone_images/core/securemsm/sse/qsee/SecureDisplay/zlib/build/secure_ui_sample/scorpion/IADAANAA/zlib.lib(inftrees.o)
 .debug_info    0x00030440      0x18c /local/mnt/workspace/CRMBuilds/TZ.BF.4.0.3.c1-00005-M8996AAAAANAZT-1_20170110_230814/b/HK11/trustzone_images/core/securemsm/sse/qsee/SecureDisplay/zlib/build/secure_ui_sample/scorpion/IADAANAA/zlib.lib(zutil.o)
 .debug_info    0x000305cc      0x1cd /local/mnt/workspace/CRMBuilds/TZ.BF.4.0.3.c1-00005-M8996AAAAANAZT-1_20170110_230814/b/HK11/trustzone_images/core/securemsm/sse/qsee/SecureDisplay/zlib/build/secure_ui_sample/scorpion/IADAANAA/zlib.lib(adler32.o)
 .debug_info    0x00030799      0x72c /local/mnt/workspace/CRMBuilds/TZ.BF.4.0.3.c1-00005-M8996AAAAANAZT-1_20170110_230814/b/HK11/trustzone_images/core/securemsm/sse/qsee/SecureDisplay/zlib/build/secure_ui_sample/scorpion/IADAANAA/zlib.lib(inffast.o)
 .debug_info    0x00030ec5      0x12e /local/mnt/workspace/CRMBuilds/TZ.BF.4.0.3.c1-00005-M8996AAAAANAZT-1_20170110_230814/b/HK11/trustzone_images/core/securemsm/sse/qsee/SecureTouch/drTs/lib/build/secure_ui_sample/scorpion/IADAANAA/touch_lib.lib(01_open.o)
 .debug_info    0x00030ff3       0x95 /local/mnt/workspace/CRMBuilds/TZ.BF.4.0.3.c1-00005-M8996AAAAANAZT-1_20170110_230814/b/HK11/trustzone_images/core/securemsm/sse/qsee/SecureTouch/drTs/lib/build/secure_ui_sample/scorpion/IADAANAA/touch_lib.lib(02_close.o)
 .debug_info    0x00031088      0x1d6 /local/mnt/workspace/CRMBuilds/TZ.BF.4.0.3.c1-00005-M8996AAAAANAZT-1_20170110_230814/b/HK11/trustzone_images/core/securemsm/sse/qsee/SecureTouch/drTs/lib/build/secure_ui_sample/scorpion/IADAANAA/touch_lib.lib(03_getData.o)
 .debug_info    0x0003125e      0x60d /local/mnt/workspace/CRMBuilds/TZ.BF.4.0.3.c1-00005-M8996AAAAANAZT-1_20170110_230814/b/HK11/trustzone_images/core/securemsm/trustzone/qsapps/libs/applib/common_applib/build/secure_ui_sample/scorpion/IADAANAA/tzapp_entrylib.lib(gpPersistObjCommon.o)
 .debug_info    0x0003186b      0x83e /local/mnt/workspace/CRMBuilds/TZ.BF.4.0.3.c1-00005-M8996AAAAANAZT-1_20170110_230814/b/HK11/trustzone_images/core/securemsm/trustzone/qsapps/libs/applib/common_applib/build/secure_ui_sample/scorpion/IADAANAA/tzapp_entrylib.lib(gpPersistentObjects.o)
 .debug_info    0x000320a9     0x1461 /local/mnt/workspace/CRMBuilds/TZ.BF.4.0.3.c1-00005-M8996AAAAANAZT-1_20170110_230814/b/HK11/trustzone_images/core/securemsm/trustzone/qsapps/libs/applib/common_applib/build/secure_ui_sample/scorpion/IADAANAA/tzapp_entrylib.lib(gpPersistObjData.o)
 .debug_info    0x0003350a      0x696 /local/mnt/workspace/CRMBuilds/TZ.BF.4.0.3.c1-00005-M8996AAAAANAZT-1_20170110_230814/b/HK11/trustzone_images/core/securemsm/trustzone/qsapps/libs/applib/common_applib/build/secure_ui_sample/scorpion/IADAANAA/tzapp_entrylib.lib(gpPersistObjHandler.o)
 .debug_info    0x00033ba0      0xd67 /local/mnt/workspace/CRMBuilds/TZ.BF.4.0.3.c1-00005-M8996AAAAANAZT-1_20170110_230814/b/HK11/trustzone_images/core/securemsm/trustzone/qsapps/libs/applib/common_applib/build/secure_ui_sample/scorpion/IADAANAA/tzapp_entrylib.lib(gpPersistObjIndex.o)
 .debug_info    0x00034907      0x9f1 /local/mnt/workspace/CRMBuilds/TZ.BF.4.0.3.c1-00005-M8996AAAAANAZT-1_20170110_230814/b/HK11/trustzone_images/core/securemsm/trustzone/qsapps/libs/applib/common_applib/build/secure_ui_sample/scorpion/IADAANAA/tzapp_entrylib.lib(gpPersistObjVersion.o)
 .debug_info    0x000352f8      0x8ef /local/mnt/workspace/CRMBuilds/TZ.BF.4.0.3.c1-00005-M8996AAAAANAZT-1_20170110_230814/b/HK11/trustzone_images/core/securemsm/trustzone/qsapps/libs/applib/common_applib/build/secure_ui_sample/scorpion/IADAANAA/tzapp_entrylib.lib(gpPersistObjCrypto.o)
 .debug_info    0x00035be7      0x48d /local/mnt/workspace/CRMBuilds/TZ.BF.4.0.3.c1-00005-M8996AAAAANAZT-1_20170110_230814/b/HK11/trustzone_images/core/securemsm/trustzone/qsapps/libs/applib/common_applib/build/secure_ui_sample/scorpion/IADAANAA/tzapp_entrylib.lib(gpPersistObjFileIO.o)
 .debug_info    0x00036074      0x506 /local/mnt/workspace/CRMBuilds/TZ.BF.4.0.3.c1-00005-M8996AAAAANAZT-1_20170110_230814/b/HK11/trustzone_images/core/securemsm/trustzone/qsapps/libs/applib/common_applib/build/secure_ui_sample/scorpion/IADAANAA/tzapp_entrylib.lib(gpFileService.o)
 .debug_info    0x0003657a      0x6d8 /local/mnt/workspace/CRMBuilds/TZ.BF.4.0.3.c1-00005-M8996AAAAANAZT-1_20170110_230814/b/HK11/trustzone_images/core/securemsm/trustzone/qsapps/libs/applib/qsee/build/secure_ui_sample/scorpion/IADAANAA/tzapp_entrylib.lib(qsee_core_shim.o)
 .debug_info    0x00036c52      0x5a3 /local/mnt/workspace/CRMBuilds/TZ.BF.4.0.3.c1-00005-M8996AAAAANAZT-1_20170110_230814/b/HK11/trustzone_images/core/securemsm/trustzone/qsapps/libs/applib/qsee/build/secure_ui_sample/scorpion/IADAANAA/tzapp_entrylib.lib(stor.o)
 .debug_info    0x000371f5      0xdeb /local/mnt/workspace/CRMBuilds/TZ.BF.4.0.3.c1-00005-M8996AAAAANAZT-1_20170110_230814/b/HK11/trustzone_images/core/securemsm/trustzone/qsapps/libs/applib/qsee/build/secure_ui_sample/scorpion/IADAANAA/tzapp_entrylib.lib(stor_gpt.o)
 .debug_info    0x00037fe0      0x4a2 /local/mnt/workspace/CRMBuilds/TZ.BF.4.0.3.c1-00005-M8996AAAAANAZT-1_20170110_230814/b/HK11/trustzone_images/core/securemsm/trustzone/qsapps/libs/applib/qsee/build/secure_ui_sample/scorpion/IADAANAA/tzapp_entrylib.lib(stor_rpmbw.o)
 .debug_info    0x00038482      0x166 /local/mnt/workspace/CRMBuilds/TZ.BF.4.0.3.c1-00005-M8996AAAAANAZT-1_20170110_230814/b/HK11/trustzone_images/core/securemsm/trustzone/qsapps/libs/applib/qsee/build/secure_ui_sample/scorpion/IADAANAA/tzapp_entrylib.lib(qsee_cfg_prop_shim.o)
 .debug_info    0x000385e8      0xc62 /local/mnt/workspace/CRMBuilds/TZ.BF.4.0.3.c1-00005-M8996AAAAANAZT-1_20170110_230814/b/HK11/trustzone_images/core/securemsm/trustzone/qsapps/libs/applib/qsee/build/secure_ui_sample/scorpion/IADAANAA/tzapp_entrylib.lib(qsee_cipher.o)
 .debug_info    0x0003924a      0x81a /local/mnt/workspace/CRMBuilds/TZ.BF.4.0.3.c1-00005-M8996AAAAANAZT-1_20170110_230814/b/HK11/trustzone_images/core/securemsm/trustzone/qsapps/libs/applib/qsee/build/secure_ui_sample/scorpion/IADAANAA/tzapp_entrylib.lib(qsee_hmac.o)
 .debug_info    0x00039a64       0x8c /local/mnt/workspace/CRMBuilds/TZ.BF.4.0.3.c1-00005-M8996AAAAANAZT-1_20170110_230814/b/HK11/trustzone_images/core/securemsm/trustzone/qsapps/libs/applib/qsee/build/secure_ui_sample/scorpion/IADAANAA/tzapp_entrylib.lib(gpPersistObjPanic.o)
 .debug_info    0x00039af0       0xcd /local/mnt/workspace/CRMBuilds/TZ.BF.4.0.3.c1-00005-M8996AAAAANAZT-1_20170110_230814/b/HK11/trustzone_images/core/kernel/libstd/build/secure_ui_sample/scorpion/IADAANAA/libstd.lib(timesafe_memcmp.o)
 .debug_info    0x00039bbd      0xa4d /local/mnt/workspace/CRMBuilds/TZ.BF.4.0.3.c1-00005-M8996AAAAANAZT-1_20170110_230814/b/HK11/trustzone_images/core/securemsm/sse/SecureTouch/controller/build/secure_ui_sample/scorpion/IADAANAA/drts_controller_msm8996.lib(atmel_mxt_ts.o)
 .debug_info    0x0003a60a      0xcbd /local/mnt/workspace/CRMBuilds/TZ.BF.4.0.3.c1-00005-M8996AAAAANAZT-1_20170110_230814/b/HK11/trustzone_images/core/securemsm/sse/SecureTouch/controller/build/secure_ui_sample/scorpion/IADAANAA/drts_controller_msm8996.lib(synaptics_ts.o)
 .debug_info    0x0003b2c7       0xe2 /local/mnt/workspace/CRMBuilds/TZ.BF.4.0.3.c1-00005-M8996AAAAANAZT-1_20170110_230814/b/HK11/trustzone_images/core/securemsm/sse/log/build/secure_ui_sample/scorpion/IADAANAA/sselog.lib(sselog.o)
 .debug_info    0x0003b3a9      0x662 /local/mnt/workspace/CRMBuilds/TZ.BF.4.0.3.c1-00005-M8996AAAAANAZT-1_20170110_230814/b/HK11/trustzone_images/core/securemsm/sse/qsee/SecureTouch/drTs/controller/build/secure_ui_sample/scorpion/IADAANAA/touch_controller_i2c_msm8996.lib(atmel_mxt_ts_i2c.o)
 .debug_info    0x0003ba0b      0x697 /local/mnt/workspace/CRMBuilds/TZ.BF.4.0.3.c1-00005-M8996AAAAANAZT-1_20170110_230814/b/HK11/trustzone_images/core/securemsm/sse/qsee/SecureTouch/drTs/controller/build/secure_ui_sample/scorpion/IADAANAA/touch_controller_i2c_msm8996.lib(synaptics_ts_i2c.o)
 .debug_info    0x0003c0a2      0xcd0 /local/mnt/workspace/CRMBuilds/TZ.BF.4.0.3.c1-00005-M8996AAAAANAZT-1_20170110_230814/b/HK11/trustzone_images/core/securemsm/trustzone/qsapps/libs/applib/qsee/build/secure_ui_sample/scorpion/IADAANAA/tzapp_entrylib.lib(qsee_i2c.o)

.debug_abbrev   0x00000000     0x78f4
 .debug_abbrev  0x00000000      0x329 /local/mnt/workspace/CRMBuilds/TZ.BF.4.0.3.c1-00005-M8996AAAAANAZT-1_20170110_230814/b/HK11/trustzone_images/apps/securemsm/trustzone/qsapps/secure_ui_sample/build/secure_ui_sample/scorpion/IADAANAA/app_main.o
 .debug_abbrev  0x00000329       0x63 /local/mnt/workspace/CRMBuilds/TZ.BF.4.0.3.c1-00005-M8996AAAAANAZT-1_20170110_230814/b/HK11/trustzone_images/apps/securemsm/trustzone/qsapps/secure_ui_sample/build/secure_ui_sample/scorpion/IADAANAA/metadata.o
 .debug_abbrev  0x0000038c       0x8a /local/mnt/workspace/CRMBuilds/TZ.BF.4.0.3.c1-00005-M8996AAAAANAZT-1_20170110_230814/b/HK11/trustzone_images/core/kernel/libstd/build/secure_ui_sample/scorpion/IADAANAA/libstd.lib(memscpy.o)
 .debug_abbrev  0x00000416       0x94 /local/mnt/workspace/CRMBuilds/TZ.BF.4.0.3.c1-00005-M8996AAAAANAZT-1_20170110_230814/b/HK11/trustzone_images/core/kernel/libstd/build/secure_ui_sample/scorpion/IADAANAA/libstd.lib(strlcat.o)
 .debug_abbrev  0x000004aa       0x94 /local/mnt/workspace/CRMBuilds/TZ.BF.4.0.3.c1-00005-M8996AAAAANAZT-1_20170110_230814/b/HK11/trustzone_images/core/kernel/libstd/build/secure_ui_sample/scorpion/IADAANAA/libstd.lib(strlcpy.o)
 .debug_abbrev  0x0000053e      0x274 /local/mnt/workspace/CRMBuilds/TZ.BF.4.0.3.c1-00005-M8996AAAAANAZT-1_20170110_230814/b/HK11/trustzone_images/core/securemsm/sse/qsee/SecureUI/build/secure_ui_sample/scorpion/IADAANAA/secure_ui.lib(SecureUI.o)
 .debug_abbrev  0x000007b2      0x2c6 /local/mnt/workspace/CRMBuilds/TZ.BF.4.0.3.c1-00005-M8996AAAAANAZT-1_20170110_230814/b/HK11/trustzone_images/core/securemsm/sse/qsee/SecureUI/build/secure_ui_sample/scorpion/IADAANAA/secure_ui_tui.lib(qsee_tui_dialogs.o)
 .debug_abbrev  0x00000a78      0x34c /local/mnt/workspace/CRMBuilds/TZ.BF.4.0.3.c1-00005-M8996AAAAANAZT-1_20170110_230814/b/HK11/trustzone_images/core/securemsm/sse/qsee/SecureUI/build/secure_ui_sample/scorpion/IADAANAA/secure_ui_tui.lib(layout_manager.o)
 .debug_abbrev  0x00000dc4      0x348 /local/mnt/workspace/CRMBuilds/TZ.BF.4.0.3.c1-00005-M8996AAAAANAZT-1_20170110_230814/b/HK11/trustzone_images/core/securemsm/sse/qsee/SecureUI/build/secure_ui_sample/scorpion/IADAANAA/secure_ui_tui.lib(secure_display_renderer.o)
 .debug_abbrev  0x0000110c      0x2d5 /local/mnt/workspace/CRMBuilds/TZ.BF.4.0.3.c1-00005-M8996AAAAANAZT-1_20170110_230814/b/HK11/trustzone_images/core/securemsm/sse/qsee/SecureUI/build/secure_ui_sample/scorpion/IADAANAA/secure_ui_tui.lib(font_manager.o)
 .debug_abbrev  0x000013e1      0x1e3 /local/mnt/workspace/CRMBuilds/TZ.BF.4.0.3.c1-00005-M8996AAAAANAZT-1_20170110_230814/b/HK11/trustzone_images/core/securemsm/sse/qsee/SecureUILib/lib/build/secure_ui_sample/scorpion/IADAANAA/secure_ui_lib.lib(SecureUILib.o)
 .debug_abbrev  0x000015c4      0x130 /local/mnt/workspace/CRMBuilds/TZ.BF.4.0.3.c1-00005-M8996AAAAANAZT-1_20170110_230814/b/HK11/trustzone_images/core/securemsm/sse/qsee/SecureUILib/lib/build/secure_ui_sample/scorpion/IADAANAA/secure_ui_lib.lib(01_startTouch.o)
 .debug_abbrev  0x000016f4      0x15e /local/mnt/workspace/CRMBuilds/TZ.BF.4.0.3.c1-00005-M8996AAAAANAZT-1_20170110_230814/b/HK11/trustzone_images/core/securemsm/sse/qsee/SecureUILib/lib/build/secure_ui_sample/scorpion/IADAANAA/secure_ui_lib.lib(02_processTouch.o)
 .debug_abbrev  0x00001852      0x130 /local/mnt/workspace/CRMBuilds/TZ.BF.4.0.3.c1-00005-M8996AAAAANAZT-1_20170110_230814/b/HK11/trustzone_images/core/securemsm/sse/qsee/SecureUILib/lib/build/secure_ui_sample/scorpion/IADAANAA/secure_ui_lib.lib(03_stopTouch.o)
 .debug_abbrev  0x00001982      0x13f /local/mnt/workspace/CRMBuilds/TZ.BF.4.0.3.c1-00005-M8996AAAAANAZT-1_20170110_230814/b/HK11/trustzone_images/core/securemsm/sse/qsee/SecureUILib/lib/build/secure_ui_sample/scorpion/IADAANAA/secure_ui_lib.lib(04_prepareRequest.o)
 .debug_abbrev  0x00001ac1      0x168 /local/mnt/workspace/CRMBuilds/TZ.BF.4.0.3.c1-00005-M8996AAAAANAZT-1_20170110_230814/b/HK11/trustzone_images/core/securemsm/sse/qsee/SecureUILib/lib/build/secure_ui_sample/scorpion/IADAANAA/secure_ui_lib.lib(05_storeIndicator.o)
 .debug_abbrev  0x00001c29      0x303 /local/mnt/workspace/CRMBuilds/TZ.BF.4.0.3.c1-00005-M8996AAAAANAZT-1_20170110_230814/b/HK11/trustzone_images/core/securemsm/trustzone/qsapps/libs/applib/common_applib/build/secure_ui_sample/scorpion/IADAANAA/tzapp_entrylib.lib(common_applib.o)
 .debug_abbrev  0x00001f2c      0x23b /local/mnt/workspace/CRMBuilds/TZ.BF.4.0.3.c1-00005-M8996AAAAANAZT-1_20170110_230814/b/HK11/trustzone_images/core/securemsm/trustzone/qsapps/libs/applib/proxy/build/secure_ui_sample/scorpion/IADAANAA/tzlib_proxy.lib(prxy_services.o)
 .debug_abbrev  0x00002167      0x1a9 /local/mnt/workspace/CRMBuilds/TZ.BF.4.0.3.c1-00005-M8996AAAAANAZT-1_20170110_230814/b/HK11/trustzone_images/core/securemsm/trustzone/qsapps/libs/applib/proxy/build/secure_ui_sample/scorpion/IADAANAA/tzlib_proxy.lib(prxy_qsee_shim.o)
 .debug_abbrev  0x00002310      0x19e /local/mnt/workspace/CRMBuilds/TZ.BF.4.0.3.c1-00005-M8996AAAAANAZT-1_20170110_230814/b/HK11/trustzone_images/core/securemsm/trustzone/qsapps/libs/applib/proxy/build/secure_ui_sample/scorpion/IADAANAA/tzlib_proxy.lib(prxy_ufdes.o)
 .debug_abbrev  0x000024ae      0x191 /local/mnt/workspace/CRMBuilds/TZ.BF.4.0.3.c1-00005-M8996AAAAANAZT-1_20170110_230814/b/HK11/trustzone_images/core/securemsm/trustzone/qsapps/libs/applib/proxy/build/secure_ui_sample/scorpion/IADAANAA/tzlib_proxy.lib(prxy_secmath.o)
 .debug_abbrev  0x0000263f      0x1b5 /local/mnt/workspace/CRMBuilds/TZ.BF.4.0.3.c1-00005-M8996AAAAANAZT-1_20170110_230814/b/HK11/trustzone_images/core/securemsm/trustzone/qsapps/libs/applib/proxy/build/secure_ui_sample/scorpion/IADAANAA/tzlib_proxy.lib(prxy_secrsa.o)
 .debug_abbrev  0x000027f4      0x1b5 /local/mnt/workspace/CRMBuilds/TZ.BF.4.0.3.c1-00005-M8996AAAAANAZT-1_20170110_230814/b/HK11/trustzone_images/core/securemsm/trustzone/qsapps/libs/applib/proxy/build/secure_ui_sample/scorpion/IADAANAA/tzlib_proxy.lib(prxy_ecc.o)
 .debug_abbrev  0x000029a9      0x181 /local/mnt/workspace/CRMBuilds/TZ.BF.4.0.3.c1-00005-M8996AAAAANAZT-1_20170110_230814/b/HK11/trustzone_images/core/securemsm/trustzone/qsapps/libs/applib/qsee/build/secure_ui_sample/scorpion/IADAANAA/tzapp_entrylib.lib(mink_shared_code.o)
 .debug_abbrev  0x00002b2a      0x184 /local/mnt/workspace/CRMBuilds/TZ.BF.4.0.3.c1-00005-M8996AAAAANAZT-1_20170110_230814/b/HK11/trustzone_images/core/securemsm/trustzone/qsapps/libs/applib/qsee/build/secure_ui_sample/scorpion/IADAANAA/tzapp_entrylib.lib(qsee_env.o)
 .debug_abbrev  0x00002cae      0x126 /local/mnt/workspace/CRMBuilds/TZ.BF.4.0.3.c1-00005-M8996AAAAANAZT-1_20170110_230814/b/HK11/trustzone_images/core/securemsm/trustzone/qsapps/libs/applib/qsee/build/secure_ui_sample/scorpion/IADAANAA/tzapp_entrylib.lib(qsee_prng.o)
 .debug_abbrev  0x00002dd4      0x135 /local/mnt/workspace/CRMBuilds/TZ.BF.4.0.3.c1-00005-M8996AAAAANAZT-1_20170110_230814/b/HK11/trustzone_images/core/securemsm/trustzone/qsapps/libs/applib/qsee/build/secure_ui_sample/scorpion/IADAANAA/tzapp_entrylib.lib(qsee_secdisp.o)
 .debug_abbrev  0x00002f09      0x15d /local/mnt/workspace/CRMBuilds/TZ.BF.4.0.3.c1-00005-M8996AAAAANAZT-1_20170110_230814/b/HK11/trustzone_images/core/securemsm/trustzone/qsapps/libs/applib/qsee/build/secure_ui_sample/scorpion/IADAANAA/tzapp_entrylib.lib(qsee_nsmem.o)
 .debug_abbrev  0x00003066       0x52 /local/mnt/workspace/CRMBuilds/TZ.BF.4.0.3.c1-00005-M8996AAAAANAZT-1_20170110_230814/b/HK11/trustzone_images/core/securemsm/trustzone/qsapps/libs/applib/qsee/build/secure_ui_sample/scorpion/IADAANAA/tzapp_entrylib.lib(qsee_timer_shim.o)
 .debug_abbrev  0x000030b8      0x1bc /local/mnt/workspace/CRMBuilds/TZ.BF.4.0.3.c1-00005-M8996AAAAANAZT-1_20170110_230814/b/HK11/trustzone_images/core/securemsm/trustzone/qsapps/libs/applib/qsee/build/secure_ui_sample/scorpion/IADAANAA/tzapp_entrylib.lib(qsee_hash.o)
 .debug_abbrev  0x00003274      0x145 /local/mnt/workspace/CRMBuilds/TZ.BF.4.0.3.c1-00005-M8996AAAAANAZT-1_20170110_230814/b/HK11/trustzone_images/core/securemsm/trustzone/qsapps/libs/applib/qsee/build/secure_ui_sample/scorpion/IADAANAA/tzapp_entrylib.lib(qsee_shared_buffer.o)
 .debug_abbrev  0x000033b9      0x17a /local/mnt/workspace/CRMBuilds/TZ.BF.4.0.3.c1-00005-M8996AAAAANAZT-1_20170110_230814/b/HK11/trustzone_images/core/securemsm/trustzone/qsapps/libs/applib/qsee/build/secure_ui_sample/scorpion/IADAANAA/tzapp_entrylib.lib(qsee_appmessage.o)
 .debug_abbrev  0x00003533      0x1ae /local/mnt/workspace/CRMBuilds/TZ.BF.4.0.3.c1-00005-M8996AAAAANAZT-1_20170110_230814/b/HK11/trustzone_images/core/securemsm/trustzone/qsapps/libs/applib/qsee/build/secure_ui_sample/scorpion/IADAANAA/tzapp_entrylib.lib(sfs_api.o)
 .debug_abbrev  0x000036e1      0x11a /local/mnt/workspace/CRMBuilds/TZ.BF.4.0.3.c1-00005-M8996AAAAANAZT-1_20170110_230814/b/HK11/trustzone_images/core/securemsm/trustzone/qsapps/libs/applib/qsee/build/secure_ui_sample/scorpion/IADAANAA/tzapp_entrylib.lib(tzapp_lib_main.o)
 .debug_abbrev  0x000037fb      0x203 /local/mnt/workspace/CRMBuilds/TZ.BF.4.0.3.c1-00005-M8996AAAAANAZT-1_20170110_230814/b/HK11/trustzone_images/apps/securemsm/trustzone/qsapps/secure_ui_sample/layouts/build/secure_ui_sample/scorpion/IADAANAA/secure_ui_layout.lib(layout_8996_fluid.o)
 .debug_abbrev  0x000039fe       0x83 /local/mnt/workspace/CRMBuilds/TZ.BF.4.0.3.c1-00005-M8996AAAAANAZT-1_20170110_230814/b/HK11/trustzone_images/core/kernel/libstd/build/secure_ui_sample/scorpion/IADAANAA/libstd.lib(secure_memset.o)
 .debug_abbrev  0x00003a81      0x27e /local/mnt/workspace/CRMBuilds/TZ.BF.4.0.3.c1-00005-M8996AAAAANAZT-1_20170110_230814/b/HK11/trustzone_images/core/securemsm/sse/SecureTouch/layout/build/secure_ui_sample/scorpion/IADAANAA/sklayout.lib(layoutUtils.o)
 .debug_abbrev  0x00003cff      0x328 /local/mnt/workspace/CRMBuilds/TZ.BF.4.0.3.c1-00005-M8996AAAAANAZT-1_20170110_230814/b/HK11/trustzone_images/core/securemsm/sse/qsee/SecureDisplay/libgd/build/secure_ui_sample/scorpion/IADAANAA/libgd.lib(gd.o)
 .debug_abbrev  0x00004027      0x111 /local/mnt/workspace/CRMBuilds/TZ.BF.4.0.3.c1-00005-M8996AAAAANAZT-1_20170110_230814/b/HK11/trustzone_images/core/securemsm/sse/qsee/SecureDisplay/libgd/build/secure_ui_sample/scorpion/IADAANAA/libgd.lib(gd_color.o)
 .debug_abbrev  0x00004138       0x4a /local/mnt/workspace/CRMBuilds/TZ.BF.4.0.3.c1-00005-M8996AAAAANAZT-1_20170110_230814/b/HK11/trustzone_images/core/securemsm/sse/qsee/SecureDisplay/libgd/build/secure_ui_sample/scorpion/IADAANAA/libgd.lib(gd_security.o)
 .debug_abbrev  0x00004182       0x62 /local/mnt/workspace/CRMBuilds/TZ.BF.4.0.3.c1-00005-M8996AAAAANAZT-1_20170110_230814/b/HK11/trustzone_images/core/securemsm/sse/qsee/SecureDisplay/libgd/build/secure_ui_sample/scorpion/IADAANAA/libgd.lib(gdtables.o)
 .debug_abbrev  0x000041e4      0x1ff /local/mnt/workspace/CRMBuilds/TZ.BF.4.0.3.c1-00005-M8996AAAAANAZT-1_20170110_230814/b/HK11/trustzone_images/core/securemsm/sse/qsee/SecureDisplay/libpng/build/secure_ui_sample/scorpion/IADAANAA/libpng.lib(png.o)
 .debug_abbrev  0x000043e3      0x191 /local/mnt/workspace/CRMBuilds/TZ.BF.4.0.3.c1-00005-M8996AAAAANAZT-1_20170110_230814/b/HK11/trustzone_images/core/securemsm/sse/qsee/SecureDisplay/libpng/build/secure_ui_sample/scorpion/IADAANAA/libpng.lib(pngerror.o)
 .debug_abbrev  0x00004574      0x136 /local/mnt/workspace/CRMBuilds/TZ.BF.4.0.3.c1-00005-M8996AAAAANAZT-1_20170110_230814/b/HK11/trustzone_images/core/securemsm/sse/qsee/SecureDisplay/libpng/build/secure_ui_sample/scorpion/IADAANAA/libpng.lib(pngget.o)
 .debug_abbrev  0x000046aa      0x17c /local/mnt/workspace/CRMBuilds/TZ.BF.4.0.3.c1-00005-M8996AAAAANAZT-1_20170110_230814/b/HK11/trustzone_images/core/securemsm/sse/qsee/SecureDisplay/libpng/build/secure_ui_sample/scorpion/IADAANAA/libpng.lib(pngmem.o)
 .debug_abbrev  0x00004826      0x1cb /local/mnt/workspace/CRMBuilds/TZ.BF.4.0.3.c1-00005-M8996AAAAANAZT-1_20170110_230814/b/HK11/trustzone_images/core/securemsm/sse/qsee/SecureDisplay/libpng/build/secure_ui_sample/scorpion/IADAANAA/libpng.lib(pngread.o)
 .debug_abbrev  0x000049f1       0xee /local/mnt/workspace/CRMBuilds/TZ.BF.4.0.3.c1-00005-M8996AAAAANAZT-1_20170110_230814/b/HK11/trustzone_images/core/securemsm/sse/qsee/SecureDisplay/libpng/build/secure_ui_sample/scorpion/IADAANAA/libpng.lib(pngrio.o)
 .debug_abbrev  0x00004adf      0x2a1 /local/mnt/workspace/CRMBuilds/TZ.BF.4.0.3.c1-00005-M8996AAAAANAZT-1_20170110_230814/b/HK11/trustzone_images/core/securemsm/sse/qsee/SecureDisplay/libpng/build/secure_ui_sample/scorpion/IADAANAA/libpng.lib(pngrutil.o)
 .debug_abbrev  0x00004d80      0x13f /local/mnt/workspace/CRMBuilds/TZ.BF.4.0.3.c1-00005-M8996AAAAANAZT-1_20170110_230814/b/HK11/trustzone_images/core/securemsm/sse/qsee/SecureDisplay/libpng/build/secure_ui_sample/scorpion/IADAANAA/libpng.lib(pngset.o)
 .debug_abbrev  0x00004ebf      0x19e /local/mnt/workspace/CRMBuilds/TZ.BF.4.0.3.c1-00005-M8996AAAAANAZT-1_20170110_230814/b/HK11/trustzone_images/core/securemsm/sse/qsee/SecureDisplay/zlib/build/secure_ui_sample/scorpion/IADAANAA/zlib.lib(crc32.o)
 .debug_abbrev  0x0000505d      0x233 /local/mnt/workspace/CRMBuilds/TZ.BF.4.0.3.c1-00005-M8996AAAAANAZT-1_20170110_230814/b/HK11/trustzone_images/core/securemsm/sse/qsee/SecureDisplay/zlib/build/secure_ui_sample/scorpion/IADAANAA/zlib.lib(inflate.o)
 .debug_abbrev  0x00005290      0x11b /local/mnt/workspace/CRMBuilds/TZ.BF.4.0.3.c1-00005-M8996AAAAANAZT-1_20170110_230814/b/HK11/trustzone_images/core/securemsm/sse/qsee/SecureDisplay/zlib/build/secure_ui_sample/scorpion/IADAANAA/zlib.lib(inftrees.o)
 .debug_abbrev  0x000053ab      0x110 /local/mnt/workspace/CRMBuilds/TZ.BF.4.0.3.c1-00005-M8996AAAAANAZT-1_20170110_230814/b/HK11/trustzone_images/core/securemsm/sse/qsee/SecureDisplay/zlib/build/secure_ui_sample/scorpion/IADAANAA/zlib.lib(zutil.o)
 .debug_abbrev  0x000054bb       0x9c /local/mnt/workspace/CRMBuilds/TZ.BF.4.0.3.c1-00005-M8996AAAAANAZT-1_20170110_230814/b/HK11/trustzone_images/core/securemsm/sse/qsee/SecureDisplay/zlib/build/secure_ui_sample/scorpion/IADAANAA/zlib.lib(adler32.o)
 .debug_abbrev  0x00005557      0x13a /local/mnt/workspace/CRMBuilds/TZ.BF.4.0.3.c1-00005-M8996AAAAANAZT-1_20170110_230814/b/HK11/trustzone_images/core/securemsm/sse/qsee/SecureDisplay/zlib/build/secure_ui_sample/scorpion/IADAANAA/zlib.lib(inffast.o)
 .debug_abbrev  0x00005691       0xdd /local/mnt/workspace/CRMBuilds/TZ.BF.4.0.3.c1-00005-M8996AAAAANAZT-1_20170110_230814/b/HK11/trustzone_images/core/securemsm/sse/qsee/SecureTouch/drTs/lib/build/secure_ui_sample/scorpion/IADAANAA/touch_lib.lib(01_open.o)
 .debug_abbrev  0x0000576e       0x8c /local/mnt/workspace/CRMBuilds/TZ.BF.4.0.3.c1-00005-M8996AAAAANAZT-1_20170110_230814/b/HK11/trustzone_images/core/securemsm/sse/qsee/SecureTouch/drTs/lib/build/secure_ui_sample/scorpion/IADAANAA/touch_lib.lib(02_close.o)
 .debug_abbrev  0x000057fa       0xec /local/mnt/workspace/CRMBuilds/TZ.BF.4.0.3.c1-00005-M8996AAAAANAZT-1_20170110_230814/b/HK11/trustzone_images/core/securemsm/sse/qsee/SecureTouch/drTs/lib/build/secure_ui_sample/scorpion/IADAANAA/touch_lib.lib(03_getData.o)
 .debug_abbrev  0x000058e6      0x182 /local/mnt/workspace/CRMBuilds/TZ.BF.4.0.3.c1-00005-M8996AAAAANAZT-1_20170110_230814/b/HK11/trustzone_images/core/securemsm/trustzone/qsapps/libs/applib/common_applib/build/secure_ui_sample/scorpion/IADAANAA/tzapp_entrylib.lib(gpPersistObjCommon.o)
 .debug_abbrev  0x00005a68      0x150 /local/mnt/workspace/CRMBuilds/TZ.BF.4.0.3.c1-00005-M8996AAAAANAZT-1_20170110_230814/b/HK11/trustzone_images/core/securemsm/trustzone/qsapps/libs/applib/common_applib/build/secure_ui_sample/scorpion/IADAANAA/tzapp_entrylib.lib(gpPersistentObjects.o)
 .debug_abbrev  0x00005bb8      0x1eb /local/mnt/workspace/CRMBuilds/TZ.BF.4.0.3.c1-00005-M8996AAAAANAZT-1_20170110_230814/b/HK11/trustzone_images/core/securemsm/trustzone/qsapps/libs/applib/common_applib/build/secure_ui_sample/scorpion/IADAANAA/tzapp_entrylib.lib(gpPersistObjData.o)
 .debug_abbrev  0x00005da3      0x18d /local/mnt/workspace/CRMBuilds/TZ.BF.4.0.3.c1-00005-M8996AAAAANAZT-1_20170110_230814/b/HK11/trustzone_images/core/securemsm/trustzone/qsapps/libs/applib/common_applib/build/secure_ui_sample/scorpion/IADAANAA/tzapp_entrylib.lib(gpPersistObjHandler.o)
 .debug_abbrev  0x00005f30      0x21c /local/mnt/workspace/CRMBuilds/TZ.BF.4.0.3.c1-00005-M8996AAAAANAZT-1_20170110_230814/b/HK11/trustzone_images/core/securemsm/trustzone/qsapps/libs/applib/common_applib/build/secure_ui_sample/scorpion/IADAANAA/tzapp_entrylib.lib(gpPersistObjIndex.o)
 .debug_abbrev  0x0000614c      0x21e /local/mnt/workspace/CRMBuilds/TZ.BF.4.0.3.c1-00005-M8996AAAAANAZT-1_20170110_230814/b/HK11/trustzone_images/core/securemsm/trustzone/qsapps/libs/applib/common_applib/build/secure_ui_sample/scorpion/IADAANAA/tzapp_entrylib.lib(gpPersistObjVersion.o)
 .debug_abbrev  0x0000636a      0x1e5 /local/mnt/workspace/CRMBuilds/TZ.BF.4.0.3.c1-00005-M8996AAAAANAZT-1_20170110_230814/b/HK11/trustzone_images/core/securemsm/trustzone/qsapps/libs/applib/common_applib/build/secure_ui_sample/scorpion/IADAANAA/tzapp_entrylib.lib(gpPersistObjCrypto.o)
 .debug_abbrev  0x0000654f       0xdf /local/mnt/workspace/CRMBuilds/TZ.BF.4.0.3.c1-00005-M8996AAAAANAZT-1_20170110_230814/b/HK11/trustzone_images/core/securemsm/trustzone/qsapps/libs/applib/common_applib/build/secure_ui_sample/scorpion/IADAANAA/tzapp_entrylib.lib(gpPersistObjFileIO.o)
 .debug_abbrev  0x0000662e      0x10b /local/mnt/workspace/CRMBuilds/TZ.BF.4.0.3.c1-00005-M8996AAAAANAZT-1_20170110_230814/b/HK11/trustzone_images/core/securemsm/trustzone/qsapps/libs/applib/common_applib/build/secure_ui_sample/scorpion/IADAANAA/tzapp_entrylib.lib(gpFileService.o)
 .debug_abbrev  0x00006739       0xf9 /local/mnt/workspace/CRMBuilds/TZ.BF.4.0.3.c1-00005-M8996AAAAANAZT-1_20170110_230814/b/HK11/trustzone_images/core/securemsm/trustzone/qsapps/libs/applib/qsee/build/secure_ui_sample/scorpion/IADAANAA/tzapp_entrylib.lib(qsee_core_shim.o)
 .debug_abbrev  0x00006832      0x160 /local/mnt/workspace/CRMBuilds/TZ.BF.4.0.3.c1-00005-M8996AAAAANAZT-1_20170110_230814/b/HK11/trustzone_images/core/securemsm/trustzone/qsapps/libs/applib/qsee/build/secure_ui_sample/scorpion/IADAANAA/tzapp_entrylib.lib(stor.o)
 .debug_abbrev  0x00006992      0x18e /local/mnt/workspace/CRMBuilds/TZ.BF.4.0.3.c1-00005-M8996AAAAANAZT-1_20170110_230814/b/HK11/trustzone_images/core/securemsm/trustzone/qsapps/libs/applib/qsee/build/secure_ui_sample/scorpion/IADAANAA/tzapp_entrylib.lib(stor_gpt.o)
 .debug_abbrev  0x00006b20       0xd3 /local/mnt/workspace/CRMBuilds/TZ.BF.4.0.3.c1-00005-M8996AAAAANAZT-1_20170110_230814/b/HK11/trustzone_images/core/securemsm/trustzone/qsapps/libs/applib/qsee/build/secure_ui_sample/scorpion/IADAANAA/tzapp_entrylib.lib(stor_rpmbw.o)
 .debug_abbrev  0x00006bf3       0xc1 /local/mnt/workspace/CRMBuilds/TZ.BF.4.0.3.c1-00005-M8996AAAAANAZT-1_20170110_230814/b/HK11/trustzone_images/core/securemsm/trustzone/qsapps/libs/applib/qsee/build/secure_ui_sample/scorpion/IADAANAA/tzapp_entrylib.lib(qsee_cfg_prop_shim.o)
 .debug_abbrev  0x00006cb4      0x1d3 /local/mnt/workspace/CRMBuilds/TZ.BF.4.0.3.c1-00005-M8996AAAAANAZT-1_20170110_230814/b/HK11/trustzone_images/core/securemsm/trustzone/qsapps/libs/applib/qsee/build/secure_ui_sample/scorpion/IADAANAA/tzapp_entrylib.lib(qsee_cipher.o)
 .debug_abbrev  0x00006e87      0x1a3 /local/mnt/workspace/CRMBuilds/TZ.BF.4.0.3.c1-00005-M8996AAAAANAZT-1_20170110_230814/b/HK11/trustzone_images/core/securemsm/trustzone/qsapps/libs/applib/qsee/build/secure_ui_sample/scorpion/IADAANAA/tzapp_entrylib.lib(qsee_hmac.o)
 .debug_abbrev  0x0000702a       0x84 /local/mnt/workspace/CRMBuilds/TZ.BF.4.0.3.c1-00005-M8996AAAAANAZT-1_20170110_230814/b/HK11/trustzone_images/core/securemsm/trustzone/qsapps/libs/applib/qsee/build/secure_ui_sample/scorpion/IADAANAA/tzapp_entrylib.lib(gpPersistObjPanic.o)
 .debug_abbrev  0x000070ae       0x83 /local/mnt/workspace/CRMBuilds/TZ.BF.4.0.3.c1-00005-M8996AAAAANAZT-1_20170110_230814/b/HK11/trustzone_images/core/kernel/libstd/build/secure_ui_sample/scorpion/IADAANAA/libstd.lib(timesafe_memcmp.o)
 .debug_abbrev  0x00007131      0x207 /local/mnt/workspace/CRMBuilds/TZ.BF.4.0.3.c1-00005-M8996AAAAANAZT-1_20170110_230814/b/HK11/trustzone_images/core/securemsm/sse/SecureTouch/controller/build/secure_ui_sample/scorpion/IADAANAA/drts_controller_msm8996.lib(atmel_mxt_ts.o)
 .debug_abbrev  0x00007338      0x20d /local/mnt/workspace/CRMBuilds/TZ.BF.4.0.3.c1-00005-M8996AAAAANAZT-1_20170110_230814/b/HK11/trustzone_images/core/securemsm/sse/SecureTouch/controller/build/secure_ui_sample/scorpion/IADAANAA/drts_controller_msm8996.lib(synaptics_ts.o)
 .debug_abbrev  0x00007545       0xa5 /local/mnt/workspace/CRMBuilds/TZ.BF.4.0.3.c1-00005-M8996AAAAANAZT-1_20170110_230814/b/HK11/trustzone_images/core/securemsm/sse/log/build/secure_ui_sample/scorpion/IADAANAA/sselog.lib(sselog.o)
 .debug_abbrev  0x000075ea       0xbc /local/mnt/workspace/CRMBuilds/TZ.BF.4.0.3.c1-00005-M8996AAAAANAZT-1_20170110_230814/b/HK11/trustzone_images/core/securemsm/sse/qsee/SecureTouch/drTs/controller/build/secure_ui_sample/scorpion/IADAANAA/touch_controller_i2c_msm8996.lib(atmel_mxt_ts_i2c.o)
 .debug_abbrev  0x000076a6       0xbc /local/mnt/workspace/CRMBuilds/TZ.BF.4.0.3.c1-00005-M8996AAAAANAZT-1_20170110_230814/b/HK11/trustzone_images/core/securemsm/sse/qsee/SecureTouch/drTs/controller/build/secure_ui_sample/scorpion/IADAANAA/touch_controller_i2c_msm8996.lib(synaptics_ts_i2c.o)
 .debug_abbrev  0x00007762      0x192 /local/mnt/workspace/CRMBuilds/TZ.BF.4.0.3.c1-00005-M8996AAAAANAZT-1_20170110_230814/b/HK11/trustzone_images/core/securemsm/trustzone/qsapps/libs/applib/qsee/build/secure_ui_sample/scorpion/IADAANAA/tzapp_entrylib.lib(qsee_i2c.o)

.debug_line     0x00000000    0x2394d
 .debug_line    0x00000000      0xa4a /local/mnt/workspace/CRMBuilds/TZ.BF.4.0.3.c1-00005-M8996AAAAANAZT-1_20170110_230814/b/HK11/trustzone_images/apps/securemsm/trustzone/qsapps/secure_ui_sample/build/secure_ui_sample/scorpion/IADAANAA/app_main.o
 .debug_line    0x00000a4a       0xf2 /local/mnt/workspace/CRMBuilds/TZ.BF.4.0.3.c1-00005-M8996AAAAANAZT-1_20170110_230814/b/HK11/trustzone_images/apps/securemsm/trustzone/qsapps/secure_ui_sample/build/secure_ui_sample/scorpion/IADAANAA/metadata.o
 .debug_line    0x00000b3c      0x10f /local/mnt/workspace/CRMBuilds/TZ.BF.4.0.3.c1-00005-M8996AAAAANAZT-1_20170110_230814/b/HK11/trustzone_images/core/kernel/libstd/build/secure_ui_sample/scorpion/IADAANAA/libstd.lib(memscpy.o)
 .debug_line    0x00000c4b      0x13d /local/mnt/workspace/CRMBuilds/TZ.BF.4.0.3.c1-00005-M8996AAAAANAZT-1_20170110_230814/b/HK11/trustzone_images/core/kernel/libstd/build/secure_ui_sample/scorpion/IADAANAA/libstd.lib(strlcat.o)
 .debug_line    0x00000d88      0x12a /local/mnt/workspace/CRMBuilds/TZ.BF.4.0.3.c1-00005-M8996AAAAANAZT-1_20170110_230814/b/HK11/trustzone_images/core/kernel/libstd/build/secure_ui_sample/scorpion/IADAANAA/libstd.lib(strlcpy.o)
 .debug_line    0x00000eb2      0xd74 /local/mnt/workspace/CRMBuilds/TZ.BF.4.0.3.c1-00005-M8996AAAAANAZT-1_20170110_230814/b/HK11/trustzone_images/core/securemsm/sse/qsee/SecureUI/build/secure_ui_sample/scorpion/IADAANAA/secure_ui.lib(SecureUI.o)
 .debug_line    0x00001c26     0x1593 /local/mnt/workspace/CRMBuilds/TZ.BF.4.0.3.c1-00005-M8996AAAAANAZT-1_20170110_230814/b/HK11/trustzone_images/core/securemsm/sse/qsee/SecureUI/build/secure_ui_sample/scorpion/IADAANAA/secure_ui_tui.lib(qsee_tui_dialogs.o)
 .debug_line    0x000031b9      0xec6 /local/mnt/workspace/CRMBuilds/TZ.BF.4.0.3.c1-00005-M8996AAAAANAZT-1_20170110_230814/b/HK11/trustzone_images/core/securemsm/sse/qsee/SecureUI/build/secure_ui_sample/scorpion/IADAANAA/secure_ui_tui.lib(layout_manager.o)
 .debug_line    0x0000407f     0x1241 /local/mnt/workspace/CRMBuilds/TZ.BF.4.0.3.c1-00005-M8996AAAAANAZT-1_20170110_230814/b/HK11/trustzone_images/core/securemsm/sse/qsee/SecureUI/build/secure_ui_sample/scorpion/IADAANAA/secure_ui_tui.lib(secure_display_renderer.o)
 .debug_line    0x000052c0     0x108f /local/mnt/workspace/CRMBuilds/TZ.BF.4.0.3.c1-00005-M8996AAAAANAZT-1_20170110_230814/b/HK11/trustzone_images/core/securemsm/sse/qsee/SecureUI/build/secure_ui_sample/scorpion/IADAANAA/secure_ui_tui.lib(font_manager.o)
 .debug_line    0x0000634f      0x4d7 /local/mnt/workspace/CRMBuilds/TZ.BF.4.0.3.c1-00005-M8996AAAAANAZT-1_20170110_230814/b/HK11/trustzone_images/core/securemsm/sse/qsee/SecureUILib/lib/build/secure_ui_sample/scorpion/IADAANAA/secure_ui_lib.lib(SecureUILib.o)
 .debug_line    0x00006826      0x3e8 /local/mnt/workspace/CRMBuilds/TZ.BF.4.0.3.c1-00005-M8996AAAAANAZT-1_20170110_230814/b/HK11/trustzone_images/core/securemsm/sse/qsee/SecureUILib/lib/build/secure_ui_sample/scorpion/IADAANAA/secure_ui_lib.lib(01_startTouch.o)
 .debug_line    0x00006c0e      0x4cb /local/mnt/workspace/CRMBuilds/TZ.BF.4.0.3.c1-00005-M8996AAAAANAZT-1_20170110_230814/b/HK11/trustzone_images/core/securemsm/sse/qsee/SecureUILib/lib/build/secure_ui_sample/scorpion/IADAANAA/secure_ui_lib.lib(02_processTouch.o)
 .debug_line    0x000070d9      0x3f5 /local/mnt/workspace/CRMBuilds/TZ.BF.4.0.3.c1-00005-M8996AAAAANAZT-1_20170110_230814/b/HK11/trustzone_images/core/securemsm/sse/qsee/SecureUILib/lib/build/secure_ui_sample/scorpion/IADAANAA/secure_ui_lib.lib(03_stopTouch.o)
 .debug_line    0x000074ce      0x47f /local/mnt/workspace/CRMBuilds/TZ.BF.4.0.3.c1-00005-M8996AAAAANAZT-1_20170110_230814/b/HK11/trustzone_images/core/securemsm/sse/qsee/SecureUILib/lib/build/secure_ui_sample/scorpion/IADAANAA/secure_ui_lib.lib(04_prepareRequest.o)
 .debug_line    0x0000794d      0x485 /local/mnt/workspace/CRMBuilds/TZ.BF.4.0.3.c1-00005-M8996AAAAANAZT-1_20170110_230814/b/HK11/trustzone_images/core/securemsm/sse/qsee/SecureUILib/lib/build/secure_ui_sample/scorpion/IADAANAA/secure_ui_lib.lib(05_storeIndicator.o)
 .debug_line    0x00007dd2      0x7c6 /local/mnt/workspace/CRMBuilds/TZ.BF.4.0.3.c1-00005-M8996AAAAANAZT-1_20170110_230814/b/HK11/trustzone_images/core/securemsm/trustzone/qsapps/libs/applib/common_applib/build/secure_ui_sample/scorpion/IADAANAA/tzapp_entrylib.lib(common_applib.o)
 .debug_line    0x00008598      0xc37 /local/mnt/workspace/CRMBuilds/TZ.BF.4.0.3.c1-00005-M8996AAAAANAZT-1_20170110_230814/b/HK11/trustzone_images/core/securemsm/trustzone/qsapps/libs/applib/proxy/build/secure_ui_sample/scorpion/IADAANAA/tzlib_proxy.lib(prxy_services.o)
 .debug_line    0x000091cf      0x620 /local/mnt/workspace/CRMBuilds/TZ.BF.4.0.3.c1-00005-M8996AAAAANAZT-1_20170110_230814/b/HK11/trustzone_images/core/securemsm/trustzone/qsapps/libs/applib/proxy/build/secure_ui_sample/scorpion/IADAANAA/tzlib_proxy.lib(prxy_qsee_shim.o)
 .debug_line    0x000097ef      0x9fa /local/mnt/workspace/CRMBuilds/TZ.BF.4.0.3.c1-00005-M8996AAAAANAZT-1_20170110_230814/b/HK11/trustzone_images/core/securemsm/trustzone/qsapps/libs/applib/proxy/build/secure_ui_sample/scorpion/IADAANAA/tzlib_proxy.lib(prxy_ufdes.o)
 .debug_line    0x0000a1e9      0x9d4 /local/mnt/workspace/CRMBuilds/TZ.BF.4.0.3.c1-00005-M8996AAAAANAZT-1_20170110_230814/b/HK11/trustzone_images/core/securemsm/trustzone/qsapps/libs/applib/proxy/build/secure_ui_sample/scorpion/IADAANAA/tzlib_proxy.lib(prxy_secmath.o)
 .debug_line    0x0000abbd      0xa8f /local/mnt/workspace/CRMBuilds/TZ.BF.4.0.3.c1-00005-M8996AAAAANAZT-1_20170110_230814/b/HK11/trustzone_images/core/securemsm/trustzone/qsapps/libs/applib/proxy/build/secure_ui_sample/scorpion/IADAANAA/tzlib_proxy.lib(prxy_secrsa.o)
 .debug_line    0x0000b64c      0xafc /local/mnt/workspace/CRMBuilds/TZ.BF.4.0.3.c1-00005-M8996AAAAANAZT-1_20170110_230814/b/HK11/trustzone_images/core/securemsm/trustzone/qsapps/libs/applib/proxy/build/secure_ui_sample/scorpion/IADAANAA/tzlib_proxy.lib(prxy_ecc.o)
 .debug_line    0x0000c148      0x36c /local/mnt/workspace/CRMBuilds/TZ.BF.4.0.3.c1-00005-M8996AAAAANAZT-1_20170110_230814/b/HK11/trustzone_images/core/securemsm/trustzone/qsapps/libs/applib/qsee/build/secure_ui_sample/scorpion/IADAANAA/tzapp_entrylib.lib(mink_shared_code.o)
 .debug_line    0x0000c4b4      0x2f9 /local/mnt/workspace/CRMBuilds/TZ.BF.4.0.3.c1-00005-M8996AAAAANAZT-1_20170110_230814/b/HK11/trustzone_images/core/securemsm/trustzone/qsapps/libs/applib/qsee/build/secure_ui_sample/scorpion/IADAANAA/tzapp_entrylib.lib(qsee_env.o)
 .debug_line    0x0000c7ad      0x28b /local/mnt/workspace/CRMBuilds/TZ.BF.4.0.3.c1-00005-M8996AAAAANAZT-1_20170110_230814/b/HK11/trustzone_images/core/securemsm/trustzone/qsapps/libs/applib/qsee/build/secure_ui_sample/scorpion/IADAANAA/tzapp_entrylib.lib(qsee_prng.o)
 .debug_line    0x0000ca38      0x2da /local/mnt/workspace/CRMBuilds/TZ.BF.4.0.3.c1-00005-M8996AAAAANAZT-1_20170110_230814/b/HK11/trustzone_images/core/securemsm/trustzone/qsapps/libs/applib/qsee/build/secure_ui_sample/scorpion/IADAANAA/tzapp_entrylib.lib(qsee_secdisp.o)
 .debug_line    0x0000cd12      0x336 /local/mnt/workspace/CRMBuilds/TZ.BF.4.0.3.c1-00005-M8996AAAAANAZT-1_20170110_230814/b/HK11/trustzone_images/core/securemsm/trustzone/qsapps/libs/applib/qsee/build/secure_ui_sample/scorpion/IADAANAA/tzapp_entrylib.lib(qsee_nsmem.o)
 .debug_line    0x0000d048       0xeb /local/mnt/workspace/CRMBuilds/TZ.BF.4.0.3.c1-00005-M8996AAAAANAZT-1_20170110_230814/b/HK11/trustzone_images/core/securemsm/trustzone/qsapps/libs/applib/qsee/build/secure_ui_sample/scorpion/IADAANAA/tzapp_entrylib.lib(qsee_timer_shim.o)
 .debug_line    0x0000d133      0x566 /local/mnt/workspace/CRMBuilds/TZ.BF.4.0.3.c1-00005-M8996AAAAANAZT-1_20170110_230814/b/HK11/trustzone_images/core/securemsm/trustzone/qsapps/libs/applib/qsee/build/secure_ui_sample/scorpion/IADAANAA/tzapp_entrylib.lib(qsee_hash.o)
 .debug_line    0x0000d699      0x2d4 /local/mnt/workspace/CRMBuilds/TZ.BF.4.0.3.c1-00005-M8996AAAAANAZT-1_20170110_230814/b/HK11/trustzone_images/core/securemsm/trustzone/qsapps/libs/applib/qsee/build/secure_ui_sample/scorpion/IADAANAA/tzapp_entrylib.lib(qsee_shared_buffer.o)
 .debug_line    0x0000d96d      0x310 /local/mnt/workspace/CRMBuilds/TZ.BF.4.0.3.c1-00005-M8996AAAAANAZT-1_20170110_230814/b/HK11/trustzone_images/core/securemsm/trustzone/qsapps/libs/applib/qsee/build/secure_ui_sample/scorpion/IADAANAA/tzapp_entrylib.lib(qsee_appmessage.o)
 .debug_line    0x0000dc7d      0x4fa /local/mnt/workspace/CRMBuilds/TZ.BF.4.0.3.c1-00005-M8996AAAAANAZT-1_20170110_230814/b/HK11/trustzone_images/core/securemsm/trustzone/qsapps/libs/applib/qsee/build/secure_ui_sample/scorpion/IADAANAA/tzapp_entrylib.lib(sfs_api.o)
 .debug_line    0x0000e177      0x218 /local/mnt/workspace/CRMBuilds/TZ.BF.4.0.3.c1-00005-M8996AAAAANAZT-1_20170110_230814/b/HK11/trustzone_images/core/securemsm/trustzone/qsapps/libs/applib/qsee/build/secure_ui_sample/scorpion/IADAANAA/tzapp_entrylib.lib(tzapp_lib_main.o)
 .debug_line    0x0000e38f     0x9734 /local/mnt/workspace/CRMBuilds/TZ.BF.4.0.3.c1-00005-M8996AAAAANAZT-1_20170110_230814/b/HK11/trustzone_images/apps/securemsm/trustzone/qsapps/secure_ui_sample/layouts/build/secure_ui_sample/scorpion/IADAANAA/secure_ui_layout.lib(layout_8996_fluid.o)
 .debug_line    0x00017ac3      0x116 /local/mnt/workspace/CRMBuilds/TZ.BF.4.0.3.c1-00005-M8996AAAAANAZT-1_20170110_230814/b/HK11/trustzone_images/core/kernel/libstd/build/secure_ui_sample/scorpion/IADAANAA/libstd.lib(secure_memset.o)
 .debug_line    0x00017bd9      0x785 /local/mnt/workspace/CRMBuilds/TZ.BF.4.0.3.c1-00005-M8996AAAAANAZT-1_20170110_230814/b/HK11/trustzone_images/core/securemsm/sse/SecureTouch/layout/build/secure_ui_sample/scorpion/IADAANAA/sklayout.lib(layoutUtils.o)
 .debug_line    0x0001835e     0x16dd /local/mnt/workspace/CRMBuilds/TZ.BF.4.0.3.c1-00005-M8996AAAAANAZT-1_20170110_230814/b/HK11/trustzone_images/core/securemsm/sse/qsee/SecureDisplay/libgd/build/secure_ui_sample/scorpion/IADAANAA/libgd.lib(gd.o)
 .debug_line    0x00019a3b      0x208 /local/mnt/workspace/CRMBuilds/TZ.BF.4.0.3.c1-00005-M8996AAAAANAZT-1_20170110_230814/b/HK11/trustzone_images/core/securemsm/sse/qsee/SecureDisplay/libgd/build/secure_ui_sample/scorpion/IADAANAA/libgd.lib(gd_color.o)
 .debug_line    0x00019c43       0xdc /local/mnt/workspace/CRMBuilds/TZ.BF.4.0.3.c1-00005-M8996AAAAANAZT-1_20170110_230814/b/HK11/trustzone_images/core/securemsm/sse/qsee/SecureDisplay/libgd/build/secure_ui_sample/scorpion/IADAANAA/libgd.lib(gd_security.o)
 .debug_line    0x00019d1f       0xc3 /local/mnt/workspace/CRMBuilds/TZ.BF.4.0.3.c1-00005-M8996AAAAANAZT-1_20170110_230814/b/HK11/trustzone_images/core/securemsm/sse/qsee/SecureDisplay/libgd/build/secure_ui_sample/scorpion/IADAANAA/libgd.lib(gdtables.o)
 .debug_line    0x00019de2      0x466 /local/mnt/workspace/CRMBuilds/TZ.BF.4.0.3.c1-00005-M8996AAAAANAZT-1_20170110_230814/b/HK11/trustzone_images/core/securemsm/sse/qsee/SecureDisplay/libpng/build/secure_ui_sample/scorpion/IADAANAA/libpng.lib(png.o)
 .debug_line    0x0001a248      0x2f3 /local/mnt/workspace/CRMBuilds/TZ.BF.4.0.3.c1-00005-M8996AAAAANAZT-1_20170110_230814/b/HK11/trustzone_images/core/securemsm/sse/qsee/SecureDisplay/libpng/build/secure_ui_sample/scorpion/IADAANAA/libpng.lib(pngerror.o)
 .debug_line    0x0001a53b      0x2f5 /local/mnt/workspace/CRMBuilds/TZ.BF.4.0.3.c1-00005-M8996AAAAANAZT-1_20170110_230814/b/HK11/trustzone_images/core/securemsm/sse/qsee/SecureDisplay/libpng/build/secure_ui_sample/scorpion/IADAANAA/libpng.lib(pngget.o)
 .debug_line    0x0001a830      0x2fd /local/mnt/workspace/CRMBuilds/TZ.BF.4.0.3.c1-00005-M8996AAAAANAZT-1_20170110_230814/b/HK11/trustzone_images/core/securemsm/sse/qsee/SecureDisplay/libpng/build/secure_ui_sample/scorpion/IADAANAA/libpng.lib(pngmem.o)
 .debug_line    0x0001ab2d      0x414 /local/mnt/workspace/CRMBuilds/TZ.BF.4.0.3.c1-00005-M8996AAAAANAZT-1_20170110_230814/b/HK11/trustzone_images/core/securemsm/sse/qsee/SecureDisplay/libpng/build/secure_ui_sample/scorpion/IADAANAA/libpng.lib(pngread.o)
 .debug_line    0x0001af41      0x2ac /local/mnt/workspace/CRMBuilds/TZ.BF.4.0.3.c1-00005-M8996AAAAANAZT-1_20170110_230814/b/HK11/trustzone_images/core/securemsm/sse/qsee/SecureDisplay/libpng/build/secure_ui_sample/scorpion/IADAANAA/libpng.lib(pngrio.o)
 .debug_line    0x0001b1ed      0x6dd /local/mnt/workspace/CRMBuilds/TZ.BF.4.0.3.c1-00005-M8996AAAAANAZT-1_20170110_230814/b/HK11/trustzone_images/core/securemsm/sse/qsee/SecureDisplay/libpng/build/secure_ui_sample/scorpion/IADAANAA/libpng.lib(pngrutil.o)
 .debug_line    0x0001b8ca      0x325 /local/mnt/workspace/CRMBuilds/TZ.BF.4.0.3.c1-00005-M8996AAAAANAZT-1_20170110_230814/b/HK11/trustzone_images/core/securemsm/sse/qsee/SecureDisplay/libpng/build/secure_ui_sample/scorpion/IADAANAA/libpng.lib(pngset.o)
 .debug_line    0x0001bbef      0x285 /local/mnt/workspace/CRMBuilds/TZ.BF.4.0.3.c1-00005-M8996AAAAANAZT-1_20170110_230814/b/HK11/trustzone_images/core/securemsm/sse/qsee/SecureDisplay/zlib/build/secure_ui_sample/scorpion/IADAANAA/zlib.lib(crc32.o)
 .debug_line    0x0001be74      0xade /local/mnt/workspace/CRMBuilds/TZ.BF.4.0.3.c1-00005-M8996AAAAANAZT-1_20170110_230814/b/HK11/trustzone_images/core/securemsm/sse/qsee/SecureDisplay/zlib/build/secure_ui_sample/scorpion/IADAANAA/zlib.lib(inflate.o)
 .debug_line    0x0001c952      0x2b9 /local/mnt/workspace/CRMBuilds/TZ.BF.4.0.3.c1-00005-M8996AAAAANAZT-1_20170110_230814/b/HK11/trustzone_images/core/securemsm/sse/qsee/SecureDisplay/zlib/build/secure_ui_sample/scorpion/IADAANAA/zlib.lib(inftrees.o)
 .debug_line    0x0001cc0b      0x18e /local/mnt/workspace/CRMBuilds/TZ.BF.4.0.3.c1-00005-M8996AAAAANAZT-1_20170110_230814/b/HK11/trustzone_images/core/securemsm/sse/qsee/SecureDisplay/zlib/build/secure_ui_sample/scorpion/IADAANAA/zlib.lib(zutil.o)
 .debug_line    0x0001cd99      0x26c /local/mnt/workspace/CRMBuilds/TZ.BF.4.0.3.c1-00005-M8996AAAAANAZT-1_20170110_230814/b/HK11/trustzone_images/core/securemsm/sse/qsee/SecureDisplay/zlib/build/secure_ui_sample/scorpion/IADAANAA/zlib.lib(adler32.o)
 .debug_line    0x0001d005      0x37b /local/mnt/workspace/CRMBuilds/TZ.BF.4.0.3.c1-00005-M8996AAAAANAZT-1_20170110_230814/b/HK11/trustzone_images/core/securemsm/sse/qsee/SecureDisplay/zlib/build/secure_ui_sample/scorpion/IADAANAA/zlib.lib(inffast.o)
 .debug_line    0x0001d380      0x1fe /local/mnt/workspace/CRMBuilds/TZ.BF.4.0.3.c1-00005-M8996AAAAANAZT-1_20170110_230814/b/HK11/trustzone_images/core/securemsm/sse/qsee/SecureTouch/drTs/lib/build/secure_ui_sample/scorpion/IADAANAA/touch_lib.lib(01_open.o)
 .debug_line    0x0001d57e      0x14b /local/mnt/workspace/CRMBuilds/TZ.BF.4.0.3.c1-00005-M8996AAAAANAZT-1_20170110_230814/b/HK11/trustzone_images/core/securemsm/sse/qsee/SecureTouch/drTs/lib/build/secure_ui_sample/scorpion/IADAANAA/touch_lib.lib(02_close.o)
 .debug_line    0x0001d6c9      0x238 /local/mnt/workspace/CRMBuilds/TZ.BF.4.0.3.c1-00005-M8996AAAAANAZT-1_20170110_230814/b/HK11/trustzone_images/core/securemsm/sse/qsee/SecureTouch/drTs/lib/build/secure_ui_sample/scorpion/IADAANAA/touch_lib.lib(03_getData.o)
 .debug_line    0x0001d901      0x46c /local/mnt/workspace/CRMBuilds/TZ.BF.4.0.3.c1-00005-M8996AAAAANAZT-1_20170110_230814/b/HK11/trustzone_images/core/securemsm/trustzone/qsapps/libs/applib/common_applib/build/secure_ui_sample/scorpion/IADAANAA/tzapp_entrylib.lib(gpPersistObjCommon.o)
 .debug_line    0x0001dd6d      0x504 /local/mnt/workspace/CRMBuilds/TZ.BF.4.0.3.c1-00005-M8996AAAAANAZT-1_20170110_230814/b/HK11/trustzone_images/core/securemsm/trustzone/qsapps/libs/applib/common_applib/build/secure_ui_sample/scorpion/IADAANAA/tzapp_entrylib.lib(gpPersistentObjects.o)
 .debug_line    0x0001e271      0x9a9 /local/mnt/workspace/CRMBuilds/TZ.BF.4.0.3.c1-00005-M8996AAAAANAZT-1_20170110_230814/b/HK11/trustzone_images/core/securemsm/trustzone/qsapps/libs/applib/common_applib/build/secure_ui_sample/scorpion/IADAANAA/tzapp_entrylib.lib(gpPersistObjData.o)
 .debug_line    0x0001ec1a      0x452 /local/mnt/workspace/CRMBuilds/TZ.BF.4.0.3.c1-00005-M8996AAAAANAZT-1_20170110_230814/b/HK11/trustzone_images/core/securemsm/trustzone/qsapps/libs/applib/common_applib/build/secure_ui_sample/scorpion/IADAANAA/tzapp_entrylib.lib(gpPersistObjHandler.o)
 .debug_line    0x0001f06c      0x5e9 /local/mnt/workspace/CRMBuilds/TZ.BF.4.0.3.c1-00005-M8996AAAAANAZT-1_20170110_230814/b/HK11/trustzone_images/core/securemsm/trustzone/qsapps/libs/applib/common_applib/build/secure_ui_sample/scorpion/IADAANAA/tzapp_entrylib.lib(gpPersistObjIndex.o)
 .debug_line    0x0001f655      0x5c4 /local/mnt/workspace/CRMBuilds/TZ.BF.4.0.3.c1-00005-M8996AAAAANAZT-1_20170110_230814/b/HK11/trustzone_images/core/securemsm/trustzone/qsapps/libs/applib/common_applib/build/secure_ui_sample/scorpion/IADAANAA/tzapp_entrylib.lib(gpPersistObjVersion.o)
 .debug_line    0x0001fc19      0x4bd /local/mnt/workspace/CRMBuilds/TZ.BF.4.0.3.c1-00005-M8996AAAAANAZT-1_20170110_230814/b/HK11/trustzone_images/core/securemsm/trustzone/qsapps/libs/applib/common_applib/build/secure_ui_sample/scorpion/IADAANAA/tzapp_entrylib.lib(gpPersistObjCrypto.o)
 .debug_line    0x000200d6      0x314 /local/mnt/workspace/CRMBuilds/TZ.BF.4.0.3.c1-00005-M8996AAAAANAZT-1_20170110_230814/b/HK11/trustzone_images/core/securemsm/trustzone/qsapps/libs/applib/common_applib/build/secure_ui_sample/scorpion/IADAANAA/tzapp_entrylib.lib(gpPersistObjFileIO.o)
 .debug_line    0x000203ea      0x38e /local/mnt/workspace/CRMBuilds/TZ.BF.4.0.3.c1-00005-M8996AAAAANAZT-1_20170110_230814/b/HK11/trustzone_images/core/securemsm/trustzone/qsapps/libs/applib/common_applib/build/secure_ui_sample/scorpion/IADAANAA/tzapp_entrylib.lib(gpFileService.o)
 .debug_line    0x00020778      0x2dd /local/mnt/workspace/CRMBuilds/TZ.BF.4.0.3.c1-00005-M8996AAAAANAZT-1_20170110_230814/b/HK11/trustzone_images/core/securemsm/trustzone/qsapps/libs/applib/qsee/build/secure_ui_sample/scorpion/IADAANAA/tzapp_entrylib.lib(qsee_core_shim.o)
 .debug_line    0x00020a55      0x30d /local/mnt/workspace/CRMBuilds/TZ.BF.4.0.3.c1-00005-M8996AAAAANAZT-1_20170110_230814/b/HK11/trustzone_images/core/securemsm/trustzone/qsapps/libs/applib/qsee/build/secure_ui_sample/scorpion/IADAANAA/tzapp_entrylib.lib(stor.o)
 .debug_line    0x00020d62      0x676 /local/mnt/workspace/CRMBuilds/TZ.BF.4.0.3.c1-00005-M8996AAAAANAZT-1_20170110_230814/b/HK11/trustzone_images/core/securemsm/trustzone/qsapps/libs/applib/qsee/build/secure_ui_sample/scorpion/IADAANAA/tzapp_entrylib.lib(stor_gpt.o)
 .debug_line    0x000213d8      0x2a2 /local/mnt/workspace/CRMBuilds/TZ.BF.4.0.3.c1-00005-M8996AAAAANAZT-1_20170110_230814/b/HK11/trustzone_images/core/securemsm/trustzone/qsapps/libs/applib/qsee/build/secure_ui_sample/scorpion/IADAANAA/tzapp_entrylib.lib(stor_rpmbw.o)
 .debug_line    0x0002167a      0x1d7 /local/mnt/workspace/CRMBuilds/TZ.BF.4.0.3.c1-00005-M8996AAAAANAZT-1_20170110_230814/b/HK11/trustzone_images/core/securemsm/trustzone/qsapps/libs/applib/qsee/build/secure_ui_sample/scorpion/IADAANAA/tzapp_entrylib.lib(qsee_cfg_prop_shim.o)
 .debug_line    0x00021851      0x5a4 /local/mnt/workspace/CRMBuilds/TZ.BF.4.0.3.c1-00005-M8996AAAAANAZT-1_20170110_230814/b/HK11/trustzone_images/core/securemsm/trustzone/qsapps/libs/applib/qsee/build/secure_ui_sample/scorpion/IADAANAA/tzapp_entrylib.lib(qsee_cipher.o)
 .debug_line    0x00021df5      0x42f /local/mnt/workspace/CRMBuilds/TZ.BF.4.0.3.c1-00005-M8996AAAAANAZT-1_20170110_230814/b/HK11/trustzone_images/core/securemsm/trustzone/qsapps/libs/applib/qsee/build/secure_ui_sample/scorpion/IADAANAA/tzapp_entrylib.lib(qsee_hmac.o)
 .debug_line    0x00022224      0x1cc /local/mnt/workspace/CRMBuilds/TZ.BF.4.0.3.c1-00005-M8996AAAAANAZT-1_20170110_230814/b/HK11/trustzone_images/core/securemsm/trustzone/qsapps/libs/applib/qsee/build/secure_ui_sample/scorpion/IADAANAA/tzapp_entrylib.lib(gpPersistObjPanic.o)
 .debug_line    0x000223f0      0x11e /local/mnt/workspace/CRMBuilds/TZ.BF.4.0.3.c1-00005-M8996AAAAANAZT-1_20170110_230814/b/HK11/trustzone_images/core/kernel/libstd/build/secure_ui_sample/scorpion/IADAANAA/libstd.lib(timesafe_memcmp.o)
 .debug_line    0x0002250e      0x42b /local/mnt/workspace/CRMBuilds/TZ.BF.4.0.3.c1-00005-M8996AAAAANAZT-1_20170110_230814/b/HK11/trustzone_images/core/securemsm/sse/SecureTouch/controller/build/secure_ui_sample/scorpion/IADAANAA/drts_controller_msm8996.lib(atmel_mxt_ts.o)
 .debug_line    0x00022939      0x4d4 /local/mnt/workspace/CRMBuilds/TZ.BF.4.0.3.c1-00005-M8996AAAAANAZT-1_20170110_230814/b/HK11/trustzone_images/core/securemsm/sse/SecureTouch/controller/build/secure_ui_sample/scorpion/IADAANAA/drts_controller_msm8996.lib(synaptics_ts.o)
 .debug_line    0x00022e0d      0x12f /local/mnt/workspace/CRMBuilds/TZ.BF.4.0.3.c1-00005-M8996AAAAANAZT-1_20170110_230814/b/HK11/trustzone_images/core/securemsm/sse/log/build/secure_ui_sample/scorpion/IADAANAA/sselog.lib(sselog.o)
 .debug_line    0x00022f3c      0x2b1 /local/mnt/workspace/CRMBuilds/TZ.BF.4.0.3.c1-00005-M8996AAAAANAZT-1_20170110_230814/b/HK11/trustzone_images/core/securemsm/sse/qsee/SecureTouch/drTs/controller/build/secure_ui_sample/scorpion/IADAANAA/touch_controller_i2c_msm8996.lib(atmel_mxt_ts_i2c.o)
 .debug_line    0x000231ed      0x29e /local/mnt/workspace/CRMBuilds/TZ.BF.4.0.3.c1-00005-M8996AAAAANAZT-1_20170110_230814/b/HK11/trustzone_images/core/securemsm/sse/qsee/SecureTouch/drTs/controller/build/secure_ui_sample/scorpion/IADAANAA/touch_controller_i2c_msm8996.lib(synaptics_ts_i2c.o)
 .debug_line    0x0002348b      0x4c2 /local/mnt/workspace/CRMBuilds/TZ.BF.4.0.3.c1-00005-M8996AAAAANAZT-1_20170110_230814/b/HK11/trustzone_images/core/securemsm/trustzone/qsapps/libs/applib/qsee/build/secure_ui_sample/scorpion/IADAANAA/tzapp_entrylib.lib(qsee_i2c.o)

.debug_pubnames
                0x00000000     0x6854
 .debug_pubnames
                0x00000000      0x347 /local/mnt/workspace/CRMBuilds/TZ.BF.4.0.3.c1-00005-M8996AAAAANAZT-1_20170110_230814/b/HK11/trustzone_images/apps/securemsm/trustzone/qsapps/secure_ui_sample/build/secure_ui_sample/scorpion/IADAANAA/app_main.o
 .debug_pubnames
                0x00000347       0x5a /local/mnt/workspace/CRMBuilds/TZ.BF.4.0.3.c1-00005-M8996AAAAANAZT-1_20170110_230814/b/HK11/trustzone_images/apps/securemsm/trustzone/qsapps/secure_ui_sample/build/secure_ui_sample/scorpion/IADAANAA/metadata.o
 .debug_pubnames
                0x000003a1       0x1e /local/mnt/workspace/CRMBuilds/TZ.BF.4.0.3.c1-00005-M8996AAAAANAZT-1_20170110_230814/b/HK11/trustzone_images/core/kernel/libstd/build/secure_ui_sample/scorpion/IADAANAA/libstd.lib(memscpy.o)
 .debug_pubnames
                0x000003bf       0x1e /local/mnt/workspace/CRMBuilds/TZ.BF.4.0.3.c1-00005-M8996AAAAANAZT-1_20170110_230814/b/HK11/trustzone_images/core/kernel/libstd/build/secure_ui_sample/scorpion/IADAANAA/libstd.lib(strlcat.o)
 .debug_pubnames
                0x000003dd       0x1e /local/mnt/workspace/CRMBuilds/TZ.BF.4.0.3.c1-00005-M8996AAAAANAZT-1_20170110_230814/b/HK11/trustzone_images/core/kernel/libstd/build/secure_ui_sample/scorpion/IADAANAA/libstd.lib(strlcpy.o)
 .debug_pubnames
                0x000003fb      0x3a3 /local/mnt/workspace/CRMBuilds/TZ.BF.4.0.3.c1-00005-M8996AAAAANAZT-1_20170110_230814/b/HK11/trustzone_images/core/securemsm/sse/qsee/SecureUI/build/secure_ui_sample/scorpion/IADAANAA/secure_ui.lib(SecureUI.o)
 .debug_pubnames
                0x0000079e      0x371 /local/mnt/workspace/CRMBuilds/TZ.BF.4.0.3.c1-00005-M8996AAAAANAZT-1_20170110_230814/b/HK11/trustzone_images/core/securemsm/sse/qsee/SecureUI/build/secure_ui_sample/scorpion/IADAANAA/secure_ui_tui.lib(qsee_tui_dialogs.o)
 .debug_pubnames
                0x00000b0f      0x46c /local/mnt/workspace/CRMBuilds/TZ.BF.4.0.3.c1-00005-M8996AAAAANAZT-1_20170110_230814/b/HK11/trustzone_images/core/securemsm/sse/qsee/SecureUI/build/secure_ui_sample/scorpion/IADAANAA/secure_ui_tui.lib(layout_manager.o)
 .debug_pubnames
                0x00000f7b      0x1a0 /local/mnt/workspace/CRMBuilds/TZ.BF.4.0.3.c1-00005-M8996AAAAANAZT-1_20170110_230814/b/HK11/trustzone_images/core/securemsm/sse/qsee/SecureUI/build/secure_ui_sample/scorpion/IADAANAA/secure_ui_tui.lib(secure_display_renderer.o)
 .debug_pubnames
                0x0000111b      0x38d /local/mnt/workspace/CRMBuilds/TZ.BF.4.0.3.c1-00005-M8996AAAAANAZT-1_20170110_230814/b/HK11/trustzone_images/core/securemsm/sse/qsee/SecureUI/build/secure_ui_sample/scorpion/IADAANAA/secure_ui_tui.lib(font_manager.o)
 .debug_pubnames
                0x000014a8       0xd4 /local/mnt/workspace/CRMBuilds/TZ.BF.4.0.3.c1-00005-M8996AAAAANAZT-1_20170110_230814/b/HK11/trustzone_images/core/securemsm/sse/qsee/SecureUILib/lib/build/secure_ui_sample/scorpion/IADAANAA/secure_ui_lib.lib(SecureUILib.o)
 .debug_pubnames
                0x0000157c       0x2b /local/mnt/workspace/CRMBuilds/TZ.BF.4.0.3.c1-00005-M8996AAAAANAZT-1_20170110_230814/b/HK11/trustzone_images/core/securemsm/sse/qsee/SecureUILib/lib/build/secure_ui_sample/scorpion/IADAANAA/secure_ui_lib.lib(01_startTouch.o)
 .debug_pubnames
                0x000015a7       0x2d /local/mnt/workspace/CRMBuilds/TZ.BF.4.0.3.c1-00005-M8996AAAAANAZT-1_20170110_230814/b/HK11/trustzone_images/core/securemsm/sse/qsee/SecureUILib/lib/build/secure_ui_sample/scorpion/IADAANAA/secure_ui_lib.lib(02_processTouch.o)
 .debug_pubnames
                0x000015d4       0x3d /local/mnt/workspace/CRMBuilds/TZ.BF.4.0.3.c1-00005-M8996AAAAANAZT-1_20170110_230814/b/HK11/trustzone_images/core/securemsm/sse/qsee/SecureUILib/lib/build/secure_ui_sample/scorpion/IADAANAA/secure_ui_lib.lib(03_stopTouch.o)
 .debug_pubnames
                0x00001611       0x2f /local/mnt/workspace/CRMBuilds/TZ.BF.4.0.3.c1-00005-M8996AAAAANAZT-1_20170110_230814/b/HK11/trustzone_images/core/securemsm/sse/qsee/SecureUILib/lib/build/secure_ui_sample/scorpion/IADAANAA/secure_ui_lib.lib(04_prepareRequest.o)
 .debug_pubnames
                0x00001640       0x2f /local/mnt/workspace/CRMBuilds/TZ.BF.4.0.3.c1-00005-M8996AAAAANAZT-1_20170110_230814/b/HK11/trustzone_images/core/securemsm/sse/qsee/SecureUILib/lib/build/secure_ui_sample/scorpion/IADAANAA/secure_ui_lib.lib(05_storeIndicator.o)
 .debug_pubnames
                0x0000166f      0x4ee /local/mnt/workspace/CRMBuilds/TZ.BF.4.0.3.c1-00005-M8996AAAAANAZT-1_20170110_230814/b/HK11/trustzone_images/core/securemsm/trustzone/qsapps/libs/applib/common_applib/build/secure_ui_sample/scorpion/IADAANAA/tzapp_entrylib.lib(common_applib.o)
 .debug_pubnames
                0x00001b5d      0x1cd /local/mnt/workspace/CRMBuilds/TZ.BF.4.0.3.c1-00005-M8996AAAAANAZT-1_20170110_230814/b/HK11/trustzone_images/core/securemsm/trustzone/qsapps/libs/applib/proxy/build/secure_ui_sample/scorpion/IADAANAA/tzlib_proxy.lib(prxy_services.o)
 .debug_pubnames
                0x00001d2a      0x3e8 /local/mnt/workspace/CRMBuilds/TZ.BF.4.0.3.c1-00005-M8996AAAAANAZT-1_20170110_230814/b/HK11/trustzone_images/core/securemsm/trustzone/qsapps/libs/applib/proxy/build/secure_ui_sample/scorpion/IADAANAA/tzlib_proxy.lib(prxy_qsee_shim.o)
 .debug_pubnames
                0x00002112       0x72 /local/mnt/workspace/CRMBuilds/TZ.BF.4.0.3.c1-00005-M8996AAAAANAZT-1_20170110_230814/b/HK11/trustzone_images/core/securemsm/trustzone/qsapps/libs/applib/proxy/build/secure_ui_sample/scorpion/IADAANAA/tzlib_proxy.lib(prxy_ufdes.o)
 .debug_pubnames
                0x00002184       0x55 /local/mnt/workspace/CRMBuilds/TZ.BF.4.0.3.c1-00005-M8996AAAAANAZT-1_20170110_230814/b/HK11/trustzone_images/core/securemsm/trustzone/qsapps/libs/applib/proxy/build/secure_ui_sample/scorpion/IADAANAA/tzlib_proxy.lib(prxy_secmath.o)
 .debug_pubnames
                0x000021d9       0xee /local/mnt/workspace/CRMBuilds/TZ.BF.4.0.3.c1-00005-M8996AAAAANAZT-1_20170110_230814/b/HK11/trustzone_images/core/securemsm/trustzone/qsapps/libs/applib/proxy/build/secure_ui_sample/scorpion/IADAANAA/tzlib_proxy.lib(prxy_secrsa.o)
 .debug_pubnames
                0x000022c7      0x1ef /local/mnt/workspace/CRMBuilds/TZ.BF.4.0.3.c1-00005-M8996AAAAANAZT-1_20170110_230814/b/HK11/trustzone_images/core/securemsm/trustzone/qsapps/libs/applib/proxy/build/secure_ui_sample/scorpion/IADAANAA/tzlib_proxy.lib(prxy_ecc.o)
 .debug_pubnames
                0x000024b6       0x9c /local/mnt/workspace/CRMBuilds/TZ.BF.4.0.3.c1-00005-M8996AAAAANAZT-1_20170110_230814/b/HK11/trustzone_images/core/securemsm/trustzone/qsapps/libs/applib/qsee/build/secure_ui_sample/scorpion/IADAANAA/tzapp_entrylib.lib(mink_shared_code.o)
 .debug_pubnames
                0x00002552      0x1e5 /local/mnt/workspace/CRMBuilds/TZ.BF.4.0.3.c1-00005-M8996AAAAANAZT-1_20170110_230814/b/HK11/trustzone_images/core/securemsm/trustzone/qsapps/libs/applib/qsee/build/secure_ui_sample/scorpion/IADAANAA/tzapp_entrylib.lib(qsee_env.o)
 .debug_pubnames
                0x00002737       0x4b /local/mnt/workspace/CRMBuilds/TZ.BF.4.0.3.c1-00005-M8996AAAAANAZT-1_20170110_230814/b/HK11/trustzone_images/core/securemsm/trustzone/qsapps/libs/applib/qsee/build/secure_ui_sample/scorpion/IADAANAA/tzapp_entrylib.lib(qsee_prng.o)
 .debug_pubnames
                0x00002782       0xaa /local/mnt/workspace/CRMBuilds/TZ.BF.4.0.3.c1-00005-M8996AAAAANAZT-1_20170110_230814/b/HK11/trustzone_images/core/securemsm/trustzone/qsapps/libs/applib/qsee/build/secure_ui_sample/scorpion/IADAANAA/tzapp_entrylib.lib(qsee_secdisp.o)
 .debug_pubnames
                0x0000282c       0xd6 /local/mnt/workspace/CRMBuilds/TZ.BF.4.0.3.c1-00005-M8996AAAAANAZT-1_20170110_230814/b/HK11/trustzone_images/core/securemsm/trustzone/qsapps/libs/applib/qsee/build/secure_ui_sample/scorpion/IADAANAA/tzapp_entrylib.lib(qsee_nsmem.o)
 .debug_pubnames
                0x00002902       0x4b /local/mnt/workspace/CRMBuilds/TZ.BF.4.0.3.c1-00005-M8996AAAAANAZT-1_20170110_230814/b/HK11/trustzone_images/core/securemsm/trustzone/qsapps/libs/applib/qsee/build/secure_ui_sample/scorpion/IADAANAA/tzapp_entrylib.lib(qsee_timer_shim.o)
 .debug_pubnames
                0x0000294d      0x1f7 /local/mnt/workspace/CRMBuilds/TZ.BF.4.0.3.c1-00005-M8996AAAAANAZT-1_20170110_230814/b/HK11/trustzone_images/core/securemsm/trustzone/qsapps/libs/applib/qsee/build/secure_ui_sample/scorpion/IADAANAA/tzapp_entrylib.lib(qsee_hash.o)
 .debug_pubnames
                0x00002b44       0xb6 /local/mnt/workspace/CRMBuilds/TZ.BF.4.0.3.c1-00005-M8996AAAAANAZT-1_20170110_230814/b/HK11/trustzone_images/core/securemsm/trustzone/qsapps/libs/applib/qsee/build/secure_ui_sample/scorpion/IADAANAA/tzapp_entrylib.lib(qsee_shared_buffer.o)
 .debug_pubnames
                0x00002bfa       0xe2 /local/mnt/workspace/CRMBuilds/TZ.BF.4.0.3.c1-00005-M8996AAAAANAZT-1_20170110_230814/b/HK11/trustzone_images/core/securemsm/trustzone/qsapps/libs/applib/qsee/build/secure_ui_sample/scorpion/IADAANAA/tzapp_entrylib.lib(qsee_appmessage.o)
 .debug_pubnames
                0x00002cdc      0x149 /local/mnt/workspace/CRMBuilds/TZ.BF.4.0.3.c1-00005-M8996AAAAANAZT-1_20170110_230814/b/HK11/trustzone_images/core/securemsm/trustzone/qsapps/libs/applib/qsee/build/secure_ui_sample/scorpion/IADAANAA/tzapp_entrylib.lib(sfs_api.o)
 .debug_pubnames
                0x00002e25       0xbf /local/mnt/workspace/CRMBuilds/TZ.BF.4.0.3.c1-00005-M8996AAAAANAZT-1_20170110_230814/b/HK11/trustzone_images/core/securemsm/trustzone/qsapps/libs/applib/qsee/build/secure_ui_sample/scorpion/IADAANAA/tzapp_entrylib.lib(tzapp_lib_main.o)
 .debug_pubnames
                0x00002ee4      0x757 /local/mnt/workspace/CRMBuilds/TZ.BF.4.0.3.c1-00005-M8996AAAAANAZT-1_20170110_230814/b/HK11/trustzone_images/apps/securemsm/trustzone/qsapps/secure_ui_sample/layouts/build/secure_ui_sample/scorpion/IADAANAA/secure_ui_layout.lib(layout_8996_fluid.o)
 .debug_pubnames
                0x0000363b       0x24 /local/mnt/workspace/CRMBuilds/TZ.BF.4.0.3.c1-00005-M8996AAAAANAZT-1_20170110_230814/b/HK11/trustzone_images/core/kernel/libstd/build/secure_ui_sample/scorpion/IADAANAA/libstd.lib(secure_memset.o)
 .debug_pubnames
                0x0000365f       0xc7 /local/mnt/workspace/CRMBuilds/TZ.BF.4.0.3.c1-00005-M8996AAAAANAZT-1_20170110_230814/b/HK11/trustzone_images/core/securemsm/sse/SecureTouch/layout/build/secure_ui_sample/scorpion/IADAANAA/sklayout.lib(layoutUtils.o)
 .debug_pubnames
                0x00003726      0x6dd /local/mnt/workspace/CRMBuilds/TZ.BF.4.0.3.c1-00005-M8996AAAAANAZT-1_20170110_230814/b/HK11/trustzone_images/core/securemsm/sse/qsee/SecureDisplay/libgd/build/secure_ui_sample/scorpion/IADAANAA/libgd.lib(gd.o)
 .debug_pubnames
                0x00003e03       0x23 /local/mnt/workspace/CRMBuilds/TZ.BF.4.0.3.c1-00005-M8996AAAAANAZT-1_20170110_230814/b/HK11/trustzone_images/core/securemsm/sse/qsee/SecureDisplay/libgd/build/secure_ui_sample/scorpion/IADAANAA/libgd.lib(gd_color.o)
 .debug_pubnames
                0x00003e26       0x20 /local/mnt/workspace/CRMBuilds/TZ.BF.4.0.3.c1-00005-M8996AAAAANAZT-1_20170110_230814/b/HK11/trustzone_images/core/securemsm/sse/qsee/SecureDisplay/libgd/build/secure_ui_sample/scorpion/IADAANAA/libgd.lib(gd_security.o)
 .debug_pubnames
                0x00003e46       0x28 /local/mnt/workspace/CRMBuilds/TZ.BF.4.0.3.c1-00005-M8996AAAAANAZT-1_20170110_230814/b/HK11/trustzone_images/core/securemsm/sse/qsee/SecureDisplay/libgd/build/secure_ui_sample/scorpion/IADAANAA/libgd.lib(gdtables.o)
 .debug_pubnames
                0x00003e6e      0x1e8 /local/mnt/workspace/CRMBuilds/TZ.BF.4.0.3.c1-00005-M8996AAAAANAZT-1_20170110_230814/b/HK11/trustzone_images/core/securemsm/sse/qsee/SecureDisplay/libpng/build/secure_ui_sample/scorpion/IADAANAA/libpng.lib(png.o)
 .debug_pubnames
                0x00004056       0x94 /local/mnt/workspace/CRMBuilds/TZ.BF.4.0.3.c1-00005-M8996AAAAANAZT-1_20170110_230814/b/HK11/trustzone_images/core/securemsm/sse/qsee/SecureDisplay/libpng/build/secure_ui_sample/scorpion/IADAANAA/libpng.lib(pngerror.o)
 .debug_pubnames
                0x000040ea       0xaa /local/mnt/workspace/CRMBuilds/TZ.BF.4.0.3.c1-00005-M8996AAAAANAZT-1_20170110_230814/b/HK11/trustzone_images/core/securemsm/sse/qsee/SecureDisplay/libpng/build/secure_ui_sample/scorpion/IADAANAA/libpng.lib(pngget.o)
 .debug_pubnames
                0x00004194       0xd3 /local/mnt/workspace/CRMBuilds/TZ.BF.4.0.3.c1-00005-M8996AAAAANAZT-1_20170110_230814/b/HK11/trustzone_images/core/securemsm/sse/qsee/SecureDisplay/libpng/build/secure_ui_sample/scorpion/IADAANAA/libpng.lib(pngmem.o)
 .debug_pubnames
                0x00004267      0x13b /local/mnt/workspace/CRMBuilds/TZ.BF.4.0.3.c1-00005-M8996AAAAANAZT-1_20170110_230814/b/HK11/trustzone_images/core/securemsm/sse/qsee/SecureDisplay/libpng/build/secure_ui_sample/scorpion/IADAANAA/libpng.lib(pngread.o)
 .debug_pubnames
                0x000043a2       0x38 /local/mnt/workspace/CRMBuilds/TZ.BF.4.0.3.c1-00005-M8996AAAAANAZT-1_20170110_230814/b/HK11/trustzone_images/core/securemsm/sse/qsee/SecureDisplay/libpng/build/secure_ui_sample/scorpion/IADAANAA/libpng.lib(pngrio.o)
 .debug_pubnames
                0x000043da      0x2bb /local/mnt/workspace/CRMBuilds/TZ.BF.4.0.3.c1-00005-M8996AAAAANAZT-1_20170110_230814/b/HK11/trustzone_images/core/securemsm/sse/qsee/SecureDisplay/libpng/build/secure_ui_sample/scorpion/IADAANAA/libpng.lib(pngrutil.o)
 .debug_pubnames
                0x00004695       0x6c /local/mnt/workspace/CRMBuilds/TZ.BF.4.0.3.c1-00005-M8996AAAAANAZT-1_20170110_230814/b/HK11/trustzone_images/core/securemsm/sse/qsee/SecureDisplay/libpng/build/secure_ui_sample/scorpion/IADAANAA/libpng.lib(pngset.o)
 .debug_pubnames
                0x00004701       0xbf /local/mnt/workspace/CRMBuilds/TZ.BF.4.0.3.c1-00005-M8996AAAAANAZT-1_20170110_230814/b/HK11/trustzone_images/core/securemsm/sse/qsee/SecureDisplay/zlib/build/secure_ui_sample/scorpion/IADAANAA/zlib.lib(crc32.o)
 .debug_pubnames
                0x000047c0      0x18b /local/mnt/workspace/CRMBuilds/TZ.BF.4.0.3.c1-00005-M8996AAAAANAZT-1_20170110_230814/b/HK11/trustzone_images/core/securemsm/sse/qsee/SecureDisplay/zlib/build/secure_ui_sample/scorpion/IADAANAA/zlib.lib(inflate.o)
 .debug_pubnames
                0x0000494b       0x60 /local/mnt/workspace/CRMBuilds/TZ.BF.4.0.3.c1-00005-M8996AAAAANAZT-1_20170110_230814/b/HK11/trustzone_images/core/securemsm/sse/qsee/SecureDisplay/zlib/build/secure_ui_sample/scorpion/IADAANAA/zlib.lib(inftrees.o)
 .debug_pubnames
                0x000049ab       0x66 /local/mnt/workspace/CRMBuilds/TZ.BF.4.0.3.c1-00005-M8996AAAAANAZT-1_20170110_230814/b/HK11/trustzone_images/core/securemsm/sse/qsee/SecureDisplay/zlib/build/secure_ui_sample/scorpion/IADAANAA/zlib.lib(zutil.o)
 .debug_pubnames
                0x00004a11       0x5d /local/mnt/workspace/CRMBuilds/TZ.BF.4.0.3.c1-00005-M8996AAAAANAZT-1_20170110_230814/b/HK11/trustzone_images/core/securemsm/sse/qsee/SecureDisplay/zlib/build/secure_ui_sample/scorpion/IADAANAA/zlib.lib(adler32.o)
 .debug_pubnames
                0x00004a6e       0x23 /local/mnt/workspace/CRMBuilds/TZ.BF.4.0.3.c1-00005-M8996AAAAANAZT-1_20170110_230814/b/HK11/trustzone_images/core/securemsm/sse/qsee/SecureDisplay/zlib/build/secure_ui_sample/scorpion/IADAANAA/zlib.lib(inffast.o)
 .debug_pubnames
                0x00004a91       0x40 /local/mnt/workspace/CRMBuilds/TZ.BF.4.0.3.c1-00005-M8996AAAAANAZT-1_20170110_230814/b/HK11/trustzone_images/core/securemsm/sse/qsee/SecureTouch/drTs/lib/build/secure_ui_sample/scorpion/IADAANAA/touch_lib.lib(01_open.o)
 .debug_pubnames
                0x00004ad1       0x21 /local/mnt/workspace/CRMBuilds/TZ.BF.4.0.3.c1-00005-M8996AAAAANAZT-1_20170110_230814/b/HK11/trustzone_images/core/securemsm/sse/qsee/SecureTouch/drTs/lib/build/secure_ui_sample/scorpion/IADAANAA/touch_lib.lib(02_close.o)
 .debug_pubnames
                0x00004af2       0x47 /local/mnt/workspace/CRMBuilds/TZ.BF.4.0.3.c1-00005-M8996AAAAANAZT-1_20170110_230814/b/HK11/trustzone_images/core/securemsm/sse/qsee/SecureTouch/drTs/lib/build/secure_ui_sample/scorpion/IADAANAA/touch_lib.lib(03_getData.o)
 .debug_pubnames
                0x00004b39      0x113 /local/mnt/workspace/CRMBuilds/TZ.BF.4.0.3.c1-00005-M8996AAAAANAZT-1_20170110_230814/b/HK11/trustzone_images/core/securemsm/trustzone/qsapps/libs/applib/common_applib/build/secure_ui_sample/scorpion/IADAANAA/tzapp_entrylib.lib(gpPersistObjCommon.o)
 .debug_pubnames
                0x00004c4c      0x1df /local/mnt/workspace/CRMBuilds/TZ.BF.4.0.3.c1-00005-M8996AAAAANAZT-1_20170110_230814/b/HK11/trustzone_images/core/securemsm/trustzone/qsapps/libs/applib/common_applib/build/secure_ui_sample/scorpion/IADAANAA/tzapp_entrylib.lib(gpPersistentObjects.o)
 .debug_pubnames
                0x00004e2b      0x39d /local/mnt/workspace/CRMBuilds/TZ.BF.4.0.3.c1-00005-M8996AAAAANAZT-1_20170110_230814/b/HK11/trustzone_images/core/securemsm/trustzone/qsapps/libs/applib/common_applib/build/secure_ui_sample/scorpion/IADAANAA/tzapp_entrylib.lib(gpPersistObjData.o)
 .debug_pubnames
                0x000051c8      0x123 /local/mnt/workspace/CRMBuilds/TZ.BF.4.0.3.c1-00005-M8996AAAAANAZT-1_20170110_230814/b/HK11/trustzone_images/core/securemsm/trustzone/qsapps/libs/applib/common_applib/build/secure_ui_sample/scorpion/IADAANAA/tzapp_entrylib.lib(gpPersistObjHandler.o)
 .debug_pubnames
                0x000052eb      0x232 /local/mnt/workspace/CRMBuilds/TZ.BF.4.0.3.c1-00005-M8996AAAAANAZT-1_20170110_230814/b/HK11/trustzone_images/core/securemsm/trustzone/qsapps/libs/applib/common_applib/build/secure_ui_sample/scorpion/IADAANAA/tzapp_entrylib.lib(gpPersistObjIndex.o)
 .debug_pubnames
                0x0000551d      0x2b4 /local/mnt/workspace/CRMBuilds/TZ.BF.4.0.3.c1-00005-M8996AAAAANAZT-1_20170110_230814/b/HK11/trustzone_images/core/securemsm/trustzone/qsapps/libs/applib/common_applib/build/secure_ui_sample/scorpion/IADAANAA/tzapp_entrylib.lib(gpPersistObjVersion.o)
 .debug_pubnames
                0x000057d1      0x13b /local/mnt/workspace/CRMBuilds/TZ.BF.4.0.3.c1-00005-M8996AAAAANAZT-1_20170110_230814/b/HK11/trustzone_images/core/securemsm/trustzone/qsapps/libs/applib/common_applib/build/secure_ui_sample/scorpion/IADAANAA/tzapp_entrylib.lib(gpPersistObjCrypto.o)
 .debug_pubnames
                0x0000590c       0xcc /local/mnt/workspace/CRMBuilds/TZ.BF.4.0.3.c1-00005-M8996AAAAANAZT-1_20170110_230814/b/HK11/trustzone_images/core/securemsm/trustzone/qsapps/libs/applib/common_applib/build/secure_ui_sample/scorpion/IADAANAA/tzapp_entrylib.lib(gpPersistObjFileIO.o)
 .debug_pubnames
                0x000059d8       0x53 /local/mnt/workspace/CRMBuilds/TZ.BF.4.0.3.c1-00005-M8996AAAAANAZT-1_20170110_230814/b/HK11/trustzone_images/core/securemsm/trustzone/qsapps/libs/applib/common_applib/build/secure_ui_sample/scorpion/IADAANAA/tzapp_entrylib.lib(gpFileService.o)
 .debug_pubnames
                0x00005a2b      0x147 /local/mnt/workspace/CRMBuilds/TZ.BF.4.0.3.c1-00005-M8996AAAAANAZT-1_20170110_230814/b/HK11/trustzone_images/core/securemsm/trustzone/qsapps/libs/applib/qsee/build/secure_ui_sample/scorpion/IADAANAA/tzapp_entrylib.lib(qsee_core_shim.o)
 .debug_pubnames
                0x00005b72      0x145 /local/mnt/workspace/CRMBuilds/TZ.BF.4.0.3.c1-00005-M8996AAAAANAZT-1_20170110_230814/b/HK11/trustzone_images/core/securemsm/trustzone/qsapps/libs/applib/qsee/build/secure_ui_sample/scorpion/IADAANAA/tzapp_entrylib.lib(stor.o)
 .debug_pubnames
                0x00005cb7      0x196 /local/mnt/workspace/CRMBuilds/TZ.BF.4.0.3.c1-00005-M8996AAAAANAZT-1_20170110_230814/b/HK11/trustzone_images/core/securemsm/trustzone/qsapps/libs/applib/qsee/build/secure_ui_sample/scorpion/IADAANAA/tzapp_entrylib.lib(stor_gpt.o)
 .debug_pubnames
                0x00005e4d      0x100 /local/mnt/workspace/CRMBuilds/TZ.BF.4.0.3.c1-00005-M8996AAAAANAZT-1_20170110_230814/b/HK11/trustzone_images/core/securemsm/trustzone/qsapps/libs/applib/qsee/build/secure_ui_sample/scorpion/IADAANAA/tzapp_entrylib.lib(stor_rpmbw.o)
 .debug_pubnames
                0x00005f4d       0x2a /local/mnt/workspace/CRMBuilds/TZ.BF.4.0.3.c1-00005-M8996AAAAANAZT-1_20170110_230814/b/HK11/trustzone_images/core/securemsm/trustzone/qsapps/libs/applib/qsee/build/secure_ui_sample/scorpion/IADAANAA/tzapp_entrylib.lib(qsee_cfg_prop_shim.o)
 .debug_pubnames
                0x00005f77      0x233 /local/mnt/workspace/CRMBuilds/TZ.BF.4.0.3.c1-00005-M8996AAAAANAZT-1_20170110_230814/b/HK11/trustzone_images/core/securemsm/trustzone/qsapps/libs/applib/qsee/build/secure_ui_sample/scorpion/IADAANAA/tzapp_entrylib.lib(qsee_cipher.o)
 .debug_pubnames
                0x000061aa      0x152 /local/mnt/workspace/CRMBuilds/TZ.BF.4.0.3.c1-00005-M8996AAAAANAZT-1_20170110_230814/b/HK11/trustzone_images/core/securemsm/trustzone/qsapps/libs/applib/qsee/build/secure_ui_sample/scorpion/IADAANAA/tzapp_entrylib.lib(qsee_hmac.o)
 .debug_pubnames
                0x000062fc       0x3e /local/mnt/workspace/CRMBuilds/TZ.BF.4.0.3.c1-00005-M8996AAAAANAZT-1_20170110_230814/b/HK11/trustzone_images/core/securemsm/trustzone/qsapps/libs/applib/qsee/build/secure_ui_sample/scorpion/IADAANAA/tzapp_entrylib.lib(gpPersistObjPanic.o)
 .debug_pubnames
                0x0000633a       0x26 /local/mnt/workspace/CRMBuilds/TZ.BF.4.0.3.c1-00005-M8996AAAAANAZT-1_20170110_230814/b/HK11/trustzone_images/core/kernel/libstd/build/secure_ui_sample/scorpion/IADAANAA/libstd.lib(timesafe_memcmp.o)
 .debug_pubnames
                0x00006360      0x159 /local/mnt/workspace/CRMBuilds/TZ.BF.4.0.3.c1-00005-M8996AAAAANAZT-1_20170110_230814/b/HK11/trustzone_images/core/securemsm/sse/SecureTouch/controller/build/secure_ui_sample/scorpion/IADAANAA/drts_controller_msm8996.lib(atmel_mxt_ts.o)
 .debug_pubnames
                0x000064b9       0xfa /local/mnt/workspace/CRMBuilds/TZ.BF.4.0.3.c1-00005-M8996AAAAANAZT-1_20170110_230814/b/HK11/trustzone_images/core/securemsm/sse/SecureTouch/controller/build/secure_ui_sample/scorpion/IADAANAA/drts_controller_msm8996.lib(synaptics_ts.o)
 .debug_pubnames
                0x000065b3       0x1e /local/mnt/workspace/CRMBuilds/TZ.BF.4.0.3.c1-00005-M8996AAAAANAZT-1_20170110_230814/b/HK11/trustzone_images/core/securemsm/sse/log/build/secure_ui_sample/scorpion/IADAANAA/sselog.lib(sselog.o)
 .debug_pubnames
                0x000065d1       0x80 /local/mnt/workspace/CRMBuilds/TZ.BF.4.0.3.c1-00005-M8996AAAAANAZT-1_20170110_230814/b/HK11/trustzone_images/core/securemsm/sse/qsee/SecureTouch/drTs/controller/build/secure_ui_sample/scorpion/IADAANAA/touch_controller_i2c_msm8996.lib(atmel_mxt_ts_i2c.o)
 .debug_pubnames
                0x00006651       0xa6 /local/mnt/workspace/CRMBuilds/TZ.BF.4.0.3.c1-00005-M8996AAAAANAZT-1_20170110_230814/b/HK11/trustzone_images/core/securemsm/sse/qsee/SecureTouch/drTs/controller/build/secure_ui_sample/scorpion/IADAANAA/touch_controller_i2c_msm8996.lib(synaptics_ts_i2c.o)
 .debug_pubnames
                0x000066f7      0x15d /local/mnt/workspace/CRMBuilds/TZ.BF.4.0.3.c1-00005-M8996AAAAANAZT-1_20170110_230814/b/HK11/trustzone_images/core/securemsm/trustzone/qsapps/libs/applib/qsee/build/secure_ui_sample/scorpion/IADAANAA/tzapp_entrylib.lib(qsee_i2c.o)

.debug_pubtypes
                0x00000000     0xd46f
 .debug_pubtypes
                0x00000000      0x64d /local/mnt/workspace/CRMBuilds/TZ.BF.4.0.3.c1-00005-M8996AAAAANAZT-1_20170110_230814/b/HK11/trustzone_images/apps/securemsm/trustzone/qsapps/secure_ui_sample/build/secure_ui_sample/scorpion/IADAANAA/app_main.o
 .debug_pubtypes
                0x0000064d       0x2c /local/mnt/workspace/CRMBuilds/TZ.BF.4.0.3.c1-00005-M8996AAAAANAZT-1_20170110_230814/b/HK11/trustzone_images/apps/securemsm/trustzone/qsapps/secure_ui_sample/build/secure_ui_sample/scorpion/IADAANAA/metadata.o
 .debug_pubtypes
                0x00000679       0x2e /local/mnt/workspace/CRMBuilds/TZ.BF.4.0.3.c1-00005-M8996AAAAANAZT-1_20170110_230814/b/HK11/trustzone_images/core/kernel/libstd/build/secure_ui_sample/scorpion/IADAANAA/libstd.lib(memscpy.o)
 .debug_pubtypes
                0x000006a7       0x37 /local/mnt/workspace/CRMBuilds/TZ.BF.4.0.3.c1-00005-M8996AAAAANAZT-1_20170110_230814/b/HK11/trustzone_images/core/kernel/libstd/build/secure_ui_sample/scorpion/IADAANAA/libstd.lib(strlcat.o)
 .debug_pubtypes
                0x000006de       0x37 /local/mnt/workspace/CRMBuilds/TZ.BF.4.0.3.c1-00005-M8996AAAAANAZT-1_20170110_230814/b/HK11/trustzone_images/core/kernel/libstd/build/secure_ui_sample/scorpion/IADAANAA/libstd.lib(strlcpy.o)
 .debug_pubtypes
                0x00000715      0x23f /local/mnt/workspace/CRMBuilds/TZ.BF.4.0.3.c1-00005-M8996AAAAANAZT-1_20170110_230814/b/HK11/trustzone_images/core/securemsm/sse/qsee/SecureUI/build/secure_ui_sample/scorpion/IADAANAA/secure_ui.lib(SecureUI.o)
 .debug_pubtypes
                0x00000954      0x5ce /local/mnt/workspace/CRMBuilds/TZ.BF.4.0.3.c1-00005-M8996AAAAANAZT-1_20170110_230814/b/HK11/trustzone_images/core/securemsm/sse/qsee/SecureUI/build/secure_ui_sample/scorpion/IADAANAA/secure_ui_tui.lib(qsee_tui_dialogs.o)
 .debug_pubtypes
                0x00000f22      0x44d /local/mnt/workspace/CRMBuilds/TZ.BF.4.0.3.c1-00005-M8996AAAAANAZT-1_20170110_230814/b/HK11/trustzone_images/core/securemsm/sse/qsee/SecureUI/build/secure_ui_sample/scorpion/IADAANAA/secure_ui_tui.lib(layout_manager.o)
 .debug_pubtypes
                0x0000136f      0x62c /local/mnt/workspace/CRMBuilds/TZ.BF.4.0.3.c1-00005-M8996AAAAANAZT-1_20170110_230814/b/HK11/trustzone_images/core/securemsm/sse/qsee/SecureUI/build/secure_ui_sample/scorpion/IADAANAA/secure_ui_tui.lib(secure_display_renderer.o)
 .debug_pubtypes
                0x0000199b      0x368 /local/mnt/workspace/CRMBuilds/TZ.BF.4.0.3.c1-00005-M8996AAAAANAZT-1_20170110_230814/b/HK11/trustzone_images/core/securemsm/sse/qsee/SecureUI/build/secure_ui_sample/scorpion/IADAANAA/secure_ui_tui.lib(font_manager.o)
 .debug_pubtypes
                0x00001d03      0x297 /local/mnt/workspace/CRMBuilds/TZ.BF.4.0.3.c1-00005-M8996AAAAANAZT-1_20170110_230814/b/HK11/trustzone_images/core/securemsm/sse/qsee/SecureUILib/lib/build/secure_ui_sample/scorpion/IADAANAA/secure_ui_lib.lib(SecureUILib.o)
 .debug_pubtypes
                0x00001f9a      0x1b9 /local/mnt/workspace/CRMBuilds/TZ.BF.4.0.3.c1-00005-M8996AAAAANAZT-1_20170110_230814/b/HK11/trustzone_images/core/securemsm/sse/qsee/SecureUILib/lib/build/secure_ui_sample/scorpion/IADAANAA/secure_ui_lib.lib(01_startTouch.o)
 .debug_pubtypes
                0x00002153      0x1f2 /local/mnt/workspace/CRMBuilds/TZ.BF.4.0.3.c1-00005-M8996AAAAANAZT-1_20170110_230814/b/HK11/trustzone_images/core/securemsm/sse/qsee/SecureUILib/lib/build/secure_ui_sample/scorpion/IADAANAA/secure_ui_lib.lib(02_processTouch.o)
 .debug_pubtypes
                0x00002345      0x1c3 /local/mnt/workspace/CRMBuilds/TZ.BF.4.0.3.c1-00005-M8996AAAAANAZT-1_20170110_230814/b/HK11/trustzone_images/core/securemsm/sse/qsee/SecureUILib/lib/build/secure_ui_sample/scorpion/IADAANAA/secure_ui_lib.lib(03_stopTouch.o)
 .debug_pubtypes
                0x00002508      0x1b9 /local/mnt/workspace/CRMBuilds/TZ.BF.4.0.3.c1-00005-M8996AAAAANAZT-1_20170110_230814/b/HK11/trustzone_images/core/securemsm/sse/qsee/SecureUILib/lib/build/secure_ui_sample/scorpion/IADAANAA/secure_ui_lib.lib(04_prepareRequest.o)
 .debug_pubtypes
                0x000026c1      0x1e2 /local/mnt/workspace/CRMBuilds/TZ.BF.4.0.3.c1-00005-M8996AAAAANAZT-1_20170110_230814/b/HK11/trustzone_images/core/securemsm/sse/qsee/SecureUILib/lib/build/secure_ui_sample/scorpion/IADAANAA/secure_ui_lib.lib(05_storeIndicator.o)
 .debug_pubtypes
                0x000028a3      0x4a5 /local/mnt/workspace/CRMBuilds/TZ.BF.4.0.3.c1-00005-M8996AAAAANAZT-1_20170110_230814/b/HK11/trustzone_images/core/securemsm/trustzone/qsapps/libs/applib/common_applib/build/secure_ui_sample/scorpion/IADAANAA/tzapp_entrylib.lib(common_applib.o)
 .debug_pubtypes
                0x00002d48     0x10f1 /local/mnt/workspace/CRMBuilds/TZ.BF.4.0.3.c1-00005-M8996AAAAANAZT-1_20170110_230814/b/HK11/trustzone_images/core/securemsm/trustzone/qsapps/libs/applib/proxy/build/secure_ui_sample/scorpion/IADAANAA/tzlib_proxy.lib(prxy_services.o)
 .debug_pubtypes
                0x00003e39      0x3b4 /local/mnt/workspace/CRMBuilds/TZ.BF.4.0.3.c1-00005-M8996AAAAANAZT-1_20170110_230814/b/HK11/trustzone_images/core/securemsm/trustzone/qsapps/libs/applib/proxy/build/secure_ui_sample/scorpion/IADAANAA/tzlib_proxy.lib(prxy_qsee_shim.o)
 .debug_pubtypes
                0x000041ed     0x10c1 /local/mnt/workspace/CRMBuilds/TZ.BF.4.0.3.c1-00005-M8996AAAAANAZT-1_20170110_230814/b/HK11/trustzone_images/core/securemsm/trustzone/qsapps/libs/applib/proxy/build/secure_ui_sample/scorpion/IADAANAA/tzlib_proxy.lib(prxy_ufdes.o)
 .debug_pubtypes
                0x000052ae     0x10c1 /local/mnt/workspace/CRMBuilds/TZ.BF.4.0.3.c1-00005-M8996AAAAANAZT-1_20170110_230814/b/HK11/trustzone_images/core/securemsm/trustzone/qsapps/libs/applib/proxy/build/secure_ui_sample/scorpion/IADAANAA/tzlib_proxy.lib(prxy_secmath.o)
 .debug_pubtypes
                0x0000636f     0x10c1 /local/mnt/workspace/CRMBuilds/TZ.BF.4.0.3.c1-00005-M8996AAAAANAZT-1_20170110_230814/b/HK11/trustzone_images/core/securemsm/trustzone/qsapps/libs/applib/proxy/build/secure_ui_sample/scorpion/IADAANAA/tzlib_proxy.lib(prxy_secrsa.o)
 .debug_pubtypes
                0x00007430     0x10c1 /local/mnt/workspace/CRMBuilds/TZ.BF.4.0.3.c1-00005-M8996AAAAANAZT-1_20170110_230814/b/HK11/trustzone_images/core/securemsm/trustzone/qsapps/libs/applib/proxy/build/secure_ui_sample/scorpion/IADAANAA/tzlib_proxy.lib(prxy_ecc.o)
 .debug_pubtypes
                0x000084f1       0xf8 /local/mnt/workspace/CRMBuilds/TZ.BF.4.0.3.c1-00005-M8996AAAAANAZT-1_20170110_230814/b/HK11/trustzone_images/core/securemsm/trustzone/qsapps/libs/applib/qsee/build/secure_ui_sample/scorpion/IADAANAA/tzapp_entrylib.lib(mink_shared_code.o)
 .debug_pubtypes
                0x000085e9       0xfc /local/mnt/workspace/CRMBuilds/TZ.BF.4.0.3.c1-00005-M8996AAAAANAZT-1_20170110_230814/b/HK11/trustzone_images/core/securemsm/trustzone/qsapps/libs/applib/qsee/build/secure_ui_sample/scorpion/IADAANAA/tzapp_entrylib.lib(qsee_env.o)
 .debug_pubtypes
                0x000086e5       0xe1 /local/mnt/workspace/CRMBuilds/TZ.BF.4.0.3.c1-00005-M8996AAAAANAZT-1_20170110_230814/b/HK11/trustzone_images/core/securemsm/trustzone/qsapps/libs/applib/qsee/build/secure_ui_sample/scorpion/IADAANAA/tzapp_entrylib.lib(qsee_prng.o)
 .debug_pubtypes
                0x000087c6       0xcd /local/mnt/workspace/CRMBuilds/TZ.BF.4.0.3.c1-00005-M8996AAAAANAZT-1_20170110_230814/b/HK11/trustzone_images/core/securemsm/trustzone/qsapps/libs/applib/qsee/build/secure_ui_sample/scorpion/IADAANAA/tzapp_entrylib.lib(qsee_secdisp.o)
 .debug_pubtypes
                0x00008893       0xf5 /local/mnt/workspace/CRMBuilds/TZ.BF.4.0.3.c1-00005-M8996AAAAANAZT-1_20170110_230814/b/HK11/trustzone_images/core/securemsm/trustzone/qsapps/libs/applib/qsee/build/secure_ui_sample/scorpion/IADAANAA/tzapp_entrylib.lib(qsee_nsmem.o)
 .debug_pubtypes
                0x00008988       0x2d /local/mnt/workspace/CRMBuilds/TZ.BF.4.0.3.c1-00005-M8996AAAAANAZT-1_20170110_230814/b/HK11/trustzone_images/core/securemsm/trustzone/qsapps/libs/applib/qsee/build/secure_ui_sample/scorpion/IADAANAA/tzapp_entrylib.lib(qsee_timer_shim.o)
 .debug_pubtypes
                0x000089b5      0x18c /local/mnt/workspace/CRMBuilds/TZ.BF.4.0.3.c1-00005-M8996AAAAANAZT-1_20170110_230814/b/HK11/trustzone_images/core/securemsm/trustzone/qsapps/libs/applib/qsee/build/secure_ui_sample/scorpion/IADAANAA/tzapp_entrylib.lib(qsee_hash.o)
 .debug_pubtypes
                0x00008b41       0xeb /local/mnt/workspace/CRMBuilds/TZ.BF.4.0.3.c1-00005-M8996AAAAANAZT-1_20170110_230814/b/HK11/trustzone_images/core/securemsm/trustzone/qsapps/libs/applib/qsee/build/secure_ui_sample/scorpion/IADAANAA/tzapp_entrylib.lib(qsee_shared_buffer.o)
 .debug_pubtypes
                0x00008c2c       0xea /local/mnt/workspace/CRMBuilds/TZ.BF.4.0.3.c1-00005-M8996AAAAANAZT-1_20170110_230814/b/HK11/trustzone_images/core/securemsm/trustzone/qsapps/libs/applib/qsee/build/secure_ui_sample/scorpion/IADAANAA/tzapp_entrylib.lib(qsee_appmessage.o)
 .debug_pubtypes
                0x00008d16      0x118 /local/mnt/workspace/CRMBuilds/TZ.BF.4.0.3.c1-00005-M8996AAAAANAZT-1_20170110_230814/b/HK11/trustzone_images/core/securemsm/trustzone/qsapps/libs/applib/qsee/build/secure_ui_sample/scorpion/IADAANAA/tzapp_entrylib.lib(sfs_api.o)
 .debug_pubtypes
                0x00008e2e       0xeb /local/mnt/workspace/CRMBuilds/TZ.BF.4.0.3.c1-00005-M8996AAAAANAZT-1_20170110_230814/b/HK11/trustzone_images/core/securemsm/trustzone/qsapps/libs/applib/qsee/build/secure_ui_sample/scorpion/IADAANAA/tzapp_entrylib.lib(tzapp_lib_main.o)
 .debug_pubtypes
                0x00008f19      0x394 /local/mnt/workspace/CRMBuilds/TZ.BF.4.0.3.c1-00005-M8996AAAAANAZT-1_20170110_230814/b/HK11/trustzone_images/apps/securemsm/trustzone/qsapps/secure_ui_sample/layouts/build/secure_ui_sample/scorpion/IADAANAA/secure_ui_layout.lib(layout_8996_fluid.o)
 .debug_pubtypes
                0x000092ad       0x54 /local/mnt/workspace/CRMBuilds/TZ.BF.4.0.3.c1-00005-M8996AAAAANAZT-1_20170110_230814/b/HK11/trustzone_images/core/kernel/libstd/build/secure_ui_sample/scorpion/IADAANAA/libstd.lib(secure_memset.o)
 .debug_pubtypes
                0x00009301      0x3cf /local/mnt/workspace/CRMBuilds/TZ.BF.4.0.3.c1-00005-M8996AAAAANAZT-1_20170110_230814/b/HK11/trustzone_images/core/securemsm/sse/SecureTouch/layout/build/secure_ui_sample/scorpion/IADAANAA/sklayout.lib(layoutUtils.o)
 .debug_pubtypes
                0x000096d0      0x144 /local/mnt/workspace/CRMBuilds/TZ.BF.4.0.3.c1-00005-M8996AAAAANAZT-1_20170110_230814/b/HK11/trustzone_images/core/securemsm/sse/qsee/SecureDisplay/libgd/build/secure_ui_sample/scorpion/IADAANAA/libgd.lib(gd.o)
 .debug_pubtypes
                0x00009814       0xb2 /local/mnt/workspace/CRMBuilds/TZ.BF.4.0.3.c1-00005-M8996AAAAANAZT-1_20170110_230814/b/HK11/trustzone_images/core/securemsm/sse/qsee/SecureDisplay/libgd/build/secure_ui_sample/scorpion/IADAANAA/libgd.lib(gd_color.o)
 .debug_pubtypes
                0x000098c6       0x1a /local/mnt/workspace/CRMBuilds/TZ.BF.4.0.3.c1-00005-M8996AAAAANAZT-1_20170110_230814/b/HK11/trustzone_images/core/securemsm/sse/qsee/SecureDisplay/libgd/build/secure_ui_sample/scorpion/IADAANAA/libgd.lib(gd_security.o)
 .debug_pubtypes
                0x000098e0       0x1a /local/mnt/workspace/CRMBuilds/TZ.BF.4.0.3.c1-00005-M8996AAAAANAZT-1_20170110_230814/b/HK11/trustzone_images/core/securemsm/sse/qsee/SecureDisplay/libgd/build/secure_ui_sample/scorpion/IADAANAA/libgd.lib(gdtables.o)
 .debug_pubtypes
                0x000098fa      0x313 /local/mnt/workspace/CRMBuilds/TZ.BF.4.0.3.c1-00005-M8996AAAAANAZT-1_20170110_230814/b/HK11/trustzone_images/core/securemsm/sse/qsee/SecureDisplay/libpng/build/secure_ui_sample/scorpion/IADAANAA/libpng.lib(png.o)
 .debug_pubtypes
                0x00009c0d      0x2d7 /local/mnt/workspace/CRMBuilds/TZ.BF.4.0.3.c1-00005-M8996AAAAANAZT-1_20170110_230814/b/HK11/trustzone_images/core/securemsm/sse/qsee/SecureDisplay/libpng/build/secure_ui_sample/scorpion/IADAANAA/libpng.lib(pngerror.o)
 .debug_pubtypes
                0x00009ee4      0x2fa /local/mnt/workspace/CRMBuilds/TZ.BF.4.0.3.c1-00005-M8996AAAAANAZT-1_20170110_230814/b/HK11/trustzone_images/core/securemsm/sse/qsee/SecureDisplay/libpng/build/secure_ui_sample/scorpion/IADAANAA/libpng.lib(pngget.o)
 .debug_pubtypes
                0x0000a1de      0x2c9 /local/mnt/workspace/CRMBuilds/TZ.BF.4.0.3.c1-00005-M8996AAAAANAZT-1_20170110_230814/b/HK11/trustzone_images/core/securemsm/sse/qsee/SecureDisplay/libpng/build/secure_ui_sample/scorpion/IADAANAA/libpng.lib(pngmem.o)
 .debug_pubtypes
                0x0000a4a7      0x30e /local/mnt/workspace/CRMBuilds/TZ.BF.4.0.3.c1-00005-M8996AAAAANAZT-1_20170110_230814/b/HK11/trustzone_images/core/securemsm/sse/qsee/SecureDisplay/libpng/build/secure_ui_sample/scorpion/IADAANAA/libpng.lib(pngread.o)
 .debug_pubtypes
                0x0000a7b5      0x2b2 /local/mnt/workspace/CRMBuilds/TZ.BF.4.0.3.c1-00005-M8996AAAAANAZT-1_20170110_230814/b/HK11/trustzone_images/core/securemsm/sse/qsee/SecureDisplay/libpng/build/secure_ui_sample/scorpion/IADAANAA/libpng.lib(pngrio.o)
 .debug_pubtypes
                0x0000aa67      0x2f6 /local/mnt/workspace/CRMBuilds/TZ.BF.4.0.3.c1-00005-M8996AAAAANAZT-1_20170110_230814/b/HK11/trustzone_images/core/securemsm/sse/qsee/SecureDisplay/libpng/build/secure_ui_sample/scorpion/IADAANAA/libpng.lib(pngrutil.o)
 .debug_pubtypes
                0x0000ad5d      0x30b /local/mnt/workspace/CRMBuilds/TZ.BF.4.0.3.c1-00005-M8996AAAAANAZT-1_20170110_230814/b/HK11/trustzone_images/core/securemsm/sse/qsee/SecureDisplay/libpng/build/secure_ui_sample/scorpion/IADAANAA/libpng.lib(pngset.o)
 .debug_pubtypes
                0x0000b068       0x7f /local/mnt/workspace/CRMBuilds/TZ.BF.4.0.3.c1-00005-M8996AAAAANAZT-1_20170110_230814/b/HK11/trustzone_images/core/securemsm/sse/qsee/SecureDisplay/zlib/build/secure_ui_sample/scorpion/IADAANAA/zlib.lib(crc32.o)
 .debug_pubtypes
                0x0000b0e7      0x14d /local/mnt/workspace/CRMBuilds/TZ.BF.4.0.3.c1-00005-M8996AAAAANAZT-1_20170110_230814/b/HK11/trustzone_images/core/securemsm/sse/qsee/SecureDisplay/zlib/build/secure_ui_sample/scorpion/IADAANAA/zlib.lib(inflate.o)
 .debug_pubtypes
                0x0000b234       0x6f /local/mnt/workspace/CRMBuilds/TZ.BF.4.0.3.c1-00005-M8996AAAAANAZT-1_20170110_230814/b/HK11/trustzone_images/core/securemsm/sse/qsee/SecureDisplay/zlib/build/secure_ui_sample/scorpion/IADAANAA/zlib.lib(inftrees.o)
 .debug_pubtypes
                0x0000b2a3       0x5f /local/mnt/workspace/CRMBuilds/TZ.BF.4.0.3.c1-00005-M8996AAAAANAZT-1_20170110_230814/b/HK11/trustzone_images/core/securemsm/sse/qsee/SecureDisplay/zlib/build/secure_ui_sample/scorpion/IADAANAA/zlib.lib(zutil.o)
 .debug_pubtypes
                0x0000b302       0x7e /local/mnt/workspace/CRMBuilds/TZ.BF.4.0.3.c1-00005-M8996AAAAANAZT-1_20170110_230814/b/HK11/trustzone_images/core/securemsm/sse/qsee/SecureDisplay/zlib/build/secure_ui_sample/scorpion/IADAANAA/zlib.lib(adler32.o)
 .debug_pubtypes
                0x0000b380      0x140 /local/mnt/workspace/CRMBuilds/TZ.BF.4.0.3.c1-00005-M8996AAAAANAZT-1_20170110_230814/b/HK11/trustzone_images/core/securemsm/sse/qsee/SecureDisplay/zlib/build/secure_ui_sample/scorpion/IADAANAA/zlib.lib(inffast.o)
 .debug_pubtypes
                0x0000b4c0       0x58 /local/mnt/workspace/CRMBuilds/TZ.BF.4.0.3.c1-00005-M8996AAAAANAZT-1_20170110_230814/b/HK11/trustzone_images/core/securemsm/sse/qsee/SecureTouch/drTs/lib/build/secure_ui_sample/scorpion/IADAANAA/touch_lib.lib(01_open.o)
 .debug_pubtypes
                0x0000b518       0x4b /local/mnt/workspace/CRMBuilds/TZ.BF.4.0.3.c1-00005-M8996AAAAANAZT-1_20170110_230814/b/HK11/trustzone_images/core/securemsm/sse/qsee/SecureTouch/drTs/lib/build/secure_ui_sample/scorpion/IADAANAA/touch_lib.lib(02_close.o)
 .debug_pubtypes
                0x0000b563       0x97 /local/mnt/workspace/CRMBuilds/TZ.BF.4.0.3.c1-00005-M8996AAAAANAZT-1_20170110_230814/b/HK11/trustzone_images/core/securemsm/sse/qsee/SecureTouch/drTs/lib/build/secure_ui_sample/scorpion/IADAANAA/touch_lib.lib(03_getData.o)
 .debug_pubtypes
                0x0000b5fa      0x11c /local/mnt/workspace/CRMBuilds/TZ.BF.4.0.3.c1-00005-M8996AAAAANAZT-1_20170110_230814/b/HK11/trustzone_images/core/securemsm/trustzone/qsapps/libs/applib/common_applib/build/secure_ui_sample/scorpion/IADAANAA/tzapp_entrylib.lib(gpPersistObjCommon.o)
 .debug_pubtypes
                0x0000b716      0x158 /local/mnt/workspace/CRMBuilds/TZ.BF.4.0.3.c1-00005-M8996AAAAANAZT-1_20170110_230814/b/HK11/trustzone_images/core/securemsm/trustzone/qsapps/libs/applib/common_applib/build/secure_ui_sample/scorpion/IADAANAA/tzapp_entrylib.lib(gpPersistentObjects.o)
 .debug_pubtypes
                0x0000b86e      0x15b /local/mnt/workspace/CRMBuilds/TZ.BF.4.0.3.c1-00005-M8996AAAAANAZT-1_20170110_230814/b/HK11/trustzone_images/core/securemsm/trustzone/qsapps/libs/applib/common_applib/build/secure_ui_sample/scorpion/IADAANAA/tzapp_entrylib.lib(gpPersistObjData.o)
 .debug_pubtypes
                0x0000b9c9      0x119 /local/mnt/workspace/CRMBuilds/TZ.BF.4.0.3.c1-00005-M8996AAAAANAZT-1_20170110_230814/b/HK11/trustzone_images/core/securemsm/trustzone/qsapps/libs/applib/common_applib/build/secure_ui_sample/scorpion/IADAANAA/tzapp_entrylib.lib(gpPersistObjHandler.o)
 .debug_pubtypes
                0x0000bae2      0x156 /local/mnt/workspace/CRMBuilds/TZ.BF.4.0.3.c1-00005-M8996AAAAANAZT-1_20170110_230814/b/HK11/trustzone_images/core/securemsm/trustzone/qsapps/libs/applib/common_applib/build/secure_ui_sample/scorpion/IADAANAA/tzapp_entrylib.lib(gpPersistObjIndex.o)
 .debug_pubtypes
                0x0000bc38      0x13e /local/mnt/workspace/CRMBuilds/TZ.BF.4.0.3.c1-00005-M8996AAAAANAZT-1_20170110_230814/b/HK11/trustzone_images/core/securemsm/trustzone/qsapps/libs/applib/common_applib/build/secure_ui_sample/scorpion/IADAANAA/tzapp_entrylib.lib(gpPersistObjVersion.o)
 .debug_pubtypes
                0x0000bd76       0xcc /local/mnt/workspace/CRMBuilds/TZ.BF.4.0.3.c1-00005-M8996AAAAANAZT-1_20170110_230814/b/HK11/trustzone_images/core/securemsm/trustzone/qsapps/libs/applib/common_applib/build/secure_ui_sample/scorpion/IADAANAA/tzapp_entrylib.lib(gpPersistObjCrypto.o)
 .debug_pubtypes
                0x0000be42       0xb8 /local/mnt/workspace/CRMBuilds/TZ.BF.4.0.3.c1-00005-M8996AAAAANAZT-1_20170110_230814/b/HK11/trustzone_images/core/securemsm/trustzone/qsapps/libs/applib/common_applib/build/secure_ui_sample/scorpion/IADAANAA/tzapp_entrylib.lib(gpPersistObjFileIO.o)
 .debug_pubtypes
                0x0000befa      0x233 /local/mnt/workspace/CRMBuilds/TZ.BF.4.0.3.c1-00005-M8996AAAAANAZT-1_20170110_230814/b/HK11/trustzone_images/core/securemsm/trustzone/qsapps/libs/applib/common_applib/build/secure_ui_sample/scorpion/IADAANAA/tzapp_entrylib.lib(gpFileService.o)
 .debug_pubtypes
                0x0000c12d      0x13f /local/mnt/workspace/CRMBuilds/TZ.BF.4.0.3.c1-00005-M8996AAAAANAZT-1_20170110_230814/b/HK11/trustzone_images/core/securemsm/trustzone/qsapps/libs/applib/qsee/build/secure_ui_sample/scorpion/IADAANAA/tzapp_entrylib.lib(qsee_core_shim.o)
 .debug_pubtypes
                0x0000c26c      0x19f /local/mnt/workspace/CRMBuilds/TZ.BF.4.0.3.c1-00005-M8996AAAAANAZT-1_20170110_230814/b/HK11/trustzone_images/core/securemsm/trustzone/qsapps/libs/applib/qsee/build/secure_ui_sample/scorpion/IADAANAA/tzapp_entrylib.lib(stor.o)
 .debug_pubtypes
                0x0000c40b      0x32f /local/mnt/workspace/CRMBuilds/TZ.BF.4.0.3.c1-00005-M8996AAAAANAZT-1_20170110_230814/b/HK11/trustzone_images/core/securemsm/trustzone/qsapps/libs/applib/qsee/build/secure_ui_sample/scorpion/IADAANAA/tzapp_entrylib.lib(stor_gpt.o)
 .debug_pubtypes
                0x0000c73a      0x193 /local/mnt/workspace/CRMBuilds/TZ.BF.4.0.3.c1-00005-M8996AAAAANAZT-1_20170110_230814/b/HK11/trustzone_images/core/securemsm/trustzone/qsapps/libs/applib/qsee/build/secure_ui_sample/scorpion/IADAANAA/tzapp_entrylib.lib(stor_rpmbw.o)
 .debug_pubtypes
                0x0000c8cd       0x81 /local/mnt/workspace/CRMBuilds/TZ.BF.4.0.3.c1-00005-M8996AAAAANAZT-1_20170110_230814/b/HK11/trustzone_images/core/securemsm/trustzone/qsapps/libs/applib/qsee/build/secure_ui_sample/scorpion/IADAANAA/tzapp_entrylib.lib(qsee_cfg_prop_shim.o)
 .debug_pubtypes
                0x0000c94e      0x167 /local/mnt/workspace/CRMBuilds/TZ.BF.4.0.3.c1-00005-M8996AAAAANAZT-1_20170110_230814/b/HK11/trustzone_images/core/securemsm/trustzone/qsapps/libs/applib/qsee/build/secure_ui_sample/scorpion/IADAANAA/tzapp_entrylib.lib(qsee_cipher.o)
 .debug_pubtypes
                0x0000cab5      0x157 /local/mnt/workspace/CRMBuilds/TZ.BF.4.0.3.c1-00005-M8996AAAAANAZT-1_20170110_230814/b/HK11/trustzone_images/core/securemsm/trustzone/qsapps/libs/applib/qsee/build/secure_ui_sample/scorpion/IADAANAA/tzapp_entrylib.lib(qsee_hmac.o)
 .debug_pubtypes
                0x0000cc0c       0x3f /local/mnt/workspace/CRMBuilds/TZ.BF.4.0.3.c1-00005-M8996AAAAANAZT-1_20170110_230814/b/HK11/trustzone_images/core/securemsm/trustzone/qsapps/libs/applib/qsee/build/secure_ui_sample/scorpion/IADAANAA/tzapp_entrylib.lib(gpPersistObjPanic.o)
 .debug_pubtypes
                0x0000cc4b       0x54 /local/mnt/workspace/CRMBuilds/TZ.BF.4.0.3.c1-00005-M8996AAAAANAZT-1_20170110_230814/b/HK11/trustzone_images/core/kernel/libstd/build/secure_ui_sample/scorpion/IADAANAA/libstd.lib(timesafe_memcmp.o)
 .debug_pubtypes
                0x0000cc9f      0x138 /local/mnt/workspace/CRMBuilds/TZ.BF.4.0.3.c1-00005-M8996AAAAANAZT-1_20170110_230814/b/HK11/trustzone_images/core/securemsm/sse/SecureTouch/controller/build/secure_ui_sample/scorpion/IADAANAA/drts_controller_msm8996.lib(atmel_mxt_ts.o)
 .debug_pubtypes
                0x0000cdd7      0x15d /local/mnt/workspace/CRMBuilds/TZ.BF.4.0.3.c1-00005-M8996AAAAANAZT-1_20170110_230814/b/HK11/trustzone_images/core/securemsm/sse/SecureTouch/controller/build/secure_ui_sample/scorpion/IADAANAA/drts_controller_msm8996.lib(synaptics_ts.o)
 .debug_pubtypes
                0x0000cf34       0x4a /local/mnt/workspace/CRMBuilds/TZ.BF.4.0.3.c1-00005-M8996AAAAANAZT-1_20170110_230814/b/HK11/trustzone_images/core/securemsm/sse/log/build/secure_ui_sample/scorpion/IADAANAA/sselog.lib(sselog.o)
 .debug_pubtypes
                0x0000cf7e      0x15b /local/mnt/workspace/CRMBuilds/TZ.BF.4.0.3.c1-00005-M8996AAAAANAZT-1_20170110_230814/b/HK11/trustzone_images/core/securemsm/sse/qsee/SecureTouch/drTs/controller/build/secure_ui_sample/scorpion/IADAANAA/touch_controller_i2c_msm8996.lib(atmel_mxt_ts_i2c.o)
 .debug_pubtypes
                0x0000d0d9      0x15b /local/mnt/workspace/CRMBuilds/TZ.BF.4.0.3.c1-00005-M8996AAAAANAZT-1_20170110_230814/b/HK11/trustzone_images/core/securemsm/sse/qsee/SecureTouch/drTs/controller/build/secure_ui_sample/scorpion/IADAANAA/touch_controller_i2c_msm8996.lib(synaptics_ts_i2c.o)
 .debug_pubtypes
                0x0000d234      0x23b /local/mnt/workspace/CRMBuilds/TZ.BF.4.0.3.c1-00005-M8996AAAAANAZT-1_20170110_230814/b/HK11/trustzone_images/core/securemsm/trustzone/qsapps/libs/applib/qsee/build/secure_ui_sample/scorpion/IADAANAA/tzapp_entrylib.lib(qsee_i2c.o)

.debug_str      0x00000000    0x129b7
 .debug_str     0x00000000     0x1f6c /local/mnt/workspace/CRMBuilds/TZ.BF.4.0.3.c1-00005-M8996AAAAANAZT-1_20170110_230814/b/HK11/trustzone_images/apps/securemsm/trustzone/qsapps/secure_ui_sample/build/secure_ui_sample/scorpion/IADAANAA/app_main.o
                               0x2113 (size before relaxing)
 .debug_str     0x00001f6c      0x10a /local/mnt/workspace/CRMBuilds/TZ.BF.4.0.3.c1-00005-M8996AAAAANAZT-1_20170110_230814/b/HK11/trustzone_images/apps/securemsm/trustzone/qsapps/secure_ui_sample/build/secure_ui_sample/scorpion/IADAANAA/metadata.o
                                0x1be (size before relaxing)
 .debug_str     0x00002076      0x122 /local/mnt/workspace/CRMBuilds/TZ.BF.4.0.3.c1-00005-M8996AAAAANAZT-1_20170110_230814/b/HK11/trustzone_images/core/kernel/libstd/build/secure_ui_sample/scorpion/IADAANAA/libstd.lib(memscpy.o)
                                0x15d (size before relaxing)
 .debug_str     0x00002198       0x95 /local/mnt/workspace/CRMBuilds/TZ.BF.4.0.3.c1-00005-M8996AAAAANAZT-1_20170110_230814/b/HK11/trustzone_images/core/kernel/libstd/build/secure_ui_sample/scorpion/IADAANAA/libstd.lib(strlcat.o)
                                0x155 (size before relaxing)
 .debug_str     0x0000222d       0x91 /local/mnt/workspace/CRMBuilds/TZ.BF.4.0.3.c1-00005-M8996AAAAANAZT-1_20170110_230814/b/HK11/trustzone_images/core/kernel/libstd/build/secure_ui_sample/scorpion/IADAANAA/libstd.lib(strlcpy.o)
                                0x150 (size before relaxing)
 .debug_str     0x000022be      0xa11 /local/mnt/workspace/CRMBuilds/TZ.BF.4.0.3.c1-00005-M8996AAAAANAZT-1_20170110_230814/b/HK11/trustzone_images/core/securemsm/sse/qsee/SecureUI/build/secure_ui_sample/scorpion/IADAANAA/secure_ui.lib(SecureUI.o)
                               0x1115 (size before relaxing)
 .debug_str     0x00002ccf      0x43f /local/mnt/workspace/CRMBuilds/TZ.BF.4.0.3.c1-00005-M8996AAAAANAZT-1_20170110_230814/b/HK11/trustzone_images/core/securemsm/sse/qsee/SecureUI/build/secure_ui_sample/scorpion/IADAANAA/secure_ui_tui.lib(qsee_tui_dialogs.o)
                               0x1e50 (size before relaxing)
 .debug_str     0x0000310e      0x855 /local/mnt/workspace/CRMBuilds/TZ.BF.4.0.3.c1-00005-M8996AAAAANAZT-1_20170110_230814/b/HK11/trustzone_images/core/securemsm/sse/qsee/SecureUI/build/secure_ui_sample/scorpion/IADAANAA/secure_ui_tui.lib(layout_manager.o)
                               0x1816 (size before relaxing)
 .debug_str     0x00003963      0xc16 /local/mnt/workspace/CRMBuilds/TZ.BF.4.0.3.c1-00005-M8996AAAAANAZT-1_20170110_230814/b/HK11/trustzone_images/core/securemsm/sse/qsee/SecureUI/build/secure_ui_sample/scorpion/IADAANAA/secure_ui_tui.lib(secure_display_renderer.o)
                               0x1bfc (size before relaxing)
 .debug_str     0x00004579      0xa41 /local/mnt/workspace/CRMBuilds/TZ.BF.4.0.3.c1-00005-M8996AAAAANAZT-1_20170110_230814/b/HK11/trustzone_images/core/securemsm/sse/qsee/SecureUI/build/secure_ui_sample/scorpion/IADAANAA/secure_ui_tui.lib(font_manager.o)
                               0x114e (size before relaxing)
 .debug_str     0x00004fba      0x3f0 /local/mnt/workspace/CRMBuilds/TZ.BF.4.0.3.c1-00005-M8996AAAAANAZT-1_20170110_230814/b/HK11/trustzone_images/core/securemsm/sse/qsee/SecureUILib/lib/build/secure_ui_sample/scorpion/IADAANAA/secure_ui_lib.lib(SecureUILib.o)
                                0xbde (size before relaxing)
 .debug_str     0x000053aa       0xd4 /local/mnt/workspace/CRMBuilds/TZ.BF.4.0.3.c1-00005-M8996AAAAANAZT-1_20170110_230814/b/HK11/trustzone_images/core/securemsm/sse/qsee/SecureUILib/lib/build/secure_ui_sample/scorpion/IADAANAA/secure_ui_lib.lib(01_startTouch.o)
                                0x48f (size before relaxing)
 .debug_str     0x0000547e       0xd9 /local/mnt/workspace/CRMBuilds/TZ.BF.4.0.3.c1-00005-M8996AAAAANAZT-1_20170110_230814/b/HK11/trustzone_images/core/securemsm/sse/qsee/SecureUILib/lib/build/secure_ui_sample/scorpion/IADAANAA/secure_ui_lib.lib(02_processTouch.o)
                                0x4f9 (size before relaxing)
 .debug_str     0x00005557       0xd0 /local/mnt/workspace/CRMBuilds/TZ.BF.4.0.3.c1-00005-M8996AAAAANAZT-1_20170110_230814/b/HK11/trustzone_images/core/securemsm/sse/qsee/SecureUILib/lib/build/secure_ui_sample/scorpion/IADAANAA/secure_ui_lib.lib(03_stopTouch.o)
                                0x4a6 (size before relaxing)
 .debug_str     0x00005627      0x173 /local/mnt/workspace/CRMBuilds/TZ.BF.4.0.3.c1-00005-M8996AAAAANAZT-1_20170110_230814/b/HK11/trustzone_images/core/securemsm/sse/qsee/SecureUILib/lib/build/secure_ui_sample/scorpion/IADAANAA/secure_ui_lib.lib(04_prepareRequest.o)
                                0x544 (size before relaxing)
 .debug_str     0x0000579a       0xd6 /local/mnt/workspace/CRMBuilds/TZ.BF.4.0.3.c1-00005-M8996AAAAANAZT-1_20170110_230814/b/HK11/trustzone_images/core/securemsm/sse/qsee/SecureUILib/lib/build/secure_ui_sample/scorpion/IADAANAA/secure_ui_lib.lib(05_storeIndicator.o)
                                0x5d9 (size before relaxing)
 .debug_str     0x00005870      0xd26 /local/mnt/workspace/CRMBuilds/TZ.BF.4.0.3.c1-00005-M8996AAAAANAZT-1_20170110_230814/b/HK11/trustzone_images/core/securemsm/trustzone/qsapps/libs/applib/common_applib/build/secure_ui_sample/scorpion/IADAANAA/tzapp_entrylib.lib(common_applib.o)
                                0xfb1 (size before relaxing)
 .debug_str     0x00006596     0x1f8a /local/mnt/workspace/CRMBuilds/TZ.BF.4.0.3.c1-00005-M8996AAAAANAZT-1_20170110_230814/b/HK11/trustzone_images/core/securemsm/trustzone/qsapps/libs/applib/proxy/build/secure_ui_sample/scorpion/IADAANAA/tzlib_proxy.lib(prxy_services.o)
                               0x2d35 (size before relaxing)
 .debug_str     0x00008520      0x7a6 /local/mnt/workspace/CRMBuilds/TZ.BF.4.0.3.c1-00005-M8996AAAAANAZT-1_20170110_230814/b/HK11/trustzone_images/core/securemsm/trustzone/qsapps/libs/applib/proxy/build/secure_ui_sample/scorpion/IADAANAA/tzlib_proxy.lib(prxy_qsee_shim.o)
                               0x15eb (size before relaxing)
 .debug_str     0x00008cc6       0xab /local/mnt/workspace/CRMBuilds/TZ.BF.4.0.3.c1-00005-M8996AAAAANAZT-1_20170110_230814/b/HK11/trustzone_images/core/securemsm/trustzone/qsapps/libs/applib/proxy/build/secure_ui_sample/scorpion/IADAANAA/tzlib_proxy.lib(prxy_ufdes.o)
                               0x2b2f (size before relaxing)
 .debug_str     0x00008d71       0xad /local/mnt/workspace/CRMBuilds/TZ.BF.4.0.3.c1-00005-M8996AAAAANAZT-1_20170110_230814/b/HK11/trustzone_images/core/securemsm/trustzone/qsapps/libs/applib/proxy/build/secure_ui_sample/scorpion/IADAANAA/tzlib_proxy.lib(prxy_secmath.o)
                               0x2af9 (size before relaxing)
 .debug_str     0x00008e1e      0x1c0 /local/mnt/workspace/CRMBuilds/TZ.BF.4.0.3.c1-00005-M8996AAAAANAZT-1_20170110_230814/b/HK11/trustzone_images/core/securemsm/trustzone/qsapps/libs/applib/proxy/build/secure_ui_sample/scorpion/IADAANAA/tzlib_proxy.lib(prxy_secrsa.o)
                               0x2d16 (size before relaxing)
 .debug_str     0x00008fde       0xa9 /local/mnt/workspace/CRMBuilds/TZ.BF.4.0.3.c1-00005-M8996AAAAANAZT-1_20170110_230814/b/HK11/trustzone_images/core/securemsm/trustzone/qsapps/libs/applib/proxy/build/secure_ui_sample/scorpion/IADAANAA/tzlib_proxy.lib(prxy_ecc.o)
                               0x2cb5 (size before relaxing)
 .debug_str     0x00009087      0x166 /local/mnt/workspace/CRMBuilds/TZ.BF.4.0.3.c1-00005-M8996AAAAANAZT-1_20170110_230814/b/HK11/trustzone_images/core/securemsm/trustzone/qsapps/libs/applib/qsee/build/secure_ui_sample/scorpion/IADAANAA/tzapp_entrylib.lib(mink_shared_code.o)
                                0x2f1 (size before relaxing)
 .debug_str     0x000091ed      0x1f6 /local/mnt/workspace/CRMBuilds/TZ.BF.4.0.3.c1-00005-M8996AAAAANAZT-1_20170110_230814/b/HK11/trustzone_images/core/securemsm/trustzone/qsapps/libs/applib/qsee/build/secure_ui_sample/scorpion/IADAANAA/tzapp_entrylib.lib(qsee_env.o)
                                0x3b5 (size before relaxing)
 .debug_str     0x000093e3       0xdf /local/mnt/workspace/CRMBuilds/TZ.BF.4.0.3.c1-00005-M8996AAAAANAZT-1_20170110_230814/b/HK11/trustzone_images/core/securemsm/trustzone/qsapps/libs/applib/qsee/build/secure_ui_sample/scorpion/IADAANAA/tzapp_entrylib.lib(qsee_prng.o)
                                0x279 (size before relaxing)
 .debug_str     0x000094c2      0x154 /local/mnt/workspace/CRMBuilds/TZ.BF.4.0.3.c1-00005-M8996AAAAANAZT-1_20170110_230814/b/HK11/trustzone_images/core/securemsm/trustzone/qsapps/libs/applib/qsee/build/secure_ui_sample/scorpion/IADAANAA/tzapp_entrylib.lib(qsee_secdisp.o)
                                0x2b5 (size before relaxing)
 .debug_str     0x00009616      0x184 /local/mnt/workspace/CRMBuilds/TZ.BF.4.0.3.c1-00005-M8996AAAAANAZT-1_20170110_230814/b/HK11/trustzone_images/core/securemsm/trustzone/qsapps/libs/applib/qsee/build/secure_ui_sample/scorpion/IADAANAA/tzapp_entrylib.lib(qsee_nsmem.o)
                                0x330 (size before relaxing)
 .debug_str     0x0000979a       0xdc /local/mnt/workspace/CRMBuilds/TZ.BF.4.0.3.c1-00005-M8996AAAAANAZT-1_20170110_230814/b/HK11/trustzone_images/core/securemsm/trustzone/qsapps/libs/applib/qsee/build/secure_ui_sample/scorpion/IADAANAA/tzapp_entrylib.lib(qsee_timer_shim.o)
                                0x187 (size before relaxing)
 .debug_str     0x00009876      0x3ee /local/mnt/workspace/CRMBuilds/TZ.BF.4.0.3.c1-00005-M8996AAAAANAZT-1_20170110_230814/b/HK11/trustzone_images/core/securemsm/trustzone/qsapps/libs/applib/qsee/build/secure_ui_sample/scorpion/IADAANAA/tzapp_entrylib.lib(qsee_hash.o)
                                0x633 (size before relaxing)
 .debug_str     0x00009c64      0x156 /local/mnt/workspace/CRMBuilds/TZ.BF.4.0.3.c1-00005-M8996AAAAANAZT-1_20170110_230814/b/HK11/trustzone_images/core/securemsm/trustzone/qsapps/libs/applib/qsee/build/secure_ui_sample/scorpion/IADAANAA/tzapp_entrylib.lib(qsee_shared_buffer.o)
                                0x307 (size before relaxing)
 .debug_str     0x00009dba      0x305 /local/mnt/workspace/CRMBuilds/TZ.BF.4.0.3.c1-00005-M8996AAAAANAZT-1_20170110_230814/b/HK11/trustzone_images/core/securemsm/trustzone/qsapps/libs/applib/qsee/build/secure_ui_sample/scorpion/IADAANAA/tzapp_entrylib.lib(qsee_appmessage.o)
                                0x491 (size before relaxing)
 .debug_str     0x0000a0bf      0x34f /local/mnt/workspace/CRMBuilds/TZ.BF.4.0.3.c1-00005-M8996AAAAANAZT-1_20170110_230814/b/HK11/trustzone_images/core/securemsm/trustzone/qsapps/libs/applib/qsee/build/secure_ui_sample/scorpion/IADAANAA/tzapp_entrylib.lib(sfs_api.o)
                                0xb7d (size before relaxing)
 .debug_str     0x0000a40e      0x2fe /local/mnt/workspace/CRMBuilds/TZ.BF.4.0.3.c1-00005-M8996AAAAANAZT-1_20170110_230814/b/HK11/trustzone_images/core/securemsm/trustzone/qsapps/libs/applib/qsee/build/secure_ui_sample/scorpion/IADAANAA/tzapp_entrylib.lib(tzapp_lib_main.o)
                                0x472 (size before relaxing)
 .debug_str     0x0000a70c     0x1366 /local/mnt/workspace/CRMBuilds/TZ.BF.4.0.3.c1-00005-M8996AAAAANAZT-1_20170110_230814/b/HK11/trustzone_images/apps/securemsm/trustzone/qsapps/secure_ui_sample/layouts/build/secure_ui_sample/scorpion/IADAANAA/secure_ui_layout.lib(layout_8996_fluid.o)
                               0x2016 (size before relaxing)
 .debug_str     0x0000ba72       0xa9 /local/mnt/workspace/CRMBuilds/TZ.BF.4.0.3.c1-00005-M8996AAAAANAZT-1_20170110_230814/b/HK11/trustzone_images/core/kernel/libstd/build/secure_ui_sample/scorpion/IADAANAA/libstd.lib(secure_memset.o)
                                0x179 (size before relaxing)
 .debug_str     0x0000bb1b      0x236 /local/mnt/workspace/CRMBuilds/TZ.BF.4.0.3.c1-00005-M8996AAAAANAZT-1_20170110_230814/b/HK11/trustzone_images/core/securemsm/sse/SecureTouch/layout/build/secure_ui_sample/scorpion/IADAANAA/sklayout.lib(layoutUtils.o)
                               0x1063 (size before relaxing)
 .debug_str     0x0000bd51      0x94c /local/mnt/workspace/CRMBuilds/TZ.BF.4.0.3.c1-00005-M8996AAAAANAZT-1_20170110_230814/b/HK11/trustzone_images/core/securemsm/sse/qsee/SecureDisplay/libgd/build/secure_ui_sample/scorpion/IADAANAA/libgd.lib(gd.o)
                                0xe81 (size before relaxing)
 .debug_str     0x0000c69d       0xbd /local/mnt/workspace/CRMBuilds/TZ.BF.4.0.3.c1-00005-M8996AAAAANAZT-1_20170110_230814/b/HK11/trustzone_images/core/securemsm/sse/qsee/SecureDisplay/libgd/build/secure_ui_sample/scorpion/IADAANAA/libgd.lib(gd_color.o)
                                0x4ab (size before relaxing)
 .debug_str     0x0000c75a       0xb0 /local/mnt/workspace/CRMBuilds/TZ.BF.4.0.3.c1-00005-M8996AAAAANAZT-1_20170110_230814/b/HK11/trustzone_images/core/securemsm/sse/qsee/SecureDisplay/libgd/build/secure_ui_sample/scorpion/IADAANAA/libgd.lib(gd_security.o)
                                0x14c (size before relaxing)
 .debug_str     0x0000c80a       0xb1 /local/mnt/workspace/CRMBuilds/TZ.BF.4.0.3.c1-00005-M8996AAAAANAZT-1_20170110_230814/b/HK11/trustzone_images/core/securemsm/sse/qsee/SecureDisplay/libgd/build/secure_ui_sample/scorpion/IADAANAA/libgd.lib(gdtables.o)
                                0x152 (size before relaxing)
 .debug_str     0x0000c8bb      0x32c /local/mnt/workspace/CRMBuilds/TZ.BF.4.0.3.c1-00005-M8996AAAAANAZT-1_20170110_230814/b/HK11/trustzone_images/core/securemsm/sse/qsee/SecureDisplay/libpng/build/secure_ui_sample/scorpion/IADAANAA/libpng.lib(png.o)
                                0x8ab (size before relaxing)
 .debug_str     0x0000cbe7      0x139 /local/mnt/workspace/CRMBuilds/TZ.BF.4.0.3.c1-00005-M8996AAAAANAZT-1_20170110_230814/b/HK11/trustzone_images/core/securemsm/sse/qsee/SecureDisplay/libpng/build/secure_ui_sample/scorpion/IADAANAA/libpng.lib(pngerror.o)
                                0x6c9 (size before relaxing)
 .debug_str     0x0000cd20      0x12f /local/mnt/workspace/CRMBuilds/TZ.BF.4.0.3.c1-00005-M8996AAAAANAZT-1_20170110_230814/b/HK11/trustzone_images/core/securemsm/sse/qsee/SecureDisplay/libpng/build/secure_ui_sample/scorpion/IADAANAA/libpng.lib(pngget.o)
                                0x6f7 (size before relaxing)
 .debug_str     0x0000ce4f      0x148 /local/mnt/workspace/CRMBuilds/TZ.BF.4.0.3.c1-00005-M8996AAAAANAZT-1_20170110_230814/b/HK11/trustzone_images/core/securemsm/sse/qsee/SecureDisplay/libpng/build/secure_ui_sample/scorpion/IADAANAA/libpng.lib(pngmem.o)
                                0x6c5 (size before relaxing)
 .debug_str     0x0000cf97      0x1e2 /local/mnt/workspace/CRMBuilds/TZ.BF.4.0.3.c1-00005-M8996AAAAANAZT-1_20170110_230814/b/HK11/trustzone_images/core/securemsm/sse/qsee/SecureDisplay/libpng/build/secure_ui_sample/scorpion/IADAANAA/libpng.lib(pngread.o)
                                0x7f9 (size before relaxing)
 .debug_str     0x0000d179       0xc0 /local/mnt/workspace/CRMBuilds/TZ.BF.4.0.3.c1-00005-M8996AAAAANAZT-1_20170110_230814/b/HK11/trustzone_images/core/securemsm/sse/qsee/SecureDisplay/libpng/build/secure_ui_sample/scorpion/IADAANAA/libpng.lib(pngrio.o)
                                0x629 (size before relaxing)
 .debug_str     0x0000d239      0x382 /local/mnt/workspace/CRMBuilds/TZ.BF.4.0.3.c1-00005-M8996AAAAANAZT-1_20170110_230814/b/HK11/trustzone_images/core/securemsm/sse/qsee/SecureDisplay/libpng/build/secure_ui_sample/scorpion/IADAANAA/libpng.lib(pngrutil.o)
                                0x9bf (size before relaxing)
 .debug_str     0x0000d5bb      0x11d /local/mnt/workspace/CRMBuilds/TZ.BF.4.0.3.c1-00005-M8996AAAAANAZT-1_20170110_230814/b/HK11/trustzone_images/core/securemsm/sse/qsee/SecureDisplay/libpng/build/secure_ui_sample/scorpion/IADAANAA/libpng.lib(pngset.o)
                                0x6f7 (size before relaxing)
 .debug_str     0x0000d6d8      0x14a /local/mnt/workspace/CRMBuilds/TZ.BF.4.0.3.c1-00005-M8996AAAAANAZT-1_20170110_230814/b/HK11/trustzone_images/core/securemsm/sse/qsee/SecureDisplay/zlib/build/secure_ui_sample/scorpion/IADAANAA/zlib.lib(crc32.o)
                                0x259 (size before relaxing)
 .debug_str     0x0000d822      0x3a8 /local/mnt/workspace/CRMBuilds/TZ.BF.4.0.3.c1-00005-M8996AAAAANAZT-1_20170110_230814/b/HK11/trustzone_images/core/securemsm/sse/qsee/SecureDisplay/zlib/build/secure_ui_sample/scorpion/IADAANAA/zlib.lib(inflate.o)
                                0x646 (size before relaxing)
 .debug_str     0x0000dbca      0x108 /local/mnt/workspace/CRMBuilds/TZ.BF.4.0.3.c1-00005-M8996AAAAANAZT-1_20170110_230814/b/HK11/trustzone_images/core/securemsm/sse/qsee/SecureDisplay/zlib/build/secure_ui_sample/scorpion/IADAANAA/zlib.lib(inftrees.o)
                                0x253 (size before relaxing)
 .debug_str     0x0000dcd2       0xe7 /local/mnt/workspace/CRMBuilds/TZ.BF.4.0.3.c1-00005-M8996AAAAANAZT-1_20170110_230814/b/HK11/trustzone_images/core/securemsm/sse/qsee/SecureDisplay/zlib/build/secure_ui_sample/scorpion/IADAANAA/zlib.lib(zutil.o)
                                0x1d9 (size before relaxing)
 .debug_str     0x0000ddb9       0xf8 /local/mnt/workspace/CRMBuilds/TZ.BF.4.0.3.c1-00005-M8996AAAAANAZT-1_20170110_230814/b/HK11/trustzone_images/core/securemsm/sse/qsee/SecureDisplay/zlib/build/secure_ui_sample/scorpion/IADAANAA/zlib.lib(adler32.o)
                                0x1ed (size before relaxing)
 .debug_str     0x0000deb1       0xca /local/mnt/workspace/CRMBuilds/TZ.BF.4.0.3.c1-00005-M8996AAAAANAZT-1_20170110_230814/b/HK11/trustzone_images/core/securemsm/sse/qsee/SecureDisplay/zlib/build/secure_ui_sample/scorpion/IADAANAA/zlib.lib(inffast.o)
                                0x4bf (size before relaxing)
 .debug_str     0x0000df7b       0xd3 /local/mnt/workspace/CRMBuilds/TZ.BF.4.0.3.c1-00005-M8996AAAAANAZT-1_20170110_230814/b/HK11/trustzone_images/core/securemsm/sse/qsee/SecureTouch/drTs/lib/build/secure_ui_sample/scorpion/IADAANAA/touch_lib.lib(01_open.o)
                                0x1d8 (size before relaxing)
 .debug_str     0x0000e04e       0xb4 /local/mnt/workspace/CRMBuilds/TZ.BF.4.0.3.c1-00005-M8996AAAAANAZT-1_20170110_230814/b/HK11/trustzone_images/core/securemsm/sse/qsee/SecureTouch/drTs/lib/build/secure_ui_sample/scorpion/IADAANAA/touch_lib.lib(02_close.o)
                                0x187 (size before relaxing)
 .debug_str     0x0000e102       0xd4 /local/mnt/workspace/CRMBuilds/TZ.BF.4.0.3.c1-00005-M8996AAAAANAZT-1_20170110_230814/b/HK11/trustzone_images/core/securemsm/sse/qsee/SecureTouch/drTs/lib/build/secure_ui_sample/scorpion/IADAANAA/touch_lib.lib(03_getData.o)
                                0x218 (size before relaxing)
 .debug_str     0x0000e1d6      0x2f2 /local/mnt/workspace/CRMBuilds/TZ.BF.4.0.3.c1-00005-M8996AAAAANAZT-1_20170110_230814/b/HK11/trustzone_images/core/securemsm/trustzone/qsapps/libs/applib/common_applib/build/secure_ui_sample/scorpion/IADAANAA/tzapp_entrylib.lib(gpPersistObjCommon.o)
                                0x539 (size before relaxing)
 .debug_str     0x0000e4c8      0x298 /local/mnt/workspace/CRMBuilds/TZ.BF.4.0.3.c1-00005-M8996AAAAANAZT-1_20170110_230814/b/HK11/trustzone_images/core/securemsm/trustzone/qsapps/libs/applib/common_applib/build/secure_ui_sample/scorpion/IADAANAA/tzapp_entrylib.lib(gpPersistentObjects.o)
                                0x5ea (size before relaxing)
 .debug_str     0x0000e760      0x437 /local/mnt/workspace/CRMBuilds/TZ.BF.4.0.3.c1-00005-M8996AAAAANAZT-1_20170110_230814/b/HK11/trustzone_images/core/securemsm/trustzone/qsapps/libs/applib/common_applib/build/secure_ui_sample/scorpion/IADAANAA/tzapp_entrylib.lib(gpPersistObjData.o)
                                0x744 (size before relaxing)
 .debug_str     0x0000eb97      0x206 /local/mnt/workspace/CRMBuilds/TZ.BF.4.0.3.c1-00005-M8996AAAAANAZT-1_20170110_230814/b/HK11/trustzone_images/core/securemsm/trustzone/qsapps/libs/applib/common_applib/build/secure_ui_sample/scorpion/IADAANAA/tzapp_entrylib.lib(gpPersistObjHandler.o)
                                0x4b1 (size before relaxing)
 .debug_str     0x0000ed9d      0x2b8 /local/mnt/workspace/CRMBuilds/TZ.BF.4.0.3.c1-00005-M8996AAAAANAZT-1_20170110_230814/b/HK11/trustzone_images/core/securemsm/trustzone/qsapps/libs/applib/common_applib/build/secure_ui_sample/scorpion/IADAANAA/tzapp_entrylib.lib(gpPersistObjIndex.o)
                                0x602 (size before relaxing)
 .debug_str     0x0000f055      0x443 /local/mnt/workspace/CRMBuilds/TZ.BF.4.0.3.c1-00005-M8996AAAAANAZT-1_20170110_230814/b/HK11/trustzone_images/core/securemsm/trustzone/qsapps/libs/applib/common_applib/build/secure_ui_sample/scorpion/IADAANAA/tzapp_entrylib.lib(gpPersistObjVersion.o)
                                0x6e4 (size before relaxing)
 .debug_str     0x0000f498      0x441 /local/mnt/workspace/CRMBuilds/TZ.BF.4.0.3.c1-00005-M8996AAAAANAZT-1_20170110_230814/b/HK11/trustzone_images/core/securemsm/trustzone/qsapps/libs/applib/common_applib/build/secure_ui_sample/scorpion/IADAANAA/tzapp_entrylib.lib(gpPersistObjCrypto.o)
                                0x63e (size before relaxing)
 .debug_str     0x0000f8d9      0x155 /local/mnt/workspace/CRMBuilds/TZ.BF.4.0.3.c1-00005-M8996AAAAANAZT-1_20170110_230814/b/HK11/trustzone_images/core/securemsm/trustzone/qsapps/libs/applib/common_applib/build/secure_ui_sample/scorpion/IADAANAA/tzapp_entrylib.lib(gpPersistObjFileIO.o)
                                0x2ff (size before relaxing)
 .debug_str     0x0000fa2e      0x314 /local/mnt/workspace/CRMBuilds/TZ.BF.4.0.3.c1-00005-M8996AAAAANAZT-1_20170110_230814/b/HK11/trustzone_images/core/securemsm/trustzone/qsapps/libs/applib/common_applib/build/secure_ui_sample/scorpion/IADAANAA/tzapp_entrylib.lib(gpFileService.o)
                                0x446 (size before relaxing)
 .debug_str     0x0000fd42      0x74e /local/mnt/workspace/CRMBuilds/TZ.BF.4.0.3.c1-00005-M8996AAAAANAZT-1_20170110_230814/b/HK11/trustzone_images/core/securemsm/trustzone/qsapps/libs/applib/qsee/build/secure_ui_sample/scorpion/IADAANAA/tzapp_entrylib.lib(qsee_core_shim.o)
                                0x87a (size before relaxing)
 .debug_str     0x00010490      0x36b /local/mnt/workspace/CRMBuilds/TZ.BF.4.0.3.c1-00005-M8996AAAAANAZT-1_20170110_230814/b/HK11/trustzone_images/core/securemsm/trustzone/qsapps/libs/applib/qsee/build/secure_ui_sample/scorpion/IADAANAA/tzapp_entrylib.lib(stor.o)
                                0x5af (size before relaxing)
 .debug_str     0x000107fb      0x4d5 /local/mnt/workspace/CRMBuilds/TZ.BF.4.0.3.c1-00005-M8996AAAAANAZT-1_20170110_230814/b/HK11/trustzone_images/core/securemsm/trustzone/qsapps/libs/applib/qsee/build/secure_ui_sample/scorpion/IADAANAA/tzapp_entrylib.lib(stor_gpt.o)
                                0x870 (size before relaxing)
 .debug_str     0x00010cd0      0x170 /local/mnt/workspace/CRMBuilds/TZ.BF.4.0.3.c1-00005-M8996AAAAANAZT-1_20170110_230814/b/HK11/trustzone_images/core/securemsm/trustzone/qsapps/libs/applib/qsee/build/secure_ui_sample/scorpion/IADAANAA/tzapp_entrylib.lib(stor_rpmbw.o)
                                0x4ff (size before relaxing)
 .debug_str     0x00010e40      0x11c /local/mnt/workspace/CRMBuilds/TZ.BF.4.0.3.c1-00005-M8996AAAAANAZT-1_20170110_230814/b/HK11/trustzone_images/core/securemsm/trustzone/qsapps/libs/applib/qsee/build/secure_ui_sample/scorpion/IADAANAA/tzapp_entrylib.lib(qsee_cfg_prop_shim.o)
                                0x2c7 (size before relaxing)
 .debug_str     0x00010f5c      0x295 /local/mnt/workspace/CRMBuilds/TZ.BF.4.0.3.c1-00005-M8996AAAAANAZT-1_20170110_230814/b/HK11/trustzone_images/core/securemsm/trustzone/qsapps/libs/applib/qsee/build/secure_ui_sample/scorpion/IADAANAA/tzapp_entrylib.lib(qsee_cipher.o)
                                0x6f9 (size before relaxing)
 .debug_str     0x000111f1      0x232 /local/mnt/workspace/CRMBuilds/TZ.BF.4.0.3.c1-00005-M8996AAAAANAZT-1_20170110_230814/b/HK11/trustzone_images/core/securemsm/trustzone/qsapps/libs/applib/qsee/build/secure_ui_sample/scorpion/IADAANAA/tzapp_entrylib.lib(qsee_hmac.o)
                                0x4a6 (size before relaxing)
 .debug_str     0x00011423       0xdf /local/mnt/workspace/CRMBuilds/TZ.BF.4.0.3.c1-00005-M8996AAAAANAZT-1_20170110_230814/b/HK11/trustzone_images/core/securemsm/trustzone/qsapps/libs/applib/qsee/build/secure_ui_sample/scorpion/IADAANAA/tzapp_entrylib.lib(gpPersistObjPanic.o)
                                0x19b (size before relaxing)
 .debug_str     0x00011502       0xab /local/mnt/workspace/CRMBuilds/TZ.BF.4.0.3.c1-00005-M8996AAAAANAZT-1_20170110_230814/b/HK11/trustzone_images/core/kernel/libstd/build/secure_ui_sample/scorpion/IADAANAA/libstd.lib(timesafe_memcmp.o)
                                0x17a (size before relaxing)
 .debug_str     0x000115ad      0x34a /local/mnt/workspace/CRMBuilds/TZ.BF.4.0.3.c1-00005-M8996AAAAANAZT-1_20170110_230814/b/HK11/trustzone_images/core/securemsm/sse/SecureTouch/controller/build/secure_ui_sample/scorpion/IADAANAA/drts_controller_msm8996.lib(atmel_mxt_ts.o)
                                0x575 (size before relaxing)
 .debug_str     0x000118f7      0x5da /local/mnt/workspace/CRMBuilds/TZ.BF.4.0.3.c1-00005-M8996AAAAANAZT-1_20170110_230814/b/HK11/trustzone_images/core/securemsm/sse/SecureTouch/controller/build/secure_ui_sample/scorpion/IADAANAA/drts_controller_msm8996.lib(synaptics_ts.o)
                                0x799 (size before relaxing)
 .debug_str     0x00011ed1       0x94 /local/mnt/workspace/CRMBuilds/TZ.BF.4.0.3.c1-00005-M8996AAAAANAZT-1_20170110_230814/b/HK11/trustzone_images/core/securemsm/sse/log/build/secure_ui_sample/scorpion/IADAANAA/sselog.lib(sselog.o)
                                0x173 (size before relaxing)
 .debug_str     0x00011f65      0x5e2 /local/mnt/workspace/CRMBuilds/TZ.BF.4.0.3.c1-00005-M8996AAAAANAZT-1_20170110_230814/b/HK11/trustzone_images/core/securemsm/sse/qsee/SecureTouch/drTs/controller/build/secure_ui_sample/scorpion/IADAANAA/touch_controller_i2c_msm8996.lib(atmel_mxt_ts_i2c.o)
                                0xcac (size before relaxing)
 .debug_str     0x00012547      0x112 /local/mnt/workspace/CRMBuilds/TZ.BF.4.0.3.c1-00005-M8996AAAAANAZT-1_20170110_230814/b/HK11/trustzone_images/core/securemsm/sse/qsee/SecureTouch/drTs/controller/build/secure_ui_sample/scorpion/IADAANAA/touch_controller_i2c_msm8996.lib(synaptics_ts_i2c.o)
                                0xcd8 (size before relaxing)
 .debug_str     0x00012659      0x35e /local/mnt/workspace/CRMBuilds/TZ.BF.4.0.3.c1-00005-M8996AAAAANAZT-1_20170110_230814/b/HK11/trustzone_images/core/securemsm/trustzone/qsapps/libs/applib/qsee/build/secure_ui_sample/scorpion/IADAANAA/tzapp_entrylib.lib(qsee_i2c.o)
                                0xa46 (size before relaxing)

.debug_loc      0x00000000    0x1e21c
 .debug_loc     0x00000000      0xb51 /local/mnt/workspace/CRMBuilds/TZ.BF.4.0.3.c1-00005-M8996AAAAANAZT-1_20170110_230814/b/HK11/trustzone_images/apps/securemsm/trustzone/qsapps/secure_ui_sample/build/secure_ui_sample/scorpion/IADAANAA/app_main.o
 .debug_loc     0x00000b51        0x0 /local/mnt/workspace/CRMBuilds/TZ.BF.4.0.3.c1-00005-M8996AAAAANAZT-1_20170110_230814/b/HK11/trustzone_images/apps/securemsm/trustzone/qsapps/secure_ui_sample/build/secure_ui_sample/scorpion/IADAANAA/metadata.o
 .debug_loc     0x00000b51       0x62 /local/mnt/workspace/CRMBuilds/TZ.BF.4.0.3.c1-00005-M8996AAAAANAZT-1_20170110_230814/b/HK11/trustzone_images/core/kernel/libstd/build/secure_ui_sample/scorpion/IADAANAA/libstd.lib(memscpy.o)
 .debug_loc     0x00000bb3       0xa1 /local/mnt/workspace/CRMBuilds/TZ.BF.4.0.3.c1-00005-M8996AAAAANAZT-1_20170110_230814/b/HK11/trustzone_images/core/kernel/libstd/build/secure_ui_sample/scorpion/IADAANAA/libstd.lib(strlcat.o)
 .debug_loc     0x00000c54       0x57 /local/mnt/workspace/CRMBuilds/TZ.BF.4.0.3.c1-00005-M8996AAAAANAZT-1_20170110_230814/b/HK11/trustzone_images/core/kernel/libstd/build/secure_ui_sample/scorpion/IADAANAA/libstd.lib(strlcpy.o)
 .debug_loc     0x00000cab     0x165a /local/mnt/workspace/CRMBuilds/TZ.BF.4.0.3.c1-00005-M8996AAAAANAZT-1_20170110_230814/b/HK11/trustzone_images/core/securemsm/sse/qsee/SecureUI/build/secure_ui_sample/scorpion/IADAANAA/secure_ui.lib(SecureUI.o)
 .debug_loc     0x00002305     0x1013 /local/mnt/workspace/CRMBuilds/TZ.BF.4.0.3.c1-00005-M8996AAAAANAZT-1_20170110_230814/b/HK11/trustzone_images/core/securemsm/sse/qsee/SecureUI/build/secure_ui_sample/scorpion/IADAANAA/secure_ui_tui.lib(qsee_tui_dialogs.o)
 .debug_loc     0x00003318      0xfe7 /local/mnt/workspace/CRMBuilds/TZ.BF.4.0.3.c1-00005-M8996AAAAANAZT-1_20170110_230814/b/HK11/trustzone_images/core/securemsm/sse/qsee/SecureUI/build/secure_ui_sample/scorpion/IADAANAA/secure_ui_tui.lib(layout_manager.o)
 .debug_loc     0x000042ff     0x1fb2 /local/mnt/workspace/CRMBuilds/TZ.BF.4.0.3.c1-00005-M8996AAAAANAZT-1_20170110_230814/b/HK11/trustzone_images/core/securemsm/sse/qsee/SecureUI/build/secure_ui_sample/scorpion/IADAANAA/secure_ui_tui.lib(secure_display_renderer.o)
 .debug_loc     0x000062b1      0xefa /local/mnt/workspace/CRMBuilds/TZ.BF.4.0.3.c1-00005-M8996AAAAANAZT-1_20170110_230814/b/HK11/trustzone_images/core/securemsm/sse/qsee/SecureUI/build/secure_ui_sample/scorpion/IADAANAA/secure_ui_tui.lib(font_manager.o)
 .debug_loc     0x000071ab      0x1ca /local/mnt/workspace/CRMBuilds/TZ.BF.4.0.3.c1-00005-M8996AAAAANAZT-1_20170110_230814/b/HK11/trustzone_images/core/securemsm/sse/qsee/SecureUILib/lib/build/secure_ui_sample/scorpion/IADAANAA/secure_ui_lib.lib(SecureUILib.o)
 .debug_loc     0x00007375      0x11c /local/mnt/workspace/CRMBuilds/TZ.BF.4.0.3.c1-00005-M8996AAAAANAZT-1_20170110_230814/b/HK11/trustzone_images/core/securemsm/sse/qsee/SecureUILib/lib/build/secure_ui_sample/scorpion/IADAANAA/secure_ui_lib.lib(01_startTouch.o)
 .debug_loc     0x00007491      0x161 /local/mnt/workspace/CRMBuilds/TZ.BF.4.0.3.c1-00005-M8996AAAAANAZT-1_20170110_230814/b/HK11/trustzone_images/core/securemsm/sse/qsee/SecureUILib/lib/build/secure_ui_sample/scorpion/IADAANAA/secure_ui_lib.lib(02_processTouch.o)
 .debug_loc     0x000075f2       0xbf /local/mnt/workspace/CRMBuilds/TZ.BF.4.0.3.c1-00005-M8996AAAAANAZT-1_20170110_230814/b/HK11/trustzone_images/core/securemsm/sse/qsee/SecureUILib/lib/build/secure_ui_sample/scorpion/IADAANAA/secure_ui_lib.lib(03_stopTouch.o)
 .debug_loc     0x000076b1       0x9c /local/mnt/workspace/CRMBuilds/TZ.BF.4.0.3.c1-00005-M8996AAAAANAZT-1_20170110_230814/b/HK11/trustzone_images/core/securemsm/sse/qsee/SecureUILib/lib/build/secure_ui_sample/scorpion/IADAANAA/secure_ui_lib.lib(04_prepareRequest.o)
 .debug_loc     0x0000774d       0xff /local/mnt/workspace/CRMBuilds/TZ.BF.4.0.3.c1-00005-M8996AAAAANAZT-1_20170110_230814/b/HK11/trustzone_images/core/securemsm/sse/qsee/SecureUILib/lib/build/secure_ui_sample/scorpion/IADAANAA/secure_ui_lib.lib(05_storeIndicator.o)
 .debug_loc     0x0000784c      0x6b4 /local/mnt/workspace/CRMBuilds/TZ.BF.4.0.3.c1-00005-M8996AAAAANAZT-1_20170110_230814/b/HK11/trustzone_images/core/securemsm/trustzone/qsapps/libs/applib/common_applib/build/secure_ui_sample/scorpion/IADAANAA/tzapp_entrylib.lib(common_applib.o)
 .debug_loc     0x00007f00      0x250 /local/mnt/workspace/CRMBuilds/TZ.BF.4.0.3.c1-00005-M8996AAAAANAZT-1_20170110_230814/b/HK11/trustzone_images/core/securemsm/trustzone/qsapps/libs/applib/proxy/build/secure_ui_sample/scorpion/IADAANAA/tzlib_proxy.lib(prxy_services.o)
 .debug_loc     0x00008150      0x376 /local/mnt/workspace/CRMBuilds/TZ.BF.4.0.3.c1-00005-M8996AAAAANAZT-1_20170110_230814/b/HK11/trustzone_images/core/securemsm/trustzone/qsapps/libs/applib/proxy/build/secure_ui_sample/scorpion/IADAANAA/tzlib_proxy.lib(prxy_qsee_shim.o)
 .debug_loc     0x000084c6       0x4c /local/mnt/workspace/CRMBuilds/TZ.BF.4.0.3.c1-00005-M8996AAAAANAZT-1_20170110_230814/b/HK11/trustzone_images/core/securemsm/trustzone/qsapps/libs/applib/proxy/build/secure_ui_sample/scorpion/IADAANAA/tzlib_proxy.lib(prxy_ufdes.o)
 .debug_loc     0x00008512       0x26 /local/mnt/workspace/CRMBuilds/TZ.BF.4.0.3.c1-00005-M8996AAAAANAZT-1_20170110_230814/b/HK11/trustzone_images/core/securemsm/trustzone/qsapps/libs/applib/proxy/build/secure_ui_sample/scorpion/IADAANAA/tzlib_proxy.lib(prxy_secmath.o)
 .debug_loc     0x00008538       0xab /local/mnt/workspace/CRMBuilds/TZ.BF.4.0.3.c1-00005-M8996AAAAANAZT-1_20170110_230814/b/HK11/trustzone_images/core/securemsm/trustzone/qsapps/libs/applib/proxy/build/secure_ui_sample/scorpion/IADAANAA/tzlib_proxy.lib(prxy_secrsa.o)
 .debug_loc     0x000085e3      0x130 /local/mnt/workspace/CRMBuilds/TZ.BF.4.0.3.c1-00005-M8996AAAAANAZT-1_20170110_230814/b/HK11/trustzone_images/core/securemsm/trustzone/qsapps/libs/applib/proxy/build/secure_ui_sample/scorpion/IADAANAA/tzlib_proxy.lib(prxy_ecc.o)
 .debug_loc     0x00008713      0x1ea /local/mnt/workspace/CRMBuilds/TZ.BF.4.0.3.c1-00005-M8996AAAAANAZT-1_20170110_230814/b/HK11/trustzone_images/core/securemsm/trustzone/qsapps/libs/applib/qsee/build/secure_ui_sample/scorpion/IADAANAA/tzapp_entrylib.lib(mink_shared_code.o)
 .debug_loc     0x000088fd      0x1fd /local/mnt/workspace/CRMBuilds/TZ.BF.4.0.3.c1-00005-M8996AAAAANAZT-1_20170110_230814/b/HK11/trustzone_images/core/securemsm/trustzone/qsapps/libs/applib/qsee/build/secure_ui_sample/scorpion/IADAANAA/tzapp_entrylib.lib(qsee_env.o)
 .debug_loc     0x00008afa       0x7b /local/mnt/workspace/CRMBuilds/TZ.BF.4.0.3.c1-00005-M8996AAAAANAZT-1_20170110_230814/b/HK11/trustzone_images/core/securemsm/trustzone/qsapps/libs/applib/qsee/build/secure_ui_sample/scorpion/IADAANAA/tzapp_entrylib.lib(qsee_prng.o)
 .debug_loc     0x00008b75       0xc3 /local/mnt/workspace/CRMBuilds/TZ.BF.4.0.3.c1-00005-M8996AAAAANAZT-1_20170110_230814/b/HK11/trustzone_images/core/securemsm/trustzone/qsapps/libs/applib/qsee/build/secure_ui_sample/scorpion/IADAANAA/tzapp_entrylib.lib(qsee_secdisp.o)
 .debug_loc     0x00008c38      0x1d1 /local/mnt/workspace/CRMBuilds/TZ.BF.4.0.3.c1-00005-M8996AAAAANAZT-1_20170110_230814/b/HK11/trustzone_images/core/securemsm/trustzone/qsapps/libs/applib/qsee/build/secure_ui_sample/scorpion/IADAANAA/tzapp_entrylib.lib(qsee_nsmem.o)
 .debug_loc     0x00008e09        0x0 /local/mnt/workspace/CRMBuilds/TZ.BF.4.0.3.c1-00005-M8996AAAAANAZT-1_20170110_230814/b/HK11/trustzone_images/core/securemsm/trustzone/qsapps/libs/applib/qsee/build/secure_ui_sample/scorpion/IADAANAA/tzapp_entrylib.lib(qsee_timer_shim.o)
 .debug_loc     0x00008e09      0x694 /local/mnt/workspace/CRMBuilds/TZ.BF.4.0.3.c1-00005-M8996AAAAANAZT-1_20170110_230814/b/HK11/trustzone_images/core/securemsm/trustzone/qsapps/libs/applib/qsee/build/secure_ui_sample/scorpion/IADAANAA/tzapp_entrylib.lib(qsee_hash.o)
 .debug_loc     0x0000949d       0xa8 /local/mnt/workspace/CRMBuilds/TZ.BF.4.0.3.c1-00005-M8996AAAAANAZT-1_20170110_230814/b/HK11/trustzone_images/core/securemsm/trustzone/qsapps/libs/applib/qsee/build/secure_ui_sample/scorpion/IADAANAA/tzapp_entrylib.lib(qsee_shared_buffer.o)
 .debug_loc     0x00009545      0x2dc /local/mnt/workspace/CRMBuilds/TZ.BF.4.0.3.c1-00005-M8996AAAAANAZT-1_20170110_230814/b/HK11/trustzone_images/core/securemsm/trustzone/qsapps/libs/applib/qsee/build/secure_ui_sample/scorpion/IADAANAA/tzapp_entrylib.lib(qsee_appmessage.o)
 .debug_loc     0x00009821      0x57b /local/mnt/workspace/CRMBuilds/TZ.BF.4.0.3.c1-00005-M8996AAAAANAZT-1_20170110_230814/b/HK11/trustzone_images/core/securemsm/trustzone/qsapps/libs/applib/qsee/build/secure_ui_sample/scorpion/IADAANAA/tzapp_entrylib.lib(sfs_api.o)
 .debug_loc     0x00009d9c       0xf0 /local/mnt/workspace/CRMBuilds/TZ.BF.4.0.3.c1-00005-M8996AAAAANAZT-1_20170110_230814/b/HK11/trustzone_images/core/securemsm/trustzone/qsapps/libs/applib/qsee/build/secure_ui_sample/scorpion/IADAANAA/tzapp_entrylib.lib(tzapp_lib_main.o)
 .debug_loc     0x00009e8c        0x0 /local/mnt/workspace/CRMBuilds/TZ.BF.4.0.3.c1-00005-M8996AAAAANAZT-1_20170110_230814/b/HK11/trustzone_images/apps/securemsm/trustzone/qsapps/secure_ui_sample/layouts/build/secure_ui_sample/scorpion/IADAANAA/secure_ui_layout.lib(layout_8996_fluid.o)
 .debug_loc     0x00009e8c       0x62 /local/mnt/workspace/CRMBuilds/TZ.BF.4.0.3.c1-00005-M8996AAAAANAZT-1_20170110_230814/b/HK11/trustzone_images/core/kernel/libstd/build/secure_ui_sample/scorpion/IADAANAA/libstd.lib(secure_memset.o)
 .debug_loc     0x00009eee      0xf7b /local/mnt/workspace/CRMBuilds/TZ.BF.4.0.3.c1-00005-M8996AAAAANAZT-1_20170110_230814/b/HK11/trustzone_images/core/securemsm/sse/SecureTouch/layout/build/secure_ui_sample/scorpion/IADAANAA/sklayout.lib(layoutUtils.o)
 .debug_loc     0x0000ae69     0x616c /local/mnt/workspace/CRMBuilds/TZ.BF.4.0.3.c1-00005-M8996AAAAANAZT-1_20170110_230814/b/HK11/trustzone_images/core/securemsm/sse/qsee/SecureDisplay/libgd/build/secure_ui_sample/scorpion/IADAANAA/libgd.lib(gd.o)
 .debug_loc     0x00010fd5       0x93 /local/mnt/workspace/CRMBuilds/TZ.BF.4.0.3.c1-00005-M8996AAAAANAZT-1_20170110_230814/b/HK11/trustzone_images/core/securemsm/sse/qsee/SecureDisplay/libgd/build/secure_ui_sample/scorpion/IADAANAA/libgd.lib(gd_color.o)
 .debug_loc     0x00011068       0x3c /local/mnt/workspace/CRMBuilds/TZ.BF.4.0.3.c1-00005-M8996AAAAANAZT-1_20170110_230814/b/HK11/trustzone_images/core/securemsm/sse/qsee/SecureDisplay/libgd/build/secure_ui_sample/scorpion/IADAANAA/libgd.lib(gd_security.o)
 .debug_loc     0x000110a4        0x0 /local/mnt/workspace/CRMBuilds/TZ.BF.4.0.3.c1-00005-M8996AAAAANAZT-1_20170110_230814/b/HK11/trustzone_images/core/securemsm/sse/qsee/SecureDisplay/libgd/build/secure_ui_sample/scorpion/IADAANAA/libgd.lib(gdtables.o)
 .debug_loc     0x000110a4      0x4af /local/mnt/workspace/CRMBuilds/TZ.BF.4.0.3.c1-00005-M8996AAAAANAZT-1_20170110_230814/b/HK11/trustzone_images/core/securemsm/sse/qsee/SecureDisplay/libpng/build/secure_ui_sample/scorpion/IADAANAA/libpng.lib(png.o)
 .debug_loc     0x00011553       0x57 /local/mnt/workspace/CRMBuilds/TZ.BF.4.0.3.c1-00005-M8996AAAAANAZT-1_20170110_230814/b/HK11/trustzone_images/core/securemsm/sse/qsee/SecureDisplay/libpng/build/secure_ui_sample/scorpion/IADAANAA/libpng.lib(pngerror.o)
 .debug_loc     0x000115aa      0x17d /local/mnt/workspace/CRMBuilds/TZ.BF.4.0.3.c1-00005-M8996AAAAANAZT-1_20170110_230814/b/HK11/trustzone_images/core/securemsm/sse/qsee/SecureDisplay/libpng/build/secure_ui_sample/scorpion/IADAANAA/libpng.lib(pngget.o)
 .debug_loc     0x00011727      0x163 /local/mnt/workspace/CRMBuilds/TZ.BF.4.0.3.c1-00005-M8996AAAAANAZT-1_20170110_230814/b/HK11/trustzone_images/core/securemsm/sse/qsee/SecureDisplay/libpng/build/secure_ui_sample/scorpion/IADAANAA/libpng.lib(pngmem.o)
 .debug_loc     0x0001188a      0x415 /local/mnt/workspace/CRMBuilds/TZ.BF.4.0.3.c1-00005-M8996AAAAANAZT-1_20170110_230814/b/HK11/trustzone_images/core/securemsm/sse/qsee/SecureDisplay/libpng/build/secure_ui_sample/scorpion/IADAANAA/libpng.lib(pngread.o)
 .debug_loc     0x00011c9f        0x0 /local/mnt/workspace/CRMBuilds/TZ.BF.4.0.3.c1-00005-M8996AAAAANAZT-1_20170110_230814/b/HK11/trustzone_images/core/securemsm/sse/qsee/SecureDisplay/libpng/build/secure_ui_sample/scorpion/IADAANAA/libpng.lib(pngrio.o)
 .debug_loc     0x00011c9f      0xab7 /local/mnt/workspace/CRMBuilds/TZ.BF.4.0.3.c1-00005-M8996AAAAANAZT-1_20170110_230814/b/HK11/trustzone_images/core/securemsm/sse/qsee/SecureDisplay/libpng/build/secure_ui_sample/scorpion/IADAANAA/libpng.lib(pngrutil.o)
 .debug_loc     0x00012756      0x1bb /local/mnt/workspace/CRMBuilds/TZ.BF.4.0.3.c1-00005-M8996AAAAANAZT-1_20170110_230814/b/HK11/trustzone_images/core/securemsm/sse/qsee/SecureDisplay/libpng/build/secure_ui_sample/scorpion/IADAANAA/libpng.lib(pngset.o)
 .debug_loc     0x00012911      0x337 /local/mnt/workspace/CRMBuilds/TZ.BF.4.0.3.c1-00005-M8996AAAAANAZT-1_20170110_230814/b/HK11/trustzone_images/core/securemsm/sse/qsee/SecureDisplay/zlib/build/secure_ui_sample/scorpion/IADAANAA/zlib.lib(crc32.o)
 .debug_loc     0x00012c48     0x17c9 /local/mnt/workspace/CRMBuilds/TZ.BF.4.0.3.c1-00005-M8996AAAAANAZT-1_20170110_230814/b/HK11/trustzone_images/core/securemsm/sse/qsee/SecureDisplay/zlib/build/secure_ui_sample/scorpion/IADAANAA/zlib.lib(inflate.o)
 .debug_loc     0x00014411      0x44f /local/mnt/workspace/CRMBuilds/TZ.BF.4.0.3.c1-00005-M8996AAAAANAZT-1_20170110_230814/b/HK11/trustzone_images/core/securemsm/sse/qsee/SecureDisplay/zlib/build/secure_ui_sample/scorpion/IADAANAA/zlib.lib(inftrees.o)
 .debug_loc     0x00014860       0xa6 /local/mnt/workspace/CRMBuilds/TZ.BF.4.0.3.c1-00005-M8996AAAAANAZT-1_20170110_230814/b/HK11/trustzone_images/core/securemsm/sse/qsee/SecureDisplay/zlib/build/secure_ui_sample/scorpion/IADAANAA/zlib.lib(zutil.o)
 .debug_loc     0x00014906      0x4e8 /local/mnt/workspace/CRMBuilds/TZ.BF.4.0.3.c1-00005-M8996AAAAANAZT-1_20170110_230814/b/HK11/trustzone_images/core/securemsm/sse/qsee/SecureDisplay/zlib/build/secure_ui_sample/scorpion/IADAANAA/zlib.lib(adler32.o)
 .debug_loc     0x00014dee      0x649 /local/mnt/workspace/CRMBuilds/TZ.BF.4.0.3.c1-00005-M8996AAAAANAZT-1_20170110_230814/b/HK11/trustzone_images/core/securemsm/sse/qsee/SecureDisplay/zlib/build/secure_ui_sample/scorpion/IADAANAA/zlib.lib(inffast.o)
 .debug_loc     0x00015437       0xce /local/mnt/workspace/CRMBuilds/TZ.BF.4.0.3.c1-00005-M8996AAAAANAZT-1_20170110_230814/b/HK11/trustzone_images/core/securemsm/sse/qsee/SecureTouch/drTs/lib/build/secure_ui_sample/scorpion/IADAANAA/touch_lib.lib(01_open.o)
 .debug_loc     0x00015505       0x7c /local/mnt/workspace/CRMBuilds/TZ.BF.4.0.3.c1-00005-M8996AAAAANAZT-1_20170110_230814/b/HK11/trustzone_images/core/securemsm/sse/qsee/SecureTouch/drTs/lib/build/secure_ui_sample/scorpion/IADAANAA/touch_lib.lib(02_close.o)
 .debug_loc     0x00015581      0x171 /local/mnt/workspace/CRMBuilds/TZ.BF.4.0.3.c1-00005-M8996AAAAANAZT-1_20170110_230814/b/HK11/trustzone_images/core/securemsm/sse/qsee/SecureTouch/drTs/lib/build/secure_ui_sample/scorpion/IADAANAA/touch_lib.lib(03_getData.o)
 .debug_loc     0x000156f2      0x423 /local/mnt/workspace/CRMBuilds/TZ.BF.4.0.3.c1-00005-M8996AAAAANAZT-1_20170110_230814/b/HK11/trustzone_images/core/securemsm/trustzone/qsapps/libs/applib/common_applib/build/secure_ui_sample/scorpion/IADAANAA/tzapp_entrylib.lib(gpPersistObjCommon.o)
 .debug_loc     0x00015b15      0xa03 /local/mnt/workspace/CRMBuilds/TZ.BF.4.0.3.c1-00005-M8996AAAAANAZT-1_20170110_230814/b/HK11/trustzone_images/core/securemsm/trustzone/qsapps/libs/applib/common_applib/build/secure_ui_sample/scorpion/IADAANAA/tzapp_entrylib.lib(gpPersistentObjects.o)
 .debug_loc     0x00016518     0x1a86 /local/mnt/workspace/CRMBuilds/TZ.BF.4.0.3.c1-00005-M8996AAAAANAZT-1_20170110_230814/b/HK11/trustzone_images/core/securemsm/trustzone/qsapps/libs/applib/common_applib/build/secure_ui_sample/scorpion/IADAANAA/tzapp_entrylib.lib(gpPersistObjData.o)
 .debug_loc     0x00017f9e      0x51f /local/mnt/workspace/CRMBuilds/TZ.BF.4.0.3.c1-00005-M8996AAAAANAZT-1_20170110_230814/b/HK11/trustzone_images/core/securemsm/trustzone/qsapps/libs/applib/common_applib/build/secure_ui_sample/scorpion/IADAANAA/tzapp_entrylib.lib(gpPersistObjHandler.o)
 .debug_loc     0x000184bd      0xc13 /local/mnt/workspace/CRMBuilds/TZ.BF.4.0.3.c1-00005-M8996AAAAANAZT-1_20170110_230814/b/HK11/trustzone_images/core/securemsm/trustzone/qsapps/libs/applib/common_applib/build/secure_ui_sample/scorpion/IADAANAA/tzapp_entrylib.lib(gpPersistObjIndex.o)
 .debug_loc     0x000190d0      0x90c /local/mnt/workspace/CRMBuilds/TZ.BF.4.0.3.c1-00005-M8996AAAAANAZT-1_20170110_230814/b/HK11/trustzone_images/core/securemsm/trustzone/qsapps/libs/applib/common_applib/build/secure_ui_sample/scorpion/IADAANAA/tzapp_entrylib.lib(gpPersistObjVersion.o)
 .debug_loc     0x000199dc      0x92e /local/mnt/workspace/CRMBuilds/TZ.BF.4.0.3.c1-00005-M8996AAAAANAZT-1_20170110_230814/b/HK11/trustzone_images/core/securemsm/trustzone/qsapps/libs/applib/common_applib/build/secure_ui_sample/scorpion/IADAANAA/tzapp_entrylib.lib(gpPersistObjCrypto.o)
 .debug_loc     0x0001a30a      0x515 /local/mnt/workspace/CRMBuilds/TZ.BF.4.0.3.c1-00005-M8996AAAAANAZT-1_20170110_230814/b/HK11/trustzone_images/core/securemsm/trustzone/qsapps/libs/applib/common_applib/build/secure_ui_sample/scorpion/IADAANAA/tzapp_entrylib.lib(gpPersistObjFileIO.o)
 .debug_loc     0x0001a81f      0x3fb /local/mnt/workspace/CRMBuilds/TZ.BF.4.0.3.c1-00005-M8996AAAAANAZT-1_20170110_230814/b/HK11/trustzone_images/core/securemsm/trustzone/qsapps/libs/applib/common_applib/build/secure_ui_sample/scorpion/IADAANAA/tzapp_entrylib.lib(gpFileService.o)
 .debug_loc     0x0001ac1a      0x3e0 /local/mnt/workspace/CRMBuilds/TZ.BF.4.0.3.c1-00005-M8996AAAAANAZT-1_20170110_230814/b/HK11/trustzone_images/core/securemsm/trustzone/qsapps/libs/applib/qsee/build/secure_ui_sample/scorpion/IADAANAA/tzapp_entrylib.lib(qsee_core_shim.o)
 .debug_loc     0x0001affa      0x17d /local/mnt/workspace/CRMBuilds/TZ.BF.4.0.3.c1-00005-M8996AAAAANAZT-1_20170110_230814/b/HK11/trustzone_images/core/securemsm/trustzone/qsapps/libs/applib/qsee/build/secure_ui_sample/scorpion/IADAANAA/tzapp_entrylib.lib(stor.o)
 .debug_loc     0x0001b177      0xc8b /local/mnt/workspace/CRMBuilds/TZ.BF.4.0.3.c1-00005-M8996AAAAANAZT-1_20170110_230814/b/HK11/trustzone_images/core/securemsm/trustzone/qsapps/libs/applib/qsee/build/secure_ui_sample/scorpion/IADAANAA/tzapp_entrylib.lib(stor_gpt.o)
 .debug_loc     0x0001be02      0x2d0 /local/mnt/workspace/CRMBuilds/TZ.BF.4.0.3.c1-00005-M8996AAAAANAZT-1_20170110_230814/b/HK11/trustzone_images/core/securemsm/trustzone/qsapps/libs/applib/qsee/build/secure_ui_sample/scorpion/IADAANAA/tzapp_entrylib.lib(stor_rpmbw.o)
 .debug_loc     0x0001c0d2       0x78 /local/mnt/workspace/CRMBuilds/TZ.BF.4.0.3.c1-00005-M8996AAAAANAZT-1_20170110_230814/b/HK11/trustzone_images/core/securemsm/trustzone/qsapps/libs/applib/qsee/build/secure_ui_sample/scorpion/IADAANAA/tzapp_entrylib.lib(qsee_cfg_prop_shim.o)
 .debug_loc     0x0001c14a      0x6af /local/mnt/workspace/CRMBuilds/TZ.BF.4.0.3.c1-00005-M8996AAAAANAZT-1_20170110_230814/b/HK11/trustzone_images/core/securemsm/trustzone/qsapps/libs/applib/qsee/build/secure_ui_sample/scorpion/IADAANAA/tzapp_entrylib.lib(qsee_cipher.o)
 .debug_loc     0x0001c7f9      0x386 /local/mnt/workspace/CRMBuilds/TZ.BF.4.0.3.c1-00005-M8996AAAAANAZT-1_20170110_230814/b/HK11/trustzone_images/core/securemsm/trustzone/qsapps/libs/applib/qsee/build/secure_ui_sample/scorpion/IADAANAA/tzapp_entrylib.lib(qsee_hmac.o)
 .debug_loc     0x0001cb7f       0x13 /local/mnt/workspace/CRMBuilds/TZ.BF.4.0.3.c1-00005-M8996AAAAANAZT-1_20170110_230814/b/HK11/trustzone_images/core/securemsm/trustzone/qsapps/libs/applib/qsee/build/secure_ui_sample/scorpion/IADAANAA/tzapp_entrylib.lib(gpPersistObjPanic.o)
 .debug_loc     0x0001cb92       0x6a /local/mnt/workspace/CRMBuilds/TZ.BF.4.0.3.c1-00005-M8996AAAAANAZT-1_20170110_230814/b/HK11/trustzone_images/core/kernel/libstd/build/secure_ui_sample/scorpion/IADAANAA/libstd.lib(timesafe_memcmp.o)
 .debug_loc     0x0001cbfc      0x66a /local/mnt/workspace/CRMBuilds/TZ.BF.4.0.3.c1-00005-M8996AAAAANAZT-1_20170110_230814/b/HK11/trustzone_images/core/securemsm/sse/SecureTouch/controller/build/secure_ui_sample/scorpion/IADAANAA/drts_controller_msm8996.lib(atmel_mxt_ts.o)
 .debug_loc     0x0001d266      0x787 /local/mnt/workspace/CRMBuilds/TZ.BF.4.0.3.c1-00005-M8996AAAAANAZT-1_20170110_230814/b/HK11/trustzone_images/core/securemsm/sse/SecureTouch/controller/build/secure_ui_sample/scorpion/IADAANAA/drts_controller_msm8996.lib(synaptics_ts.o)
 .debug_loc     0x0001d9ed       0xaf /local/mnt/workspace/CRMBuilds/TZ.BF.4.0.3.c1-00005-M8996AAAAANAZT-1_20170110_230814/b/HK11/trustzone_images/core/securemsm/sse/log/build/secure_ui_sample/scorpion/IADAANAA/sselog.lib(sselog.o)
 .debug_loc     0x0001da9c      0x16b /local/mnt/workspace/CRMBuilds/TZ.BF.4.0.3.c1-00005-M8996AAAAANAZT-1_20170110_230814/b/HK11/trustzone_images/core/securemsm/sse/qsee/SecureTouch/drTs/controller/build/secure_ui_sample/scorpion/IADAANAA/touch_controller_i2c_msm8996.lib(atmel_mxt_ts_i2c.o)
 .debug_loc     0x0001dc07      0x13a /local/mnt/workspace/CRMBuilds/TZ.BF.4.0.3.c1-00005-M8996AAAAANAZT-1_20170110_230814/b/HK11/trustzone_images/core/securemsm/sse/qsee/SecureTouch/drTs/controller/build/secure_ui_sample/scorpion/IADAANAA/touch_controller_i2c_msm8996.lib(synaptics_ts_i2c.o)
 .debug_loc     0x0001dd41      0x4db /local/mnt/workspace/CRMBuilds/TZ.BF.4.0.3.c1-00005-M8996AAAAANAZT-1_20170110_230814/b/HK11/trustzone_images/core/securemsm/trustzone/qsapps/libs/applib/qsee/build/secure_ui_sample/scorpion/IADAANAA/tzapp_entrylib.lib(qsee_i2c.o)

.debug_ranges   0x00000000     0xb010
 .debug_ranges  0x00000000      0x118 /local/mnt/workspace/CRMBuilds/TZ.BF.4.0.3.c1-00005-M8996AAAAANAZT-1_20170110_230814/b/HK11/trustzone_images/apps/securemsm/trustzone/qsapps/secure_ui_sample/build/secure_ui_sample/scorpion/IADAANAA/app_main.o
 .debug_ranges  0x00000118        0x0 /local/mnt/workspace/CRMBuilds/TZ.BF.4.0.3.c1-00005-M8996AAAAANAZT-1_20170110_230814/b/HK11/trustzone_images/apps/securemsm/trustzone/qsapps/secure_ui_sample/build/secure_ui_sample/scorpion/IADAANAA/metadata.o
 .debug_ranges  0x00000118        0x0 /local/mnt/workspace/CRMBuilds/TZ.BF.4.0.3.c1-00005-M8996AAAAANAZT-1_20170110_230814/b/HK11/trustzone_images/core/kernel/libstd/build/secure_ui_sample/scorpion/IADAANAA/libstd.lib(memscpy.o)
 .debug_ranges  0x00000118        0x0 /local/mnt/workspace/CRMBuilds/TZ.BF.4.0.3.c1-00005-M8996AAAAANAZT-1_20170110_230814/b/HK11/trustzone_images/core/kernel/libstd/build/secure_ui_sample/scorpion/IADAANAA/libstd.lib(strlcat.o)
 .debug_ranges  0x00000118        0x0 /local/mnt/workspace/CRMBuilds/TZ.BF.4.0.3.c1-00005-M8996AAAAANAZT-1_20170110_230814/b/HK11/trustzone_images/core/kernel/libstd/build/secure_ui_sample/scorpion/IADAANAA/libstd.lib(strlcpy.o)
 .debug_ranges  0x00000118      0xe30 /local/mnt/workspace/CRMBuilds/TZ.BF.4.0.3.c1-00005-M8996AAAAANAZT-1_20170110_230814/b/HK11/trustzone_images/core/securemsm/sse/qsee/SecureUI/build/secure_ui_sample/scorpion/IADAANAA/secure_ui.lib(SecureUI.o)
 .debug_ranges  0x00000f48     0x2790 /local/mnt/workspace/CRMBuilds/TZ.BF.4.0.3.c1-00005-M8996AAAAANAZT-1_20170110_230814/b/HK11/trustzone_images/core/securemsm/sse/qsee/SecureUI/build/secure_ui_sample/scorpion/IADAANAA/secure_ui_tui.lib(qsee_tui_dialogs.o)
 .debug_ranges  0x000036d8      0xd70 /local/mnt/workspace/CRMBuilds/TZ.BF.4.0.3.c1-00005-M8996AAAAANAZT-1_20170110_230814/b/HK11/trustzone_images/core/securemsm/sse/qsee/SecureUI/build/secure_ui_sample/scorpion/IADAANAA/secure_ui_tui.lib(layout_manager.o)
 .debug_ranges  0x00004448     0x1b90 /local/mnt/workspace/CRMBuilds/TZ.BF.4.0.3.c1-00005-M8996AAAAANAZT-1_20170110_230814/b/HK11/trustzone_images/core/securemsm/sse/qsee/SecureUI/build/secure_ui_sample/scorpion/IADAANAA/secure_ui_tui.lib(secure_display_renderer.o)
 .debug_ranges  0x00005fd8     0x2698 /local/mnt/workspace/CRMBuilds/TZ.BF.4.0.3.c1-00005-M8996AAAAANAZT-1_20170110_230814/b/HK11/trustzone_images/core/securemsm/sse/qsee/SecureUI/build/secure_ui_sample/scorpion/IADAANAA/secure_ui_tui.lib(font_manager.o)
 .debug_ranges  0x00008670        0x0 /local/mnt/workspace/CRMBuilds/TZ.BF.4.0.3.c1-00005-M8996AAAAANAZT-1_20170110_230814/b/HK11/trustzone_images/core/securemsm/sse/qsee/SecureUILib/lib/build/secure_ui_sample/scorpion/IADAANAA/secure_ui_lib.lib(SecureUILib.o)
 .debug_ranges  0x00008670        0x0 /local/mnt/workspace/CRMBuilds/TZ.BF.4.0.3.c1-00005-M8996AAAAANAZT-1_20170110_230814/b/HK11/trustzone_images/core/securemsm/sse/qsee/SecureUILib/lib/build/secure_ui_sample/scorpion/IADAANAA/secure_ui_lib.lib(01_startTouch.o)
 .debug_ranges  0x00008670       0x40 /local/mnt/workspace/CRMBuilds/TZ.BF.4.0.3.c1-00005-M8996AAAAANAZT-1_20170110_230814/b/HK11/trustzone_images/core/securemsm/sse/qsee/SecureUILib/lib/build/secure_ui_sample/scorpion/IADAANAA/secure_ui_lib.lib(02_processTouch.o)
 .debug_ranges  0x000086b0        0x0 /local/mnt/workspace/CRMBuilds/TZ.BF.4.0.3.c1-00005-M8996AAAAANAZT-1_20170110_230814/b/HK11/trustzone_images/core/securemsm/sse/qsee/SecureUILib/lib/build/secure_ui_sample/scorpion/IADAANAA/secure_ui_lib.lib(03_stopTouch.o)
 .debug_ranges  0x000086b0        0x0 /local/mnt/workspace/CRMBuilds/TZ.BF.4.0.3.c1-00005-M8996AAAAANAZT-1_20170110_230814/b/HK11/trustzone_images/core/securemsm/sse/qsee/SecureUILib/lib/build/secure_ui_sample/scorpion/IADAANAA/secure_ui_lib.lib(04_prepareRequest.o)
 .debug_ranges  0x000086b0        0x0 /local/mnt/workspace/CRMBuilds/TZ.BF.4.0.3.c1-00005-M8996AAAAANAZT-1_20170110_230814/b/HK11/trustzone_images/core/securemsm/sse/qsee/SecureUILib/lib/build/secure_ui_sample/scorpion/IADAANAA/secure_ui_lib.lib(05_storeIndicator.o)
 .debug_ranges  0x000086b0       0xf0 /local/mnt/workspace/CRMBuilds/TZ.BF.4.0.3.c1-00005-M8996AAAAANAZT-1_20170110_230814/b/HK11/trustzone_images/core/securemsm/trustzone/qsapps/libs/applib/common_applib/build/secure_ui_sample/scorpion/IADAANAA/tzapp_entrylib.lib(common_applib.o)
 .debug_ranges  0x000087a0        0x0 /local/mnt/workspace/CRMBuilds/TZ.BF.4.0.3.c1-00005-M8996AAAAANAZT-1_20170110_230814/b/HK11/trustzone_images/core/securemsm/trustzone/qsapps/libs/applib/proxy/build/secure_ui_sample/scorpion/IADAANAA/tzlib_proxy.lib(prxy_services.o)
 .debug_ranges  0x000087a0        0x0 /local/mnt/workspace/CRMBuilds/TZ.BF.4.0.3.c1-00005-M8996AAAAANAZT-1_20170110_230814/b/HK11/trustzone_images/core/securemsm/trustzone/qsapps/libs/applib/proxy/build/secure_ui_sample/scorpion/IADAANAA/tzlib_proxy.lib(prxy_qsee_shim.o)
 .debug_ranges  0x000087a0        0x0 /local/mnt/workspace/CRMBuilds/TZ.BF.4.0.3.c1-00005-M8996AAAAANAZT-1_20170110_230814/b/HK11/trustzone_images/core/securemsm/trustzone/qsapps/libs/applib/proxy/build/secure_ui_sample/scorpion/IADAANAA/tzlib_proxy.lib(prxy_ufdes.o)
 .debug_ranges  0x000087a0        0x0 /local/mnt/workspace/CRMBuilds/TZ.BF.4.0.3.c1-00005-M8996AAAAANAZT-1_20170110_230814/b/HK11/trustzone_images/core/securemsm/trustzone/qsapps/libs/applib/proxy/build/secure_ui_sample/scorpion/IADAANAA/tzlib_proxy.lib(prxy_secmath.o)
 .debug_ranges  0x000087a0        0x0 /local/mnt/workspace/CRMBuilds/TZ.BF.4.0.3.c1-00005-M8996AAAAANAZT-1_20170110_230814/b/HK11/trustzone_images/core/securemsm/trustzone/qsapps/libs/applib/proxy/build/secure_ui_sample/scorpion/IADAANAA/tzlib_proxy.lib(prxy_secrsa.o)
 .debug_ranges  0x000087a0        0x0 /local/mnt/workspace/CRMBuilds/TZ.BF.4.0.3.c1-00005-M8996AAAAANAZT-1_20170110_230814/b/HK11/trustzone_images/core/securemsm/trustzone/qsapps/libs/applib/proxy/build/secure_ui_sample/scorpion/IADAANAA/tzlib_proxy.lib(prxy_ecc.o)
 .debug_ranges  0x000087a0       0x90 /local/mnt/workspace/CRMBuilds/TZ.BF.4.0.3.c1-00005-M8996AAAAANAZT-1_20170110_230814/b/HK11/trustzone_images/core/securemsm/trustzone/qsapps/libs/applib/qsee/build/secure_ui_sample/scorpion/IADAANAA/tzapp_entrylib.lib(mink_shared_code.o)
 .debug_ranges  0x00008830       0x20 /local/mnt/workspace/CRMBuilds/TZ.BF.4.0.3.c1-00005-M8996AAAAANAZT-1_20170110_230814/b/HK11/trustzone_images/core/securemsm/trustzone/qsapps/libs/applib/qsee/build/secure_ui_sample/scorpion/IADAANAA/tzapp_entrylib.lib(qsee_env.o)
 .debug_ranges  0x00008850       0x30 /local/mnt/workspace/CRMBuilds/TZ.BF.4.0.3.c1-00005-M8996AAAAANAZT-1_20170110_230814/b/HK11/trustzone_images/core/securemsm/trustzone/qsapps/libs/applib/qsee/build/secure_ui_sample/scorpion/IADAANAA/tzapp_entrylib.lib(qsee_prng.o)
 .debug_ranges  0x00008880       0x18 /local/mnt/workspace/CRMBuilds/TZ.BF.4.0.3.c1-00005-M8996AAAAANAZT-1_20170110_230814/b/HK11/trustzone_images/core/securemsm/trustzone/qsapps/libs/applib/qsee/build/secure_ui_sample/scorpion/IADAANAA/tzapp_entrylib.lib(qsee_secdisp.o)
 .debug_ranges  0x00008898       0xc8 /local/mnt/workspace/CRMBuilds/TZ.BF.4.0.3.c1-00005-M8996AAAAANAZT-1_20170110_230814/b/HK11/trustzone_images/core/securemsm/trustzone/qsapps/libs/applib/qsee/build/secure_ui_sample/scorpion/IADAANAA/tzapp_entrylib.lib(qsee_nsmem.o)
 .debug_ranges  0x00008960        0x0 /local/mnt/workspace/CRMBuilds/TZ.BF.4.0.3.c1-00005-M8996AAAAANAZT-1_20170110_230814/b/HK11/trustzone_images/core/securemsm/trustzone/qsapps/libs/applib/qsee/build/secure_ui_sample/scorpion/IADAANAA/tzapp_entrylib.lib(qsee_timer_shim.o)
 .debug_ranges  0x00008960      0x130 /local/mnt/workspace/CRMBuilds/TZ.BF.4.0.3.c1-00005-M8996AAAAANAZT-1_20170110_230814/b/HK11/trustzone_images/core/securemsm/trustzone/qsapps/libs/applib/qsee/build/secure_ui_sample/scorpion/IADAANAA/tzapp_entrylib.lib(qsee_hash.o)
 .debug_ranges  0x00008a90       0x90 /local/mnt/workspace/CRMBuilds/TZ.BF.4.0.3.c1-00005-M8996AAAAANAZT-1_20170110_230814/b/HK11/trustzone_images/core/securemsm/trustzone/qsapps/libs/applib/qsee/build/secure_ui_sample/scorpion/IADAANAA/tzapp_entrylib.lib(qsee_shared_buffer.o)
 .debug_ranges  0x00008b20       0xc8 /local/mnt/workspace/CRMBuilds/TZ.BF.4.0.3.c1-00005-M8996AAAAANAZT-1_20170110_230814/b/HK11/trustzone_images/core/securemsm/trustzone/qsapps/libs/applib/qsee/build/secure_ui_sample/scorpion/IADAANAA/tzapp_entrylib.lib(qsee_appmessage.o)
 .debug_ranges  0x00008be8        0x0 /local/mnt/workspace/CRMBuilds/TZ.BF.4.0.3.c1-00005-M8996AAAAANAZT-1_20170110_230814/b/HK11/trustzone_images/core/securemsm/trustzone/qsapps/libs/applib/qsee/build/secure_ui_sample/scorpion/IADAANAA/tzapp_entrylib.lib(sfs_api.o)
 .debug_ranges  0x00008be8        0x0 /local/mnt/workspace/CRMBuilds/TZ.BF.4.0.3.c1-00005-M8996AAAAANAZT-1_20170110_230814/b/HK11/trustzone_images/core/securemsm/trustzone/qsapps/libs/applib/qsee/build/secure_ui_sample/scorpion/IADAANAA/tzapp_entrylib.lib(tzapp_lib_main.o)
 .debug_ranges  0x00008be8        0x0 /local/mnt/workspace/CRMBuilds/TZ.BF.4.0.3.c1-00005-M8996AAAAANAZT-1_20170110_230814/b/HK11/trustzone_images/apps/securemsm/trustzone/qsapps/secure_ui_sample/layouts/build/secure_ui_sample/scorpion/IADAANAA/secure_ui_layout.lib(layout_8996_fluid.o)
 .debug_ranges  0x00008be8        0x0 /local/mnt/workspace/CRMBuilds/TZ.BF.4.0.3.c1-00005-M8996AAAAANAZT-1_20170110_230814/b/HK11/trustzone_images/core/kernel/libstd/build/secure_ui_sample/scorpion/IADAANAA/libstd.lib(secure_memset.o)
 .debug_ranges  0x00008be8      0x8f0 /local/mnt/workspace/CRMBuilds/TZ.BF.4.0.3.c1-00005-M8996AAAAANAZT-1_20170110_230814/b/HK11/trustzone_images/core/securemsm/sse/SecureTouch/layout/build/secure_ui_sample/scorpion/IADAANAA/sklayout.lib(layoutUtils.o)
 .debug_ranges  0x000094d8      0x5a0 /local/mnt/workspace/CRMBuilds/TZ.BF.4.0.3.c1-00005-M8996AAAAANAZT-1_20170110_230814/b/HK11/trustzone_images/core/securemsm/sse/qsee/SecureDisplay/libgd/build/secure_ui_sample/scorpion/IADAANAA/libgd.lib(gd.o)
 .debug_ranges  0x00009a78        0x0 /local/mnt/workspace/CRMBuilds/TZ.BF.4.0.3.c1-00005-M8996AAAAANAZT-1_20170110_230814/b/HK11/trustzone_images/core/securemsm/sse/qsee/SecureDisplay/libgd/build/secure_ui_sample/scorpion/IADAANAA/libgd.lib(gd_color.o)
 .debug_ranges  0x00009a78        0x0 /local/mnt/workspace/CRMBuilds/TZ.BF.4.0.3.c1-00005-M8996AAAAANAZT-1_20170110_230814/b/HK11/trustzone_images/core/securemsm/sse/qsee/SecureDisplay/libgd/build/secure_ui_sample/scorpion/IADAANAA/libgd.lib(gd_security.o)
 .debug_ranges  0x00009a78        0x0 /local/mnt/workspace/CRMBuilds/TZ.BF.4.0.3.c1-00005-M8996AAAAANAZT-1_20170110_230814/b/HK11/trustzone_images/core/securemsm/sse/qsee/SecureDisplay/libgd/build/secure_ui_sample/scorpion/IADAANAA/libgd.lib(gdtables.o)
 .debug_ranges  0x00009a78       0x18 /local/mnt/workspace/CRMBuilds/TZ.BF.4.0.3.c1-00005-M8996AAAAANAZT-1_20170110_230814/b/HK11/trustzone_images/core/securemsm/sse/qsee/SecureDisplay/libpng/build/secure_ui_sample/scorpion/IADAANAA/libpng.lib(png.o)
 .debug_ranges  0x00009a90        0x0 /local/mnt/workspace/CRMBuilds/TZ.BF.4.0.3.c1-00005-M8996AAAAANAZT-1_20170110_230814/b/HK11/trustzone_images/core/securemsm/sse/qsee/SecureDisplay/libpng/build/secure_ui_sample/scorpion/IADAANAA/libpng.lib(pngerror.o)
 .debug_ranges  0x00009a90        0x0 /local/mnt/workspace/CRMBuilds/TZ.BF.4.0.3.c1-00005-M8996AAAAANAZT-1_20170110_230814/b/HK11/trustzone_images/core/securemsm/sse/qsee/SecureDisplay/libpng/build/secure_ui_sample/scorpion/IADAANAA/libpng.lib(pngget.o)
 .debug_ranges  0x00009a90        0x0 /local/mnt/workspace/CRMBuilds/TZ.BF.4.0.3.c1-00005-M8996AAAAANAZT-1_20170110_230814/b/HK11/trustzone_images/core/securemsm/sse/qsee/SecureDisplay/libpng/build/secure_ui_sample/scorpion/IADAANAA/libpng.lib(pngmem.o)
 .debug_ranges  0x00009a90       0x48 /local/mnt/workspace/CRMBuilds/TZ.BF.4.0.3.c1-00005-M8996AAAAANAZT-1_20170110_230814/b/HK11/trustzone_images/core/securemsm/sse/qsee/SecureDisplay/libpng/build/secure_ui_sample/scorpion/IADAANAA/libpng.lib(pngread.o)
 .debug_ranges  0x00009ad8        0x0 /local/mnt/workspace/CRMBuilds/TZ.BF.4.0.3.c1-00005-M8996AAAAANAZT-1_20170110_230814/b/HK11/trustzone_images/core/securemsm/sse/qsee/SecureDisplay/libpng/build/secure_ui_sample/scorpion/IADAANAA/libpng.lib(pngrio.o)
 .debug_ranges  0x00009ad8      0x158 /local/mnt/workspace/CRMBuilds/TZ.BF.4.0.3.c1-00005-M8996AAAAANAZT-1_20170110_230814/b/HK11/trustzone_images/core/securemsm/sse/qsee/SecureDisplay/libpng/build/secure_ui_sample/scorpion/IADAANAA/libpng.lib(pngrutil.o)
 .debug_ranges  0x00009c30        0x0 /local/mnt/workspace/CRMBuilds/TZ.BF.4.0.3.c1-00005-M8996AAAAANAZT-1_20170110_230814/b/HK11/trustzone_images/core/securemsm/sse/qsee/SecureDisplay/libpng/build/secure_ui_sample/scorpion/IADAANAA/libpng.lib(pngset.o)
 .debug_ranges  0x00009c30       0x40 /local/mnt/workspace/CRMBuilds/TZ.BF.4.0.3.c1-00005-M8996AAAAANAZT-1_20170110_230814/b/HK11/trustzone_images/core/securemsm/sse/qsee/SecureDisplay/zlib/build/secure_ui_sample/scorpion/IADAANAA/zlib.lib(crc32.o)
 .debug_ranges  0x00009c70       0x68 /local/mnt/workspace/CRMBuilds/TZ.BF.4.0.3.c1-00005-M8996AAAAANAZT-1_20170110_230814/b/HK11/trustzone_images/core/securemsm/sse/qsee/SecureDisplay/zlib/build/secure_ui_sample/scorpion/IADAANAA/zlib.lib(inflate.o)
 .debug_ranges  0x00009cd8        0x0 /local/mnt/workspace/CRMBuilds/TZ.BF.4.0.3.c1-00005-M8996AAAAANAZT-1_20170110_230814/b/HK11/trustzone_images/core/securemsm/sse/qsee/SecureDisplay/zlib/build/secure_ui_sample/scorpion/IADAANAA/zlib.lib(inftrees.o)
 .debug_ranges  0x00009cd8        0x0 /local/mnt/workspace/CRMBuilds/TZ.BF.4.0.3.c1-00005-M8996AAAAANAZT-1_20170110_230814/b/HK11/trustzone_images/core/securemsm/sse/qsee/SecureDisplay/zlib/build/secure_ui_sample/scorpion/IADAANAA/zlib.lib(zutil.o)
 .debug_ranges  0x00009cd8        0x0 /local/mnt/workspace/CRMBuilds/TZ.BF.4.0.3.c1-00005-M8996AAAAANAZT-1_20170110_230814/b/HK11/trustzone_images/core/securemsm/sse/qsee/SecureDisplay/zlib/build/secure_ui_sample/scorpion/IADAANAA/zlib.lib(adler32.o)
 .debug_ranges  0x00009cd8        0x0 /local/mnt/workspace/CRMBuilds/TZ.BF.4.0.3.c1-00005-M8996AAAAANAZT-1_20170110_230814/b/HK11/trustzone_images/core/securemsm/sse/qsee/SecureDisplay/zlib/build/secure_ui_sample/scorpion/IADAANAA/zlib.lib(inffast.o)
 .debug_ranges  0x00009cd8        0x0 /local/mnt/workspace/CRMBuilds/TZ.BF.4.0.3.c1-00005-M8996AAAAANAZT-1_20170110_230814/b/HK11/trustzone_images/core/securemsm/sse/qsee/SecureTouch/drTs/lib/build/secure_ui_sample/scorpion/IADAANAA/touch_lib.lib(01_open.o)
 .debug_ranges  0x00009cd8        0x0 /local/mnt/workspace/CRMBuilds/TZ.BF.4.0.3.c1-00005-M8996AAAAANAZT-1_20170110_230814/b/HK11/trustzone_images/core/securemsm/sse/qsee/SecureTouch/drTs/lib/build/secure_ui_sample/scorpion/IADAANAA/touch_lib.lib(02_close.o)
 .debug_ranges  0x00009cd8        0x0 /local/mnt/workspace/CRMBuilds/TZ.BF.4.0.3.c1-00005-M8996AAAAANAZT-1_20170110_230814/b/HK11/trustzone_images/core/securemsm/sse/qsee/SecureTouch/drTs/lib/build/secure_ui_sample/scorpion/IADAANAA/touch_lib.lib(03_getData.o)
 .debug_ranges  0x00009cd8        0x0 /local/mnt/workspace/CRMBuilds/TZ.BF.4.0.3.c1-00005-M8996AAAAANAZT-1_20170110_230814/b/HK11/trustzone_images/core/securemsm/trustzone/qsapps/libs/applib/common_applib/build/secure_ui_sample/scorpion/IADAANAA/tzapp_entrylib.lib(gpPersistObjCommon.o)
 .debug_ranges  0x00009cd8        0x0 /local/mnt/workspace/CRMBuilds/TZ.BF.4.0.3.c1-00005-M8996AAAAANAZT-1_20170110_230814/b/HK11/trustzone_images/core/securemsm/trustzone/qsapps/libs/applib/common_applib/build/secure_ui_sample/scorpion/IADAANAA/tzapp_entrylib.lib(gpPersistentObjects.o)
 .debug_ranges  0x00009cd8      0x378 /local/mnt/workspace/CRMBuilds/TZ.BF.4.0.3.c1-00005-M8996AAAAANAZT-1_20170110_230814/b/HK11/trustzone_images/core/securemsm/trustzone/qsapps/libs/applib/common_applib/build/secure_ui_sample/scorpion/IADAANAA/tzapp_entrylib.lib(gpPersistObjData.o)
 .debug_ranges  0x0000a050       0x48 /local/mnt/workspace/CRMBuilds/TZ.BF.4.0.3.c1-00005-M8996AAAAANAZT-1_20170110_230814/b/HK11/trustzone_images/core/securemsm/trustzone/qsapps/libs/applib/common_applib/build/secure_ui_sample/scorpion/IADAANAA/tzapp_entrylib.lib(gpPersistObjHandler.o)
 .debug_ranges  0x0000a098      0x200 /local/mnt/workspace/CRMBuilds/TZ.BF.4.0.3.c1-00005-M8996AAAAANAZT-1_20170110_230814/b/HK11/trustzone_images/core/securemsm/trustzone/qsapps/libs/applib/common_applib/build/secure_ui_sample/scorpion/IADAANAA/tzapp_entrylib.lib(gpPersistObjIndex.o)
 .debug_ranges  0x0000a298      0x2f0 /local/mnt/workspace/CRMBuilds/TZ.BF.4.0.3.c1-00005-M8996AAAAANAZT-1_20170110_230814/b/HK11/trustzone_images/core/securemsm/trustzone/qsapps/libs/applib/common_applib/build/secure_ui_sample/scorpion/IADAANAA/tzapp_entrylib.lib(gpPersistObjVersion.o)
 .debug_ranges  0x0000a588       0x90 /local/mnt/workspace/CRMBuilds/TZ.BF.4.0.3.c1-00005-M8996AAAAANAZT-1_20170110_230814/b/HK11/trustzone_images/core/securemsm/trustzone/qsapps/libs/applib/common_applib/build/secure_ui_sample/scorpion/IADAANAA/tzapp_entrylib.lib(gpPersistObjCrypto.o)
 .debug_ranges  0x0000a618        0x0 /local/mnt/workspace/CRMBuilds/TZ.BF.4.0.3.c1-00005-M8996AAAAANAZT-1_20170110_230814/b/HK11/trustzone_images/core/securemsm/trustzone/qsapps/libs/applib/common_applib/build/secure_ui_sample/scorpion/IADAANAA/tzapp_entrylib.lib(gpPersistObjFileIO.o)
 .debug_ranges  0x0000a618        0x0 /local/mnt/workspace/CRMBuilds/TZ.BF.4.0.3.c1-00005-M8996AAAAANAZT-1_20170110_230814/b/HK11/trustzone_images/core/securemsm/trustzone/qsapps/libs/applib/common_applib/build/secure_ui_sample/scorpion/IADAANAA/tzapp_entrylib.lib(gpFileService.o)
 .debug_ranges  0x0000a618        0x0 /local/mnt/workspace/CRMBuilds/TZ.BF.4.0.3.c1-00005-M8996AAAAANAZT-1_20170110_230814/b/HK11/trustzone_images/core/securemsm/trustzone/qsapps/libs/applib/qsee/build/secure_ui_sample/scorpion/IADAANAA/tzapp_entrylib.lib(qsee_core_shim.o)
 .debug_ranges  0x0000a618       0x30 /local/mnt/workspace/CRMBuilds/TZ.BF.4.0.3.c1-00005-M8996AAAAANAZT-1_20170110_230814/b/HK11/trustzone_images/core/securemsm/trustzone/qsapps/libs/applib/qsee/build/secure_ui_sample/scorpion/IADAANAA/tzapp_entrylib.lib(stor.o)
 .debug_ranges  0x0000a648        0x0 /local/mnt/workspace/CRMBuilds/TZ.BF.4.0.3.c1-00005-M8996AAAAANAZT-1_20170110_230814/b/HK11/trustzone_images/core/securemsm/trustzone/qsapps/libs/applib/qsee/build/secure_ui_sample/scorpion/IADAANAA/tzapp_entrylib.lib(stor_gpt.o)
 .debug_ranges  0x0000a648        0x0 /local/mnt/workspace/CRMBuilds/TZ.BF.4.0.3.c1-00005-M8996AAAAANAZT-1_20170110_230814/b/HK11/trustzone_images/core/securemsm/trustzone/qsapps/libs/applib/qsee/build/secure_ui_sample/scorpion/IADAANAA/tzapp_entrylib.lib(stor_rpmbw.o)
 .debug_ranges  0x0000a648        0x0 /local/mnt/workspace/CRMBuilds/TZ.BF.4.0.3.c1-00005-M8996AAAAANAZT-1_20170110_230814/b/HK11/trustzone_images/core/securemsm/trustzone/qsapps/libs/applib/qsee/build/secure_ui_sample/scorpion/IADAANAA/tzapp_entrylib.lib(qsee_cfg_prop_shim.o)
 .debug_ranges  0x0000a648      0x238 /local/mnt/workspace/CRMBuilds/TZ.BF.4.0.3.c1-00005-M8996AAAAANAZT-1_20170110_230814/b/HK11/trustzone_images/core/securemsm/trustzone/qsapps/libs/applib/qsee/build/secure_ui_sample/scorpion/IADAANAA/tzapp_entrylib.lib(qsee_cipher.o)
 .debug_ranges  0x0000a880       0xa8 /local/mnt/workspace/CRMBuilds/TZ.BF.4.0.3.c1-00005-M8996AAAAANAZT-1_20170110_230814/b/HK11/trustzone_images/core/securemsm/trustzone/qsapps/libs/applib/qsee/build/secure_ui_sample/scorpion/IADAANAA/tzapp_entrylib.lib(qsee_hmac.o)
 .debug_ranges  0x0000a928        0x0 /local/mnt/workspace/CRMBuilds/TZ.BF.4.0.3.c1-00005-M8996AAAAANAZT-1_20170110_230814/b/HK11/trustzone_images/core/securemsm/trustzone/qsapps/libs/applib/qsee/build/secure_ui_sample/scorpion/IADAANAA/tzapp_entrylib.lib(gpPersistObjPanic.o)
 .debug_ranges  0x0000a928        0x0 /local/mnt/workspace/CRMBuilds/TZ.BF.4.0.3.c1-00005-M8996AAAAANAZT-1_20170110_230814/b/HK11/trustzone_images/core/kernel/libstd/build/secure_ui_sample/scorpion/IADAANAA/libstd.lib(timesafe_memcmp.o)
 .debug_ranges  0x0000a928      0x1a0 /local/mnt/workspace/CRMBuilds/TZ.BF.4.0.3.c1-00005-M8996AAAAANAZT-1_20170110_230814/b/HK11/trustzone_images/core/securemsm/sse/SecureTouch/controller/build/secure_ui_sample/scorpion/IADAANAA/drts_controller_msm8996.lib(atmel_mxt_ts.o)
 .debug_ranges  0x0000aac8      0x3a8 /local/mnt/workspace/CRMBuilds/TZ.BF.4.0.3.c1-00005-M8996AAAAANAZT-1_20170110_230814/b/HK11/trustzone_images/core/securemsm/sse/SecureTouch/controller/build/secure_ui_sample/scorpion/IADAANAA/drts_controller_msm8996.lib(synaptics_ts.o)
 .debug_ranges  0x0000ae70       0x18 /local/mnt/workspace/CRMBuilds/TZ.BF.4.0.3.c1-00005-M8996AAAAANAZT-1_20170110_230814/b/HK11/trustzone_images/core/securemsm/sse/log/build/secure_ui_sample/scorpion/IADAANAA/sselog.lib(sselog.o)
 .debug_ranges  0x0000ae88        0x0 /local/mnt/workspace/CRMBuilds/TZ.BF.4.0.3.c1-00005-M8996AAAAANAZT-1_20170110_230814/b/HK11/trustzone_images/core/securemsm/sse/qsee/SecureTouch/drTs/controller/build/secure_ui_sample/scorpion/IADAANAA/touch_controller_i2c_msm8996.lib(atmel_mxt_ts_i2c.o)
 .debug_ranges  0x0000ae88        0x0 /local/mnt/workspace/CRMBuilds/TZ.BF.4.0.3.c1-00005-M8996AAAAANAZT-1_20170110_230814/b/HK11/trustzone_images/core/securemsm/sse/qsee/SecureTouch/drTs/controller/build/secure_ui_sample/scorpion/IADAANAA/touch_controller_i2c_msm8996.lib(synaptics_ts_i2c.o)
 .debug_ranges  0x0000ae88      0x188 /local/mnt/workspace/CRMBuilds/TZ.BF.4.0.3.c1-00005-M8996AAAAANAZT-1_20170110_230814/b/HK11/trustzone_images/core/securemsm/trustzone/qsapps/libs/applib/qsee/build/secure_ui_sample/scorpion/IADAANAA/tzapp_entrylib.lib(qsee_i2c.o)

.debug_frame    0x00000000     0x5788
 .debug_frame   0x00000000      0x208 /local/mnt/workspace/CRMBuilds/TZ.BF.4.0.3.c1-00005-M8996AAAAANAZT-1_20170110_230814/b/HK11/trustzone_images/apps/securemsm/trustzone/qsapps/secure_ui_sample/build/secure_ui_sample/scorpion/IADAANAA/app_main.o
 .debug_frame   0x00000208       0x30 /local/mnt/workspace/CRMBuilds/TZ.BF.4.0.3.c1-00005-M8996AAAAANAZT-1_20170110_230814/b/HK11/trustzone_images/core/kernel/libstd/build/secure_ui_sample/scorpion/IADAANAA/libstd.lib(memscpy.o)
 .debug_frame   0x00000238       0x30 /local/mnt/workspace/CRMBuilds/TZ.BF.4.0.3.c1-00005-M8996AAAAANAZT-1_20170110_230814/b/HK11/trustzone_images/core/kernel/libstd/build/secure_ui_sample/scorpion/IADAANAA/libstd.lib(strlcat.o)
 .debug_frame   0x00000268       0x20 /local/mnt/workspace/CRMBuilds/TZ.BF.4.0.3.c1-00005-M8996AAAAANAZT-1_20170110_230814/b/HK11/trustzone_images/core/kernel/libstd/build/secure_ui_sample/scorpion/IADAANAA/libstd.lib(strlcpy.o)
 .debug_frame   0x00000288      0x2c4 /local/mnt/workspace/CRMBuilds/TZ.BF.4.0.3.c1-00005-M8996AAAAANAZT-1_20170110_230814/b/HK11/trustzone_images/core/securemsm/sse/qsee/SecureUI/build/secure_ui_sample/scorpion/IADAANAA/secure_ui.lib(SecureUI.o)
 .debug_frame   0x0000054c      0x158 /local/mnt/workspace/CRMBuilds/TZ.BF.4.0.3.c1-00005-M8996AAAAANAZT-1_20170110_230814/b/HK11/trustzone_images/core/securemsm/sse/qsee/SecureUI/build/secure_ui_sample/scorpion/IADAANAA/secure_ui_tui.lib(qsee_tui_dialogs.o)
 .debug_frame   0x000006a4      0x3e0 /local/mnt/workspace/CRMBuilds/TZ.BF.4.0.3.c1-00005-M8996AAAAANAZT-1_20170110_230814/b/HK11/trustzone_images/core/securemsm/sse/qsee/SecureUI/build/secure_ui_sample/scorpion/IADAANAA/secure_ui_tui.lib(layout_manager.o)
 .debug_frame   0x00000a84      0x254 /local/mnt/workspace/CRMBuilds/TZ.BF.4.0.3.c1-00005-M8996AAAAANAZT-1_20170110_230814/b/HK11/trustzone_images/core/securemsm/sse/qsee/SecureUI/build/secure_ui_sample/scorpion/IADAANAA/secure_ui_tui.lib(secure_display_renderer.o)
 .debug_frame   0x00000cd8       0xb4 /local/mnt/workspace/CRMBuilds/TZ.BF.4.0.3.c1-00005-M8996AAAAANAZT-1_20170110_230814/b/HK11/trustzone_images/core/securemsm/sse/qsee/SecureUI/build/secure_ui_sample/scorpion/IADAANAA/secure_ui_tui.lib(font_manager.o)
 .debug_frame   0x00000d8c       0x8c /local/mnt/workspace/CRMBuilds/TZ.BF.4.0.3.c1-00005-M8996AAAAANAZT-1_20170110_230814/b/HK11/trustzone_images/core/securemsm/sse/qsee/SecureUILib/lib/build/secure_ui_sample/scorpion/IADAANAA/secure_ui_lib.lib(SecureUILib.o)
 .debug_frame   0x00000e18       0x38 /local/mnt/workspace/CRMBuilds/TZ.BF.4.0.3.c1-00005-M8996AAAAANAZT-1_20170110_230814/b/HK11/trustzone_images/core/securemsm/sse/qsee/SecureUILib/lib/build/secure_ui_sample/scorpion/IADAANAA/secure_ui_lib.lib(01_startTouch.o)
 .debug_frame   0x00000e50       0x3c /local/mnt/workspace/CRMBuilds/TZ.BF.4.0.3.c1-00005-M8996AAAAANAZT-1_20170110_230814/b/HK11/trustzone_images/core/securemsm/sse/qsee/SecureUILib/lib/build/secure_ui_sample/scorpion/IADAANAA/secure_ui_lib.lib(02_processTouch.o)
 .debug_frame   0x00000e8c       0x5c /local/mnt/workspace/CRMBuilds/TZ.BF.4.0.3.c1-00005-M8996AAAAANAZT-1_20170110_230814/b/HK11/trustzone_images/core/securemsm/sse/qsee/SecureUILib/lib/build/secure_ui_sample/scorpion/IADAANAA/secure_ui_lib.lib(03_stopTouch.o)
 .debug_frame   0x00000ee8       0x34 /local/mnt/workspace/CRMBuilds/TZ.BF.4.0.3.c1-00005-M8996AAAAANAZT-1_20170110_230814/b/HK11/trustzone_images/core/securemsm/sse/qsee/SecureUILib/lib/build/secure_ui_sample/scorpion/IADAANAA/secure_ui_lib.lib(04_prepareRequest.o)
 .debug_frame   0x00000f1c       0x34 /local/mnt/workspace/CRMBuilds/TZ.BF.4.0.3.c1-00005-M8996AAAAANAZT-1_20170110_230814/b/HK11/trustzone_images/core/securemsm/sse/qsee/SecureUILib/lib/build/secure_ui_sample/scorpion/IADAANAA/secure_ui_lib.lib(05_storeIndicator.o)
 .debug_frame   0x00000f50      0x37c /local/mnt/workspace/CRMBuilds/TZ.BF.4.0.3.c1-00005-M8996AAAAANAZT-1_20170110_230814/b/HK11/trustzone_images/core/securemsm/trustzone/qsapps/libs/applib/common_applib/build/secure_ui_sample/scorpion/IADAANAA/tzapp_entrylib.lib(common_applib.o)
 .debug_frame   0x000012cc      0x268 /local/mnt/workspace/CRMBuilds/TZ.BF.4.0.3.c1-00005-M8996AAAAANAZT-1_20170110_230814/b/HK11/trustzone_images/core/securemsm/trustzone/qsapps/libs/applib/proxy/build/secure_ui_sample/scorpion/IADAANAA/tzlib_proxy.lib(prxy_services.o)
 .debug_frame   0x00001534      0x340 /local/mnt/workspace/CRMBuilds/TZ.BF.4.0.3.c1-00005-M8996AAAAANAZT-1_20170110_230814/b/HK11/trustzone_images/core/securemsm/trustzone/qsapps/libs/applib/proxy/build/secure_ui_sample/scorpion/IADAANAA/tzlib_proxy.lib(prxy_qsee_shim.o)
 .debug_frame   0x00001874       0x50 /local/mnt/workspace/CRMBuilds/TZ.BF.4.0.3.c1-00005-M8996AAAAANAZT-1_20170110_230814/b/HK11/trustzone_images/core/securemsm/trustzone/qsapps/libs/applib/proxy/build/secure_ui_sample/scorpion/IADAANAA/tzlib_proxy.lib(prxy_ufdes.o)
 .debug_frame   0x000018c4       0x30 /local/mnt/workspace/CRMBuilds/TZ.BF.4.0.3.c1-00005-M8996AAAAANAZT-1_20170110_230814/b/HK11/trustzone_images/core/securemsm/trustzone/qsapps/libs/applib/proxy/build/secure_ui_sample/scorpion/IADAANAA/tzlib_proxy.lib(prxy_secmath.o)
 .debug_frame   0x000018f4       0xb0 /local/mnt/workspace/CRMBuilds/TZ.BF.4.0.3.c1-00005-M8996AAAAANAZT-1_20170110_230814/b/HK11/trustzone_images/core/securemsm/trustzone/qsapps/libs/applib/proxy/build/secure_ui_sample/scorpion/IADAANAA/tzlib_proxy.lib(prxy_secrsa.o)
 .debug_frame   0x000019a4      0x120 /local/mnt/workspace/CRMBuilds/TZ.BF.4.0.3.c1-00005-M8996AAAAANAZT-1_20170110_230814/b/HK11/trustzone_images/core/securemsm/trustzone/qsapps/libs/applib/proxy/build/secure_ui_sample/scorpion/IADAANAA/tzlib_proxy.lib(prxy_ecc.o)
 .debug_frame   0x00001ac4       0xa4 /local/mnt/workspace/CRMBuilds/TZ.BF.4.0.3.c1-00005-M8996AAAAANAZT-1_20170110_230814/b/HK11/trustzone_images/core/securemsm/trustzone/qsapps/libs/applib/qsee/build/secure_ui_sample/scorpion/IADAANAA/tzapp_entrylib.lib(mink_shared_code.o)
 .debug_frame   0x00001b68       0xac /local/mnt/workspace/CRMBuilds/TZ.BF.4.0.3.c1-00005-M8996AAAAANAZT-1_20170110_230814/b/HK11/trustzone_images/core/securemsm/trustzone/qsapps/libs/applib/qsee/build/secure_ui_sample/scorpion/IADAANAA/tzapp_entrylib.lib(qsee_env.o)
 .debug_frame   0x00001c14       0x34 /local/mnt/workspace/CRMBuilds/TZ.BF.4.0.3.c1-00005-M8996AAAAANAZT-1_20170110_230814/b/HK11/trustzone_images/core/securemsm/trustzone/qsapps/libs/applib/qsee/build/secure_ui_sample/scorpion/IADAANAA/tzapp_entrylib.lib(qsee_prng.o)
 .debug_frame   0x00001c48       0x50 /local/mnt/workspace/CRMBuilds/TZ.BF.4.0.3.c1-00005-M8996AAAAANAZT-1_20170110_230814/b/HK11/trustzone_images/core/securemsm/trustzone/qsapps/libs/applib/qsee/build/secure_ui_sample/scorpion/IADAANAA/tzapp_entrylib.lib(qsee_secdisp.o)
 .debug_frame   0x00001c98       0x9c /local/mnt/workspace/CRMBuilds/TZ.BF.4.0.3.c1-00005-M8996AAAAANAZT-1_20170110_230814/b/HK11/trustzone_images/core/securemsm/trustzone/qsapps/libs/applib/qsee/build/secure_ui_sample/scorpion/IADAANAA/tzapp_entrylib.lib(qsee_nsmem.o)
 .debug_frame   0x00001d34       0x64 /local/mnt/workspace/CRMBuilds/TZ.BF.4.0.3.c1-00005-M8996AAAAANAZT-1_20170110_230814/b/HK11/trustzone_images/core/securemsm/trustzone/qsapps/libs/applib/qsee/build/secure_ui_sample/scorpion/IADAANAA/tzapp_entrylib.lib(qsee_timer_shim.o)
 .debug_frame   0x00001d98      0x168 /local/mnt/workspace/CRMBuilds/TZ.BF.4.0.3.c1-00005-M8996AAAAANAZT-1_20170110_230814/b/HK11/trustzone_images/core/securemsm/trustzone/qsapps/libs/applib/qsee/build/secure_ui_sample/scorpion/IADAANAA/tzapp_entrylib.lib(qsee_hash.o)
 .debug_frame   0x00001f00       0x54 /local/mnt/workspace/CRMBuilds/TZ.BF.4.0.3.c1-00005-M8996AAAAANAZT-1_20170110_230814/b/HK11/trustzone_images/core/securemsm/trustzone/qsapps/libs/applib/qsee/build/secure_ui_sample/scorpion/IADAANAA/tzapp_entrylib.lib(qsee_shared_buffer.o)
 .debug_frame   0x00001f54       0x74 /local/mnt/workspace/CRMBuilds/TZ.BF.4.0.3.c1-00005-M8996AAAAANAZT-1_20170110_230814/b/HK11/trustzone_images/core/securemsm/trustzone/qsapps/libs/applib/qsee/build/secure_ui_sample/scorpion/IADAANAA/tzapp_entrylib.lib(qsee_appmessage.o)
 .debug_frame   0x00001fc8      0x1a0 /local/mnt/workspace/CRMBuilds/TZ.BF.4.0.3.c1-00005-M8996AAAAANAZT-1_20170110_230814/b/HK11/trustzone_images/core/securemsm/trustzone/qsapps/libs/applib/qsee/build/secure_ui_sample/scorpion/IADAANAA/tzapp_entrylib.lib(sfs_api.o)
 .debug_frame   0x00002168       0xc8 /local/mnt/workspace/CRMBuilds/TZ.BF.4.0.3.c1-00005-M8996AAAAANAZT-1_20170110_230814/b/HK11/trustzone_images/core/securemsm/trustzone/qsapps/libs/applib/qsee/build/secure_ui_sample/scorpion/IADAANAA/tzapp_entrylib.lib(tzapp_lib_main.o)
 .debug_frame   0x00002230      0x19c /local/mnt/workspace/CRMBuilds/TZ.BF.4.0.3.c1-00005-M8996AAAAANAZT-1_20170110_230814/b/HK11/trustzone_images/apps/securemsm/trustzone/qsapps/secure_ui_sample/layouts/build/secure_ui_sample/scorpion/IADAANAA/secure_ui_layout.lib(layout_8996_fluid.o)
 .debug_frame   0x000023cc       0x30 /local/mnt/workspace/CRMBuilds/TZ.BF.4.0.3.c1-00005-M8996AAAAANAZT-1_20170110_230814/b/HK11/trustzone_images/core/kernel/libstd/build/secure_ui_sample/scorpion/IADAANAA/libstd.lib(secure_memset.o)
 .debug_frame   0x000023fc      0x144 /local/mnt/workspace/CRMBuilds/TZ.BF.4.0.3.c1-00005-M8996AAAAANAZT-1_20170110_230814/b/HK11/trustzone_images/core/securemsm/sse/SecureTouch/layout/build/secure_ui_sample/scorpion/IADAANAA/sklayout.lib(layoutUtils.o)
 .debug_frame   0x00002540      0x9b0 /local/mnt/workspace/CRMBuilds/TZ.BF.4.0.3.c1-00005-M8996AAAAANAZT-1_20170110_230814/b/HK11/trustzone_images/core/securemsm/sse/qsee/SecureDisplay/libgd/build/secure_ui_sample/scorpion/IADAANAA/libgd.lib(gd.o)
 .debug_frame   0x00002ef0       0x34 /local/mnt/workspace/CRMBuilds/TZ.BF.4.0.3.c1-00005-M8996AAAAANAZT-1_20170110_230814/b/HK11/trustzone_images/core/securemsm/sse/qsee/SecureDisplay/libgd/build/secure_ui_sample/scorpion/IADAANAA/libgd.lib(gd_color.o)
 .debug_frame   0x00002f24       0x2c /local/mnt/workspace/CRMBuilds/TZ.BF.4.0.3.c1-00005-M8996AAAAANAZT-1_20170110_230814/b/HK11/trustzone_images/core/securemsm/sse/qsee/SecureDisplay/libgd/build/secure_ui_sample/scorpion/IADAANAA/libgd.lib(gd_security.o)
 .debug_frame   0x00002f50      0x21c /local/mnt/workspace/CRMBuilds/TZ.BF.4.0.3.c1-00005-M8996AAAAANAZT-1_20170110_230814/b/HK11/trustzone_images/core/securemsm/sse/qsee/SecureDisplay/libpng/build/secure_ui_sample/scorpion/IADAANAA/libpng.lib(png.o)
 .debug_frame   0x0000316c       0x90 /local/mnt/workspace/CRMBuilds/TZ.BF.4.0.3.c1-00005-M8996AAAAANAZT-1_20170110_230814/b/HK11/trustzone_images/core/securemsm/sse/qsee/SecureDisplay/libpng/build/secure_ui_sample/scorpion/IADAANAA/libpng.lib(pngerror.o)
 .debug_frame   0x000031fc       0x94 /local/mnt/workspace/CRMBuilds/TZ.BF.4.0.3.c1-00005-M8996AAAAANAZT-1_20170110_230814/b/HK11/trustzone_images/core/securemsm/sse/qsee/SecureDisplay/libpng/build/secure_ui_sample/scorpion/IADAANAA/libpng.lib(pngget.o)
 .debug_frame   0x00003290      0x100 /local/mnt/workspace/CRMBuilds/TZ.BF.4.0.3.c1-00005-M8996AAAAANAZT-1_20170110_230814/b/HK11/trustzone_images/core/securemsm/sse/qsee/SecureDisplay/libpng/build/secure_ui_sample/scorpion/IADAANAA/libpng.lib(pngmem.o)
 .debug_frame   0x00003390      0x1a0 /local/mnt/workspace/CRMBuilds/TZ.BF.4.0.3.c1-00005-M8996AAAAANAZT-1_20170110_230814/b/HK11/trustzone_images/core/securemsm/sse/qsee/SecureDisplay/libpng/build/secure_ui_sample/scorpion/IADAANAA/libpng.lib(pngread.o)
 .debug_frame   0x00003530       0x3c /local/mnt/workspace/CRMBuilds/TZ.BF.4.0.3.c1-00005-M8996AAAAANAZT-1_20170110_230814/b/HK11/trustzone_images/core/securemsm/sse/qsee/SecureDisplay/libpng/build/secure_ui_sample/scorpion/IADAANAA/libpng.lib(pngrio.o)
 .debug_frame   0x0000356c      0x2f4 /local/mnt/workspace/CRMBuilds/TZ.BF.4.0.3.c1-00005-M8996AAAAANAZT-1_20170110_230814/b/HK11/trustzone_images/core/securemsm/sse/qsee/SecureDisplay/libpng/build/secure_ui_sample/scorpion/IADAANAA/libpng.lib(pngrutil.o)
 .debug_frame   0x00003860       0x84 /local/mnt/workspace/CRMBuilds/TZ.BF.4.0.3.c1-00005-M8996AAAAANAZT-1_20170110_230814/b/HK11/trustzone_images/core/securemsm/sse/qsee/SecureDisplay/libpng/build/secure_ui_sample/scorpion/IADAANAA/libpng.lib(pngset.o)
 .debug_frame   0x000038e4       0xc8 /local/mnt/workspace/CRMBuilds/TZ.BF.4.0.3.c1-00005-M8996AAAAANAZT-1_20170110_230814/b/HK11/trustzone_images/core/securemsm/sse/qsee/SecureDisplay/zlib/build/secure_ui_sample/scorpion/IADAANAA/zlib.lib(crc32.o)
 .debug_frame   0x000039ac      0x200 /local/mnt/workspace/CRMBuilds/TZ.BF.4.0.3.c1-00005-M8996AAAAANAZT-1_20170110_230814/b/HK11/trustzone_images/core/securemsm/sse/qsee/SecureDisplay/zlib/build/secure_ui_sample/scorpion/IADAANAA/zlib.lib(inflate.o)
 .debug_frame   0x00003bac       0x3c /local/mnt/workspace/CRMBuilds/TZ.BF.4.0.3.c1-00005-M8996AAAAANAZT-1_20170110_230814/b/HK11/trustzone_images/core/securemsm/sse/qsee/SecureDisplay/zlib/build/secure_ui_sample/scorpion/IADAANAA/zlib.lib(inftrees.o)
 .debug_frame   0x00003be8       0x70 /local/mnt/workspace/CRMBuilds/TZ.BF.4.0.3.c1-00005-M8996AAAAANAZT-1_20170110_230814/b/HK11/trustzone_images/core/securemsm/sse/qsee/SecureDisplay/zlib/build/secure_ui_sample/scorpion/IADAANAA/zlib.lib(zutil.o)
 .debug_frame   0x00003c58       0x74 /local/mnt/workspace/CRMBuilds/TZ.BF.4.0.3.c1-00005-M8996AAAAANAZT-1_20170110_230814/b/HK11/trustzone_images/core/securemsm/sse/qsee/SecureDisplay/zlib/build/secure_ui_sample/scorpion/IADAANAA/zlib.lib(adler32.o)
 .debug_frame   0x00003ccc       0x38 /local/mnt/workspace/CRMBuilds/TZ.BF.4.0.3.c1-00005-M8996AAAAANAZT-1_20170110_230814/b/HK11/trustzone_images/core/securemsm/sse/qsee/SecureDisplay/zlib/build/secure_ui_sample/scorpion/IADAANAA/zlib.lib(inffast.o)
 .debug_frame   0x00003d04       0x38 /local/mnt/workspace/CRMBuilds/TZ.BF.4.0.3.c1-00005-M8996AAAAANAZT-1_20170110_230814/b/HK11/trustzone_images/core/securemsm/sse/qsee/SecureTouch/drTs/lib/build/secure_ui_sample/scorpion/IADAANAA/touch_lib.lib(01_open.o)
 .debug_frame   0x00003d3c       0x34 /local/mnt/workspace/CRMBuilds/TZ.BF.4.0.3.c1-00005-M8996AAAAANAZT-1_20170110_230814/b/HK11/trustzone_images/core/securemsm/sse/qsee/SecureTouch/drTs/lib/build/secure_ui_sample/scorpion/IADAANAA/touch_lib.lib(02_close.o)
 .debug_frame   0x00003d70       0x60 /local/mnt/workspace/CRMBuilds/TZ.BF.4.0.3.c1-00005-M8996AAAAANAZT-1_20170110_230814/b/HK11/trustzone_images/core/securemsm/sse/qsee/SecureTouch/drTs/lib/build/secure_ui_sample/scorpion/IADAANAA/touch_lib.lib(03_getData.o)
 .debug_frame   0x00003dd0      0x134 /local/mnt/workspace/CRMBuilds/TZ.BF.4.0.3.c1-00005-M8996AAAAANAZT-1_20170110_230814/b/HK11/trustzone_images/core/securemsm/trustzone/qsapps/libs/applib/common_applib/build/secure_ui_sample/scorpion/IADAANAA/tzapp_entrylib.lib(gpPersistObjCommon.o)
 .debug_frame   0x00003f04      0x1ec /local/mnt/workspace/CRMBuilds/TZ.BF.4.0.3.c1-00005-M8996AAAAANAZT-1_20170110_230814/b/HK11/trustzone_images/core/securemsm/trustzone/qsapps/libs/applib/common_applib/build/secure_ui_sample/scorpion/IADAANAA/tzapp_entrylib.lib(gpPersistentObjects.o)
 .debug_frame   0x000040f0      0x2c0 /local/mnt/workspace/CRMBuilds/TZ.BF.4.0.3.c1-00005-M8996AAAAANAZT-1_20170110_230814/b/HK11/trustzone_images/core/securemsm/trustzone/qsapps/libs/applib/common_applib/build/secure_ui_sample/scorpion/IADAANAA/tzapp_entrylib.lib(gpPersistObjData.o)
 .debug_frame   0x000043b0      0x110 /local/mnt/workspace/CRMBuilds/TZ.BF.4.0.3.c1-00005-M8996AAAAANAZT-1_20170110_230814/b/HK11/trustzone_images/core/securemsm/trustzone/qsapps/libs/applib/common_applib/build/secure_ui_sample/scorpion/IADAANAA/tzapp_entrylib.lib(gpPersistObjHandler.o)
 .debug_frame   0x000044c0      0x1dc /local/mnt/workspace/CRMBuilds/TZ.BF.4.0.3.c1-00005-M8996AAAAANAZT-1_20170110_230814/b/HK11/trustzone_images/core/securemsm/trustzone/qsapps/libs/applib/common_applib/build/secure_ui_sample/scorpion/IADAANAA/tzapp_entrylib.lib(gpPersistObjIndex.o)
 .debug_frame   0x0000469c      0x168 /local/mnt/workspace/CRMBuilds/TZ.BF.4.0.3.c1-00005-M8996AAAAANAZT-1_20170110_230814/b/HK11/trustzone_images/core/securemsm/trustzone/qsapps/libs/applib/common_applib/build/secure_ui_sample/scorpion/IADAANAA/tzapp_entrylib.lib(gpPersistObjVersion.o)
 .debug_frame   0x00004804      0x11c /local/mnt/workspace/CRMBuilds/TZ.BF.4.0.3.c1-00005-M8996AAAAANAZT-1_20170110_230814/b/HK11/trustzone_images/core/securemsm/trustzone/qsapps/libs/applib/common_applib/build/secure_ui_sample/scorpion/IADAANAA/tzapp_entrylib.lib(gpPersistObjCrypto.o)
 .debug_frame   0x00004920      0x11c /local/mnt/workspace/CRMBuilds/TZ.BF.4.0.3.c1-00005-M8996AAAAANAZT-1_20170110_230814/b/HK11/trustzone_images/core/securemsm/trustzone/qsapps/libs/applib/common_applib/build/secure_ui_sample/scorpion/IADAANAA/tzapp_entrylib.lib(gpPersistObjFileIO.o)
 .debug_frame   0x00004a3c       0xb8 /local/mnt/workspace/CRMBuilds/TZ.BF.4.0.3.c1-00005-M8996AAAAANAZT-1_20170110_230814/b/HK11/trustzone_images/core/securemsm/trustzone/qsapps/libs/applib/common_applib/build/secure_ui_sample/scorpion/IADAANAA/tzapp_entrylib.lib(gpFileService.o)
 .debug_frame   0x00004af4      0x168 /local/mnt/workspace/CRMBuilds/TZ.BF.4.0.3.c1-00005-M8996AAAAANAZT-1_20170110_230814/b/HK11/trustzone_images/core/securemsm/trustzone/qsapps/libs/applib/qsee/build/secure_ui_sample/scorpion/IADAANAA/tzapp_entrylib.lib(qsee_core_shim.o)
 .debug_frame   0x00004c5c       0xd0 /local/mnt/workspace/CRMBuilds/TZ.BF.4.0.3.c1-00005-M8996AAAAANAZT-1_20170110_230814/b/HK11/trustzone_images/core/securemsm/trustzone/qsapps/libs/applib/qsee/build/secure_ui_sample/scorpion/IADAANAA/tzapp_entrylib.lib(stor.o)
 .debug_frame   0x00004d2c      0x22c /local/mnt/workspace/CRMBuilds/TZ.BF.4.0.3.c1-00005-M8996AAAAANAZT-1_20170110_230814/b/HK11/trustzone_images/core/securemsm/trustzone/qsapps/libs/applib/qsee/build/secure_ui_sample/scorpion/IADAANAA/tzapp_entrylib.lib(stor_gpt.o)
 .debug_frame   0x00004f58      0x128 /local/mnt/workspace/CRMBuilds/TZ.BF.4.0.3.c1-00005-M8996AAAAANAZT-1_20170110_230814/b/HK11/trustzone_images/core/securemsm/trustzone/qsapps/libs/applib/qsee/build/secure_ui_sample/scorpion/IADAANAA/tzapp_entrylib.lib(stor_rpmbw.o)
 .debug_frame   0x00005080       0x2c /local/mnt/workspace/CRMBuilds/TZ.BF.4.0.3.c1-00005-M8996AAAAANAZT-1_20170110_230814/b/HK11/trustzone_images/core/securemsm/trustzone/qsapps/libs/applib/qsee/build/secure_ui_sample/scorpion/IADAANAA/tzapp_entrylib.lib(qsee_cfg_prop_shim.o)
 .debug_frame   0x000050ac      0x12c /local/mnt/workspace/CRMBuilds/TZ.BF.4.0.3.c1-00005-M8996AAAAANAZT-1_20170110_230814/b/HK11/trustzone_images/core/securemsm/trustzone/qsapps/libs/applib/qsee/build/secure_ui_sample/scorpion/IADAANAA/tzapp_entrylib.lib(qsee_cipher.o)
 .debug_frame   0x000051d8      0x110 /local/mnt/workspace/CRMBuilds/TZ.BF.4.0.3.c1-00005-M8996AAAAANAZT-1_20170110_230814/b/HK11/trustzone_images/core/securemsm/trustzone/qsapps/libs/applib/qsee/build/secure_ui_sample/scorpion/IADAANAA/tzapp_entrylib.lib(qsee_hmac.o)
 .debug_frame   0x000052e8       0x30 /local/mnt/workspace/CRMBuilds/TZ.BF.4.0.3.c1-00005-M8996AAAAANAZT-1_20170110_230814/b/HK11/trustzone_images/core/securemsm/trustzone/qsapps/libs/applib/qsee/build/secure_ui_sample/scorpion/IADAANAA/tzapp_entrylib.lib(gpPersistObjPanic.o)
 .debug_frame   0x00005318       0x28 /local/mnt/workspace/CRMBuilds/TZ.BF.4.0.3.c1-00005-M8996AAAAANAZT-1_20170110_230814/b/HK11/trustzone_images/core/kernel/libstd/build/secure_ui_sample/scorpion/IADAANAA/libstd.lib(timesafe_memcmp.o)
 .debug_frame   0x00005340      0x14c /local/mnt/workspace/CRMBuilds/TZ.BF.4.0.3.c1-00005-M8996AAAAANAZT-1_20170110_230814/b/HK11/trustzone_images/core/securemsm/sse/SecureTouch/controller/build/secure_ui_sample/scorpion/IADAANAA/drts_controller_msm8996.lib(atmel_mxt_ts.o)
 .debug_frame   0x0000548c       0xdc /local/mnt/workspace/CRMBuilds/TZ.BF.4.0.3.c1-00005-M8996AAAAANAZT-1_20170110_230814/b/HK11/trustzone_images/core/securemsm/sse/SecureTouch/controller/build/secure_ui_sample/scorpion/IADAANAA/drts_controller_msm8996.lib(synaptics_ts.o)
 .debug_frame   0x00005568       0x3c /local/mnt/workspace/CRMBuilds/TZ.BF.4.0.3.c1-00005-M8996AAAAANAZT-1_20170110_230814/b/HK11/trustzone_images/core/securemsm/sse/log/build/secure_ui_sample/scorpion/IADAANAA/sselog.lib(sselog.o)
 .debug_frame   0x000055a4       0x84 /local/mnt/workspace/CRMBuilds/TZ.BF.4.0.3.c1-00005-M8996AAAAANAZT-1_20170110_230814/b/HK11/trustzone_images/core/securemsm/sse/qsee/SecureTouch/drTs/controller/build/secure_ui_sample/scorpion/IADAANAA/touch_controller_i2c_msm8996.lib(atmel_mxt_ts_i2c.o)
 .debug_frame   0x00005628       0x9c /local/mnt/workspace/CRMBuilds/TZ.BF.4.0.3.c1-00005-M8996AAAAANAZT-1_20170110_230814/b/HK11/trustzone_images/core/securemsm/sse/qsee/SecureTouch/drTs/controller/build/secure_ui_sample/scorpion/IADAANAA/touch_controller_i2c_msm8996.lib(synaptics_ts_i2c.o)
 .debug_frame   0x000056c4       0xc4 /local/mnt/workspace/CRMBuilds/TZ.BF.4.0.3.c1-00005-M8996AAAAANAZT-1_20170110_230814/b/HK11/trustzone_images/core/securemsm/trustzone/qsapps/libs/applib/qsee/build/secure_ui_sample/scorpion/IADAANAA/tzapp_entrylib.lib(qsee_i2c.o)
