Archive member included because of file (symbol)

/local/mnt/workspace/CRMBuilds/TZ.BF.4.0.3.c1-00005-M8996AAAAANAZT-1_20170110_230814/b/HK11/trustzone_images/core/securemsm/sse/qsee/SecureDisplay/libpng/build/secureindicator/scorpion/IADAANAA/libpng.lib(png.o)
                              /local/mnt/workspace/CRMBuilds/TZ.BF.4.0.3.c1-00005-M8996AAAAANAZT-1_20170110_230814/b/HK11/trustzone_images/apps/securemsm/trustzone/qsapps/secureindicator/build/secureindicator/scorpion/IADAANAA/si.o (png_create_info_struct)
/local/mnt/workspace/CRMBuilds/TZ.BF.4.0.3.c1-00005-M8996AAAAANAZT-1_20170110_230814/b/HK11/trustzone_images/core/securemsm/sse/qsee/SecureDisplay/libpng/build/secureindicator/scorpion/IADAANAA/libpng.lib(pngerror.o)
                              /local/mnt/workspace/CRMBuilds/TZ.BF.4.0.3.c1-00005-M8996AAAAANAZT-1_20170110_230814/b/HK11/trustzone_images/core/securemsm/sse/qsee/SecureDisplay/libpng/build/secureindicator/scorpion/IADAANAA/libpng.lib(png.o) (png_err)
/local/mnt/workspace/CRMBuilds/TZ.BF.4.0.3.c1-00005-M8996AAAAANAZT-1_20170110_230814/b/HK11/trustzone_images/core/securemsm/sse/qsee/SecureDisplay/libpng/build/secureindicator/scorpion/IADAANAA/libpng.lib(pngget.o)
                              /local/mnt/workspace/CRMBuilds/TZ.BF.4.0.3.c1-00005-M8996AAAAANAZT-1_20170110_230814/b/HK11/trustzone_images/apps/securemsm/trustzone/qsapps/secureindicator/build/secureindicator/scorpion/IADAANAA/si.o (png_get_IHDR)
/local/mnt/workspace/CRMBuilds/TZ.BF.4.0.3.c1-00005-M8996AAAAANAZT-1_20170110_230814/b/HK11/trustzone_images/core/securemsm/sse/qsee/SecureDisplay/libpng/build/secureindicator/scorpion/IADAANAA/libpng.lib(pngmem.o)
                              /local/mnt/workspace/CRMBuilds/TZ.BF.4.0.3.c1-00005-M8996AAAAANAZT-1_20170110_230814/b/HK11/trustzone_images/core/securemsm/sse/qsee/SecureDisplay/libpng/build/secureindicator/scorpion/IADAANAA/libpng.lib(png.o) (png_free)
/local/mnt/workspace/CRMBuilds/TZ.BF.4.0.3.c1-00005-M8996AAAAANAZT-1_20170110_230814/b/HK11/trustzone_images/core/securemsm/sse/qsee/SecureDisplay/libpng/build/secureindicator/scorpion/IADAANAA/libpng.lib(pngread.o)
                              /local/mnt/workspace/CRMBuilds/TZ.BF.4.0.3.c1-00005-M8996AAAAANAZT-1_20170110_230814/b/HK11/trustzone_images/apps/securemsm/trustzone/qsapps/secureindicator/build/secureindicator/scorpion/IADAANAA/si.o (png_create_read_struct)
/local/mnt/workspace/CRMBuilds/TZ.BF.4.0.3.c1-00005-M8996AAAAANAZT-1_20170110_230814/b/HK11/trustzone_images/core/securemsm/sse/qsee/SecureDisplay/libpng/build/secureindicator/scorpion/IADAANAA/libpng.lib(pngrio.o)
                              /local/mnt/workspace/CRMBuilds/TZ.BF.4.0.3.c1-00005-M8996AAAAANAZT-1_20170110_230814/b/HK11/trustzone_images/apps/securemsm/trustzone/qsapps/secureindicator/build/secureindicator/scorpion/IADAANAA/si.o (png_set_read_fn)
/local/mnt/workspace/CRMBuilds/TZ.BF.4.0.3.c1-00005-M8996AAAAANAZT-1_20170110_230814/b/HK11/trustzone_images/core/securemsm/sse/qsee/SecureDisplay/libpng/build/secureindicator/scorpion/IADAANAA/libpng.lib(pngrutil.o)
                              /local/mnt/workspace/CRMBuilds/TZ.BF.4.0.3.c1-00005-M8996AAAAANAZT-1_20170110_230814/b/HK11/trustzone_images/core/securemsm/sse/qsee/SecureDisplay/libpng/build/secureindicator/scorpion/IADAANAA/libpng.lib(pngread.o) (png_combine_row)
/local/mnt/workspace/CRMBuilds/TZ.BF.4.0.3.c1-00005-M8996AAAAANAZT-1_20170110_230814/b/HK11/trustzone_images/core/securemsm/sse/qsee/SecureDisplay/libpng/build/secureindicator/scorpion/IADAANAA/libpng.lib(pngset.o)
                              /local/mnt/workspace/CRMBuilds/TZ.BF.4.0.3.c1-00005-M8996AAAAANAZT-1_20170110_230814/b/HK11/trustzone_images/core/securemsm/sse/qsee/SecureDisplay/libpng/build/secureindicator/scorpion/IADAANAA/libpng.lib(pngrutil.o) (png_set_IHDR)
/local/mnt/workspace/CRMBuilds/TZ.BF.4.0.3.c1-00005-M8996AAAAANAZT-1_20170110_230814/b/HK11/trustzone_images/core/securemsm/sse/qsee/SecureDisplay/zlib/build/secureindicator/scorpion/IADAANAA/zlib.lib(crc32.o)
                              /local/mnt/workspace/CRMBuilds/TZ.BF.4.0.3.c1-00005-M8996AAAAANAZT-1_20170110_230814/b/HK11/trustzone_images/core/securemsm/sse/qsee/SecureDisplay/libpng/build/secureindicator/scorpion/IADAANAA/libpng.lib(png.o) (crc32)
/local/mnt/workspace/CRMBuilds/TZ.BF.4.0.3.c1-00005-M8996AAAAANAZT-1_20170110_230814/b/HK11/trustzone_images/core/securemsm/sse/qsee/SecureDisplay/zlib/build/secureindicator/scorpion/IADAANAA/zlib.lib(inflate.o)
                              /local/mnt/workspace/CRMBuilds/TZ.BF.4.0.3.c1-00005-M8996AAAAANAZT-1_20170110_230814/b/HK11/trustzone_images/core/securemsm/sse/qsee/SecureDisplay/libpng/build/secureindicator/scorpion/IADAANAA/libpng.lib(pngrutil.o) (inflate)
/local/mnt/workspace/CRMBuilds/TZ.BF.4.0.3.c1-00005-M8996AAAAANAZT-1_20170110_230814/b/HK11/trustzone_images/core/securemsm/sse/qsee/SecureDisplay/zlib/build/secureindicator/scorpion/IADAANAA/zlib.lib(inftrees.o)
                              /local/mnt/workspace/CRMBuilds/TZ.BF.4.0.3.c1-00005-M8996AAAAANAZT-1_20170110_230814/b/HK11/trustzone_images/core/securemsm/sse/qsee/SecureDisplay/zlib/build/secureindicator/scorpion/IADAANAA/zlib.lib(inflate.o) (inflate_table)
/local/mnt/workspace/CRMBuilds/TZ.BF.4.0.3.c1-00005-M8996AAAAANAZT-1_20170110_230814/b/HK11/trustzone_images/core/securemsm/sse/qsee/SecureDisplay/zlib/build/secureindicator/scorpion/IADAANAA/zlib.lib(zutil.o)
                              /local/mnt/workspace/CRMBuilds/TZ.BF.4.0.3.c1-00005-M8996AAAAANAZT-1_20170110_230814/b/HK11/trustzone_images/core/securemsm/sse/qsee/SecureDisplay/zlib/build/secureindicator/scorpion/IADAANAA/zlib.lib(inflate.o) (zcalloc)
/local/mnt/workspace/CRMBuilds/TZ.BF.4.0.3.c1-00005-M8996AAAAANAZT-1_20170110_230814/b/HK11/trustzone_images/core/securemsm/sse/qsee/SecureDisplay/zlib/build/secureindicator/scorpion/IADAANAA/zlib.lib(adler32.o)
                              /local/mnt/workspace/CRMBuilds/TZ.BF.4.0.3.c1-00005-M8996AAAAANAZT-1_20170110_230814/b/HK11/trustzone_images/core/securemsm/sse/qsee/SecureDisplay/zlib/build/secureindicator/scorpion/IADAANAA/zlib.lib(inflate.o) (adler32)
/local/mnt/workspace/CRMBuilds/TZ.BF.4.0.3.c1-00005-M8996AAAAANAZT-1_20170110_230814/b/HK11/trustzone_images/core/securemsm/sse/qsee/SecureDisplay/zlib/build/secureindicator/scorpion/IADAANAA/zlib.lib(inffast.o)
                              /local/mnt/workspace/CRMBuilds/TZ.BF.4.0.3.c1-00005-M8996AAAAANAZT-1_20170110_230814/b/HK11/trustzone_images/core/securemsm/sse/qsee/SecureDisplay/zlib/build/secureindicator/scorpion/IADAANAA/zlib.lib(inflate.o) (inflate_fast)
/local/mnt/workspace/CRMBuilds/TZ.BF.4.0.3.c1-00005-M8996AAAAANAZT-1_20170110_230814/b/HK11/trustzone_images/core/securemsm/trustzone/qsapps/libs/applib/common_applib/build/secureindicator/scorpion/IADAANAA/tzapp_entrylib.lib(common_applib.o)
                              /local/mnt/workspace/CRMBuilds/TZ.BF.4.0.3.c1-00005-M8996AAAAANAZT-1_20170110_230814/b/HK11/trustzone_images/apps/securemsm/trustzone/qsapps/secureindicator/build/secureindicator/scorpion/IADAANAA/si.o (__stack_chk_fail)
/local/mnt/workspace/CRMBuilds/TZ.BF.4.0.3.c1-00005-M8996AAAAANAZT-1_20170110_230814/b/HK11/trustzone_images/core/securemsm/trustzone/qsapps/libs/applib/qsee/build/secureindicator/scorpion/IADAANAA/tzapp_entrylib.lib(mink_shared_code.o)
                              /local/mnt/workspace/CRMBuilds/TZ.BF.4.0.3.c1-00005-M8996AAAAANAZT-1_20170110_230814/b/HK11/trustzone_images/core/securemsm/trustzone/qsapps/libs/applib/common_applib/build/secureindicator/scorpion/IADAANAA/tzapp_entrylib.lib(common_applib.o) (minkIPC)
/local/mnt/workspace/CRMBuilds/TZ.BF.4.0.3.c1-00005-M8996AAAAANAZT-1_20170110_230814/b/HK11/trustzone_images/core/securemsm/trustzone/qsapps/libs/applib/qsee/build/secureindicator/scorpion/IADAANAA/tzapp_entrylib.lib(qsee_env.o)
                              /local/mnt/workspace/CRMBuilds/TZ.BF.4.0.3.c1-00005-M8996AAAAANAZT-1_20170110_230814/b/HK11/trustzone_images/core/securemsm/trustzone/qsapps/libs/applib/common_applib/build/secureindicator/scorpion/IADAANAA/tzapp_entrylib.lib(common_applib.o) (qsee_open)
/local/mnt/workspace/CRMBuilds/TZ.BF.4.0.3.c1-00005-M8996AAAAANAZT-1_20170110_230814/b/HK11/trustzone_images/core/securemsm/trustzone/qsapps/libs/applib/qsee/build/secureindicator/scorpion/IADAANAA/tzapp_entrylib.lib(qsee_prng.o)
                              /local/mnt/workspace/CRMBuilds/TZ.BF.4.0.3.c1-00005-M8996AAAAANAZT-1_20170110_230814/b/HK11/trustzone_images/core/securemsm/trustzone/qsapps/libs/applib/common_applib/build/secureindicator/scorpion/IADAANAA/tzapp_entrylib.lib(common_applib.o) (qsee_prng_getdata)
/local/mnt/workspace/CRMBuilds/TZ.BF.4.0.3.c1-00005-M8996AAAAANAZT-1_20170110_230814/b/HK11/trustzone_images/core/securemsm/trustzone/qsapps/libs/applib/qsee/build/secureindicator/scorpion/IADAANAA/tzapp_entrylib.lib(tzapp_syscall.o)
                              /local/mnt/workspace/CRMBuilds/TZ.BF.4.0.3.c1-00005-M8996AAAAANAZT-1_20170110_230814/b/HK11/trustzone_images/core/securemsm/trustzone/qsapps/libs/applib/qsee/build/secureindicator/scorpion/IADAANAA/src/tzapp_entry.o (app_export_init_info_to_qsee)
/local/mnt/workspace/CRMBuilds/TZ.BF.4.0.3.c1-00005-M8996AAAAANAZT-1_20170110_230814/b/HK11/trustzone_images/core/securemsm/trustzone/qsapps/libs/applib/qsee/build/secureindicator/scorpion/IADAANAA/tzapp_entrylib.lib(qsee_appmessage.o)
                              /local/mnt/workspace/CRMBuilds/TZ.BF.4.0.3.c1-00005-M8996AAAAANAZT-1_20170110_230814/b/HK11/trustzone_images/apps/securemsm/trustzone/qsapps/secureindicator/build/secureindicator/scorpion/IADAANAA/si.o (qsee_decapsulate_inter_app_message)
/local/mnt/workspace/CRMBuilds/TZ.BF.4.0.3.c1-00005-M8996AAAAANAZT-1_20170110_230814/b/HK11/trustzone_images/core/securemsm/trustzone/qsapps/libs/applib/qsee/build/secureindicator/scorpion/IADAANAA/tzapp_entrylib.lib(sfs_api.o)
                              /local/mnt/workspace/CRMBuilds/TZ.BF.4.0.3.c1-00005-M8996AAAAANAZT-1_20170110_230814/b/HK11/trustzone_images/apps/securemsm/trustzone/qsapps/secureindicator/build/secureindicator/scorpion/IADAANAA/si.o (qsee_sfs_close)
/local/mnt/workspace/CRMBuilds/TZ.BF.4.0.3.c1-00005-M8996AAAAANAZT-1_20170110_230814/b/HK11/trustzone_images/core/securemsm/trustzone/qsapps/libs/applib/qsee/build/secureindicator/scorpion/IADAANAA/tzapp_entrylib.lib(tzapp_lib_main.o)
                              /local/mnt/workspace/CRMBuilds/TZ.BF.4.0.3.c1-00005-M8996AAAAANAZT-1_20170110_230814/b/HK11/trustzone_images/core/securemsm/trustzone/qsapps/libs/applib/common_applib/build/secureindicator/scorpion/IADAANAA/tzapp_entrylib.lib(common_applib.o) (CApp_invoke)
/local/mnt/workspace/CRMBuilds/TZ.BF.4.0.3.c1-00005-M8996AAAAANAZT-1_20170110_230814/b/HK11/trustzone_images/core/securemsm/trustzone/qsapps/libs/applib/qsee/build/secureindicator/scorpion/IADAANAA/tzapp_entrylib.lib(kthread_shared.o)
                              /local/mnt/workspace/CRMBuilds/TZ.BF.4.0.3.c1-00005-M8996AAAAANAZT-1_20170110_230814/b/HK11/trustzone_images/core/securemsm/trustzone/qsapps/libs/applib/qsee/build/secureindicator/scorpion/IADAANAA/tzapp_entrylib.lib(mink_shared_code.o) (mink_generic_syscall)
/local/mnt/workspace/CRMBuilds/TZ.BF.4.0.3.c1-00005-M8996AAAAANAZT-1_20170110_230814/b/HK11/trustzone_images/core/securemsm/trustzone/qsapps/libs/services/build/secureindicator/scorpion/IADAANAA/qsee_services.lib(qsee_log.o)
                              /local/mnt/workspace/CRMBuilds/TZ.BF.4.0.3.c1-00005-M8996AAAAANAZT-1_20170110_230814/b/HK11/trustzone_images/apps/securemsm/trustzone/qsapps/secureindicator/build/secureindicator/scorpion/IADAANAA/si_main.o (qsee_log)
/local/mnt/workspace/CRMBuilds/TZ.BF.4.0.3.c1-00005-M8996AAAAANAZT-1_20170110_230814/b/HK11/trustzone_images/core/securemsm/trustzone/qsee/mink/libstd/build/secureindicator/scorpion/IADAANAA/libstd.lib(memscpy.o)
                              /local/mnt/workspace/CRMBuilds/TZ.BF.4.0.3.c1-00005-M8996AAAAANAZT-1_20170110_230814/b/HK11/trustzone_images/apps/securemsm/trustzone/qsapps/secureindicator/build/secureindicator/scorpion/IADAANAA/si.o (memscpy)
/local/mnt/workspace/CRMBuilds/TZ.BF.4.0.3.c1-00005-M8996AAAAANAZT-1_20170110_230814/b/HK11/trustzone_images/core/securemsm/trustzone/qsee/mink/libstd/build/secureindicator/scorpion/IADAANAA/libstd.lib(secure_memset.o)
                              /local/mnt/workspace/CRMBuilds/TZ.BF.4.0.3.c1-00005-M8996AAAAANAZT-1_20170110_230814/b/HK11/trustzone_images/core/securemsm/trustzone/qsapps/libs/applib/common_applib/build/secureindicator/scorpion/IADAANAA/tzapp_entrylib.lib(common_applib.o) (secure_memset)
/local/mnt/workspace/CRMBuilds/TZ.BF.4.0.3.c1-00005-M8996AAAAANAZT-1_20170110_230814/b/HK11/trustzone_images/core/securemsm/trustzone/qsee/mink/libstd/build/secureindicator/scorpion/IADAANAA/libstd.lib(memcmp.o)
                              /local/mnt/workspace/CRMBuilds/TZ.BF.4.0.3.c1-00005-M8996AAAAANAZT-1_20170110_230814/b/HK11/trustzone_images/core/securemsm/sse/qsee/SecureDisplay/libpng/build/secureindicator/scorpion/IADAANAA/libpng.lib(png.o) (memcmp)
/local/mnt/workspace/CRMBuilds/TZ.BF.4.0.3.c1-00005-M8996AAAAANAZT-1_20170110_230814/b/HK11/trustzone_images/core/securemsm/trustzone/qsee/mink/libstd/build/secureindicator/scorpion/IADAANAA/libstd.lib(strlen.o)
                              /local/mnt/workspace/CRMBuilds/TZ.BF.4.0.3.c1-00005-M8996AAAAANAZT-1_20170110_230814/b/HK11/trustzone_images/core/securemsm/trustzone/qsapps/libs/applib/common_applib/build/secureindicator/scorpion/IADAANAA/tzapp_entrylib.lib(common_applib.o) (strlen)
/local/mnt/workspace/CRMBuilds/TZ.BF.4.0.3.c1-00005-M8996AAAAANAZT-1_20170110_230814/b/HK11/trustzone_images/core/securemsm/trustzone/qsee/mink/libstd/build/secureindicator/scorpion/IADAANAA/libstd.lib(strcmp.o)
                              /local/mnt/workspace/CRMBuilds/TZ.BF.4.0.3.c1-00005-M8996AAAAANAZT-1_20170110_230814/b/HK11/trustzone_images/apps/securemsm/trustzone/qsapps/secureindicator/build/secureindicator/scorpion/IADAANAA/si.o (strcmp)
/local/mnt/workspace/CRMBuilds/TZ.BF.4.0.3.c1-00005-M8996AAAAANAZT-1_20170110_230814/b/HK11/trustzone_images/core/securemsm/trustzone/qsee/mink/libstd/build/secureindicator/scorpion/IADAANAA/libstd.lib(printf.o)
                              /local/mnt/workspace/CRMBuilds/TZ.BF.4.0.3.c1-00005-M8996AAAAANAZT-1_20170110_230814/b/HK11/trustzone_images/core/securemsm/trustzone/qsapps/libs/services/build/secureindicator/scorpion/IADAANAA/qsee_services.lib(qsee_log.o) (snprintf)
/local/mnt/workspace/CRMBuilds/TZ.BF.4.0.3.c1-00005-M8996AAAAANAZT-1_20170110_230814/b/HK11/trustzone_images/core/securemsm/trustzone/qsee/mink/libstd/build/secureindicator/scorpion/IADAANAA/libstd.lib(abort.o)
                              /local/mnt/workspace/CRMBuilds/TZ.BF.4.0.3.c1-00005-M8996AAAAANAZT-1_20170110_230814/b/HK11/trustzone_images/core/securemsm/sse/qsee/SecureDisplay/libpng/build/secureindicator/scorpion/IADAANAA/libpng.lib(pngerror.o) (abort)
/local/mnt/workspace/CRMBuilds/TZ.BF.4.0.3.c1-00005-M8996AAAAANAZT-1_20170110_230814/b/HK11/trustzone_images/core/securemsm/trustzone/qsee/mink/libstd/build/secureindicator/scorpion/IADAANAA/libstd.lib(memchr.o)
                              /local/mnt/workspace/CRMBuilds/TZ.BF.4.0.3.c1-00005-M8996AAAAANAZT-1_20170110_230814/b/HK11/trustzone_images/core/securemsm/trustzone/qsee/mink/libstd/build/secureindicator/scorpion/IADAANAA/libstd.lib(printf.o) (memchr)
/afs/localcell/cm/gv2.6/sysname/pkg.@sys/qct/software/llvm/release/arm/3.5.2.4/lib/clang/3.5.2/lib/linux/libclang_rt.builtins-arm.a(aeabi_memcpy.S.o)
                              /local/mnt/workspace/CRMBuilds/TZ.BF.4.0.3.c1-00005-M8996AAAAANAZT-1_20170110_230814/b/HK11/trustzone_images/core/securemsm/sse/qsee/SecureDisplay/libpng/build/secureindicator/scorpion/IADAANAA/libpng.lib(png.o) (__aeabi_memcpy)
/afs/localcell/cm/gv2.6/sysname/pkg.@sys/qct/software/llvm/release/arm/3.5.2.4/lib/clang/3.5.2/lib/linux/libclang_rt.builtins-arm.a(aeabi_memset.S.o)
                              /local/mnt/workspace/CRMBuilds/TZ.BF.4.0.3.c1-00005-M8996AAAAANAZT-1_20170110_230814/b/HK11/trustzone_images/apps/securemsm/trustzone/qsapps/secureindicator/build/secureindicator/scorpion/IADAANAA/si.o (__aeabi_memset)
/afs/localcell/cm/gv2.6/sysname/pkg.@sys/qct/software/llvm/release/arm/3.5.2.4/lib/clang/3.5.2/lib/linux/libclang_rt.builtins-arm.a(aeabi_uldivmod.S.o)
                              /local/mnt/workspace/CRMBuilds/TZ.BF.4.0.3.c1-00005-M8996AAAAANAZT-1_20170110_230814/b/HK11/trustzone_images/core/securemsm/trustzone/qsee/mink/libstd/build/secureindicator/scorpion/IADAANAA/libstd.lib(printf.o) (__aeabi_uldivmod)
/afs/localcell/cm/gv2.6/sysname/pkg.@sys/qct/software/llvm/release/arm/3.5.2.4/lib/clang/3.5.2/lib/linux/libclang_rt.builtins-arm.a(udivmoddi4.c.o)
                              /afs/localcell/cm/gv2.6/sysname/pkg.@sys/qct/software/llvm/release/arm/3.5.2.4/lib/clang/3.5.2/lib/linux/libclang_rt.builtins-arm.a(aeabi_uldivmod.S.o) (__udivmoddi4)
/afs/localcell/cm/gv2.6/sysname/pkg.@sys/qct/software/llvm/release/arm/3.5.2.4/lib/clang/3.5.2/lib/linux/libclang_rt.builtins-arm.a(udivsi3.c.o)
                              /afs/localcell/cm/gv2.6/sysname/pkg.@sys/qct/software/llvm/release/arm/3.5.2.4/lib/clang/3.5.2/lib/linux/libclang_rt.builtins-arm.a(udivmoddi4.c.o) (__aeabi_uidiv)
/afs/localcell/cm/gv2.6/sysname/pkg.@sys/qct/software/llvm/release/arm/3.5.2.4/lib/clang/3.5.2/lib/linux/libclang_rt.builtins-arm.a(umoddi3.c.o)
                              /local/mnt/workspace/CRMBuilds/TZ.BF.4.0.3.c1-00005-M8996AAAAANAZT-1_20170110_230814/b/HK11/trustzone_images/core/securemsm/trustzone/qsee/mink/libstd/build/secureindicator/scorpion/IADAANAA/libstd.lib(printf.o) (__umoddi3)
/afs/localcell/cm/gv2.6/sysname/pkg.@sys/qct/software/llvm/release/arm/3.5.2.4/lib/clang/3.5.2/lib/linux/libclang_rt.builtins-arm.a(umodsi3.c.o)
                              /afs/localcell/cm/gv2.6/sysname/pkg.@sys/qct/software/llvm/release/arm/3.5.2.4/lib/clang/3.5.2/lib/linux/libclang_rt.builtins-arm.a(udivmoddi4.c.o) (__umodsi3)
/local/mnt/workspace/CRMBuilds/TZ.BF.4.0.3.c1-00005-M8996AAAAANAZT-1_20170110_230814/b/HK11/trustzone_images/apps/securemsm/trustzone/qsapps/secureindicator/oem/build/secureindicator/scorpion/IADAANAA/secureindicator_oem.lib(si_oem.o)
                              /local/mnt/workspace/CRMBuilds/TZ.BF.4.0.3.c1-00005-M8996AAAAANAZT-1_20170110_230814/b/HK11/trustzone_images/apps/securemsm/trustzone/qsapps/secureindicator/build/secureindicator/scorpion/IADAANAA/si.o (APPROVED_APPS)
/local/mnt/workspace/CRMBuilds/TZ.BF.4.0.3.c1-00005-M8996AAAAANAZT-1_20170110_230814/b/HK11/trustzone_images/core/securemsm/trustzone/qsapps/libs/applib/common_applib/build/secureindicator/scorpion/IADAANAA/tzapp_entrylib.lib(gpPersistObjCommon.o)
                              /local/mnt/workspace/CRMBuilds/TZ.BF.4.0.3.c1-00005-M8996AAAAANAZT-1_20170110_230814/b/HK11/trustzone_images/core/securemsm/trustzone/qsapps/libs/applib/qsee/build/secureindicator/scorpion/IADAANAA/tzapp_entrylib.lib(sfs_api.o) (gpCommon_Close_Object)
/local/mnt/workspace/CRMBuilds/TZ.BF.4.0.3.c1-00005-M8996AAAAANAZT-1_20170110_230814/b/HK11/trustzone_images/core/securemsm/trustzone/qsapps/libs/applib/common_applib/build/secureindicator/scorpion/IADAANAA/tzapp_entrylib.lib(gpPersistentObjects.o)
                              /local/mnt/workspace/CRMBuilds/TZ.BF.4.0.3.c1-00005-M8996AAAAANAZT-1_20170110_230814/b/HK11/trustzone_images/core/securemsm/trustzone/qsapps/libs/applib/qsee/build/secureindicator/scorpion/IADAANAA/tzapp_entrylib.lib(sfs_api.o) (TEE_AllocatePersistentObjectEnumerator)
/local/mnt/workspace/CRMBuilds/TZ.BF.4.0.3.c1-00005-M8996AAAAANAZT-1_20170110_230814/b/HK11/trustzone_images/core/securemsm/trustzone/qsapps/libs/applib/common_applib/build/secureindicator/scorpion/IADAANAA/tzapp_entrylib.lib(gpPersistObjData.o)
                              /local/mnt/workspace/CRMBuilds/TZ.BF.4.0.3.c1-00005-M8996AAAAANAZT-1_20170110_230814/b/HK11/trustzone_images/core/securemsm/trustzone/qsapps/libs/applib/common_applib/build/secureindicator/scorpion/IADAANAA/tzapp_entrylib.lib(gpPersistObjCommon.o) (gpData_Close_Object)
/local/mnt/workspace/CRMBuilds/TZ.BF.4.0.3.c1-00005-M8996AAAAANAZT-1_20170110_230814/b/HK11/trustzone_images/core/securemsm/trustzone/qsapps/libs/applib/common_applib/build/secureindicator/scorpion/IADAANAA/tzapp_entrylib.lib(gpPersistObjHandler.o)
                              /local/mnt/workspace/CRMBuilds/TZ.BF.4.0.3.c1-00005-M8996AAAAANAZT-1_20170110_230814/b/HK11/trustzone_images/core/securemsm/trustzone/qsapps/libs/applib/common_applib/build/secureindicator/scorpion/IADAANAA/tzapp_entrylib.lib(gpPersistObjCommon.o) (gpHandler_Close_Handle)
/local/mnt/workspace/CRMBuilds/TZ.BF.4.0.3.c1-00005-M8996AAAAANAZT-1_20170110_230814/b/HK11/trustzone_images/core/securemsm/trustzone/qsapps/libs/applib/common_applib/build/secureindicator/scorpion/IADAANAA/tzapp_entrylib.lib(gpPersistObjIndex.o)
                              /local/mnt/workspace/CRMBuilds/TZ.BF.4.0.3.c1-00005-M8996AAAAANAZT-1_20170110_230814/b/HK11/trustzone_images/core/securemsm/trustzone/qsapps/libs/applib/common_applib/build/secureindicator/scorpion/IADAANAA/tzapp_entrylib.lib(gpPersistObjHandler.o) (gpIndex_Create_Entry)
/local/mnt/workspace/CRMBuilds/TZ.BF.4.0.3.c1-00005-M8996AAAAANAZT-1_20170110_230814/b/HK11/trustzone_images/core/securemsm/trustzone/qsapps/libs/applib/common_applib/build/secureindicator/scorpion/IADAANAA/tzapp_entrylib.lib(gpPersistObjVersion.o)
                              /local/mnt/workspace/CRMBuilds/TZ.BF.4.0.3.c1-00005-M8996AAAAANAZT-1_20170110_230814/b/HK11/trustzone_images/core/securemsm/trustzone/qsapps/libs/applib/common_applib/build/secureindicator/scorpion/IADAANAA/tzapp_entrylib.lib(gpPersistObjIndex.o) (gpVersion_Delete_Version)
/local/mnt/workspace/CRMBuilds/TZ.BF.4.0.3.c1-00005-M8996AAAAANAZT-1_20170110_230814/b/HK11/trustzone_images/core/securemsm/trustzone/qsapps/libs/applib/common_applib/build/secureindicator/scorpion/IADAANAA/tzapp_entrylib.lib(gpPersistObjCrypto.o)
                              /local/mnt/workspace/CRMBuilds/TZ.BF.4.0.3.c1-00005-M8996AAAAANAZT-1_20170110_230814/b/HK11/trustzone_images/core/securemsm/trustzone/qsapps/libs/applib/common_applib/build/secureindicator/scorpion/IADAANAA/tzapp_entrylib.lib(gpPersistObjData.o) (gpCrypto_Decrypt)
/local/mnt/workspace/CRMBuilds/TZ.BF.4.0.3.c1-00005-M8996AAAAANAZT-1_20170110_230814/b/HK11/trustzone_images/core/securemsm/trustzone/qsapps/libs/applib/common_applib/build/secureindicator/scorpion/IADAANAA/tzapp_entrylib.lib(gpPersistObjFileIO.o)
                              /local/mnt/workspace/CRMBuilds/TZ.BF.4.0.3.c1-00005-M8996AAAAANAZT-1_20170110_230814/b/HK11/trustzone_images/core/securemsm/trustzone/qsapps/libs/applib/common_applib/build/secureindicator/scorpion/IADAANAA/tzapp_entrylib.lib(gpPersistObjData.o) (gpFileIO_Read_File)
/local/mnt/workspace/CRMBuilds/TZ.BF.4.0.3.c1-00005-M8996AAAAANAZT-1_20170110_230814/b/HK11/trustzone_images/core/securemsm/trustzone/qsapps/libs/applib/common_applib/build/secureindicator/scorpion/IADAANAA/tzapp_entrylib.lib(gpFileService.o)
                              /local/mnt/workspace/CRMBuilds/TZ.BF.4.0.3.c1-00005-M8996AAAAANAZT-1_20170110_230814/b/HK11/trustzone_images/core/securemsm/trustzone/qsapps/libs/applib/common_applib/build/secureindicator/scorpion/IADAANAA/tzapp_entrylib.lib(gpPersistObjFileIO.o) (gpFileRead)
/local/mnt/workspace/CRMBuilds/TZ.BF.4.0.3.c1-00005-M8996AAAAANAZT-1_20170110_230814/b/HK11/trustzone_images/core/securemsm/trustzone/qsapps/libs/applib/qsee/build/secureindicator/scorpion/IADAANAA/tzapp_entrylib.lib(qsee_core_shim.o)
                              /local/mnt/workspace/CRMBuilds/TZ.BF.4.0.3.c1-00005-M8996AAAAANAZT-1_20170110_230814/b/HK11/trustzone_images/core/securemsm/trustzone/qsapps/libs/applib/common_applib/build/secureindicator/scorpion/IADAANAA/tzapp_entrylib.lib(gpPersistObjCommon.o) (qsee_get_tz_app_id)
/local/mnt/workspace/CRMBuilds/TZ.BF.4.0.3.c1-00005-M8996AAAAANAZT-1_20170110_230814/b/HK11/trustzone_images/core/securemsm/trustzone/qsapps/libs/applib/qsee/build/secureindicator/scorpion/IADAANAA/tzapp_entrylib.lib(stor.o)
                              /local/mnt/workspace/CRMBuilds/TZ.BF.4.0.3.c1-00005-M8996AAAAANAZT-1_20170110_230814/b/HK11/trustzone_images/core/securemsm/trustzone/qsapps/libs/applib/common_applib/build/secureindicator/scorpion/IADAANAA/tzapp_entrylib.lib(gpPersistObjVersion.o) (qsee_stor_add_partition)
/local/mnt/workspace/CRMBuilds/TZ.BF.4.0.3.c1-00005-M8996AAAAANAZT-1_20170110_230814/b/HK11/trustzone_images/core/securemsm/trustzone/qsapps/libs/applib/qsee/build/secureindicator/scorpion/IADAANAA/tzapp_entrylib.lib(stor_gpt.o)
                              /local/mnt/workspace/CRMBuilds/TZ.BF.4.0.3.c1-00005-M8996AAAAANAZT-1_20170110_230814/b/HK11/trustzone_images/core/securemsm/trustzone/qsapps/libs/applib/qsee/build/secureindicator/scorpion/IADAANAA/tzapp_entrylib.lib(stor.o) (gpt_add_partition)
/local/mnt/workspace/CRMBuilds/TZ.BF.4.0.3.c1-00005-M8996AAAAANAZT-1_20170110_230814/b/HK11/trustzone_images/core/securemsm/trustzone/qsapps/libs/applib/qsee/build/secureindicator/scorpion/IADAANAA/tzapp_entrylib.lib(stor_rpmbw.o)
                              /local/mnt/workspace/CRMBuilds/TZ.BF.4.0.3.c1-00005-M8996AAAAANAZT-1_20170110_230814/b/HK11/trustzone_images/core/securemsm/trustzone/qsapps/libs/applib/qsee/build/secureindicator/scorpion/IADAANAA/tzapp_entrylib.lib(stor.o) (rpmbw_add_partition)
/local/mnt/workspace/CRMBuilds/TZ.BF.4.0.3.c1-00005-M8996AAAAANAZT-1_20170110_230814/b/HK11/trustzone_images/core/securemsm/trustzone/qsapps/libs/applib/qsee/build/secureindicator/scorpion/IADAANAA/tzapp_entrylib.lib(qsee_cfg_prop_shim.o)
                              /local/mnt/workspace/CRMBuilds/TZ.BF.4.0.3.c1-00005-M8996AAAAANAZT-1_20170110_230814/b/HK11/trustzone_images/core/securemsm/trustzone/qsapps/libs/applib/common_applib/build/secureindicator/scorpion/IADAANAA/tzapp_entrylib.lib(gpPersistObjCommon.o) (qsee_cfg_getpropval)
/local/mnt/workspace/CRMBuilds/TZ.BF.4.0.3.c1-00005-M8996AAAAANAZT-1_20170110_230814/b/HK11/trustzone_images/core/securemsm/trustzone/qsapps/libs/applib/qsee/build/secureindicator/scorpion/IADAANAA/tzapp_entrylib.lib(qsee_cipher.o)
                              /local/mnt/workspace/CRMBuilds/TZ.BF.4.0.3.c1-00005-M8996AAAAANAZT-1_20170110_230814/b/HK11/trustzone_images/core/securemsm/trustzone/qsapps/libs/applib/common_applib/build/secureindicator/scorpion/IADAANAA/tzapp_entrylib.lib(gpPersistObjCrypto.o) (qsee_cipher_decrypt)
/local/mnt/workspace/CRMBuilds/TZ.BF.4.0.3.c1-00005-M8996AAAAANAZT-1_20170110_230814/b/HK11/trustzone_images/core/securemsm/trustzone/qsapps/libs/applib/qsee/build/secureindicator/scorpion/IADAANAA/tzapp_entrylib.lib(qsee_hash.o)
                              /local/mnt/workspace/CRMBuilds/TZ.BF.4.0.3.c1-00005-M8996AAAAANAZT-1_20170110_230814/b/HK11/trustzone_images/core/securemsm/trustzone/qsapps/libs/applib/common_applib/build/secureindicator/scorpion/IADAANAA/tzapp_entrylib.lib(gpPersistObjCrypto.o) (qsee_hash)
/local/mnt/workspace/CRMBuilds/TZ.BF.4.0.3.c1-00005-M8996AAAAANAZT-1_20170110_230814/b/HK11/trustzone_images/core/securemsm/trustzone/qsapps/libs/applib/qsee/build/secureindicator/scorpion/IADAANAA/tzapp_entrylib.lib(qsee_hmac.o)
                              /local/mnt/workspace/CRMBuilds/TZ.BF.4.0.3.c1-00005-M8996AAAAANAZT-1_20170110_230814/b/HK11/trustzone_images/core/securemsm/trustzone/qsapps/libs/applib/common_applib/build/secureindicator/scorpion/IADAANAA/tzapp_entrylib.lib(gpPersistObjCrypto.o) (qsee_hmac)
/local/mnt/workspace/CRMBuilds/TZ.BF.4.0.3.c1-00005-M8996AAAAANAZT-1_20170110_230814/b/HK11/trustzone_images/core/securemsm/trustzone/qsapps/libs/applib/qsee/build/secureindicator/scorpion/IADAANAA/tzapp_entrylib.lib(gpPersistObjPanic.o)
                              /local/mnt/workspace/CRMBuilds/TZ.BF.4.0.3.c1-00005-M8996AAAAANAZT-1_20170110_230814/b/HK11/trustzone_images/core/securemsm/trustzone/qsapps/libs/applib/common_applib/build/secureindicator/scorpion/IADAANAA/tzapp_entrylib.lib(gpPersistentObjects.o) (GPMemoryMgmt_verifyHandle)
/local/mnt/workspace/CRMBuilds/TZ.BF.4.0.3.c1-00005-M8996AAAAANAZT-1_20170110_230814/b/HK11/trustzone_images/core/securemsm/trustzone/qsapps/libs/services/build/secureindicator/scorpion/IADAANAA/qsee_services.lib(qsee_kdf.o)
                              /local/mnt/workspace/CRMBuilds/TZ.BF.4.0.3.c1-00005-M8996AAAAANAZT-1_20170110_230814/b/HK11/trustzone_images/core/securemsm/trustzone/qsapps/libs/applib/common_applib/build/secureindicator/scorpion/IADAANAA/tzapp_entrylib.lib(gpPersistObjCrypto.o) (qsee_kdf)
/local/mnt/workspace/CRMBuilds/TZ.BF.4.0.3.c1-00005-M8996AAAAANAZT-1_20170110_230814/b/HK11/trustzone_images/core/securemsm/trustzone/qsee/mink/libstd/build/secureindicator/scorpion/IADAANAA/libstd.lib(strlcat.o)
                              /local/mnt/workspace/CRMBuilds/TZ.BF.4.0.3.c1-00005-M8996AAAAANAZT-1_20170110_230814/b/HK11/trustzone_images/core/securemsm/trustzone/qsapps/libs/applib/common_applib/build/secureindicator/scorpion/IADAANAA/tzapp_entrylib.lib(gpPersistObjCommon.o) (strlcat)
/local/mnt/workspace/CRMBuilds/TZ.BF.4.0.3.c1-00005-M8996AAAAANAZT-1_20170110_230814/b/HK11/trustzone_images/core/securemsm/trustzone/qsee/mink/libstd/build/secureindicator/scorpion/IADAANAA/libstd.lib(strlcpy.o)
                              /local/mnt/workspace/CRMBuilds/TZ.BF.4.0.3.c1-00005-M8996AAAAANAZT-1_20170110_230814/b/HK11/trustzone_images/core/securemsm/trustzone/qsapps/libs/applib/common_applib/build/secureindicator/scorpion/IADAANAA/tzapp_entrylib.lib(gpPersistObjCommon.o) (strlcpy)
/local/mnt/workspace/CRMBuilds/TZ.BF.4.0.3.c1-00005-M8996AAAAANAZT-1_20170110_230814/b/HK11/trustzone_images/core/securemsm/trustzone/qsee/mink/libstd/build/secureindicator/scorpion/IADAANAA/libstd.lib(timesafe_memcmp.o)
                              /local/mnt/workspace/CRMBuilds/TZ.BF.4.0.3.c1-00005-M8996AAAAANAZT-1_20170110_230814/b/HK11/trustzone_images/core/securemsm/trustzone/qsapps/libs/applib/common_applib/build/secureindicator/scorpion/IADAANAA/tzapp_entrylib.lib(gpPersistObjCrypto.o) (timesafe_memcmp)
/local/mnt/workspace/CRMBuilds/TZ.BF.4.0.3.c1-00005-M8996AAAAANAZT-1_20170110_230814/b/HK11/trustzone_images/core/securemsm/trustzone/qsee/mink/libstd/build/secureindicator/scorpion/IADAANAA/libstd.lib(memset.o)
                              /afs/localcell/cm/gv2.6/sysname/pkg.@sys/qct/software/llvm/release/arm/3.5.2.4/lib/clang/3.5.2/lib/linux/libclang_rt.builtins-arm.a(aeabi_memset.S.o) (memset)
/local/mnt/workspace/CRMBuilds/TZ.BF.4.0.3.c1-00005-M8996AAAAANAZT-1_20170110_230814/b/HK11/trustzone_images/core/securemsm/trustzone/qsee/mink/libstd/build/secureindicator/scorpion/IADAANAA/libstd.lib(memcpy.o)
                              /afs/localcell/cm/gv2.6/sysname/pkg.@sys/qct/software/llvm/release/arm/3.5.2.4/lib/clang/3.5.2/lib/linux/libclang_rt.builtins-arm.a(aeabi_memcpy.S.o) (memcpy)
/local/mnt/workspace/CRMBuilds/TZ.BF.4.0.3.c1-00005-M8996AAAAANAZT-1_20170110_230814/b/HK11/trustzone_images/core/securemsm/trustzone/qsee/mink/libstd/build/secureindicator/scorpion/IADAANAA/libstd.lib(strncmp.o)
                              /local/mnt/workspace/CRMBuilds/TZ.BF.4.0.3.c1-00005-M8996AAAAANAZT-1_20170110_230814/b/HK11/trustzone_images/core/securemsm/trustzone/qsapps/libs/applib/common_applib/build/secureindicator/scorpion/IADAANAA/tzapp_entrylib.lib(gpPersistObjData.o) (strncmp)

Allocating common symbols
Common symbol       size              file

apps_request_resp   0x14              /local/mnt/workspace/CRMBuilds/TZ.BF.4.0.3.c1-00005-M8996AAAAANAZT-1_20170110_230814/b/HK11/trustzone_images/core/securemsm/trustzone/qsapps/libs/applib/common_applib/build/secureindicator/scorpion/IADAANAA/tzapp_entrylib.lib(common_applib.o)

Discarded input sections

 .text          0x00000000        0x0 /local/mnt/workspace/CRMBuilds/TZ.BF.4.0.3.c1-00005-M8996AAAAANAZT-1_20170110_230814/b/HK11/trustzone_images/core/securemsm/trustzone/qsapps/libs/applib/qsee/build/secureindicator/scorpion/IADAANAA/src/tzapp_entry.o
 .data          0x00000000        0x0 /local/mnt/workspace/CRMBuilds/TZ.BF.4.0.3.c1-00005-M8996AAAAANAZT-1_20170110_230814/b/HK11/trustzone_images/core/securemsm/trustzone/qsapps/libs/applib/qsee/build/secureindicator/scorpion/IADAANAA/src/tzapp_entry.o
 .bss           0x00000000        0x0 /local/mnt/workspace/CRMBuilds/TZ.BF.4.0.3.c1-00005-M8996AAAAANAZT-1_20170110_230814/b/HK11/trustzone_images/core/securemsm/trustzone/qsapps/libs/applib/qsee/build/secureindicator/scorpion/IADAANAA/src/tzapp_entry.o
 .data          0x00000000        0x0 /local/mnt/workspace/CRMBuilds/TZ.BF.4.0.3.c1-00005-M8996AAAAANAZT-1_20170110_230814/b/HK11/trustzone_images/apps/securemsm/trustzone/qsapps/secureindicator/build/secureindicator/scorpion/IADAANAA/si_main.o
 .bss           0x00000000        0x0 /local/mnt/workspace/CRMBuilds/TZ.BF.4.0.3.c1-00005-M8996AAAAANAZT-1_20170110_230814/b/HK11/trustzone_images/apps/securemsm/trustzone/qsapps/secureindicator/build/secureindicator/scorpion/IADAANAA/si_main.o
 .ARM.exidx     0x00000000       0x18 /local/mnt/workspace/CRMBuilds/TZ.BF.4.0.3.c1-00005-M8996AAAAANAZT-1_20170110_230814/b/HK11/trustzone_images/apps/securemsm/trustzone/qsapps/secureindicator/build/secureindicator/scorpion/IADAANAA/si_main.o
 .bss           0x00000000        0x0 /local/mnt/workspace/CRMBuilds/TZ.BF.4.0.3.c1-00005-M8996AAAAANAZT-1_20170110_230814/b/HK11/trustzone_images/apps/securemsm/trustzone/qsapps/secureindicator/build/secureindicator/scorpion/IADAANAA/si.o
 .ARM.exidx     0x00000000       0x38 /local/mnt/workspace/CRMBuilds/TZ.BF.4.0.3.c1-00005-M8996AAAAANAZT-1_20170110_230814/b/HK11/trustzone_images/apps/securemsm/trustzone/qsapps/secureindicator/build/secureindicator/scorpion/IADAANAA/si.o
 .text          0x00000000        0x0 /local/mnt/workspace/CRMBuilds/TZ.BF.4.0.3.c1-00005-M8996AAAAANAZT-1_20170110_230814/b/HK11/trustzone_images/apps/securemsm/trustzone/qsapps/secureindicator/build/secureindicator/scorpion/IADAANAA/metadata.o
 .data          0x00000000        0x0 /local/mnt/workspace/CRMBuilds/TZ.BF.4.0.3.c1-00005-M8996AAAAANAZT-1_20170110_230814/b/HK11/trustzone_images/apps/securemsm/trustzone/qsapps/secureindicator/build/secureindicator/scorpion/IADAANAA/metadata.o
 .data          0x00000000        0x0 /local/mnt/workspace/CRMBuilds/TZ.BF.4.0.3.c1-00005-M8996AAAAANAZT-1_20170110_230814/b/HK11/trustzone_images/core/securemsm/sse/qsee/SecureDisplay/libpng/build/secureindicator/scorpion/IADAANAA/libpng.lib(png.o)
 .bss           0x00000000        0x0 /local/mnt/workspace/CRMBuilds/TZ.BF.4.0.3.c1-00005-M8996AAAAANAZT-1_20170110_230814/b/HK11/trustzone_images/core/securemsm/sse/qsee/SecureDisplay/libpng/build/secureindicator/scorpion/IADAANAA/libpng.lib(png.o)
 .ARM.exidx     0x00000000       0xa8 /local/mnt/workspace/CRMBuilds/TZ.BF.4.0.3.c1-00005-M8996AAAAANAZT-1_20170110_230814/b/HK11/trustzone_images/core/securemsm/sse/qsee/SecureDisplay/libpng/build/secureindicator/scorpion/IADAANAA/libpng.lib(png.o)
 .data          0x00000000        0x0 /local/mnt/workspace/CRMBuilds/TZ.BF.4.0.3.c1-00005-M8996AAAAANAZT-1_20170110_230814/b/HK11/trustzone_images/core/securemsm/sse/qsee/SecureDisplay/libpng/build/secureindicator/scorpion/IADAANAA/libpng.lib(pngerror.o)
 .bss           0x00000000        0x0 /local/mnt/workspace/CRMBuilds/TZ.BF.4.0.3.c1-00005-M8996AAAAANAZT-1_20170110_230814/b/HK11/trustzone_images/core/securemsm/sse/qsee/SecureDisplay/libpng/build/secureindicator/scorpion/IADAANAA/libpng.lib(pngerror.o)
 .ARM.exidx     0x00000000       0x30 /local/mnt/workspace/CRMBuilds/TZ.BF.4.0.3.c1-00005-M8996AAAAANAZT-1_20170110_230814/b/HK11/trustzone_images/core/securemsm/sse/qsee/SecureDisplay/libpng/build/secureindicator/scorpion/IADAANAA/libpng.lib(pngerror.o)
 .data          0x00000000        0x0 /local/mnt/workspace/CRMBuilds/TZ.BF.4.0.3.c1-00005-M8996AAAAANAZT-1_20170110_230814/b/HK11/trustzone_images/core/securemsm/sse/qsee/SecureDisplay/libpng/build/secureindicator/scorpion/IADAANAA/libpng.lib(pngget.o)
 .bss           0x00000000        0x0 /local/mnt/workspace/CRMBuilds/TZ.BF.4.0.3.c1-00005-M8996AAAAANAZT-1_20170110_230814/b/HK11/trustzone_images/core/securemsm/sse/qsee/SecureDisplay/libpng/build/secureindicator/scorpion/IADAANAA/libpng.lib(pngget.o)
 .ARM.exidx     0x00000000       0x38 /local/mnt/workspace/CRMBuilds/TZ.BF.4.0.3.c1-00005-M8996AAAAANAZT-1_20170110_230814/b/HK11/trustzone_images/core/securemsm/sse/qsee/SecureDisplay/libpng/build/secureindicator/scorpion/IADAANAA/libpng.lib(pngget.o)
 .data          0x00000000        0x0 /local/mnt/workspace/CRMBuilds/TZ.BF.4.0.3.c1-00005-M8996AAAAANAZT-1_20170110_230814/b/HK11/trustzone_images/core/securemsm/sse/qsee/SecureDisplay/libpng/build/secureindicator/scorpion/IADAANAA/libpng.lib(pngmem.o)
 .bss           0x00000000        0x0 /local/mnt/workspace/CRMBuilds/TZ.BF.4.0.3.c1-00005-M8996AAAAANAZT-1_20170110_230814/b/HK11/trustzone_images/core/securemsm/sse/qsee/SecureDisplay/libpng/build/secureindicator/scorpion/IADAANAA/libpng.lib(pngmem.o)
 .ARM.exidx     0x00000000       0x50 /local/mnt/workspace/CRMBuilds/TZ.BF.4.0.3.c1-00005-M8996AAAAANAZT-1_20170110_230814/b/HK11/trustzone_images/core/securemsm/sse/qsee/SecureDisplay/libpng/build/secureindicator/scorpion/IADAANAA/libpng.lib(pngmem.o)
 .data          0x00000000        0x0 /local/mnt/workspace/CRMBuilds/TZ.BF.4.0.3.c1-00005-M8996AAAAANAZT-1_20170110_230814/b/HK11/trustzone_images/core/securemsm/sse/qsee/SecureDisplay/libpng/build/secureindicator/scorpion/IADAANAA/libpng.lib(pngread.o)
 .bss           0x00000000        0x0 /local/mnt/workspace/CRMBuilds/TZ.BF.4.0.3.c1-00005-M8996AAAAANAZT-1_20170110_230814/b/HK11/trustzone_images/core/securemsm/sse/qsee/SecureDisplay/libpng/build/secureindicator/scorpion/IADAANAA/libpng.lib(pngread.o)
 .ARM.exidx     0x00000000       0x68 /local/mnt/workspace/CRMBuilds/TZ.BF.4.0.3.c1-00005-M8996AAAAANAZT-1_20170110_230814/b/HK11/trustzone_images/core/securemsm/sse/qsee/SecureDisplay/libpng/build/secureindicator/scorpion/IADAANAA/libpng.lib(pngread.o)
 .data          0x00000000        0x0 /local/mnt/workspace/CRMBuilds/TZ.BF.4.0.3.c1-00005-M8996AAAAANAZT-1_20170110_230814/b/HK11/trustzone_images/core/securemsm/sse/qsee/SecureDisplay/libpng/build/secureindicator/scorpion/IADAANAA/libpng.lib(pngrio.o)
 .bss           0x00000000        0x0 /local/mnt/workspace/CRMBuilds/TZ.BF.4.0.3.c1-00005-M8996AAAAANAZT-1_20170110_230814/b/HK11/trustzone_images/core/securemsm/sse/qsee/SecureDisplay/libpng/build/secureindicator/scorpion/IADAANAA/libpng.lib(pngrio.o)
 .ARM.exidx     0x00000000       0x10 /local/mnt/workspace/CRMBuilds/TZ.BF.4.0.3.c1-00005-M8996AAAAANAZT-1_20170110_230814/b/HK11/trustzone_images/core/securemsm/sse/qsee/SecureDisplay/libpng/build/secureindicator/scorpion/IADAANAA/libpng.lib(pngrio.o)
 .data          0x00000000        0x0 /local/mnt/workspace/CRMBuilds/TZ.BF.4.0.3.c1-00005-M8996AAAAANAZT-1_20170110_230814/b/HK11/trustzone_images/core/securemsm/sse/qsee/SecureDisplay/libpng/build/secureindicator/scorpion/IADAANAA/libpng.lib(pngrutil.o)
 .bss           0x00000000        0x0 /local/mnt/workspace/CRMBuilds/TZ.BF.4.0.3.c1-00005-M8996AAAAANAZT-1_20170110_230814/b/HK11/trustzone_images/core/securemsm/sse/qsee/SecureDisplay/libpng/build/secureindicator/scorpion/IADAANAA/libpng.lib(pngrutil.o)
 .ARM.exidx     0x00000000       0xb0 /local/mnt/workspace/CRMBuilds/TZ.BF.4.0.3.c1-00005-M8996AAAAANAZT-1_20170110_230814/b/HK11/trustzone_images/core/securemsm/sse/qsee/SecureDisplay/libpng/build/secureindicator/scorpion/IADAANAA/libpng.lib(pngrutil.o)
 .data          0x00000000        0x0 /local/mnt/workspace/CRMBuilds/TZ.BF.4.0.3.c1-00005-M8996AAAAANAZT-1_20170110_230814/b/HK11/trustzone_images/core/securemsm/sse/qsee/SecureDisplay/libpng/build/secureindicator/scorpion/IADAANAA/libpng.lib(pngset.o)
 .bss           0x00000000        0x0 /local/mnt/workspace/CRMBuilds/TZ.BF.4.0.3.c1-00005-M8996AAAAANAZT-1_20170110_230814/b/HK11/trustzone_images/core/securemsm/sse/qsee/SecureDisplay/libpng/build/secureindicator/scorpion/IADAANAA/libpng.lib(pngset.o)
 .ARM.exidx     0x00000000       0x20 /local/mnt/workspace/CRMBuilds/TZ.BF.4.0.3.c1-00005-M8996AAAAANAZT-1_20170110_230814/b/HK11/trustzone_images/core/securemsm/sse/qsee/SecureDisplay/libpng/build/secureindicator/scorpion/IADAANAA/libpng.lib(pngset.o)
 .data          0x00000000        0x0 /local/mnt/workspace/CRMBuilds/TZ.BF.4.0.3.c1-00005-M8996AAAAANAZT-1_20170110_230814/b/HK11/trustzone_images/core/securemsm/sse/qsee/SecureDisplay/zlib/build/secureindicator/scorpion/IADAANAA/zlib.lib(crc32.o)
 .bss           0x00000000        0x0 /local/mnt/workspace/CRMBuilds/TZ.BF.4.0.3.c1-00005-M8996AAAAANAZT-1_20170110_230814/b/HK11/trustzone_images/core/securemsm/sse/qsee/SecureDisplay/zlib/build/secureindicator/scorpion/IADAANAA/zlib.lib(crc32.o)
 .ARM.exidx     0x00000000       0x38 /local/mnt/workspace/CRMBuilds/TZ.BF.4.0.3.c1-00005-M8996AAAAANAZT-1_20170110_230814/b/HK11/trustzone_images/core/securemsm/sse/qsee/SecureDisplay/zlib/build/secureindicator/scorpion/IADAANAA/zlib.lib(crc32.o)
 .data          0x00000000        0x0 /local/mnt/workspace/CRMBuilds/TZ.BF.4.0.3.c1-00005-M8996AAAAANAZT-1_20170110_230814/b/HK11/trustzone_images/core/securemsm/sse/qsee/SecureDisplay/zlib/build/secureindicator/scorpion/IADAANAA/zlib.lib(inflate.o)
 .bss           0x00000000        0x0 /local/mnt/workspace/CRMBuilds/TZ.BF.4.0.3.c1-00005-M8996AAAAANAZT-1_20170110_230814/b/HK11/trustzone_images/core/securemsm/sse/qsee/SecureDisplay/zlib/build/secureindicator/scorpion/IADAANAA/zlib.lib(inflate.o)
 .ARM.exidx     0x00000000       0x90 /local/mnt/workspace/CRMBuilds/TZ.BF.4.0.3.c1-00005-M8996AAAAANAZT-1_20170110_230814/b/HK11/trustzone_images/core/securemsm/sse/qsee/SecureDisplay/zlib/build/secureindicator/scorpion/IADAANAA/zlib.lib(inflate.o)
 .data          0x00000000        0x0 /local/mnt/workspace/CRMBuilds/TZ.BF.4.0.3.c1-00005-M8996AAAAANAZT-1_20170110_230814/b/HK11/trustzone_images/core/securemsm/sse/qsee/SecureDisplay/zlib/build/secureindicator/scorpion/IADAANAA/zlib.lib(inftrees.o)
 .bss           0x00000000        0x0 /local/mnt/workspace/CRMBuilds/TZ.BF.4.0.3.c1-00005-M8996AAAAANAZT-1_20170110_230814/b/HK11/trustzone_images/core/securemsm/sse/qsee/SecureDisplay/zlib/build/secureindicator/scorpion/IADAANAA/zlib.lib(inftrees.o)
 .ARM.exidx     0x00000000        0x8 /local/mnt/workspace/CRMBuilds/TZ.BF.4.0.3.c1-00005-M8996AAAAANAZT-1_20170110_230814/b/HK11/trustzone_images/core/securemsm/sse/qsee/SecureDisplay/zlib/build/secureindicator/scorpion/IADAANAA/zlib.lib(inftrees.o)
 .data          0x00000000        0x0 /local/mnt/workspace/CRMBuilds/TZ.BF.4.0.3.c1-00005-M8996AAAAANAZT-1_20170110_230814/b/HK11/trustzone_images/core/securemsm/sse/qsee/SecureDisplay/zlib/build/secureindicator/scorpion/IADAANAA/zlib.lib(zutil.o)
 .bss           0x00000000        0x0 /local/mnt/workspace/CRMBuilds/TZ.BF.4.0.3.c1-00005-M8996AAAAANAZT-1_20170110_230814/b/HK11/trustzone_images/core/securemsm/sse/qsee/SecureDisplay/zlib/build/secureindicator/scorpion/IADAANAA/zlib.lib(zutil.o)
 .ARM.exidx     0x00000000       0x28 /local/mnt/workspace/CRMBuilds/TZ.BF.4.0.3.c1-00005-M8996AAAAANAZT-1_20170110_230814/b/HK11/trustzone_images/core/securemsm/sse/qsee/SecureDisplay/zlib/build/secureindicator/scorpion/IADAANAA/zlib.lib(zutil.o)
 .data          0x00000000        0x0 /local/mnt/workspace/CRMBuilds/TZ.BF.4.0.3.c1-00005-M8996AAAAANAZT-1_20170110_230814/b/HK11/trustzone_images/core/securemsm/sse/qsee/SecureDisplay/zlib/build/secureindicator/scorpion/IADAANAA/zlib.lib(adler32.o)
 .bss           0x00000000        0x0 /local/mnt/workspace/CRMBuilds/TZ.BF.4.0.3.c1-00005-M8996AAAAANAZT-1_20170110_230814/b/HK11/trustzone_images/core/securemsm/sse/qsee/SecureDisplay/zlib/build/secureindicator/scorpion/IADAANAA/zlib.lib(adler32.o)
 .ARM.exidx     0x00000000       0x20 /local/mnt/workspace/CRMBuilds/TZ.BF.4.0.3.c1-00005-M8996AAAAANAZT-1_20170110_230814/b/HK11/trustzone_images/core/securemsm/sse/qsee/SecureDisplay/zlib/build/secureindicator/scorpion/IADAANAA/zlib.lib(adler32.o)
 .data          0x00000000        0x0 /local/mnt/workspace/CRMBuilds/TZ.BF.4.0.3.c1-00005-M8996AAAAANAZT-1_20170110_230814/b/HK11/trustzone_images/core/securemsm/sse/qsee/SecureDisplay/zlib/build/secureindicator/scorpion/IADAANAA/zlib.lib(inffast.o)
 .bss           0x00000000        0x0 /local/mnt/workspace/CRMBuilds/TZ.BF.4.0.3.c1-00005-M8996AAAAANAZT-1_20170110_230814/b/HK11/trustzone_images/core/securemsm/sse/qsee/SecureDisplay/zlib/build/secureindicator/scorpion/IADAANAA/zlib.lib(inffast.o)
 .ARM.exidx     0x00000000        0x8 /local/mnt/workspace/CRMBuilds/TZ.BF.4.0.3.c1-00005-M8996AAAAANAZT-1_20170110_230814/b/HK11/trustzone_images/core/securemsm/sse/qsee/SecureDisplay/zlib/build/secureindicator/scorpion/IADAANAA/zlib.lib(inffast.o)
 .group         0x00000000        0xc /local/mnt/workspace/CRMBuilds/TZ.BF.4.0.3.c1-00005-M8996AAAAANAZT-1_20170110_230814/b/HK11/trustzone_images/core/securemsm/trustzone/qsapps/libs/applib/common_applib/build/secureindicator/scorpion/IADAANAA/tzapp_entrylib.lib(common_applib.o)
 .ARM.exidx     0x00000000      0x108 /local/mnt/workspace/CRMBuilds/TZ.BF.4.0.3.c1-00005-M8996AAAAANAZT-1_20170110_230814/b/HK11/trustzone_images/core/securemsm/trustzone/qsapps/libs/applib/common_applib/build/secureindicator/scorpion/IADAANAA/tzapp_entrylib.lib(common_applib.o)
 .ARM.exidx.text.tz_module_open
                0x00000000        0x8 /local/mnt/workspace/CRMBuilds/TZ.BF.4.0.3.c1-00005-M8996AAAAANAZT-1_20170110_230814/b/HK11/trustzone_images/core/securemsm/trustzone/qsapps/libs/applib/common_applib/build/secureindicator/scorpion/IADAANAA/tzapp_entrylib.lib(common_applib.o)
 .data          0x00000000        0x0 /local/mnt/workspace/CRMBuilds/TZ.BF.4.0.3.c1-00005-M8996AAAAANAZT-1_20170110_230814/b/HK11/trustzone_images/core/securemsm/trustzone/qsapps/libs/applib/qsee/build/secureindicator/scorpion/IADAANAA/tzapp_entrylib.lib(mink_shared_code.o)
 .bss           0x00000000        0x0 /local/mnt/workspace/CRMBuilds/TZ.BF.4.0.3.c1-00005-M8996AAAAANAZT-1_20170110_230814/b/HK11/trustzone_images/core/securemsm/trustzone/qsapps/libs/applib/qsee/build/secureindicator/scorpion/IADAANAA/tzapp_entrylib.lib(mink_shared_code.o)
 .ARM.exidx     0x00000000       0x20 /local/mnt/workspace/CRMBuilds/TZ.BF.4.0.3.c1-00005-M8996AAAAANAZT-1_20170110_230814/b/HK11/trustzone_images/core/securemsm/trustzone/qsapps/libs/applib/qsee/build/secureindicator/scorpion/IADAANAA/tzapp_entrylib.lib(mink_shared_code.o)
 .data          0x00000000        0x0 /local/mnt/workspace/CRMBuilds/TZ.BF.4.0.3.c1-00005-M8996AAAAANAZT-1_20170110_230814/b/HK11/trustzone_images/core/securemsm/trustzone/qsapps/libs/applib/qsee/build/secureindicator/scorpion/IADAANAA/tzapp_entrylib.lib(qsee_env.o)
 .ARM.exidx     0x00000000       0x28 /local/mnt/workspace/CRMBuilds/TZ.BF.4.0.3.c1-00005-M8996AAAAANAZT-1_20170110_230814/b/HK11/trustzone_images/core/securemsm/trustzone/qsapps/libs/applib/qsee/build/secureindicator/scorpion/IADAANAA/tzapp_entrylib.lib(qsee_env.o)
 .data          0x00000000        0x0 /local/mnt/workspace/CRMBuilds/TZ.BF.4.0.3.c1-00005-M8996AAAAANAZT-1_20170110_230814/b/HK11/trustzone_images/core/securemsm/trustzone/qsapps/libs/applib/qsee/build/secureindicator/scorpion/IADAANAA/tzapp_entrylib.lib(qsee_prng.o)
 .bss           0x00000000        0x0 /local/mnt/workspace/CRMBuilds/TZ.BF.4.0.3.c1-00005-M8996AAAAANAZT-1_20170110_230814/b/HK11/trustzone_images/core/securemsm/trustzone/qsapps/libs/applib/qsee/build/secureindicator/scorpion/IADAANAA/tzapp_entrylib.lib(qsee_prng.o)
 .ARM.exidx     0x00000000        0x8 /local/mnt/workspace/CRMBuilds/TZ.BF.4.0.3.c1-00005-M8996AAAAANAZT-1_20170110_230814/b/HK11/trustzone_images/core/securemsm/trustzone/qsapps/libs/applib/qsee/build/secureindicator/scorpion/IADAANAA/tzapp_entrylib.lib(qsee_prng.o)
 .text          0x00000000        0x0 /local/mnt/workspace/CRMBuilds/TZ.BF.4.0.3.c1-00005-M8996AAAAANAZT-1_20170110_230814/b/HK11/trustzone_images/core/securemsm/trustzone/qsapps/libs/applib/qsee/build/secureindicator/scorpion/IADAANAA/tzapp_entrylib.lib(tzapp_syscall.o)
 .data          0x00000000        0x0 /local/mnt/workspace/CRMBuilds/TZ.BF.4.0.3.c1-00005-M8996AAAAANAZT-1_20170110_230814/b/HK11/trustzone_images/core/securemsm/trustzone/qsapps/libs/applib/qsee/build/secureindicator/scorpion/IADAANAA/tzapp_entrylib.lib(tzapp_syscall.o)
 .bss           0x00000000        0x0 /local/mnt/workspace/CRMBuilds/TZ.BF.4.0.3.c1-00005-M8996AAAAANAZT-1_20170110_230814/b/HK11/trustzone_images/core/securemsm/trustzone/qsapps/libs/applib/qsee/build/secureindicator/scorpion/IADAANAA/tzapp_entrylib.lib(tzapp_syscall.o)
 .data          0x00000000        0x0 /local/mnt/workspace/CRMBuilds/TZ.BF.4.0.3.c1-00005-M8996AAAAANAZT-1_20170110_230814/b/HK11/trustzone_images/core/securemsm/trustzone/qsapps/libs/applib/qsee/build/secureindicator/scorpion/IADAANAA/tzapp_entrylib.lib(qsee_appmessage.o)
 .bss           0x00000000        0x0 /local/mnt/workspace/CRMBuilds/TZ.BF.4.0.3.c1-00005-M8996AAAAANAZT-1_20170110_230814/b/HK11/trustzone_images/core/securemsm/trustzone/qsapps/libs/applib/qsee/build/secureindicator/scorpion/IADAANAA/tzapp_entrylib.lib(qsee_appmessage.o)
 .ARM.exidx     0x00000000       0x18 /local/mnt/workspace/CRMBuilds/TZ.BF.4.0.3.c1-00005-M8996AAAAANAZT-1_20170110_230814/b/HK11/trustzone_images/core/securemsm/trustzone/qsapps/libs/applib/qsee/build/secureindicator/scorpion/IADAANAA/tzapp_entrylib.lib(qsee_appmessage.o)
 .data          0x00000000        0x0 /local/mnt/workspace/CRMBuilds/TZ.BF.4.0.3.c1-00005-M8996AAAAANAZT-1_20170110_230814/b/HK11/trustzone_images/core/securemsm/trustzone/qsapps/libs/applib/qsee/build/secureindicator/scorpion/IADAANAA/tzapp_entrylib.lib(sfs_api.o)
 .ARM.exidx     0x00000000       0x70 /local/mnt/workspace/CRMBuilds/TZ.BF.4.0.3.c1-00005-M8996AAAAANAZT-1_20170110_230814/b/HK11/trustzone_images/core/securemsm/trustzone/qsapps/libs/applib/qsee/build/secureindicator/scorpion/IADAANAA/tzapp_entrylib.lib(sfs_api.o)
 .data          0x00000000        0x0 /local/mnt/workspace/CRMBuilds/TZ.BF.4.0.3.c1-00005-M8996AAAAANAZT-1_20170110_230814/b/HK11/trustzone_images/core/securemsm/trustzone/qsapps/libs/applib/qsee/build/secureindicator/scorpion/IADAANAA/tzapp_entrylib.lib(tzapp_lib_main.o)
 .bss           0x00000000        0x0 /local/mnt/workspace/CRMBuilds/TZ.BF.4.0.3.c1-00005-M8996AAAAANAZT-1_20170110_230814/b/HK11/trustzone_images/core/securemsm/trustzone/qsapps/libs/applib/qsee/build/secureindicator/scorpion/IADAANAA/tzapp_entrylib.lib(tzapp_lib_main.o)
 .ARM.exidx     0x00000000       0x40 /local/mnt/workspace/CRMBuilds/TZ.BF.4.0.3.c1-00005-M8996AAAAANAZT-1_20170110_230814/b/HK11/trustzone_images/core/securemsm/trustzone/qsapps/libs/applib/qsee/build/secureindicator/scorpion/IADAANAA/tzapp_entrylib.lib(tzapp_lib_main.o)
 .text          0x00000000        0x0 /local/mnt/workspace/CRMBuilds/TZ.BF.4.0.3.c1-00005-M8996AAAAANAZT-1_20170110_230814/b/HK11/trustzone_images/core/securemsm/trustzone/qsapps/libs/applib/qsee/build/secureindicator/scorpion/IADAANAA/tzapp_entrylib.lib(kthread_shared.o)
 .data          0x00000000        0x0 /local/mnt/workspace/CRMBuilds/TZ.BF.4.0.3.c1-00005-M8996AAAAANAZT-1_20170110_230814/b/HK11/trustzone_images/core/securemsm/trustzone/qsapps/libs/applib/qsee/build/secureindicator/scorpion/IADAANAA/tzapp_entrylib.lib(kthread_shared.o)
 .bss           0x00000000        0x0 /local/mnt/workspace/CRMBuilds/TZ.BF.4.0.3.c1-00005-M8996AAAAANAZT-1_20170110_230814/b/HK11/trustzone_images/core/securemsm/trustzone/qsapps/libs/applib/qsee/build/secureindicator/scorpion/IADAANAA/tzapp_entrylib.lib(kthread_shared.o)
 .data          0x00000000        0x0 /local/mnt/workspace/CRMBuilds/TZ.BF.4.0.3.c1-00005-M8996AAAAANAZT-1_20170110_230814/b/HK11/trustzone_images/core/securemsm/trustzone/qsapps/libs/services/build/secureindicator/scorpion/IADAANAA/qsee_services.lib(qsee_log.o)
 .bss           0x00000000        0x0 /local/mnt/workspace/CRMBuilds/TZ.BF.4.0.3.c1-00005-M8996AAAAANAZT-1_20170110_230814/b/HK11/trustzone_images/core/securemsm/trustzone/qsapps/libs/services/build/secureindicator/scorpion/IADAANAA/qsee_services.lib(qsee_log.o)
 .ARM.exidx     0x00000000       0x18 /local/mnt/workspace/CRMBuilds/TZ.BF.4.0.3.c1-00005-M8996AAAAANAZT-1_20170110_230814/b/HK11/trustzone_images/core/securemsm/trustzone/qsapps/libs/services/build/secureindicator/scorpion/IADAANAA/qsee_services.lib(qsee_log.o)
 .data          0x00000000        0x0 /local/mnt/workspace/CRMBuilds/TZ.BF.4.0.3.c1-00005-M8996AAAAANAZT-1_20170110_230814/b/HK11/trustzone_images/core/securemsm/trustzone/qsee/mink/libstd/build/secureindicator/scorpion/IADAANAA/libstd.lib(memscpy.o)
 .bss           0x00000000        0x0 /local/mnt/workspace/CRMBuilds/TZ.BF.4.0.3.c1-00005-M8996AAAAANAZT-1_20170110_230814/b/HK11/trustzone_images/core/securemsm/trustzone/qsee/mink/libstd/build/secureindicator/scorpion/IADAANAA/libstd.lib(memscpy.o)
 .ARM.exidx     0x00000000        0x8 /local/mnt/workspace/CRMBuilds/TZ.BF.4.0.3.c1-00005-M8996AAAAANAZT-1_20170110_230814/b/HK11/trustzone_images/core/securemsm/trustzone/qsee/mink/libstd/build/secureindicator/scorpion/IADAANAA/libstd.lib(memscpy.o)
 .data          0x00000000        0x0 /local/mnt/workspace/CRMBuilds/TZ.BF.4.0.3.c1-00005-M8996AAAAANAZT-1_20170110_230814/b/HK11/trustzone_images/core/securemsm/trustzone/qsee/mink/libstd/build/secureindicator/scorpion/IADAANAA/libstd.lib(secure_memset.o)
 .bss           0x00000000        0x0 /local/mnt/workspace/CRMBuilds/TZ.BF.4.0.3.c1-00005-M8996AAAAANAZT-1_20170110_230814/b/HK11/trustzone_images/core/securemsm/trustzone/qsee/mink/libstd/build/secureindicator/scorpion/IADAANAA/libstd.lib(secure_memset.o)
 .ARM.exidx     0x00000000        0x8 /local/mnt/workspace/CRMBuilds/TZ.BF.4.0.3.c1-00005-M8996AAAAANAZT-1_20170110_230814/b/HK11/trustzone_images/core/securemsm/trustzone/qsee/mink/libstd/build/secureindicator/scorpion/IADAANAA/libstd.lib(secure_memset.o)
 .data          0x00000000        0x0 /local/mnt/workspace/CRMBuilds/TZ.BF.4.0.3.c1-00005-M8996AAAAANAZT-1_20170110_230814/b/HK11/trustzone_images/core/securemsm/trustzone/qsee/mink/libstd/build/secureindicator/scorpion/IADAANAA/libstd.lib(memcmp.o)
 .bss           0x00000000        0x0 /local/mnt/workspace/CRMBuilds/TZ.BF.4.0.3.c1-00005-M8996AAAAANAZT-1_20170110_230814/b/HK11/trustzone_images/core/securemsm/trustzone/qsee/mink/libstd/build/secureindicator/scorpion/IADAANAA/libstd.lib(memcmp.o)
 .ARM.exidx     0x00000000        0x8 /local/mnt/workspace/CRMBuilds/TZ.BF.4.0.3.c1-00005-M8996AAAAANAZT-1_20170110_230814/b/HK11/trustzone_images/core/securemsm/trustzone/qsee/mink/libstd/build/secureindicator/scorpion/IADAANAA/libstd.lib(memcmp.o)
 .data          0x00000000        0x0 /local/mnt/workspace/CRMBuilds/TZ.BF.4.0.3.c1-00005-M8996AAAAANAZT-1_20170110_230814/b/HK11/trustzone_images/core/securemsm/trustzone/qsee/mink/libstd/build/secureindicator/scorpion/IADAANAA/libstd.lib(strlen.o)
 .bss           0x00000000        0x0 /local/mnt/workspace/CRMBuilds/TZ.BF.4.0.3.c1-00005-M8996AAAAANAZT-1_20170110_230814/b/HK11/trustzone_images/core/securemsm/trustzone/qsee/mink/libstd/build/secureindicator/scorpion/IADAANAA/libstd.lib(strlen.o)
 .ARM.exidx     0x00000000        0x8 /local/mnt/workspace/CRMBuilds/TZ.BF.4.0.3.c1-00005-M8996AAAAANAZT-1_20170110_230814/b/HK11/trustzone_images/core/securemsm/trustzone/qsee/mink/libstd/build/secureindicator/scorpion/IADAANAA/libstd.lib(strlen.o)
 .data          0x00000000        0x0 /local/mnt/workspace/CRMBuilds/TZ.BF.4.0.3.c1-00005-M8996AAAAANAZT-1_20170110_230814/b/HK11/trustzone_images/core/securemsm/trustzone/qsee/mink/libstd/build/secureindicator/scorpion/IADAANAA/libstd.lib(strcmp.o)
 .bss           0x00000000        0x0 /local/mnt/workspace/CRMBuilds/TZ.BF.4.0.3.c1-00005-M8996AAAAANAZT-1_20170110_230814/b/HK11/trustzone_images/core/securemsm/trustzone/qsee/mink/libstd/build/secureindicator/scorpion/IADAANAA/libstd.lib(strcmp.o)
 .ARM.exidx     0x00000000        0x8 /local/mnt/workspace/CRMBuilds/TZ.BF.4.0.3.c1-00005-M8996AAAAANAZT-1_20170110_230814/b/HK11/trustzone_images/core/securemsm/trustzone/qsee/mink/libstd/build/secureindicator/scorpion/IADAANAA/libstd.lib(strcmp.o)
 .data          0x00000000        0x0 /local/mnt/workspace/CRMBuilds/TZ.BF.4.0.3.c1-00005-M8996AAAAANAZT-1_20170110_230814/b/HK11/trustzone_images/core/securemsm/trustzone/qsee/mink/libstd/build/secureindicator/scorpion/IADAANAA/libstd.lib(printf.o)
 .bss           0x00000000        0x0 /local/mnt/workspace/CRMBuilds/TZ.BF.4.0.3.c1-00005-M8996AAAAANAZT-1_20170110_230814/b/HK11/trustzone_images/core/securemsm/trustzone/qsee/mink/libstd/build/secureindicator/scorpion/IADAANAA/libstd.lib(printf.o)
 .ARM.exidx     0x00000000       0x58 /local/mnt/workspace/CRMBuilds/TZ.BF.4.0.3.c1-00005-M8996AAAAANAZT-1_20170110_230814/b/HK11/trustzone_images/core/securemsm/trustzone/qsee/mink/libstd/build/secureindicator/scorpion/IADAANAA/libstd.lib(printf.o)
 .data          0x00000000        0x0 /local/mnt/workspace/CRMBuilds/TZ.BF.4.0.3.c1-00005-M8996AAAAANAZT-1_20170110_230814/b/HK11/trustzone_images/core/securemsm/trustzone/qsee/mink/libstd/build/secureindicator/scorpion/IADAANAA/libstd.lib(abort.o)
 .bss           0x00000000        0x0 /local/mnt/workspace/CRMBuilds/TZ.BF.4.0.3.c1-00005-M8996AAAAANAZT-1_20170110_230814/b/HK11/trustzone_images/core/securemsm/trustzone/qsee/mink/libstd/build/secureindicator/scorpion/IADAANAA/libstd.lib(abort.o)
 .ARM.exidx     0x00000000        0x8 /local/mnt/workspace/CRMBuilds/TZ.BF.4.0.3.c1-00005-M8996AAAAANAZT-1_20170110_230814/b/HK11/trustzone_images/core/securemsm/trustzone/qsee/mink/libstd/build/secureindicator/scorpion/IADAANAA/libstd.lib(abort.o)
 .data          0x00000000        0x0 /local/mnt/workspace/CRMBuilds/TZ.BF.4.0.3.c1-00005-M8996AAAAANAZT-1_20170110_230814/b/HK11/trustzone_images/core/securemsm/trustzone/qsee/mink/libstd/build/secureindicator/scorpion/IADAANAA/libstd.lib(memchr.o)
 .bss           0x00000000        0x0 /local/mnt/workspace/CRMBuilds/TZ.BF.4.0.3.c1-00005-M8996AAAAANAZT-1_20170110_230814/b/HK11/trustzone_images/core/securemsm/trustzone/qsee/mink/libstd/build/secureindicator/scorpion/IADAANAA/libstd.lib(memchr.o)
 .ARM.exidx     0x00000000        0x8 /local/mnt/workspace/CRMBuilds/TZ.BF.4.0.3.c1-00005-M8996AAAAANAZT-1_20170110_230814/b/HK11/trustzone_images/core/securemsm/trustzone/qsee/mink/libstd/build/secureindicator/scorpion/IADAANAA/libstd.lib(memchr.o)
 .data          0x00000000        0x0 /afs/localcell/cm/gv2.6/sysname/pkg.@sys/qct/software/llvm/release/arm/3.5.2.4/lib/clang/3.5.2/lib/linux/libclang_rt.builtins-arm.a(aeabi_memcpy.S.o)
 .bss           0x00000000        0x0 /afs/localcell/cm/gv2.6/sysname/pkg.@sys/qct/software/llvm/release/arm/3.5.2.4/lib/clang/3.5.2/lib/linux/libclang_rt.builtins-arm.a(aeabi_memcpy.S.o)
 .data          0x00000000        0x0 /afs/localcell/cm/gv2.6/sysname/pkg.@sys/qct/software/llvm/release/arm/3.5.2.4/lib/clang/3.5.2/lib/linux/libclang_rt.builtins-arm.a(aeabi_memset.S.o)
 .bss           0x00000000        0x0 /afs/localcell/cm/gv2.6/sysname/pkg.@sys/qct/software/llvm/release/arm/3.5.2.4/lib/clang/3.5.2/lib/linux/libclang_rt.builtins-arm.a(aeabi_memset.S.o)
 .data          0x00000000        0x0 /afs/localcell/cm/gv2.6/sysname/pkg.@sys/qct/software/llvm/release/arm/3.5.2.4/lib/clang/3.5.2/lib/linux/libclang_rt.builtins-arm.a(aeabi_uldivmod.S.o)
 .bss           0x00000000        0x0 /afs/localcell/cm/gv2.6/sysname/pkg.@sys/qct/software/llvm/release/arm/3.5.2.4/lib/clang/3.5.2/lib/linux/libclang_rt.builtins-arm.a(aeabi_uldivmod.S.o)
 .data          0x00000000        0x0 /afs/localcell/cm/gv2.6/sysname/pkg.@sys/qct/software/llvm/release/arm/3.5.2.4/lib/clang/3.5.2/lib/linux/libclang_rt.builtins-arm.a(udivmoddi4.c.o)
 .bss           0x00000000        0x0 /afs/localcell/cm/gv2.6/sysname/pkg.@sys/qct/software/llvm/release/arm/3.5.2.4/lib/clang/3.5.2/lib/linux/libclang_rt.builtins-arm.a(udivmoddi4.c.o)
 .ARM.exidx     0x00000000        0x8 /afs/localcell/cm/gv2.6/sysname/pkg.@sys/qct/software/llvm/release/arm/3.5.2.4/lib/clang/3.5.2/lib/linux/libclang_rt.builtins-arm.a(udivmoddi4.c.o)
 .data          0x00000000        0x0 /afs/localcell/cm/gv2.6/sysname/pkg.@sys/qct/software/llvm/release/arm/3.5.2.4/lib/clang/3.5.2/lib/linux/libclang_rt.builtins-arm.a(udivsi3.c.o)
 .bss           0x00000000        0x0 /afs/localcell/cm/gv2.6/sysname/pkg.@sys/qct/software/llvm/release/arm/3.5.2.4/lib/clang/3.5.2/lib/linux/libclang_rt.builtins-arm.a(udivsi3.c.o)
 .ARM.exidx     0x00000000        0x8 /afs/localcell/cm/gv2.6/sysname/pkg.@sys/qct/software/llvm/release/arm/3.5.2.4/lib/clang/3.5.2/lib/linux/libclang_rt.builtins-arm.a(udivsi3.c.o)
 .data          0x00000000        0x0 /afs/localcell/cm/gv2.6/sysname/pkg.@sys/qct/software/llvm/release/arm/3.5.2.4/lib/clang/3.5.2/lib/linux/libclang_rt.builtins-arm.a(umoddi3.c.o)
 .bss           0x00000000        0x0 /afs/localcell/cm/gv2.6/sysname/pkg.@sys/qct/software/llvm/release/arm/3.5.2.4/lib/clang/3.5.2/lib/linux/libclang_rt.builtins-arm.a(umoddi3.c.o)
 .ARM.exidx     0x00000000        0x8 /afs/localcell/cm/gv2.6/sysname/pkg.@sys/qct/software/llvm/release/arm/3.5.2.4/lib/clang/3.5.2/lib/linux/libclang_rt.builtins-arm.a(umoddi3.c.o)
 .data          0x00000000        0x0 /afs/localcell/cm/gv2.6/sysname/pkg.@sys/qct/software/llvm/release/arm/3.5.2.4/lib/clang/3.5.2/lib/linux/libclang_rt.builtins-arm.a(umodsi3.c.o)
 .bss           0x00000000        0x0 /afs/localcell/cm/gv2.6/sysname/pkg.@sys/qct/software/llvm/release/arm/3.5.2.4/lib/clang/3.5.2/lib/linux/libclang_rt.builtins-arm.a(umodsi3.c.o)
 .ARM.exidx     0x00000000        0x8 /afs/localcell/cm/gv2.6/sysname/pkg.@sys/qct/software/llvm/release/arm/3.5.2.4/lib/clang/3.5.2/lib/linux/libclang_rt.builtins-arm.a(umodsi3.c.o)
 .text          0x00000000        0x0 /local/mnt/workspace/CRMBuilds/TZ.BF.4.0.3.c1-00005-M8996AAAAANAZT-1_20170110_230814/b/HK11/trustzone_images/apps/securemsm/trustzone/qsapps/secureindicator/oem/build/secureindicator/scorpion/IADAANAA/secureindicator_oem.lib(si_oem.o)
 .data          0x00000000        0x0 /local/mnt/workspace/CRMBuilds/TZ.BF.4.0.3.c1-00005-M8996AAAAANAZT-1_20170110_230814/b/HK11/trustzone_images/apps/securemsm/trustzone/qsapps/secureindicator/oem/build/secureindicator/scorpion/IADAANAA/secureindicator_oem.lib(si_oem.o)
 .bss           0x00000000        0x0 /local/mnt/workspace/CRMBuilds/TZ.BF.4.0.3.c1-00005-M8996AAAAANAZT-1_20170110_230814/b/HK11/trustzone_images/apps/securemsm/trustzone/qsapps/secureindicator/oem/build/secureindicator/scorpion/IADAANAA/secureindicator_oem.lib(si_oem.o)
 .data          0x00000000        0x0 /local/mnt/workspace/CRMBuilds/TZ.BF.4.0.3.c1-00005-M8996AAAAANAZT-1_20170110_230814/b/HK11/trustzone_images/core/securemsm/trustzone/qsapps/libs/applib/common_applib/build/secureindicator/scorpion/IADAANAA/tzapp_entrylib.lib(gpPersistObjCommon.o)
 .ARM.exidx     0x00000000       0x40 /local/mnt/workspace/CRMBuilds/TZ.BF.4.0.3.c1-00005-M8996AAAAANAZT-1_20170110_230814/b/HK11/trustzone_images/core/securemsm/trustzone/qsapps/libs/applib/common_applib/build/secureindicator/scorpion/IADAANAA/tzapp_entrylib.lib(gpPersistObjCommon.o)
 .data          0x00000000        0x0 /local/mnt/workspace/CRMBuilds/TZ.BF.4.0.3.c1-00005-M8996AAAAANAZT-1_20170110_230814/b/HK11/trustzone_images/core/securemsm/trustzone/qsapps/libs/applib/common_applib/build/secureindicator/scorpion/IADAANAA/tzapp_entrylib.lib(gpPersistentObjects.o)
 .bss           0x00000000        0x0 /local/mnt/workspace/CRMBuilds/TZ.BF.4.0.3.c1-00005-M8996AAAAANAZT-1_20170110_230814/b/HK11/trustzone_images/core/securemsm/trustzone/qsapps/libs/applib/common_applib/build/secureindicator/scorpion/IADAANAA/tzapp_entrylib.lib(gpPersistentObjects.o)
 .ARM.exidx     0x00000000       0x70 /local/mnt/workspace/CRMBuilds/TZ.BF.4.0.3.c1-00005-M8996AAAAANAZT-1_20170110_230814/b/HK11/trustzone_images/core/securemsm/trustzone/qsapps/libs/applib/common_applib/build/secureindicator/scorpion/IADAANAA/tzapp_entrylib.lib(gpPersistentObjects.o)
 .data          0x00000000        0x0 /local/mnt/workspace/CRMBuilds/TZ.BF.4.0.3.c1-00005-M8996AAAAANAZT-1_20170110_230814/b/HK11/trustzone_images/core/securemsm/trustzone/qsapps/libs/applib/common_applib/build/secureindicator/scorpion/IADAANAA/tzapp_entrylib.lib(gpPersistObjData.o)
 .ARM.exidx     0x00000000       0x88 /local/mnt/workspace/CRMBuilds/TZ.BF.4.0.3.c1-00005-M8996AAAAANAZT-1_20170110_230814/b/HK11/trustzone_images/core/securemsm/trustzone/qsapps/libs/applib/common_applib/build/secureindicator/scorpion/IADAANAA/tzapp_entrylib.lib(gpPersistObjData.o)
 .ARM.exidx     0x00000000       0x38 /local/mnt/workspace/CRMBuilds/TZ.BF.4.0.3.c1-00005-M8996AAAAANAZT-1_20170110_230814/b/HK11/trustzone_images/core/securemsm/trustzone/qsapps/libs/applib/common_applib/build/secureindicator/scorpion/IADAANAA/tzapp_entrylib.lib(gpPersistObjHandler.o)
 .data          0x00000000        0x0 /local/mnt/workspace/CRMBuilds/TZ.BF.4.0.3.c1-00005-M8996AAAAANAZT-1_20170110_230814/b/HK11/trustzone_images/core/securemsm/trustzone/qsapps/libs/applib/common_applib/build/secureindicator/scorpion/IADAANAA/tzapp_entrylib.lib(gpPersistObjIndex.o)
 .ARM.exidx     0x00000000       0x60 /local/mnt/workspace/CRMBuilds/TZ.BF.4.0.3.c1-00005-M8996AAAAANAZT-1_20170110_230814/b/HK11/trustzone_images/core/securemsm/trustzone/qsapps/libs/applib/common_applib/build/secureindicator/scorpion/IADAANAA/tzapp_entrylib.lib(gpPersistObjIndex.o)
 .ARM.exidx     0x00000000       0x48 /local/mnt/workspace/CRMBuilds/TZ.BF.4.0.3.c1-00005-M8996AAAAANAZT-1_20170110_230814/b/HK11/trustzone_images/core/securemsm/trustzone/qsapps/libs/applib/common_applib/build/secureindicator/scorpion/IADAANAA/tzapp_entrylib.lib(gpPersistObjVersion.o)
 .data          0x00000000        0x0 /local/mnt/workspace/CRMBuilds/TZ.BF.4.0.3.c1-00005-M8996AAAAANAZT-1_20170110_230814/b/HK11/trustzone_images/core/securemsm/trustzone/qsapps/libs/applib/common_applib/build/secureindicator/scorpion/IADAANAA/tzapp_entrylib.lib(gpPersistObjCrypto.o)
 .ARM.exidx     0x00000000       0x38 /local/mnt/workspace/CRMBuilds/TZ.BF.4.0.3.c1-00005-M8996AAAAANAZT-1_20170110_230814/b/HK11/trustzone_images/core/securemsm/trustzone/qsapps/libs/applib/common_applib/build/secureindicator/scorpion/IADAANAA/tzapp_entrylib.lib(gpPersistObjCrypto.o)
 .data          0x00000000        0x0 /local/mnt/workspace/CRMBuilds/TZ.BF.4.0.3.c1-00005-M8996AAAAANAZT-1_20170110_230814/b/HK11/trustzone_images/core/securemsm/trustzone/qsapps/libs/applib/common_applib/build/secureindicator/scorpion/IADAANAA/tzapp_entrylib.lib(gpPersistObjFileIO.o)
 .bss           0x00000000        0x0 /local/mnt/workspace/CRMBuilds/TZ.BF.4.0.3.c1-00005-M8996AAAAANAZT-1_20170110_230814/b/HK11/trustzone_images/core/securemsm/trustzone/qsapps/libs/applib/common_applib/build/secureindicator/scorpion/IADAANAA/tzapp_entrylib.lib(gpPersistObjFileIO.o)
 .ARM.exidx     0x00000000       0x40 /local/mnt/workspace/CRMBuilds/TZ.BF.4.0.3.c1-00005-M8996AAAAANAZT-1_20170110_230814/b/HK11/trustzone_images/core/securemsm/trustzone/qsapps/libs/applib/common_applib/build/secureindicator/scorpion/IADAANAA/tzapp_entrylib.lib(gpPersistObjFileIO.o)
 .data          0x00000000        0x0 /local/mnt/workspace/CRMBuilds/TZ.BF.4.0.3.c1-00005-M8996AAAAANAZT-1_20170110_230814/b/HK11/trustzone_images/core/securemsm/trustzone/qsapps/libs/applib/common_applib/build/secureindicator/scorpion/IADAANAA/tzapp_entrylib.lib(gpFileService.o)
 .bss           0x00000000        0x0 /local/mnt/workspace/CRMBuilds/TZ.BF.4.0.3.c1-00005-M8996AAAAANAZT-1_20170110_230814/b/HK11/trustzone_images/core/securemsm/trustzone/qsapps/libs/applib/common_applib/build/secureindicator/scorpion/IADAANAA/tzapp_entrylib.lib(gpFileService.o)
 .ARM.exidx     0x00000000       0x20 /local/mnt/workspace/CRMBuilds/TZ.BF.4.0.3.c1-00005-M8996AAAAANAZT-1_20170110_230814/b/HK11/trustzone_images/core/securemsm/trustzone/qsapps/libs/applib/common_applib/build/secureindicator/scorpion/IADAANAA/tzapp_entrylib.lib(gpFileService.o)
 .data          0x00000000        0x0 /local/mnt/workspace/CRMBuilds/TZ.BF.4.0.3.c1-00005-M8996AAAAANAZT-1_20170110_230814/b/HK11/trustzone_images/core/securemsm/trustzone/qsapps/libs/applib/qsee/build/secureindicator/scorpion/IADAANAA/tzapp_entrylib.lib(qsee_core_shim.o)
 .bss           0x00000000        0x0 /local/mnt/workspace/CRMBuilds/TZ.BF.4.0.3.c1-00005-M8996AAAAANAZT-1_20170110_230814/b/HK11/trustzone_images/core/securemsm/trustzone/qsapps/libs/applib/qsee/build/secureindicator/scorpion/IADAANAA/tzapp_entrylib.lib(qsee_core_shim.o)
 .ARM.exidx     0x00000000       0x60 /local/mnt/workspace/CRMBuilds/TZ.BF.4.0.3.c1-00005-M8996AAAAANAZT-1_20170110_230814/b/HK11/trustzone_images/core/securemsm/trustzone/qsapps/libs/applib/qsee/build/secureindicator/scorpion/IADAANAA/tzapp_entrylib.lib(qsee_core_shim.o)
 .data          0x00000000        0x0 /local/mnt/workspace/CRMBuilds/TZ.BF.4.0.3.c1-00005-M8996AAAAANAZT-1_20170110_230814/b/HK11/trustzone_images/core/securemsm/trustzone/qsapps/libs/applib/qsee/build/secureindicator/scorpion/IADAANAA/tzapp_entrylib.lib(stor.o)
 .bss           0x00000000        0x0 /local/mnt/workspace/CRMBuilds/TZ.BF.4.0.3.c1-00005-M8996AAAAANAZT-1_20170110_230814/b/HK11/trustzone_images/core/securemsm/trustzone/qsapps/libs/applib/qsee/build/secureindicator/scorpion/IADAANAA/tzapp_entrylib.lib(stor.o)
 .ARM.exidx     0x00000000       0x58 /local/mnt/workspace/CRMBuilds/TZ.BF.4.0.3.c1-00005-M8996AAAAANAZT-1_20170110_230814/b/HK11/trustzone_images/core/securemsm/trustzone/qsapps/libs/applib/qsee/build/secureindicator/scorpion/IADAANAA/tzapp_entrylib.lib(stor.o)
 .ARM.exidx     0x00000000       0x70 /local/mnt/workspace/CRMBuilds/TZ.BF.4.0.3.c1-00005-M8996AAAAANAZT-1_20170110_230814/b/HK11/trustzone_images/core/securemsm/trustzone/qsapps/libs/applib/qsee/build/secureindicator/scorpion/IADAANAA/tzapp_entrylib.lib(stor_gpt.o)
 .data          0x00000000        0x0 /local/mnt/workspace/CRMBuilds/TZ.BF.4.0.3.c1-00005-M8996AAAAANAZT-1_20170110_230814/b/HK11/trustzone_images/core/securemsm/trustzone/qsapps/libs/applib/qsee/build/secureindicator/scorpion/IADAANAA/tzapp_entrylib.lib(stor_rpmbw.o)
 .bss           0x00000000        0x0 /local/mnt/workspace/CRMBuilds/TZ.BF.4.0.3.c1-00005-M8996AAAAANAZT-1_20170110_230814/b/HK11/trustzone_images/core/securemsm/trustzone/qsapps/libs/applib/qsee/build/secureindicator/scorpion/IADAANAA/tzapp_entrylib.lib(stor_rpmbw.o)
 .ARM.exidx     0x00000000       0x50 /local/mnt/workspace/CRMBuilds/TZ.BF.4.0.3.c1-00005-M8996AAAAANAZT-1_20170110_230814/b/HK11/trustzone_images/core/securemsm/trustzone/qsapps/libs/applib/qsee/build/secureindicator/scorpion/IADAANAA/tzapp_entrylib.lib(stor_rpmbw.o)
 .data          0x00000000        0x0 /local/mnt/workspace/CRMBuilds/TZ.BF.4.0.3.c1-00005-M8996AAAAANAZT-1_20170110_230814/b/HK11/trustzone_images/core/securemsm/trustzone/qsapps/libs/applib/qsee/build/secureindicator/scorpion/IADAANAA/tzapp_entrylib.lib(qsee_cfg_prop_shim.o)
 .bss           0x00000000        0x0 /local/mnt/workspace/CRMBuilds/TZ.BF.4.0.3.c1-00005-M8996AAAAANAZT-1_20170110_230814/b/HK11/trustzone_images/core/securemsm/trustzone/qsapps/libs/applib/qsee/build/secureindicator/scorpion/IADAANAA/tzapp_entrylib.lib(qsee_cfg_prop_shim.o)
 .ARM.exidx     0x00000000        0x8 /local/mnt/workspace/CRMBuilds/TZ.BF.4.0.3.c1-00005-M8996AAAAANAZT-1_20170110_230814/b/HK11/trustzone_images/core/securemsm/trustzone/qsapps/libs/applib/qsee/build/secureindicator/scorpion/IADAANAA/tzapp_entrylib.lib(qsee_cfg_prop_shim.o)
 .data          0x00000000        0x0 /local/mnt/workspace/CRMBuilds/TZ.BF.4.0.3.c1-00005-M8996AAAAANAZT-1_20170110_230814/b/HK11/trustzone_images/core/securemsm/trustzone/qsapps/libs/applib/qsee/build/secureindicator/scorpion/IADAANAA/tzapp_entrylib.lib(qsee_cipher.o)
 .bss           0x00000000        0x0 /local/mnt/workspace/CRMBuilds/TZ.BF.4.0.3.c1-00005-M8996AAAAANAZT-1_20170110_230814/b/HK11/trustzone_images/core/securemsm/trustzone/qsapps/libs/applib/qsee/build/secureindicator/scorpion/IADAANAA/tzapp_entrylib.lib(qsee_cipher.o)
 .ARM.exidx     0x00000000       0x40 /local/mnt/workspace/CRMBuilds/TZ.BF.4.0.3.c1-00005-M8996AAAAANAZT-1_20170110_230814/b/HK11/trustzone_images/core/securemsm/trustzone/qsapps/libs/applib/qsee/build/secureindicator/scorpion/IADAANAA/tzapp_entrylib.lib(qsee_cipher.o)
 .data          0x00000000        0x0 /local/mnt/workspace/CRMBuilds/TZ.BF.4.0.3.c1-00005-M8996AAAAANAZT-1_20170110_230814/b/HK11/trustzone_images/core/securemsm/trustzone/qsapps/libs/applib/qsee/build/secureindicator/scorpion/IADAANAA/tzapp_entrylib.lib(qsee_hash.o)
 .bss           0x00000000        0x0 /local/mnt/workspace/CRMBuilds/TZ.BF.4.0.3.c1-00005-M8996AAAAANAZT-1_20170110_230814/b/HK11/trustzone_images/core/securemsm/trustzone/qsapps/libs/applib/qsee/build/secureindicator/scorpion/IADAANAA/tzapp_entrylib.lib(qsee_hash.o)
 .ARM.exidx     0x00000000       0x48 /local/mnt/workspace/CRMBuilds/TZ.BF.4.0.3.c1-00005-M8996AAAAANAZT-1_20170110_230814/b/HK11/trustzone_images/core/securemsm/trustzone/qsapps/libs/applib/qsee/build/secureindicator/scorpion/IADAANAA/tzapp_entrylib.lib(qsee_hash.o)
 .data          0x00000000        0x0 /local/mnt/workspace/CRMBuilds/TZ.BF.4.0.3.c1-00005-M8996AAAAANAZT-1_20170110_230814/b/HK11/trustzone_images/core/securemsm/trustzone/qsapps/libs/applib/qsee/build/secureindicator/scorpion/IADAANAA/tzapp_entrylib.lib(qsee_hmac.o)
 .bss           0x00000000        0x0 /local/mnt/workspace/CRMBuilds/TZ.BF.4.0.3.c1-00005-M8996AAAAANAZT-1_20170110_230814/b/HK11/trustzone_images/core/securemsm/trustzone/qsapps/libs/applib/qsee/build/secureindicator/scorpion/IADAANAA/tzapp_entrylib.lib(qsee_hmac.o)
 .ARM.exidx     0x00000000       0x38 /local/mnt/workspace/CRMBuilds/TZ.BF.4.0.3.c1-00005-M8996AAAAANAZT-1_20170110_230814/b/HK11/trustzone_images/core/securemsm/trustzone/qsapps/libs/applib/qsee/build/secureindicator/scorpion/IADAANAA/tzapp_entrylib.lib(qsee_hmac.o)
 .data          0x00000000        0x0 /local/mnt/workspace/CRMBuilds/TZ.BF.4.0.3.c1-00005-M8996AAAAANAZT-1_20170110_230814/b/HK11/trustzone_images/core/securemsm/trustzone/qsapps/libs/applib/qsee/build/secureindicator/scorpion/IADAANAA/tzapp_entrylib.lib(gpPersistObjPanic.o)
 .bss           0x00000000        0x0 /local/mnt/workspace/CRMBuilds/TZ.BF.4.0.3.c1-00005-M8996AAAAANAZT-1_20170110_230814/b/HK11/trustzone_images/core/securemsm/trustzone/qsapps/libs/applib/qsee/build/secureindicator/scorpion/IADAANAA/tzapp_entrylib.lib(gpPersistObjPanic.o)
 .ARM.exidx     0x00000000       0x10 /local/mnt/workspace/CRMBuilds/TZ.BF.4.0.3.c1-00005-M8996AAAAANAZT-1_20170110_230814/b/HK11/trustzone_images/core/securemsm/trustzone/qsapps/libs/applib/qsee/build/secureindicator/scorpion/IADAANAA/tzapp_entrylib.lib(gpPersistObjPanic.o)
 .data          0x00000000        0x0 /local/mnt/workspace/CRMBuilds/TZ.BF.4.0.3.c1-00005-M8996AAAAANAZT-1_20170110_230814/b/HK11/trustzone_images/core/securemsm/trustzone/qsapps/libs/services/build/secureindicator/scorpion/IADAANAA/qsee_services.lib(qsee_kdf.o)
 .bss           0x00000000        0x0 /local/mnt/workspace/CRMBuilds/TZ.BF.4.0.3.c1-00005-M8996AAAAANAZT-1_20170110_230814/b/HK11/trustzone_images/core/securemsm/trustzone/qsapps/libs/services/build/secureindicator/scorpion/IADAANAA/qsee_services.lib(qsee_kdf.o)
 .ARM.exidx     0x00000000        0x8 /local/mnt/workspace/CRMBuilds/TZ.BF.4.0.3.c1-00005-M8996AAAAANAZT-1_20170110_230814/b/HK11/trustzone_images/core/securemsm/trustzone/qsapps/libs/services/build/secureindicator/scorpion/IADAANAA/qsee_services.lib(qsee_kdf.o)
 .data          0x00000000        0x0 /local/mnt/workspace/CRMBuilds/TZ.BF.4.0.3.c1-00005-M8996AAAAANAZT-1_20170110_230814/b/HK11/trustzone_images/core/securemsm/trustzone/qsee/mink/libstd/build/secureindicator/scorpion/IADAANAA/libstd.lib(strlcat.o)
 .bss           0x00000000        0x0 /local/mnt/workspace/CRMBuilds/TZ.BF.4.0.3.c1-00005-M8996AAAAANAZT-1_20170110_230814/b/HK11/trustzone_images/core/securemsm/trustzone/qsee/mink/libstd/build/secureindicator/scorpion/IADAANAA/libstd.lib(strlcat.o)
 .ARM.exidx     0x00000000        0x8 /local/mnt/workspace/CRMBuilds/TZ.BF.4.0.3.c1-00005-M8996AAAAANAZT-1_20170110_230814/b/HK11/trustzone_images/core/securemsm/trustzone/qsee/mink/libstd/build/secureindicator/scorpion/IADAANAA/libstd.lib(strlcat.o)
 .data          0x00000000        0x0 /local/mnt/workspace/CRMBuilds/TZ.BF.4.0.3.c1-00005-M8996AAAAANAZT-1_20170110_230814/b/HK11/trustzone_images/core/securemsm/trustzone/qsee/mink/libstd/build/secureindicator/scorpion/IADAANAA/libstd.lib(strlcpy.o)
 .bss           0x00000000        0x0 /local/mnt/workspace/CRMBuilds/TZ.BF.4.0.3.c1-00005-M8996AAAAANAZT-1_20170110_230814/b/HK11/trustzone_images/core/securemsm/trustzone/qsee/mink/libstd/build/secureindicator/scorpion/IADAANAA/libstd.lib(strlcpy.o)
 .ARM.exidx     0x00000000        0x8 /local/mnt/workspace/CRMBuilds/TZ.BF.4.0.3.c1-00005-M8996AAAAANAZT-1_20170110_230814/b/HK11/trustzone_images/core/securemsm/trustzone/qsee/mink/libstd/build/secureindicator/scorpion/IADAANAA/libstd.lib(strlcpy.o)
 .data          0x00000000        0x0 /local/mnt/workspace/CRMBuilds/TZ.BF.4.0.3.c1-00005-M8996AAAAANAZT-1_20170110_230814/b/HK11/trustzone_images/core/securemsm/trustzone/qsee/mink/libstd/build/secureindicator/scorpion/IADAANAA/libstd.lib(timesafe_memcmp.o)
 .bss           0x00000000        0x0 /local/mnt/workspace/CRMBuilds/TZ.BF.4.0.3.c1-00005-M8996AAAAANAZT-1_20170110_230814/b/HK11/trustzone_images/core/securemsm/trustzone/qsee/mink/libstd/build/secureindicator/scorpion/IADAANAA/libstd.lib(timesafe_memcmp.o)
 .ARM.exidx     0x00000000        0x8 /local/mnt/workspace/CRMBuilds/TZ.BF.4.0.3.c1-00005-M8996AAAAANAZT-1_20170110_230814/b/HK11/trustzone_images/core/securemsm/trustzone/qsee/mink/libstd/build/secureindicator/scorpion/IADAANAA/libstd.lib(timesafe_memcmp.o)
 .data          0x00000000        0x0 /local/mnt/workspace/CRMBuilds/TZ.BF.4.0.3.c1-00005-M8996AAAAANAZT-1_20170110_230814/b/HK11/trustzone_images/core/securemsm/trustzone/qsee/mink/libstd/build/secureindicator/scorpion/IADAANAA/libstd.lib(memset.o)
 .bss           0x00000000        0x0 /local/mnt/workspace/CRMBuilds/TZ.BF.4.0.3.c1-00005-M8996AAAAANAZT-1_20170110_230814/b/HK11/trustzone_images/core/securemsm/trustzone/qsee/mink/libstd/build/secureindicator/scorpion/IADAANAA/libstd.lib(memset.o)
 .ARM.exidx     0x00000000        0x8 /local/mnt/workspace/CRMBuilds/TZ.BF.4.0.3.c1-00005-M8996AAAAANAZT-1_20170110_230814/b/HK11/trustzone_images/core/securemsm/trustzone/qsee/mink/libstd/build/secureindicator/scorpion/IADAANAA/libstd.lib(memset.o)
 .data          0x00000000        0x0 /local/mnt/workspace/CRMBuilds/TZ.BF.4.0.3.c1-00005-M8996AAAAANAZT-1_20170110_230814/b/HK11/trustzone_images/core/securemsm/trustzone/qsee/mink/libstd/build/secureindicator/scorpion/IADAANAA/libstd.lib(memcpy.o)
 .bss           0x00000000        0x0 /local/mnt/workspace/CRMBuilds/TZ.BF.4.0.3.c1-00005-M8996AAAAANAZT-1_20170110_230814/b/HK11/trustzone_images/core/securemsm/trustzone/qsee/mink/libstd/build/secureindicator/scorpion/IADAANAA/libstd.lib(memcpy.o)
 .ARM.exidx     0x00000000        0x8 /local/mnt/workspace/CRMBuilds/TZ.BF.4.0.3.c1-00005-M8996AAAAANAZT-1_20170110_230814/b/HK11/trustzone_images/core/securemsm/trustzone/qsee/mink/libstd/build/secureindicator/scorpion/IADAANAA/libstd.lib(memcpy.o)
 .data          0x00000000        0x0 /local/mnt/workspace/CRMBuilds/TZ.BF.4.0.3.c1-00005-M8996AAAAANAZT-1_20170110_230814/b/HK11/trustzone_images/core/securemsm/trustzone/qsee/mink/libstd/build/secureindicator/scorpion/IADAANAA/libstd.lib(strncmp.o)
 .bss           0x00000000        0x0 /local/mnt/workspace/CRMBuilds/TZ.BF.4.0.3.c1-00005-M8996AAAAANAZT-1_20170110_230814/b/HK11/trustzone_images/core/securemsm/trustzone/qsee/mink/libstd/build/secureindicator/scorpion/IADAANAA/libstd.lib(strncmp.o)
 .ARM.exidx     0x00000000        0x8 /local/mnt/workspace/CRMBuilds/TZ.BF.4.0.3.c1-00005-M8996AAAAANAZT-1_20170110_230814/b/HK11/trustzone_images/core/securemsm/trustzone/qsee/mink/libstd/build/secureindicator/scorpion/IADAANAA/libstd.lib(strncmp.o)

Memory Configuration

Name             Origin             Length             Attributes
*default*        0x00000000         0xffffffff

Linker script and memory map


.text           0x00000000    0x16847
 *\tzapp_entry.o(SORT(TZAPPENTRYCODE))
 TZAPPENTRYCODE
                0x00000000       0x4c /local/mnt/workspace/CRMBuilds/TZ.BF.4.0.3.c1-00005-M8996AAAAANAZT-1_20170110_230814/b/HK11/trustzone_images/core/securemsm/trustzone/qsapps/libs/applib/qsee/build/secureindicator/scorpion/IADAANAA/src/tzapp_entry.o
                0x00000000                __main
                0x00000000                TZAPPENTRY
                0x00000000                _main
                0x0000003c                get_cmnlib_ctx_ptr
 *(SORT(.text) SORT(.text.*) SORT(kthread_shared))
 .text          0x0000004c      0x114 /local/mnt/workspace/CRMBuilds/TZ.BF.4.0.3.c1-00005-M8996AAAAANAZT-1_20170110_230814/b/HK11/trustzone_images/apps/securemsm/trustzone/qsapps/secureindicator/build/secureindicator/scorpion/IADAANAA/si_main.o
                0x0000004c                tz_app_init
                0x00000074                tz_app_cmd_handler
                0x0000014c                tz_app_shutdown
 .text          0x00000160      0x638 /local/mnt/workspace/CRMBuilds/TZ.BF.4.0.3.c1-00005-M8996AAAAANAZT-1_20170110_230814/b/HK11/trustzone_images/apps/securemsm/trustzone/qsapps/secureindicator/build/secureindicator/scorpion/IADAANAA/si.o
                0x00000160                is_indicator_provisioned
                0x00000190                store_indicator
                0x00000438                provide_indicator
                0x00000664                get_indicator_dimensions
                0x00000694                remove_indicator
 .text          0x00000798      0x4e6 /local/mnt/workspace/CRMBuilds/TZ.BF.4.0.3.c1-00005-M8996AAAAANAZT-1_20170110_230814/b/HK11/trustzone_images/core/securemsm/sse/qsee/SecureDisplay/libpng/build/secureindicator/scorpion/IADAANAA/libpng.lib(png.o)
                0x00000798                png_set_sig_bytes
                0x000007b0                png_sig_cmp
                0x00000824                png_zalloc
                0x0000083c                png_zfree
                0x00000840                png_reset_crc
                0x00000858                png_calculate_crc
                0x000008ac                png_user_version_check
                0x00000918                png_get_header_ver
                0x00000924                png_create_png_struct
                0x000009cc                png_create_info_struct
                0x000009ec                png_destroy_info_struct
                0x00000a2c                png_free_data
                0x00000a80                png_data_freer
                0x00000ab0                png_get_io_ptr
                0x00000abc                png_get_copyright
                0x00000ac8                png_get_libpng_ver
                0x00000ad4                png_get_header_version
                0x00000ae0                png_reset_zstream
                0x00000af0                png_access_version_number
                0x00000af8                png_zstream_error
                0x00000b90                png_check_IHDR
 *fill*         0x00000c7e        0x2 
 .text          0x00000c80       0x8c /local/mnt/workspace/CRMBuilds/TZ.BF.4.0.3.c1-00005-M8996AAAAANAZT-1_20170110_230814/b/HK11/trustzone_images/core/securemsm/sse/qsee/SecureDisplay/libpng/build/secureindicator/scorpion/IADAANAA/libpng.lib(pngerror.o)
                0x00000c80                png_err
                0x00000c9c                png_safecat
                0x00000cd4                png_chunk_report
                0x00000cec                png_longjmp
                0x00000cf4                png_set_error_fn
                0x00000d00                png_get_error_ptr
 .text          0x00000d0c      0x116 /local/mnt/workspace/CRMBuilds/TZ.BF.4.0.3.c1-00005-M8996AAAAANAZT-1_20170110_230814/b/HK11/trustzone_images/core/securemsm/sse/qsee/SecureDisplay/libpng/build/secureindicator/scorpion/IADAANAA/libpng.lib(pngget.o)
                0x00000d0c                png_get_valid
                0x00000d20                png_get_rowbytes
                0x00000d30                png_get_channels
                0x00000d40                png_get_signature
                0x00000d5c                png_get_IHDR
                0x00000de8                png_get_PLTE
                0x00000e14                png_get_compression_buffer_size
 *fill*         0x00000e22        0x2 
 .text          0x00000e24      0x11a /local/mnt/workspace/CRMBuilds/TZ.BF.4.0.3.c1-00005-M8996AAAAANAZT-1_20170110_230814/b/HK11/trustzone_images/core/securemsm/sse/qsee/SecureDisplay/libpng/build/secureindicator/scorpion/IADAANAA/libpng.lib(pngmem.o)
                0x00000e24                png_destroy_png_struct
                0x00000e74                png_free
                0x00000e8c                png_calloc
                0x00000ea8                png_malloc
                0x00000ec4                png_malloc_base
                0x00000ee0                png_malloc_default
                0x00000efc                png_malloc_warn
                0x00000f14                png_free_default
                0x00000f24                png_set_mem_fn
                0x00000f30                png_get_mem_ptr
 *fill*         0x00000f3e        0x2 
 .text          0x00000f40      0x4c6 /local/mnt/workspace/CRMBuilds/TZ.BF.4.0.3.c1-00005-M8996AAAAANAZT-1_20170110_230814/b/HK11/trustzone_images/core/securemsm/sse/qsee/SecureDisplay/libpng/build/secureindicator/scorpion/IADAANAA/libpng.lib(pngread.o)
                0x00000f40                malloc_fn
                0x00000f48                free_fn
                0x00000f50                png_create_read_struct
                0x00000f8c                png_create_read_struct_2
                0x00000fd0                png_read_info
                0x000010a4                png_read_update_info
                0x000010c0                png_start_read_image
                0x000010dc                png_read_row
                0x00001210                png_read_rows
                0x00001298                png_read_image
                0x000012d4                png_read_end
                0x00001380                png_destroy_read_struct
                0x000013fc                png_set_read_status_fn
 *fill*         0x00001406        0x2 
 .text          0x00001408       0x1e /local/mnt/workspace/CRMBuilds/TZ.BF.4.0.3.c1-00005-M8996AAAAANAZT-1_20170110_230814/b/HK11/trustzone_images/core/securemsm/sse/qsee/SecureDisplay/libpng/build/secureindicator/scorpion/IADAANAA/libpng.lib(pngrio.o)
                0x00001408                png_read_data
                0x0000141c                png_set_read_fn
 *fill*         0x00001426        0x2 
 .text          0x00001428      0xc68 /local/mnt/workspace/CRMBuilds/TZ.BF.4.0.3.c1-00005-M8996AAAAANAZT-1_20170110_230814/b/HK11/trustzone_images/core/securemsm/sse/qsee/SecureDisplay/libpng/build/secureindicator/scorpion/IADAANAA/libpng.lib(pngrutil.o)
                0x00001428                png_get_uint_31
                0x00001454                png_read_sig
                0x000014b4                png_read_chunk_header
                0x0000153c                png_check_chunk_name
                0x00001570                png_crc_read
                0x0000159c                png_crc_finish
                0x0000162c                png_crc_error
                0x000016a0                png_handle_IHDR
                0x000017b0                png_handle_PLTE
                0x000018f0                png_handle_IEND
                0x0000191c                png_handle_unknown
                0x0000193c                png_combine_row
                0x000019e4                png_read_filter_row
                0x00001a68                png_read_IDAT_data
                0x00001bd8                png_read_finish_IDAT
                0x00001c30                png_read_finish_row
                0x00001d14                png_read_start_row
 .text          0x00002090      0x17c /local/mnt/workspace/CRMBuilds/TZ.BF.4.0.3.c1-00005-M8996AAAAANAZT-1_20170110_230814/b/HK11/trustzone_images/core/securemsm/sse/qsee/SecureDisplay/libpng/build/secureindicator/scorpion/IADAANAA/libpng.lib(pngset.o)
                0x00002090                png_set_IHDR
                0x00002134                png_set_PLTE
                0x000021e0                png_set_compression_buffer_size
                0x000021fc                png_set_invalid
 .text          0x0000220c      0x3c6 /local/mnt/workspace/CRMBuilds/TZ.BF.4.0.3.c1-00005-M8996AAAAANAZT-1_20170110_230814/b/HK11/trustzone_images/core/securemsm/sse/qsee/SecureDisplay/zlib/build/secureindicator/scorpion/IADAANAA/zlib.lib(crc32.o)
                0x0000220c                get_crc_table
                0x00002218                crc32
                0x000024a0                crc32_combine
                0x00002574                crc32_combine64
 *fill*         0x000025d2        0x2 
 .text          0x000025d4     0x1c9c /local/mnt/workspace/CRMBuilds/TZ.BF.4.0.3.c1-00005-M8996AAAAANAZT-1_20170110_230814/b/HK11/trustzone_images/core/securemsm/sse/qsee/SecureDisplay/zlib/build/secureindicator/scorpion/IADAANAA/zlib.lib(inflate.o)
                0x000025d4                inflateResetKeep
                0x00002630                inflateReset
                0x0000264c                inflateReset2
                0x000026b4                inflateInit2_
                0x00002748                inflateInit_
                0x00002754                inflatePrime
                0x000027b0                inflate
                0x00003e50                inflateEnd
                0x00003e80                inflateGetDictionary
                0x00003ed8                inflateSetDictionary
                0x00003f54                inflateGetHeader
                0x00003f78                inflateSync
                0x000040e4                inflateSyncPoint
                0x0000410c                inflateCopy
                0x00004218                inflateUndermine
                0x00004234                inflateMark
 .text          0x00004270      0x400 /local/mnt/workspace/CRMBuilds/TZ.BF.4.0.3.c1-00005-M8996AAAAANAZT-1_20170110_230814/b/HK11/trustzone_images/core/securemsm/sse/qsee/SecureDisplay/zlib/build/secureindicator/scorpion/IADAANAA/zlib.lib(inftrees.o)
                0x00004270                inflate_table
 .text          0x00004670       0x4a /local/mnt/workspace/CRMBuilds/TZ.BF.4.0.3.c1-00005-M8996AAAAANAZT-1_20170110_230814/b/HK11/trustzone_images/core/securemsm/sse/qsee/SecureDisplay/zlib/build/secureindicator/scorpion/IADAANAA/zlib.lib(zutil.o)
                0x00004670                zlibVersion
                0x0000467c                zlibCompileFlags
                0x00004680                zError
                0x00004694                zcalloc
                0x000046b4                zcfree
 *fill*         0x000046ba        0x2 
 .text          0x000046bc      0x368 /local/mnt/workspace/CRMBuilds/TZ.BF.4.0.3.c1-00005-M8996AAAAANAZT-1_20170110_230814/b/HK11/trustzone_images/core/securemsm/sse/qsee/SecureDisplay/zlib/build/secureindicator/scorpion/IADAANAA/zlib.lib(adler32.o)
                0x000046bc                adler32
                0x00004988                adler32_combine
                0x00004a20                adler32_combine64
 .text          0x00004a24      0x594 /local/mnt/workspace/CRMBuilds/TZ.BF.4.0.3.c1-00005-M8996AAAAANAZT-1_20170110_230814/b/HK11/trustzone_images/core/securemsm/sse/qsee/SecureDisplay/zlib/build/secureindicator/scorpion/IADAANAA/zlib.lib(inffast.o)
                0x00004a24                inflate_fast
 .text          0x00004fb8      0x770 /local/mnt/workspace/CRMBuilds/TZ.BF.4.0.3.c1-00005-M8996AAAAANAZT-1_20170110_230814/b/HK11/trustzone_images/core/securemsm/trustzone/qsapps/libs/applib/common_applib/build/secureindicator/scorpion/IADAANAA/tzapp_entrylib.lib(common_applib.o)
                0x00004fb8                qsee_err_fatal
                0x00004fd8                platform_err_fatal
                0x00004fdc                platform_get_random
                0x00004fe0                __stack_chk_fail
                0x00004fe4                _sys_command_string
                0x00004ff0                get_app_req_resp
                0x00004ffc                qsee_read_register
                0x0000501c                qsee_request_service
                0x0000509c                qsee_prepare_shared_buf_for_nosecure_read
                0x000050bc                qsee_prepare_shared_buf_for_secure_read
                0x000050dc                qsee_set_global_flag
                0x000050fc                qsee_get_global_flag
                0x0000511c                qsee_oem_process_cmd
                0x00005140                qsee_enforce_hdmi_hdcp_encryption
                0x00005160                qsee_write_hdcp2p2_key_riv_enable
                0x00005184                qsee_read_hdcp2p2_min_encryption_level
                0x000051a4                qsee_write_hdcp2p2_min_encryption_level
                0x000051c4                qsee_get_hdcp_min_enc_level
                0x000051e4                qsee_set_hdcp_min_enc_level
                0x00005204                qsee_write_hdcp1_key
                0x00005224                qsee_set_hdcp_cpi_assert
                0x00005244                qsee_get_secure_state
                0x00005264                qsee_malloc
                0x0000526c                qsee_realloc
                0x000052a0                qsee_realloc_common
                0x0000531c                qsee_free
                0x0000534c                qsee_cmnlib_malloc
                0x00005380                qsee_cmnlib_free
                0x000053b0                tzlib_app_entry
                0x000054e8                get_ta_app_name
                0x000054f8                get_app_md
 .text.tz_module_open
                0x00005728        0xc /local/mnt/workspace/CRMBuilds/TZ.BF.4.0.3.c1-00005-M8996AAAAANAZT-1_20170110_230814/b/HK11/trustzone_images/core/securemsm/trustzone/qsapps/libs/applib/common_applib/build/secureindicator/scorpion/IADAANAA/tzapp_entrylib.lib(common_applib.o)
                0x00005728                tz_module_open
 .text          0x00005734      0x2a0 /local/mnt/workspace/CRMBuilds/TZ.BF.4.0.3.c1-00005-M8996AAAAANAZT-1_20170110_230814/b/HK11/trustzone_images/core/securemsm/trustzone/qsapps/libs/applib/qsee/build/secureindicator/scorpion/IADAANAA/tzapp_entrylib.lib(mink_shared_code.o)
                0x00005734                UThread_syscall
                0x00005754                minkIPC
                0x00005880                minkServerLoop
                0x00005994                minkServerEntry
 .text          0x000059d4      0x230 /local/mnt/workspace/CRMBuilds/TZ.BF.4.0.3.c1-00005-M8996AAAAANAZT-1_20170110_230814/b/HK11/trustzone_images/core/securemsm/trustzone/qsapps/libs/applib/qsee/build/secureindicator/scorpion/IADAANAA/tzapp_entrylib.lib(qsee_env.o)
                0x000059d4                qsee_set_env
                0x000059f0                qsee_open
                0x00005a58                qsee_open_singleton
                0x00005b58                qsee_printf_ap
                0x00005bc0                qsee_printf
 .text          0x00005c04       0x54 /local/mnt/workspace/CRMBuilds/TZ.BF.4.0.3.c1-00005-M8996AAAAANAZT-1_20170110_230814/b/HK11/trustzone_images/core/securemsm/trustzone/qsapps/libs/applib/qsee/build/secureindicator/scorpion/IADAANAA/tzapp_entrylib.lib(qsee_prng.o)
                0x00005c04                qsee_prng_getdata
 .text          0x00005c58      0x198 /local/mnt/workspace/CRMBuilds/TZ.BF.4.0.3.c1-00005-M8996AAAAANAZT-1_20170110_230814/b/HK11/trustzone_images/core/securemsm/trustzone/qsapps/libs/applib/qsee/build/secureindicator/scorpion/IADAANAA/tzapp_entrylib.lib(qsee_appmessage.o)
                0x00005c58                qsee_encapsulate_inter_app_message
                0x00005d38                qsee_decapsulate_inter_app_message
 .text          0x00005df0      0x7bc /local/mnt/workspace/CRMBuilds/TZ.BF.4.0.3.c1-00005-M8996AAAAANAZT-1_20170110_230814/b/HK11/trustzone_images/core/securemsm/trustzone/qsapps/libs/applib/qsee/build/secureindicator/scorpion/IADAANAA/tzapp_entrylib.lib(sfs_api.o)
                0x00005df0                qsee_sfs_open
                0x00005fc8                qsee_sfs_close
                0x00005fcc                qsee_sfs_read
                0x00006064                qsee_sfs_write
                0x000060d4                qsee_sfs_seek
                0x000061c8                qsee_sfs_getSize
                0x00006270                qsee_sfs_mkdir
                0x00006274                qsee_sfs_rmdir
                0x00006278                qsee_sfs_rm
                0x00006304                qsee_sfs_error
                0x00006310                qsee_sfs_get_file_list
                0x00006530                qsee_sfs_clean_file_list
                0x0000656c                qsee_sfs_is_anti_rollback_enabled
 .text          0x000065ac       0xdc /local/mnt/workspace/CRMBuilds/TZ.BF.4.0.3.c1-00005-M8996AAAAANAZT-1_20170110_230814/b/HK11/trustzone_images/core/securemsm/trustzone/qsapps/libs/applib/qsee/build/secureindicator/scorpion/IADAANAA/tzapp_entrylib.lib(tzapp_lib_main.o)
                0x000065ac                get_app_stack_base
                0x000065b8                get_app_stack_size
                0x000065d0                get_app_heap_base
                0x000065dc                get_app_heap_size
                0x000065f4                CApp_handleRequest
                0x00006610                CApp_invoke
                0x00006670                secure_app_init
                0x0000667c                secure_app_shutdown
 kthread_shared
                0x00006688       0x2c /local/mnt/workspace/CRMBuilds/TZ.BF.4.0.3.c1-00005-M8996AAAAANAZT-1_20170110_230814/b/HK11/trustzone_images/core/securemsm/trustzone/qsapps/libs/applib/qsee/build/secureindicator/scorpion/IADAANAA/tzapp_entrylib.lib(kthread_shared.o)
                0x00006688                mink_generic_syscall
 .text          0x000066b4       0x7c /local/mnt/workspace/CRMBuilds/TZ.BF.4.0.3.c1-00005-M8996AAAAANAZT-1_20170110_230814/b/HK11/trustzone_images/core/securemsm/trustzone/qsapps/libs/services/build/secureindicator/scorpion/IADAANAA/qsee_services.lib(qsee_log.o)
                0x000066b4                qsee_log_set_mask
                0x000066b8                qsee_log_get_mask
                0x000066bc                qsee_log
 .text          0x00006730       0x18 /local/mnt/workspace/CRMBuilds/TZ.BF.4.0.3.c1-00005-M8996AAAAANAZT-1_20170110_230814/b/HK11/trustzone_images/core/securemsm/trustzone/qsee/mink/libstd/build/secureindicator/scorpion/IADAANAA/libstd.lib(memscpy.o)
                0x00006730                memscpy
 .text          0x00006748       0x18 /local/mnt/workspace/CRMBuilds/TZ.BF.4.0.3.c1-00005-M8996AAAAANAZT-1_20170110_230814/b/HK11/trustzone_images/core/securemsm/trustzone/qsee/mink/libstd/build/secureindicator/scorpion/IADAANAA/libstd.lib(secure_memset.o)
                0x00006748                secure_memset
 .text          0x00006760       0x22 /local/mnt/workspace/CRMBuilds/TZ.BF.4.0.3.c1-00005-M8996AAAAANAZT-1_20170110_230814/b/HK11/trustzone_images/core/securemsm/trustzone/qsee/mink/libstd/build/secureindicator/scorpion/IADAANAA/libstd.lib(memcmp.o)
                0x00006760                memcmp
 *fill*         0x00006782        0x2 
 .text          0x00006784       0x44 /local/mnt/workspace/CRMBuilds/TZ.BF.4.0.3.c1-00005-M8996AAAAANAZT-1_20170110_230814/b/HK11/trustzone_images/core/securemsm/trustzone/qsee/mink/libstd/build/secureindicator/scorpion/IADAANAA/libstd.lib(strlen.o)
                0x00006784                strlen
 .text          0x000067c8       0x2e /local/mnt/workspace/CRMBuilds/TZ.BF.4.0.3.c1-00005-M8996AAAAANAZT-1_20170110_230814/b/HK11/trustzone_images/core/securemsm/trustzone/qsee/mink/libstd/build/secureindicator/scorpion/IADAANAA/libstd.lib(strcmp.o)
                0x000067c8                strcmp
 *fill*         0x000067f6        0x2 
 .text          0x000067f8      0xc40 /local/mnt/workspace/CRMBuilds/TZ.BF.4.0.3.c1-00005-M8996AAAAANAZT-1_20170110_230814/b/HK11/trustzone_images/core/securemsm/trustzone/qsee/mink/libstd/build/secureindicator/scorpion/IADAANAA/libstd.lib(printf.o)
                0x000067f8                __towrite
                0x00006834                __fwritex
                0x000068d8                vfprintf
                0x000071c8                vsnprintf
                0x00007294                snprintf
 .text          0x00007438        0xa /local/mnt/workspace/CRMBuilds/TZ.BF.4.0.3.c1-00005-M8996AAAAANAZT-1_20170110_230814/b/HK11/trustzone_images/core/securemsm/trustzone/qsee/mink/libstd/build/secureindicator/scorpion/IADAANAA/libstd.lib(abort.o)
                0x00007438                abort
 *fill*         0x00007442        0x2 
 .text          0x00007444       0xa8 /local/mnt/workspace/CRMBuilds/TZ.BF.4.0.3.c1-00005-M8996AAAAANAZT-1_20170110_230814/b/HK11/trustzone_images/core/securemsm/trustzone/qsee/mink/libstd/build/secureindicator/scorpion/IADAANAA/libstd.lib(memchr.o)
                0x00007444                memchr
 .text          0x000074ec        0x4 /afs/localcell/cm/gv2.6/sysname/pkg.@sys/qct/software/llvm/release/arm/3.5.2.4/lib/clang/3.5.2/lib/linux/libclang_rt.builtins-arm.a(aeabi_memcpy.S.o)
                0x000074ec                __aeabi_memcpy
                0x000074ec                __aeabi_memcpy4
                0x000074ec                __aeabi_memcpy8
 .text          0x000074f0       0x1c /afs/localcell/cm/gv2.6/sysname/pkg.@sys/qct/software/llvm/release/arm/3.5.2.4/lib/clang/3.5.2/lib/linux/libclang_rt.builtins-arm.a(aeabi_memset.S.o)
                0x000074f0                __aeabi_memset
                0x000074f0                __aeabi_memset8
                0x000074f0                __aeabi_memset4
                0x00007500                __aeabi_memclr8
                0x00007500                __aeabi_memclr
                0x00007500                __aeabi_memclr4
 .text          0x0000750c       0x24 /afs/localcell/cm/gv2.6/sysname/pkg.@sys/qct/software/llvm/release/arm/3.5.2.4/lib/clang/3.5.2/lib/linux/libclang_rt.builtins-arm.a(aeabi_uldivmod.S.o)
                0x0000750c                __aeabi_uldivmod
 .text          0x00007530      0x416 /afs/localcell/cm/gv2.6/sysname/pkg.@sys/qct/software/llvm/release/arm/3.5.2.4/lib/clang/3.5.2/lib/linux/libclang_rt.builtins-arm.a(udivmoddi4.c.o)
                0x00007530                __udivmoddi4
 *fill*         0x00007946        0x2 
 .text          0x00007948      0x154 /afs/localcell/cm/gv2.6/sysname/pkg.@sys/qct/software/llvm/release/arm/3.5.2.4/lib/clang/3.5.2/lib/linux/libclang_rt.builtins-arm.a(udivsi3.c.o)
                0x00007948                __udivsi3
                0x00007948                __aeabi_uidiv
 .text          0x00007a9c       0x18 /afs/localcell/cm/gv2.6/sysname/pkg.@sys/qct/software/llvm/release/arm/3.5.2.4/lib/clang/3.5.2/lib/linux/libclang_rt.builtins-arm.a(umoddi3.c.o)
                0x00007a9c                __umoddi3
 .text          0x00007ab4       0x10 /afs/localcell/cm/gv2.6/sysname/pkg.@sys/qct/software/llvm/release/arm/3.5.2.4/lib/clang/3.5.2/lib/linux/libclang_rt.builtins-arm.a(umodsi3.c.o)
                0x00007ab4                __umodsi3
 .text          0x00007ac4      0x5e4 /local/mnt/workspace/CRMBuilds/TZ.BF.4.0.3.c1-00005-M8996AAAAANAZT-1_20170110_230814/b/HK11/trustzone_images/core/securemsm/trustzone/qsapps/libs/applib/common_applib/build/secureindicator/scorpion/IADAANAA/tzapp_entrylib.lib(gpPersistObjCommon.o)
                0x00007ac4                gpCommon_Copy_Attributes
                0x00007c20                gpCommon_Init_Handles
                0x00007d00                gpCommon_Init_App_Info
                0x00007d5c                gpCommon_Clean_Attributes
                0x00007da4                gpCommon_Clean_Object_Handle
                0x00007de4                gpCommon_Get_Object_Info
                0x00007e40                gpCommon_Close_Object
                0x00007eec                gpCommon_Get_File_Path
 .text          0x000080a8      0xef4 /local/mnt/workspace/CRMBuilds/TZ.BF.4.0.3.c1-00005-M8996AAAAANAZT-1_20170110_230814/b/HK11/trustzone_images/core/securemsm/trustzone/qsapps/libs/applib/common_applib/build/secureindicator/scorpion/IADAANAA/tzapp_entrylib.lib(gpPersistentObjects.o)
                0x000080a8                TEE_OpenPersistentObject
                0x000082a4                TEE_CreatePersistentObject
                0x00008510                TEE_CloseAndDeletePersistentObject1
                0x00008608                TEE_CloseAndDeletePersistentObject
                0x0000860c                TEE_ReadObjectData
                0x00008720                TEE_WriteObjectData
                0x000088a4                TEE_TruncateObjectData
                0x000089ec                TEE_SeekObjectData
                0x00008ac8                TEE_RenamePersistentObject
                0x00008bd0                TEE_AllocatePersistentObjectEnumerator
                0x00008ccc                TEE_FreePersistentObjectEnumerator
                0x00008d44                TEE_ResetPersistentObjectEnumerator
                0x00008dc4                TEE_StartPersistentObjectEnumerator
                0x00008eb8                TEE_GetNextPersistentObject
 .text          0x00008f9c     0x26b4 /local/mnt/workspace/CRMBuilds/TZ.BF.4.0.3.c1-00005-M8996AAAAANAZT-1_20170110_230814/b/HK11/trustzone_images/core/securemsm/trustzone/qsapps/libs/applib/common_applib/build/secureindicator/scorpion/IADAANAA/tzapp_entrylib.lib(gpPersistObjData.o)
                0x00008f9c                gpData_Create_Object
                0x00009778                gpData_Delete_Object
                0x00009890                gpData_Open_Object
                0x000099ec                gpData_Close_Object
                0x00009a24                gpData_Write_Data
                0x00009f04                gpData_Read_Data
                0x0000a114                gpData_Trunc_Data
                0x0000a38c                gpData_Seek_Data
 .text          0x0000b650      0x6ec /local/mnt/workspace/CRMBuilds/TZ.BF.4.0.3.c1-00005-M8996AAAAANAZT-1_20170110_230814/b/HK11/trustzone_images/core/securemsm/trustzone/qsapps/libs/applib/common_applib/build/secureindicator/scorpion/IADAANAA/tzapp_entrylib.lib(gpPersistObjHandler.o)
                0x0000b650                gpHandler_Create_Handle
                0x0000b958                gpHandler_Delete_Handle
                0x0000b9f0                gpHandler_Close_Handle
                0x0000bb24                gpHandler_Open_Handle
                0x0000bbbc                gpHandler_Update_Handle
                0x0000bc1c                gpHandler_Rename_Handle
 .text          0x0000bd3c     0x13cc /local/mnt/workspace/CRMBuilds/TZ.BF.4.0.3.c1-00005-M8996AAAAANAZT-1_20170110_230814/b/HK11/trustzone_images/core/securemsm/trustzone/qsapps/libs/applib/common_applib/build/secureindicator/scorpion/IADAANAA/tzapp_entrylib.lib(gpPersistObjIndex.o)
                0x0000bd3c                index_Get_Index_Info
                0x0000bf78                gpIndex_Create_Entry
                0x0000c158                gpIndex_Delete_Entry
                0x0000c288                gpIndex_Get_Entry
                0x0000c4fc                gpIndex_Set_Entry
                0x0000c638                gpIndex_Rename_Entry
                0x0000c84c                gpIndex_Get_Enum_Entry
                0x0000ca74                gpIndex_Get_Index_Info
 .text          0x0000d108      0xe08 /local/mnt/workspace/CRMBuilds/TZ.BF.4.0.3.c1-00005-M8996AAAAANAZT-1_20170110_230814/b/HK11/trustzone_images/core/securemsm/trustzone/qsapps/libs/applib/common_applib/build/secureindicator/scorpion/IADAANAA/tzapp_entrylib.lib(gpPersistObjVersion.o)
                0x0000d108                version_Is_Rpmb_Usage_Enabled
                0x0000d1bc                gpVersion_Get_Version
                0x0000d7b8                gpVersion_Set_Version
                0x0000d9d8                gpVersion_Inc_Version
                0x0000da14                gpVersion_Delete_Version
 .text          0x0000df10      0x990 /local/mnt/workspace/CRMBuilds/TZ.BF.4.0.3.c1-00005-M8996AAAAANAZT-1_20170110_230814/b/HK11/trustzone_images/core/securemsm/trustzone/qsapps/libs/applib/common_applib/build/secureindicator/scorpion/IADAANAA/tzapp_entrylib.lib(gpPersistObjCrypto.o)
                0x0000df10                gpCrypto_Encrypt
                0x0000e28c                gpCrypto_Integrity_Protect
                0x0000e460                gpCrypto_Decrypt
                0x0000e64c                gpCrypto_Integrity_Verify
 .text          0x0000e8a0      0x39c /local/mnt/workspace/CRMBuilds/TZ.BF.4.0.3.c1-00005-M8996AAAAANAZT-1_20170110_230814/b/HK11/trustzone_images/core/securemsm/trustzone/qsapps/libs/applib/common_applib/build/secureindicator/scorpion/IADAANAA/tzapp_entrylib.lib(gpPersistObjFileIO.o)
                0x0000e8a0                fileIO_Read_Data
                0x0000e904                fileIO_Write_Data
                0x0000e970                fileIO_Remove_Data
                0x0000e9cc                fileIO_Rename_Data
                0x0000ea28                gpFileIO_Read_File
                0x0000eab4                gpFileIO_Write_File
                0x0000eb5c                gpFileIO_Remove_File
                0x0000ebc0                gpFileIO_Rename_File
 .text          0x0000ec3c      0x774 /local/mnt/workspace/CRMBuilds/TZ.BF.4.0.3.c1-00005-M8996AAAAANAZT-1_20170110_230814/b/HK11/trustzone_images/core/securemsm/trustzone/qsapps/libs/applib/common_applib/build/secureindicator/scorpion/IADAANAA/tzapp_entrylib.lib(gpFileService.o)
                0x0000ec3c                gpFileRead
                0x0000eeb8                gpFileWrite
                0x0000f138                gpFileRemove
                0x0000f268                gpFileRename
 .text          0x0000f3b0      0x204 /local/mnt/workspace/CRMBuilds/TZ.BF.4.0.3.c1-00005-M8996AAAAANAZT-1_20170110_230814/b/HK11/trustzone_images/core/securemsm/trustzone/qsapps/libs/applib/qsee/build/secureindicator/scorpion/IADAANAA/tzapp_entrylib.lib(qsee_core_shim.o)
                0x0000f3b0                qsee_exec_protect_memory
                0x0000f3d4                qsee_is_sw_fuse_blown
                0x0000f3f4                qsee_blow_sw_fuse
                0x0000f414                qsee_ks_decrypt
                0x0000f464                qsee_ks_get_key
                0x0000f4cc                qsee_ks_delete_key
                0x0000f4ec                qsee_ce_pipe_key_select
                0x0000f510                qsee_ce_disable_sequence
                0x0000f530                qsee_ice_set_context_config
                0x0000f554                qsee_hdmi_status_read
                0x0000f574                qsee_get_tz_app_id
                0x0000f594                qsee_blsp_modify_ownership
 .text          0x0000f5b4      0x192 /local/mnt/workspace/CRMBuilds/TZ.BF.4.0.3.c1-00005-M8996AAAAANAZT-1_20170110_230814/b/HK11/trustzone_images/core/securemsm/trustzone/qsapps/libs/applib/qsee/build/secureindicator/scorpion/IADAANAA/tzapp_entrylib.lib(stor.o)
                0x0000f5b4                check_rpmb_handle
                0x0000f5e0                qsee_stor_device_init
                0x0000f5fc                qsee_stor_open_partition
                0x0000f624                qsee_stor_device_get_info
                0x0000f648                qsee_stor_client_get_info
                0x0000f670                qsee_stor_add_partition
                0x0000f690                qsee_stor_read_sectors
                0x0000f6c8                qsee_stor_write_sectors
                0x0000f700                qsee_stor_read_wp_config
                0x0000f710                qsee_stor_write_wp_config
                0x0000f720                qsee_stor_remove_client
 *fill*         0x0000f746        0x2 
 .text          0x0000f748     0x159c /local/mnt/workspace/CRMBuilds/TZ.BF.4.0.3.c1-00005-M8996AAAAANAZT-1_20170110_230814/b/HK11/trustzone_images/core/securemsm/trustzone/qsapps/libs/applib/qsee/build/secureindicator/scorpion/IADAANAA/tzapp_entrylib.lib(stor_gpt.o)
                0x0000f748                add_gpt_device_handle
                0x0000f894                add_gpt_client
                0x0000f998                gpt_dev_init
                0x0000fb84                gpt_qsee_read_sectors
                0x0000fdf0                gpt_qsee_write_sectors
                0x00010054                gpt_add_partitions
                0x000103c4                gpt_config_partitions
                0x00010534                gpt_init
                0x000107b0                gpt_open_partition
                0x00010898                gpt_device_get_info
                0x000109a0                gpt_client_get_info
                0x00010ab0                gpt_add_partition
                0x00010b10                gpt_read_sectors
                0x00010bf0                gpt_write_sectors
 .text          0x00010ce4      0x1da /local/mnt/workspace/CRMBuilds/TZ.BF.4.0.3.c1-00005-M8996AAAAANAZT-1_20170110_230814/b/HK11/trustzone_images/core/securemsm/trustzone/qsapps/libs/applib/qsee/build/secureindicator/scorpion/IADAANAA/tzapp_entrylib.lib(stor_rpmbw.o)
                0x00010ce4                rpmbw_init
                0x00010d10                rpmbw_open_partition
                0x00010d40                rpmbw_device_get_info
                0x00010d70                rpmbw_client_get_info
                0x00010da0                rpmbw_add_partition
                0x00010dcc                rpmbw_read_sectors
                0x00010e04                rpmbw_write_sectors
                0x00010e3c                rpmbw_read_wp_config
                0x00010e68                rpmbw_write_wp_config
                0x00010e94                rpmbw_remove_client
 *fill*         0x00010ebe        0x2 
 .text          0x00010ec0       0x24 /local/mnt/workspace/CRMBuilds/TZ.BF.4.0.3.c1-00005-M8996AAAAANAZT-1_20170110_230814/b/HK11/trustzone_images/core/securemsm/trustzone/qsapps/libs/applib/qsee/build/secureindicator/scorpion/IADAANAA/tzapp_entrylib.lib(qsee_cfg_prop_shim.o)
                0x00010ec0                qsee_cfg_getpropval
 .text          0x00010ee4      0x48c /local/mnt/workspace/CRMBuilds/TZ.BF.4.0.3.c1-00005-M8996AAAAANAZT-1_20170110_230814/b/HK11/trustzone_images/core/securemsm/trustzone/qsapps/libs/applib/qsee/build/secureindicator/scorpion/IADAANAA/tzapp_entrylib.lib(qsee_cipher.o)
                0x00010ee4                qsee_cipher_init
                0x00010f48                qsee_cipher_free_ctx
                0x00010f74                qsee_cipher_set_param
                0x000110b4                qsee_cipher_get_param
                0x000111e4                qsee_cipher_encrypt
                0x00011284                qsee_cipher_decrypt
                0x00011324                qsee_cipher_reset
 .text          0x00011370      0x54c /local/mnt/workspace/CRMBuilds/TZ.BF.4.0.3.c1-00005-M8996AAAAANAZT-1_20170110_230814/b/HK11/trustzone_images/core/securemsm/trustzone/qsapps/libs/applib/qsee/build/secureindicator/scorpion/IADAANAA/tzapp_entrylib.lib(qsee_hash.o)
                0x00011370                qsee_hash_init
                0x000113d0                qsee_hash_free_ctx
                0x000113fc                qsee_hash_update
                0x00011470                qsee_hash_final
                0x000114e4                qsee_hash_set_param
                0x000115f4                qsee_hash
                0x00011668                qsee_hashcipher_encrypt
                0x0001176c                qsee_hashcipher_decrypt
                0x00011870                qsee_hash_reset
 .text          0x000118bc      0x274 /local/mnt/workspace/CRMBuilds/TZ.BF.4.0.3.c1-00005-M8996AAAAANAZT-1_20170110_230814/b/HK11/trustzone_images/core/securemsm/trustzone/qsapps/libs/applib/qsee/build/secureindicator/scorpion/IADAANAA/tzapp_entrylib.lib(qsee_hmac.o)
                0x000118bc                qsee_hmac_init
                0x0001192c                qsee_hmac_free_ctx
                0x00011958                qsee_hmac_update
                0x000119cc                qsee_hmac_final
                0x00011a40                qsee_hmac_set_param
                0x00011ac8                qsee_hmac
 .text          0x00011b30        0x8 /local/mnt/workspace/CRMBuilds/TZ.BF.4.0.3.c1-00005-M8996AAAAANAZT-1_20170110_230814/b/HK11/trustzone_images/core/securemsm/trustzone/qsapps/libs/applib/qsee/build/secureindicator/scorpion/IADAANAA/tzapp_entrylib.lib(gpPersistObjPanic.o)
                0x00011b30                TEE_Panic
                0x00011b34                GPMemoryMgmt_verifyHandle
 .text          0x00011b38       0x94 /local/mnt/workspace/CRMBuilds/TZ.BF.4.0.3.c1-00005-M8996AAAAANAZT-1_20170110_230814/b/HK11/trustzone_images/core/securemsm/trustzone/qsapps/libs/services/build/secureindicator/scorpion/IADAANAA/qsee_services.lib(qsee_kdf.o)
                0x00011b38                qsee_kdf
 .text          0x00011bcc       0x64 /local/mnt/workspace/CRMBuilds/TZ.BF.4.0.3.c1-00005-M8996AAAAANAZT-1_20170110_230814/b/HK11/trustzone_images/core/securemsm/trustzone/qsee/mink/libstd/build/secureindicator/scorpion/IADAANAA/libstd.lib(strlcat.o)
                0x00011bcc                strlcat
 .text          0x00011c30       0x32 /local/mnt/workspace/CRMBuilds/TZ.BF.4.0.3.c1-00005-M8996AAAAANAZT-1_20170110_230814/b/HK11/trustzone_images/core/securemsm/trustzone/qsee/mink/libstd/build/secureindicator/scorpion/IADAANAA/libstd.lib(strlcpy.o)
                0x00011c30                strlcpy
 *fill*         0x00011c62        0x2 
 .text          0x00011c64       0x38 /local/mnt/workspace/CRMBuilds/TZ.BF.4.0.3.c1-00005-M8996AAAAANAZT-1_20170110_230814/b/HK11/trustzone_images/core/securemsm/trustzone/qsee/mink/libstd/build/secureindicator/scorpion/IADAANAA/libstd.lib(timesafe_memcmp.o)
                0x00011c64                timesafe_memcmp
 .text          0x00011c9c       0x46 /local/mnt/workspace/CRMBuilds/TZ.BF.4.0.3.c1-00005-M8996AAAAANAZT-1_20170110_230814/b/HK11/trustzone_images/core/securemsm/trustzone/qsee/mink/libstd/build/secureindicator/scorpion/IADAANAA/libstd.lib(memset.o)
                0x00011c9c                memset
 *fill*         0x00011ce2        0x2 
 .text          0x00011ce4      0x372 /local/mnt/workspace/CRMBuilds/TZ.BF.4.0.3.c1-00005-M8996AAAAANAZT-1_20170110_230814/b/HK11/trustzone_images/core/securemsm/trustzone/qsee/mink/libstd/build/secureindicator/scorpion/IADAANAA/libstd.lib(memcpy.o)
                0x00011ce4                memcpy
 *fill*         0x00012056        0x2 
 .text          0x00012058       0x46 /local/mnt/workspace/CRMBuilds/TZ.BF.4.0.3.c1-00005-M8996AAAAANAZT-1_20170110_230814/b/HK11/trustzone_images/core/securemsm/trustzone/qsee/mink/libstd/build/secureindicator/scorpion/IADAANAA/libstd.lib(strncmp.o)
                0x00012058                strncmp
 *(SORT(tzapp_syscall_asm))
 *fill*         0x0001209e       0x62 
 tzapp_syscall_asm
                0x00012100       0x88 /local/mnt/workspace/CRMBuilds/TZ.BF.4.0.3.c1-00005-M8996AAAAANAZT-1_20170110_230814/b/HK11/trustzone_images/core/securemsm/trustzone/qsapps/libs/applib/qsee/build/secureindicator/scorpion/IADAANAA/tzapp_entrylib.lib(tzapp_syscall.o)
                0x00012100                app_export_init_info_to_qsee
                0x00012138                qsee_wait_default_signal_syscall
                0x00012164                qsee_generic_syscall
 tzapp_syscall_asm.__stub
                0x00012188       0x20 linker stubs
 *(SORT(.rodata))
 *fill*         0x000121a8        0x8 
 .rodata        0x000121b0       0x58 /local/mnt/workspace/CRMBuilds/TZ.BF.4.0.3.c1-00005-M8996AAAAANAZT-1_20170110_230814/b/HK11/trustzone_images/core/securemsm/trustzone/qsapps/libs/applib/qsee/build/secureindicator/scorpion/IADAANAA/tzapp_entrylib.lib(qsee_appmessage.o)
 *fill*         0x00012208        0x8 
 .rodata        0x00012210       0x30 /local/mnt/workspace/CRMBuilds/TZ.BF.4.0.3.c1-00005-M8996AAAAANAZT-1_20170110_230814/b/HK11/trustzone_images/core/securemsm/trustzone/qsapps/libs/applib/qsee/build/secureindicator/scorpion/IADAANAA/tzapp_entrylib.lib(qsee_cipher.o)
 .rodata        0x00012240        0x4 /local/mnt/workspace/CRMBuilds/TZ.BF.4.0.3.c1-00005-M8996AAAAANAZT-1_20170110_230814/b/HK11/trustzone_images/apps/securemsm/trustzone/qsapps/secureindicator/build/secureindicator/scorpion/IADAANAA/metadata.o
                0x00012240                TA_ACCEPT_BUF_SIZE
 .rodata        0x00012244     0x2000 /local/mnt/workspace/CRMBuilds/TZ.BF.4.0.3.c1-00005-M8996AAAAANAZT-1_20170110_230814/b/HK11/trustzone_images/core/securemsm/sse/qsee/SecureDisplay/zlib/build/secureindicator/scorpion/IADAANAA/zlib.lib(crc32.o)
 .rodata        0x00014244        0x4 /local/mnt/workspace/CRMBuilds/TZ.BF.4.0.3.c1-00005-M8996AAAAANAZT-1_20170110_230814/b/HK11/trustzone_images/apps/securemsm/trustzone/qsapps/secureindicator/oem/build/secureindicator/scorpion/IADAANAA/secureindicator_oem.lib(si_oem.o)
                0x00014244                approved_list_len
 .rodata        0x00014248        0xc /local/mnt/workspace/CRMBuilds/TZ.BF.4.0.3.c1-00005-M8996AAAAANAZT-1_20170110_230814/b/HK11/trustzone_images/core/securemsm/trustzone/qsapps/libs/applib/qsee/build/secureindicator/scorpion/IADAANAA/tzapp_entrylib.lib(qsee_hash.o)
 .rodata        0x00014254      0x8a6 /local/mnt/workspace/CRMBuilds/TZ.BF.4.0.3.c1-00005-M8996AAAAANAZT-1_20170110_230814/b/HK11/trustzone_images/core/securemsm/sse/qsee/SecureDisplay/zlib/build/secureindicator/scorpion/IADAANAA/zlib.lib(inflate.o)
 .rodata        0x00014afa      0x12c /local/mnt/workspace/CRMBuilds/TZ.BF.4.0.3.c1-00005-M8996AAAAANAZT-1_20170110_230814/b/HK11/trustzone_images/core/securemsm/sse/qsee/SecureDisplay/zlib/build/secureindicator/scorpion/IADAANAA/zlib.lib(inftrees.o)
                0x00014afa                inflate_copyright
 .rodata        0x00014c26       0x1c /local/mnt/workspace/CRMBuilds/TZ.BF.4.0.3.c1-00005-M8996AAAAANAZT-1_20170110_230814/b/HK11/trustzone_images/core/securemsm/sse/qsee/SecureDisplay/libpng/build/secureindicator/scorpion/IADAANAA/libpng.lib(pngrutil.o)
 .rodata        0x00014c42      0x140 /local/mnt/workspace/CRMBuilds/TZ.BF.4.0.3.c1-00005-M8996AAAAANAZT-1_20170110_230814/b/HK11/trustzone_images/core/securemsm/sse/qsee/SecureDisplay/zlib/build/secureindicator/scorpion/IADAANAA/zlib.lib(zutil.o)
                0x00014c42                z_errmsg
 .rodata        0x00014d82      0x1d0 /local/mnt/workspace/CRMBuilds/TZ.BF.4.0.3.c1-00005-M8996AAAAANAZT-1_20170110_230814/b/HK11/trustzone_images/core/securemsm/trustzone/qsee/mink/libstd/build/secureindicator/scorpion/IADAANAA/libstd.lib(printf.o)
 *(SORT(EXCLUDE_FILE(*\metadata.o) .rodata.*))
 .rodata.str1.1
                0x00014f52      0x11f /local/mnt/workspace/CRMBuilds/TZ.BF.4.0.3.c1-00005-M8996AAAAANAZT-1_20170110_230814/b/HK11/trustzone_images/apps/securemsm/trustzone/qsapps/secureindicator/build/secureindicator/scorpion/IADAANAA/si_main.o
 .rodata.str1.1
                0x00015071      0x78b /local/mnt/workspace/CRMBuilds/TZ.BF.4.0.3.c1-00005-M8996AAAAANAZT-1_20170110_230814/b/HK11/trustzone_images/apps/securemsm/trustzone/qsapps/secureindicator/build/secureindicator/scorpion/IADAANAA/si.o
 .rodata.str1.1
                0x000157fc      0x1b3 /local/mnt/workspace/CRMBuilds/TZ.BF.4.0.3.c1-00005-M8996AAAAANAZT-1_20170110_230814/b/HK11/trustzone_images/core/securemsm/sse/qsee/SecureDisplay/libpng/build/secureindicator/scorpion/IADAANAA/libpng.lib(png.o)
                                0x1ba (size before relaxing)
 .rodata.str1.1
                0x00000000      0x1b3 /local/mnt/workspace/CRMBuilds/TZ.BF.4.0.3.c1-00005-M8996AAAAANAZT-1_20170110_230814/b/HK11/trustzone_images/core/securemsm/sse/qsee/SecureDisplay/libpng/build/secureindicator/scorpion/IADAANAA/libpng.lib(pngerror.o)
                                  0x1 (size before relaxing)
 .rodata.str1.1
                0x000159af       0x15 /local/mnt/workspace/CRMBuilds/TZ.BF.4.0.3.c1-00005-M8996AAAAANAZT-1_20170110_230814/b/HK11/trustzone_images/core/securemsm/sse/qsee/SecureDisplay/libpng/build/secureindicator/scorpion/IADAANAA/libpng.lib(pngrutil.o)
 .rodata.str1.1
                0x000159c4      0x1cd /local/mnt/workspace/CRMBuilds/TZ.BF.4.0.3.c1-00005-M8996AAAAANAZT-1_20170110_230814/b/HK11/trustzone_images/core/securemsm/sse/qsee/SecureDisplay/zlib/build/secureindicator/scorpion/IADAANAA/zlib.lib(inflate.o)
 .rodata.str1.1
                0x00000000        0x6 /local/mnt/workspace/CRMBuilds/TZ.BF.4.0.3.c1-00005-M8996AAAAANAZT-1_20170110_230814/b/HK11/trustzone_images/core/securemsm/sse/qsee/SecureDisplay/zlib/build/secureindicator/scorpion/IADAANAA/zlib.lib(zutil.o)
 .rodata.str1.1
                0x00000000       0x50 /local/mnt/workspace/CRMBuilds/TZ.BF.4.0.3.c1-00005-M8996AAAAANAZT-1_20170110_230814/b/HK11/trustzone_images/core/securemsm/sse/qsee/SecureDisplay/zlib/build/secureindicator/scorpion/IADAANAA/zlib.lib(inffast.o)
 .rodata.str1.1
                0x00015b91        0x9 /local/mnt/workspace/CRMBuilds/TZ.BF.4.0.3.c1-00005-M8996AAAAANAZT-1_20170110_230814/b/HK11/trustzone_images/core/securemsm/trustzone/qsapps/libs/applib/common_applib/build/secureindicator/scorpion/IADAANAA/tzapp_entrylib.lib(common_applib.o)
 .rodata.str1.1
                0x00015b9a       0xc0 /local/mnt/workspace/CRMBuilds/TZ.BF.4.0.3.c1-00005-M8996AAAAANAZT-1_20170110_230814/b/HK11/trustzone_images/core/securemsm/trustzone/qsapps/libs/applib/qsee/build/secureindicator/scorpion/IADAANAA/tzapp_entrylib.lib(sfs_api.o)
 .rodata.str1.1
                0x00015c5a        0xb /local/mnt/workspace/CRMBuilds/TZ.BF.4.0.3.c1-00005-M8996AAAAANAZT-1_20170110_230814/b/HK11/trustzone_images/core/securemsm/trustzone/qsapps/libs/services/build/secureindicator/scorpion/IADAANAA/qsee_services.lib(qsee_log.o)
 .rodata.str1.1
                0x00015c65       0x11 /local/mnt/workspace/CRMBuilds/TZ.BF.4.0.3.c1-00005-M8996AAAAANAZT-1_20170110_230814/b/HK11/trustzone_images/core/securemsm/trustzone/qsee/mink/libstd/build/secureindicator/scorpion/IADAANAA/libstd.lib(printf.o)
 .rodata.cst16  0x00015c76       0x10 /local/mnt/workspace/CRMBuilds/TZ.BF.4.0.3.c1-00005-M8996AAAAANAZT-1_20170110_230814/b/HK11/trustzone_images/core/securemsm/trustzone/qsee/mink/libstd/build/secureindicator/scorpion/IADAANAA/libstd.lib(printf.o)
 .rodata.str1.1
                0x00015c86       0x11 /local/mnt/workspace/CRMBuilds/TZ.BF.4.0.3.c1-00005-M8996AAAAANAZT-1_20170110_230814/b/HK11/trustzone_images/apps/securemsm/trustzone/qsapps/secureindicator/oem/build/secureindicator/scorpion/IADAANAA/secureindicator_oem.lib(si_oem.o)
 .rodata.str1.1
                0x00015c97       0xb1 /local/mnt/workspace/CRMBuilds/TZ.BF.4.0.3.c1-00005-M8996AAAAANAZT-1_20170110_230814/b/HK11/trustzone_images/core/securemsm/trustzone/qsapps/libs/applib/common_applib/build/secureindicator/scorpion/IADAANAA/tzapp_entrylib.lib(gpPersistObjCommon.o)
                                 0xcb (size before relaxing)
 .rodata.str1.1
                0x00015d48      0x172 /local/mnt/workspace/CRMBuilds/TZ.BF.4.0.3.c1-00005-M8996AAAAANAZT-1_20170110_230814/b/HK11/trustzone_images/core/securemsm/trustzone/qsapps/libs/applib/common_applib/build/secureindicator/scorpion/IADAANAA/tzapp_entrylib.lib(gpPersistentObjects.o)
                                0x18a (size before relaxing)
 .rodata.str1.1
                0x00015eba      0x31c /local/mnt/workspace/CRMBuilds/TZ.BF.4.0.3.c1-00005-M8996AAAAANAZT-1_20170110_230814/b/HK11/trustzone_images/core/securemsm/trustzone/qsapps/libs/applib/common_applib/build/secureindicator/scorpion/IADAANAA/tzapp_entrylib.lib(gpPersistObjData.o)
                                0x334 (size before relaxing)
 .rodata.str1.1
                0x000161d6       0xcc /local/mnt/workspace/CRMBuilds/TZ.BF.4.0.3.c1-00005-M8996AAAAANAZT-1_20170110_230814/b/HK11/trustzone_images/core/securemsm/trustzone/qsapps/libs/applib/common_applib/build/secureindicator/scorpion/IADAANAA/tzapp_entrylib.lib(gpPersistObjHandler.o)
                                 0xe4 (size before relaxing)
 .rodata.str1.1
                0x000162a2      0x182 /local/mnt/workspace/CRMBuilds/TZ.BF.4.0.3.c1-00005-M8996AAAAANAZT-1_20170110_230814/b/HK11/trustzone_images/core/securemsm/trustzone/qsapps/libs/applib/common_applib/build/secureindicator/scorpion/IADAANAA/tzapp_entrylib.lib(gpPersistObjIndex.o)
                                0x19f (size before relaxing)
 .rodata.str1.1
                0x00016424      0x1e5 /local/mnt/workspace/CRMBuilds/TZ.BF.4.0.3.c1-00005-M8996AAAAANAZT-1_20170110_230814/b/HK11/trustzone_images/core/securemsm/trustzone/qsapps/libs/applib/common_applib/build/secureindicator/scorpion/IADAANAA/tzapp_entrylib.lib(gpPersistObjVersion.o)
                                0x202 (size before relaxing)
 .rodata.str1.1
                0x00016609      0x163 /local/mnt/workspace/CRMBuilds/TZ.BF.4.0.3.c1-00005-M8996AAAAANAZT-1_20170110_230814/b/HK11/trustzone_images/core/securemsm/trustzone/qsapps/libs/applib/common_applib/build/secureindicator/scorpion/IADAANAA/tzapp_entrylib.lib(gpPersistObjCrypto.o)
                                0x17b (size before relaxing)
 .rodata.str1.1
                0x0001676c       0x9a /local/mnt/workspace/CRMBuilds/TZ.BF.4.0.3.c1-00005-M8996AAAAANAZT-1_20170110_230814/b/HK11/trustzone_images/core/securemsm/trustzone/qsapps/libs/applib/common_applib/build/secureindicator/scorpion/IADAANAA/tzapp_entrylib.lib(gpPersistObjFileIO.o)
                                 0xb2 (size before relaxing)
 .rodata.str1.1
                0x00016806       0x31 /local/mnt/workspace/CRMBuilds/TZ.BF.4.0.3.c1-00005-M8996AAAAANAZT-1_20170110_230814/b/HK11/trustzone_images/core/securemsm/trustzone/qsapps/libs/applib/common_applib/build/secureindicator/scorpion/IADAANAA/tzapp_entrylib.lib(gpFileService.o)
                                 0x49 (size before relaxing)
 .rodata.str1.1
                0x00000000        0x1 /local/mnt/workspace/CRMBuilds/TZ.BF.4.0.3.c1-00005-M8996AAAAANAZT-1_20170110_230814/b/HK11/trustzone_images/core/securemsm/trustzone/qsapps/libs/applib/qsee/build/secureindicator/scorpion/IADAANAA/tzapp_entrylib.lib(qsee_core_shim.o)
 *metadata.o(SORT(.rodata.str1.1))
 .rodata.str1.1
                0x00016837       0x10 /local/mnt/workspace/CRMBuilds/TZ.BF.4.0.3.c1-00005-M8996AAAAANAZT-1_20170110_230814/b/HK11/trustzone_images/apps/securemsm/trustzone/qsapps/secureindicator/build/secureindicator/scorpion/IADAANAA/metadata.o

.glue_7         0x00016848        0x0
 .glue_7        0x00000000        0x0 linker stubs

.glue_7t        0x00016848        0x0
 .glue_7t       0x00000000        0x0 linker stubs

.vfp11_veneer   0x00016848        0x0
 .vfp11_veneer  0x00000000        0x0 linker stubs

.v4_bx          0x00016848        0x0
 .v4_bx         0x00000000        0x0 linker stubs

.dynbss         0x00016847        0x0
 .dynbss        0x00000000        0x0 /local/mnt/workspace/CRMBuilds/TZ.BF.4.0.3.c1-00005-M8996AAAAANAZT-1_20170110_230814/b/HK11/trustzone_images/core/securemsm/trustzone/qsapps/libs/applib/qsee/build/secureindicator/scorpion/IADAANAA/src/tzapp_entry.o

.plt            0x00016848        0x0
 .plt           0x00000000        0x0 /local/mnt/workspace/CRMBuilds/TZ.BF.4.0.3.c1-00005-M8996AAAAANAZT-1_20170110_230814/b/HK11/trustzone_images/core/securemsm/trustzone/qsapps/libs/applib/qsee/build/secureindicator/scorpion/IADAANAA/src/tzapp_entry.o

.iplt           0x00016848        0x0
 .iplt          0x00000000        0x0 /local/mnt/workspace/CRMBuilds/TZ.BF.4.0.3.c1-00005-M8996AAAAANAZT-1_20170110_230814/b/HK11/trustzone_images/core/securemsm/trustzone/qsapps/libs/applib/qsee/build/secureindicator/scorpion/IADAANAA/src/tzapp_entry.o

.sentinel       0x00016847       0x31
 *(SORT(.rodata.sentinel))
 .rodata.sentinel
                0x00016847       0x31 /local/mnt/workspace/CRMBuilds/TZ.BF.4.0.3.c1-00005-M8996AAAAANAZT-1_20170110_230814/b/HK11/trustzone_images/apps/securemsm/trustzone/qsapps/secureindicator/build/secureindicator/scorpion/IADAANAA/metadata.o
                0x00016847                TA_METADATA
                0x00000001                ASSERT ((SIZEOF (.sentinel) != 0x0), No sentinel section defined.)

.metadata_check
                0x00016878        0x0
 *metadata.o(SORT(.rodata.*))
                0x00000001                ASSERT ((SIZEOF (.metadata_check) == 0x0), New metadata not accounted for here)

.data           0x00017000     0x62d8
 *(SORT(.data) SORT(TZAPPENTRYSTACK) SORT(.bss) SORT(COMMON))
 TZAPPENTRYSTACK
                0x00017000       0x80 /local/mnt/workspace/CRMBuilds/TZ.BF.4.0.3.c1-00005-M8996AAAAANAZT-1_20170110_230814/b/HK11/trustzone_images/core/securemsm/trustzone/qsapps/libs/applib/qsee/build/secureindicator/scorpion/IADAANAA/src/tzapp_entry.o
 .data          0x00017080      0x240 /local/mnt/workspace/CRMBuilds/TZ.BF.4.0.3.c1-00005-M8996AAAAANAZT-1_20170110_230814/b/HK11/trustzone_images/core/securemsm/trustzone/qsapps/libs/applib/common_applib/build/secureindicator/scorpion/IADAANAA/tzapp_entrylib.lib(common_applib.o)
                0x00017080                magic_num
                0x00017094                magic_num_index_array
                0x000170a0                mem_magic_number
                0x000170ac                __stack_chk_guard
 .bss           0x000172c0       0x88 /local/mnt/workspace/CRMBuilds/TZ.BF.4.0.3.c1-00005-M8996AAAAANAZT-1_20170110_230814/b/HK11/trustzone_images/core/securemsm/trustzone/qsapps/libs/applib/common_applib/build/secureindicator/scorpion/IADAANAA/tzapp_entrylib.lib(common_applib.o)
                0x000172c0                pgCmnlib
 *fill*         0x00017348        0x8 
 .bss           0x00017350      0x140 /local/mnt/workspace/CRMBuilds/TZ.BF.4.0.3.c1-00005-M8996AAAAANAZT-1_20170110_230814/b/HK11/trustzone_images/core/securemsm/trustzone/qsapps/libs/applib/qsee/build/secureindicator/scorpion/IADAANAA/tzapp_entrylib.lib(qsee_env.o)
 .bss           0x00017490     0x1044 /local/mnt/workspace/CRMBuilds/TZ.BF.4.0.3.c1-00005-M8996AAAAANAZT-1_20170110_230814/b/HK11/trustzone_images/core/securemsm/trustzone/qsapps/libs/applib/common_applib/build/secureindicator/scorpion/IADAANAA/tzapp_entrylib.lib(gpPersistObjData.o)
 *fill*         0x000184d4        0xc 
 .bss           0x000184e0      0x488 /local/mnt/workspace/CRMBuilds/TZ.BF.4.0.3.c1-00005-M8996AAAAANAZT-1_20170110_230814/b/HK11/trustzone_images/core/securemsm/trustzone/qsapps/libs/applib/common_applib/build/secureindicator/scorpion/IADAANAA/tzapp_entrylib.lib(gpPersistObjVersion.o)
 *fill*         0x00018968        0x8 
 .bss           0x00018970       0x50 /local/mnt/workspace/CRMBuilds/TZ.BF.4.0.3.c1-00005-M8996AAAAANAZT-1_20170110_230814/b/HK11/trustzone_images/core/securemsm/trustzone/qsapps/libs/applib/common_applib/build/secureindicator/scorpion/IADAANAA/tzapp_entrylib.lib(gpPersistObjCrypto.o)
 .bss           0x000189c0      0x724 /local/mnt/workspace/CRMBuilds/TZ.BF.4.0.3.c1-00005-M8996AAAAANAZT-1_20170110_230814/b/HK11/trustzone_images/core/securemsm/trustzone/qsapps/libs/applib/qsee/build/secureindicator/scorpion/IADAANAA/tzapp_entrylib.lib(stor_gpt.o)
 .data          0x000190e4       0x15 /local/mnt/workspace/CRMBuilds/TZ.BF.4.0.3.c1-00005-M8996AAAAANAZT-1_20170110_230814/b/HK11/trustzone_images/apps/securemsm/trustzone/qsapps/secureindicator/build/secureindicator/scorpion/IADAANAA/si.o
 *fill*         0x000190f9        0x3 
 .bss           0x000190fc     0x1000 /local/mnt/workspace/CRMBuilds/TZ.BF.4.0.3.c1-00005-M8996AAAAANAZT-1_20170110_230814/b/HK11/trustzone_images/apps/securemsm/trustzone/qsapps/secureindicator/build/secureindicator/scorpion/IADAANAA/metadata.o
                0x000190fc                ta_acceptBuf
 COMMON         0x0001a0fc       0x14 /local/mnt/workspace/CRMBuilds/TZ.BF.4.0.3.c1-00005-M8996AAAAANAZT-1_20170110_230814/b/HK11/trustzone_images/core/securemsm/trustzone/qsapps/libs/applib/common_applib/build/secureindicator/scorpion/IADAANAA/tzapp_entrylib.lib(common_applib.o)
                0x0001a0fc                apps_request_resp
 .bss           0x0001a110        0x4 /local/mnt/workspace/CRMBuilds/TZ.BF.4.0.3.c1-00005-M8996AAAAANAZT-1_20170110_230814/b/HK11/trustzone_images/core/securemsm/trustzone/qsapps/libs/applib/qsee/build/secureindicator/scorpion/IADAANAA/tzapp_entrylib.lib(sfs_api.o)
 .bss           0x0001a114       0x81 /local/mnt/workspace/CRMBuilds/TZ.BF.4.0.3.c1-00005-M8996AAAAANAZT-1_20170110_230814/b/HK11/trustzone_images/core/securemsm/trustzone/qsapps/libs/applib/common_applib/build/secureindicator/scorpion/IADAANAA/tzapp_entrylib.lib(gpPersistObjCommon.o)
 *fill*         0x0001a195        0x3 
 .data          0x0001a198     0x1110 /local/mnt/workspace/CRMBuilds/TZ.BF.4.0.3.c1-00005-M8996AAAAANAZT-1_20170110_230814/b/HK11/trustzone_images/core/securemsm/trustzone/qsapps/libs/applib/common_applib/build/secureindicator/scorpion/IADAANAA/tzapp_entrylib.lib(gpPersistObjHandler.o)
 .bss           0x0001b2a8        0x4 /local/mnt/workspace/CRMBuilds/TZ.BF.4.0.3.c1-00005-M8996AAAAANAZT-1_20170110_230814/b/HK11/trustzone_images/core/securemsm/trustzone/qsapps/libs/applib/common_applib/build/secureindicator/scorpion/IADAANAA/tzapp_entrylib.lib(gpPersistObjHandler.o)
 .bss           0x0001b2ac     0x2024 /local/mnt/workspace/CRMBuilds/TZ.BF.4.0.3.c1-00005-M8996AAAAANAZT-1_20170110_230814/b/HK11/trustzone_images/core/securemsm/trustzone/qsapps/libs/applib/common_applib/build/secureindicator/scorpion/IADAANAA/tzapp_entrylib.lib(gpPersistObjIndex.o)
 .data          0x0001d2d0        0x1 /local/mnt/workspace/CRMBuilds/TZ.BF.4.0.3.c1-00005-M8996AAAAANAZT-1_20170110_230814/b/HK11/trustzone_images/core/securemsm/trustzone/qsapps/libs/applib/common_applib/build/secureindicator/scorpion/IADAANAA/tzapp_entrylib.lib(gpPersistObjVersion.o)
 *fill*         0x0001d2d1        0x3 
 .data          0x0001d2d4        0x4 /local/mnt/workspace/CRMBuilds/TZ.BF.4.0.3.c1-00005-M8996AAAAANAZT-1_20170110_230814/b/HK11/trustzone_images/core/securemsm/trustzone/qsapps/libs/applib/qsee/build/secureindicator/scorpion/IADAANAA/tzapp_entrylib.lib(stor_gpt.o)

.rel.text
 *(SORT(.rel.text))

.rel.rodata
 *(SORT(.rel.rodata))

.data.rel.ro.local
                0x0001d2d8       0x88
 *(SORT(.data.rel.ro.local))
 .data.rel.ro.local
                0x0001d2d8       0x88 /local/mnt/workspace/CRMBuilds/TZ.BF.4.0.3.c1-00005-M8996AAAAANAZT-1_20170110_230814/b/HK11/trustzone_images/core/securemsm/trustzone/qsee/mink/libstd/build/secureindicator/scorpion/IADAANAA/libstd.lib(printf.o)

.data.rel.ro
 *(SORT(.data.rel.ro))

.rel.data
 *(SORT(.rel.data))

.rel.plt        0x0001d360        0x0
 *(SORT(.rel.plt))
 .rel.plt       0x00000000        0x0 /local/mnt/workspace/CRMBuilds/TZ.BF.4.0.3.c1-00005-M8996AAAAANAZT-1_20170110_230814/b/HK11/trustzone_images/core/securemsm/trustzone/qsapps/libs/applib/qsee/build/secureindicator/scorpion/IADAANAA/src/tzapp_entry.o

.gnu.version_d  0x0001d360        0x0
 .gnu.version_d
                0x00000000        0x0 /local/mnt/workspace/CRMBuilds/TZ.BF.4.0.3.c1-00005-M8996AAAAANAZT-1_20170110_230814/b/HK11/trustzone_images/core/securemsm/trustzone/qsapps/libs/applib/qsee/build/secureindicator/scorpion/IADAANAA/src/tzapp_entry.o

.gnu.version    0x0001d360        0x0
 .gnu.version   0x00000000        0x0 /local/mnt/workspace/CRMBuilds/TZ.BF.4.0.3.c1-00005-M8996AAAAANAZT-1_20170110_230814/b/HK11/trustzone_images/core/securemsm/trustzone/qsapps/libs/applib/qsee/build/secureindicator/scorpion/IADAANAA/src/tzapp_entry.o

.gnu.version_r  0x0001d360        0x0
 .gnu.version_r
                0x00000000        0x0 /local/mnt/workspace/CRMBuilds/TZ.BF.4.0.3.c1-00005-M8996AAAAANAZT-1_20170110_230814/b/HK11/trustzone_images/core/securemsm/trustzone/qsapps/libs/applib/qsee/build/secureindicator/scorpion/IADAANAA/src/tzapp_entry.o

.data.rel       0x0001d360       0x50
 *(SORT(.data.rel))
 .data.rel      0x0001d360       0x50 /local/mnt/workspace/CRMBuilds/TZ.BF.4.0.3.c1-00005-M8996AAAAANAZT-1_20170110_230814/b/HK11/trustzone_images/apps/securemsm/trustzone/qsapps/secureindicator/build/secureindicator/scorpion/IADAANAA/si.o
                0x0001d360                g_si_function

.data.rel.local
                0x0001d3b0        0xc
 *(SORT(.data.rel.local))
 .data.rel.local
                0x0001d3b0        0x4 /local/mnt/workspace/CRMBuilds/TZ.BF.4.0.3.c1-00005-M8996AAAAANAZT-1_20170110_230814/b/HK11/trustzone_images/apps/securemsm/trustzone/qsapps/secureindicator/build/secureindicator/scorpion/IADAANAA/metadata.o
                0x0001d3b0                TA_APP_NAME
 .data.rel.local
                0x0001d3b4        0x4 /local/mnt/workspace/CRMBuilds/TZ.BF.4.0.3.c1-00005-M8996AAAAANAZT-1_20170110_230814/b/HK11/trustzone_images/core/securemsm/trustzone/qsapps/libs/applib/common_applib/build/secureindicator/scorpion/IADAANAA/tzapp_entrylib.lib(common_applib.o)
                0x0001d3b4                dummy_str
 .data.rel.local
                0x0001d3b8        0x4 /local/mnt/workspace/CRMBuilds/TZ.BF.4.0.3.c1-00005-M8996AAAAANAZT-1_20170110_230814/b/HK11/trustzone_images/apps/securemsm/trustzone/qsapps/secureindicator/oem/build/secureindicator/scorpion/IADAANAA/secureindicator_oem.lib(si_oem.o)
                0x0001d3b8                APPROVED_APPS

TZ_APP_STACK    0x0001d3bc     0x8000
                0x0001d3bc                Image$$TZ_APP_STACK$$ZI$$Base = .
                0x000253bc                . = (. + 0x8000)
 *fill*         0x0001d3bc     0x8000 
                0x000253bc                Image$$TZ_APP_STACK$$ZI$$Limit = .

TZ_APP_HEAP     0x000253bc   0x100000
                0x000253bc                Image$$TZ_APP_HEAP$$ZI$$Base = .
                0x001253bc                . = (. + 0x100000)
 *fill*         0x000253bc   0x100000 
                0x001253bc                Image$$TZ_APP_HEAP$$ZI$$Limit = .

.got            0x00126000       0x94
 *(SORT(.got.plt))
 .got.plt       0x00126000        0xc /local/mnt/workspace/CRMBuilds/TZ.BF.4.0.3.c1-00005-M8996AAAAANAZT-1_20170110_230814/b/HK11/trustzone_images/core/securemsm/trustzone/qsapps/libs/applib/qsee/build/secureindicator/scorpion/IADAANAA/src/tzapp_entry.o
                0x00126000                _GLOBAL_OFFSET_TABLE_
 *(SORT(.igot.plt))
 .igot.plt      0x00000000        0x0 /local/mnt/workspace/CRMBuilds/TZ.BF.4.0.3.c1-00005-M8996AAAAANAZT-1_20170110_230814/b/HK11/trustzone_images/core/securemsm/trustzone/qsapps/libs/applib/qsee/build/secureindicator/scorpion/IADAANAA/src/tzapp_entry.o
 *(SORT(.got))
 .got           0x0012600c       0x88 /local/mnt/workspace/CRMBuilds/TZ.BF.4.0.3.c1-00005-M8996AAAAANAZT-1_20170110_230814/b/HK11/trustzone_images/core/securemsm/trustzone/qsapps/libs/applib/qsee/build/secureindicator/scorpion/IADAANAA/src/tzapp_entry.o
 *(SORT(.igot))

.dynamic        0x00127000       0x58
 *(SORT(.dynamic))
 .dynamic       0x00127000       0x58 /local/mnt/workspace/CRMBuilds/TZ.BF.4.0.3.c1-00005-M8996AAAAANAZT-1_20170110_230814/b/HK11/trustzone_images/core/securemsm/trustzone/qsapps/libs/applib/qsee/build/secureindicator/scorpion/IADAANAA/src/tzapp_entry.o
                0x00127000                _DYNAMIC

.rel.dyn        0x00128000      0x160
 *(SORT(.rel.dyn))
 .rel.got       0x00128000      0x110 /local/mnt/workspace/CRMBuilds/TZ.BF.4.0.3.c1-00005-M8996AAAAANAZT-1_20170110_230814/b/HK11/trustzone_images/core/securemsm/trustzone/qsapps/libs/applib/qsee/build/secureindicator/scorpion/IADAANAA/src/tzapp_entry.o
 .rel.iplt      0x00000000        0x0 /local/mnt/workspace/CRMBuilds/TZ.BF.4.0.3.c1-00005-M8996AAAAANAZT-1_20170110_230814/b/HK11/trustzone_images/core/securemsm/trustzone/qsapps/libs/applib/qsee/build/secureindicator/scorpion/IADAANAA/src/tzapp_entry.o
 .relTZAPPENTRYCODE
                0x00128110        0x8 /local/mnt/workspace/CRMBuilds/TZ.BF.4.0.3.c1-00005-M8996AAAAANAZT-1_20170110_230814/b/HK11/trustzone_images/core/securemsm/trustzone/qsapps/libs/applib/qsee/build/secureindicator/scorpion/IADAANAA/src/tzapp_entry.o
 .rel.data.rel  0x00128118       0x28 /local/mnt/workspace/CRMBuilds/TZ.BF.4.0.3.c1-00005-M8996AAAAANAZT-1_20170110_230814/b/HK11/trustzone_images/core/securemsm/trustzone/qsapps/libs/applib/qsee/build/secureindicator/scorpion/IADAANAA/src/tzapp_entry.o
 .rel.data.rel.local
                0x00128140       0x18 /local/mnt/workspace/CRMBuilds/TZ.BF.4.0.3.c1-00005-M8996AAAAANAZT-1_20170110_230814/b/HK11/trustzone_images/core/securemsm/trustzone/qsapps/libs/applib/qsee/build/secureindicator/scorpion/IADAANAA/src/tzapp_entry.o
 .rel.data.rel.ro.local
                0x00128158        0x8 /local/mnt/workspace/CRMBuilds/TZ.BF.4.0.3.c1-00005-M8996AAAAANAZT-1_20170110_230814/b/HK11/trustzone_images/core/securemsm/trustzone/qsapps/libs/applib/qsee/build/secureindicator/scorpion/IADAANAA/src/tzapp_entry.o

.gnu.attributes
 *(SORT(.gnu.attributes))

.note.gnu.arm.ident
 *(SORT(.note.gnu.arm.ident))

/DISCARD/
 *(SORT(.hash))
 *(SORT(.dynsym))
 *(SORT(.dynstr))
 *(SORT(.ARM.exidx*))
 *(SORT(.note.GNU-stack))
 *(SORT(.gnu_debuglink))
 *(SORT(.gnu.lto_*))
 *(SORT(.init))
 *(SORT(.fini))
START GROUP
LOAD /local/mnt/workspace/CRMBuilds/TZ.BF.4.0.3.c1-00005-M8996AAAAANAZT-1_20170110_230814/b/HK11/trustzone_images/core/securemsm/sse/qsee/SecureDisplay/libpng/build/secureindicator/scorpion/IADAANAA/libpng.lib
LOAD /local/mnt/workspace/CRMBuilds/TZ.BF.4.0.3.c1-00005-M8996AAAAANAZT-1_20170110_230814/b/HK11/trustzone_images/core/securemsm/sse/qsee/SecureDisplay/zlib/build/secureindicator/scorpion/IADAANAA/zlib.lib
LOAD /local/mnt/workspace/CRMBuilds/TZ.BF.4.0.3.c1-00005-M8996AAAAANAZT-1_20170110_230814/b/HK11/trustzone_images/core/securemsm/trustzone/qsapps/libs/applib/common_applib/build/secureindicator/scorpion/IADAANAA/tzapp_entrylib.lib
LOAD /local/mnt/workspace/CRMBuilds/TZ.BF.4.0.3.c1-00005-M8996AAAAANAZT-1_20170110_230814/b/HK11/trustzone_images/core/securemsm/trustzone/qsapps/libs/applib/qsee/build/secureindicator/scorpion/IADAANAA/tzapp_entrylib.lib
LOAD /local/mnt/workspace/CRMBuilds/TZ.BF.4.0.3.c1-00005-M8996AAAAANAZT-1_20170110_230814/b/HK11/trustzone_images/core/securemsm/trustzone/qsapps/libs/services/build/secureindicator/scorpion/IADAANAA/qsee_services.lib
LOAD /local/mnt/workspace/CRMBuilds/TZ.BF.4.0.3.c1-00005-M8996AAAAANAZT-1_20170110_230814/b/HK11/trustzone_images/core/securemsm/trustzone/qsee/mink/libstd/build/secureindicator/scorpion/IADAANAA/libstd.lib
LOAD /afs/localcell/cm/gv2.6/sysname/pkg.@sys/qct/software/llvm/release/arm/3.5.2.4/tools/lib32/lib/libc.a
LOAD /afs/localcell/cm/gv2.6/sysname/pkg.@sys/qct/software/llvm/release/arm/3.5.2.4/lib/clang/3.5.2/lib/linux/libclang_rt.builtins-arm.a
LOAD /local/mnt/workspace/CRMBuilds/TZ.BF.4.0.3.c1-00005-M8996AAAAANAZT-1_20170110_230814/b/HK11/trustzone_images/apps/securemsm/trustzone/qsapps/secureindicator/oem/build/secureindicator/scorpion/IADAANAA/secureindicator_oem.lib
LOAD /local/mnt/workspace/CRMBuilds/TZ.BF.4.0.3.c1-00005-M8996AAAAANAZT-1_20170110_230814/b/HK11/trustzone_images/core/securemsm/trustzone/qsapps/libs/applib/qsee/build/secureindicator/scorpion/IADAANAA/src/tzapp_entry.o
LOAD /local/mnt/workspace/CRMBuilds/TZ.BF.4.0.3.c1-00005-M8996AAAAANAZT-1_20170110_230814/b/HK11/trustzone_images/apps/securemsm/trustzone/qsapps/secureindicator/build/secureindicator/scorpion/IADAANAA/si_main.o
LOAD /local/mnt/workspace/CRMBuilds/TZ.BF.4.0.3.c1-00005-M8996AAAAANAZT-1_20170110_230814/b/HK11/trustzone_images/apps/securemsm/trustzone/qsapps/secureindicator/build/secureindicator/scorpion/IADAANAA/si.o
LOAD /local/mnt/workspace/CRMBuilds/TZ.BF.4.0.3.c1-00005-M8996AAAAANAZT-1_20170110_230814/b/HK11/trustzone_images/apps/securemsm/trustzone/qsapps/secureindicator/build/secureindicator/scorpion/IADAANAA/metadata.o
END GROUP
OUTPUT(/local/mnt/workspace/CRMBuilds/TZ.BF.4.0.3.c1-00005-M8996AAAAANAZT-1_20170110_230814/b/HK11/trustzone_images/apps/bsp/trustzone/qsapps/secureindicator/build/IADAANAA/secureindicator.elf elf32-littlearm)

.ARM.attributes
                0x00000000       0x3d
 .ARM.attributes
                0x00000000       0x37 /local/mnt/workspace/CRMBuilds/TZ.BF.4.0.3.c1-00005-M8996AAAAANAZT-1_20170110_230814/b/HK11/trustzone_images/apps/securemsm/trustzone/qsapps/secureindicator/build/secureindicator/scorpion/IADAANAA/si_main.o
 .ARM.attributes
                0x00000037       0x37 /local/mnt/workspace/CRMBuilds/TZ.BF.4.0.3.c1-00005-M8996AAAAANAZT-1_20170110_230814/b/HK11/trustzone_images/apps/securemsm/trustzone/qsapps/secureindicator/build/secureindicator/scorpion/IADAANAA/si.o
 .ARM.attributes
                0x0000006e       0x37 /local/mnt/workspace/CRMBuilds/TZ.BF.4.0.3.c1-00005-M8996AAAAANAZT-1_20170110_230814/b/HK11/trustzone_images/apps/securemsm/trustzone/qsapps/secureindicator/build/secureindicator/scorpion/IADAANAA/metadata.o
 .ARM.attributes
                0x000000a5       0x37 /local/mnt/workspace/CRMBuilds/TZ.BF.4.0.3.c1-00005-M8996AAAAANAZT-1_20170110_230814/b/HK11/trustzone_images/core/securemsm/sse/qsee/SecureDisplay/libpng/build/secureindicator/scorpion/IADAANAA/libpng.lib(png.o)
 .ARM.attributes
                0x000000dc       0x37 /local/mnt/workspace/CRMBuilds/TZ.BF.4.0.3.c1-00005-M8996AAAAANAZT-1_20170110_230814/b/HK11/trustzone_images/core/securemsm/sse/qsee/SecureDisplay/libpng/build/secureindicator/scorpion/IADAANAA/libpng.lib(pngerror.o)
 .ARM.attributes
                0x00000113       0x37 /local/mnt/workspace/CRMBuilds/TZ.BF.4.0.3.c1-00005-M8996AAAAANAZT-1_20170110_230814/b/HK11/trustzone_images/core/securemsm/sse/qsee/SecureDisplay/libpng/build/secureindicator/scorpion/IADAANAA/libpng.lib(pngget.o)
 .ARM.attributes
                0x0000014a       0x37 /local/mnt/workspace/CRMBuilds/TZ.BF.4.0.3.c1-00005-M8996AAAAANAZT-1_20170110_230814/b/HK11/trustzone_images/core/securemsm/sse/qsee/SecureDisplay/libpng/build/secureindicator/scorpion/IADAANAA/libpng.lib(pngmem.o)
 .ARM.attributes
                0x00000181       0x37 /local/mnt/workspace/CRMBuilds/TZ.BF.4.0.3.c1-00005-M8996AAAAANAZT-1_20170110_230814/b/HK11/trustzone_images/core/securemsm/sse/qsee/SecureDisplay/libpng/build/secureindicator/scorpion/IADAANAA/libpng.lib(pngread.o)
 .ARM.attributes
                0x000001b8       0x37 /local/mnt/workspace/CRMBuilds/TZ.BF.4.0.3.c1-00005-M8996AAAAANAZT-1_20170110_230814/b/HK11/trustzone_images/core/securemsm/sse/qsee/SecureDisplay/libpng/build/secureindicator/scorpion/IADAANAA/libpng.lib(pngrio.o)
 .ARM.attributes
                0x000001ef       0x37 /local/mnt/workspace/CRMBuilds/TZ.BF.4.0.3.c1-00005-M8996AAAAANAZT-1_20170110_230814/b/HK11/trustzone_images/core/securemsm/sse/qsee/SecureDisplay/libpng/build/secureindicator/scorpion/IADAANAA/libpng.lib(pngrutil.o)
 .ARM.attributes
                0x00000226       0x37 /local/mnt/workspace/CRMBuilds/TZ.BF.4.0.3.c1-00005-M8996AAAAANAZT-1_20170110_230814/b/HK11/trustzone_images/core/securemsm/sse/qsee/SecureDisplay/libpng/build/secureindicator/scorpion/IADAANAA/libpng.lib(pngset.o)
 .ARM.attributes
                0x0000025d       0x37 /local/mnt/workspace/CRMBuilds/TZ.BF.4.0.3.c1-00005-M8996AAAAANAZT-1_20170110_230814/b/HK11/trustzone_images/core/securemsm/sse/qsee/SecureDisplay/zlib/build/secureindicator/scorpion/IADAANAA/zlib.lib(crc32.o)
 .ARM.attributes
                0x00000294       0x37 /local/mnt/workspace/CRMBuilds/TZ.BF.4.0.3.c1-00005-M8996AAAAANAZT-1_20170110_230814/b/HK11/trustzone_images/core/securemsm/sse/qsee/SecureDisplay/zlib/build/secureindicator/scorpion/IADAANAA/zlib.lib(inflate.o)
 .ARM.attributes
                0x000002cb       0x37 /local/mnt/workspace/CRMBuilds/TZ.BF.4.0.3.c1-00005-M8996AAAAANAZT-1_20170110_230814/b/HK11/trustzone_images/core/securemsm/sse/qsee/SecureDisplay/zlib/build/secureindicator/scorpion/IADAANAA/zlib.lib(inftrees.o)
 .ARM.attributes
                0x00000302       0x37 /local/mnt/workspace/CRMBuilds/TZ.BF.4.0.3.c1-00005-M8996AAAAANAZT-1_20170110_230814/b/HK11/trustzone_images/core/securemsm/sse/qsee/SecureDisplay/zlib/build/secureindicator/scorpion/IADAANAA/zlib.lib(zutil.o)
 .ARM.attributes
                0x00000339       0x37 /local/mnt/workspace/CRMBuilds/TZ.BF.4.0.3.c1-00005-M8996AAAAANAZT-1_20170110_230814/b/HK11/trustzone_images/core/securemsm/sse/qsee/SecureDisplay/zlib/build/secureindicator/scorpion/IADAANAA/zlib.lib(adler32.o)
 .ARM.attributes
                0x00000370       0x37 /local/mnt/workspace/CRMBuilds/TZ.BF.4.0.3.c1-00005-M8996AAAAANAZT-1_20170110_230814/b/HK11/trustzone_images/core/securemsm/sse/qsee/SecureDisplay/zlib/build/secureindicator/scorpion/IADAANAA/zlib.lib(inffast.o)
 .ARM.attributes
                0x000003a7       0x37 /local/mnt/workspace/CRMBuilds/TZ.BF.4.0.3.c1-00005-M8996AAAAANAZT-1_20170110_230814/b/HK11/trustzone_images/core/securemsm/trustzone/qsapps/libs/applib/common_applib/build/secureindicator/scorpion/IADAANAA/tzapp_entrylib.lib(common_applib.o)
 .ARM.attributes
                0x000003de       0x37 /local/mnt/workspace/CRMBuilds/TZ.BF.4.0.3.c1-00005-M8996AAAAANAZT-1_20170110_230814/b/HK11/trustzone_images/core/securemsm/trustzone/qsapps/libs/applib/qsee/build/secureindicator/scorpion/IADAANAA/tzapp_entrylib.lib(mink_shared_code.o)
 .ARM.attributes
                0x00000415       0x37 /local/mnt/workspace/CRMBuilds/TZ.BF.4.0.3.c1-00005-M8996AAAAANAZT-1_20170110_230814/b/HK11/trustzone_images/core/securemsm/trustzone/qsapps/libs/applib/qsee/build/secureindicator/scorpion/IADAANAA/tzapp_entrylib.lib(qsee_env.o)
 .ARM.attributes
                0x0000044c       0x37 /local/mnt/workspace/CRMBuilds/TZ.BF.4.0.3.c1-00005-M8996AAAAANAZT-1_20170110_230814/b/HK11/trustzone_images/core/securemsm/trustzone/qsapps/libs/applib/qsee/build/secureindicator/scorpion/IADAANAA/tzapp_entrylib.lib(qsee_prng.o)
 .ARM.attributes
                0x00000483       0x37 /local/mnt/workspace/CRMBuilds/TZ.BF.4.0.3.c1-00005-M8996AAAAANAZT-1_20170110_230814/b/HK11/trustzone_images/core/securemsm/trustzone/qsapps/libs/applib/qsee/build/secureindicator/scorpion/IADAANAA/tzapp_entrylib.lib(qsee_appmessage.o)
 .ARM.attributes
                0x000004ba       0x37 /local/mnt/workspace/CRMBuilds/TZ.BF.4.0.3.c1-00005-M8996AAAAANAZT-1_20170110_230814/b/HK11/trustzone_images/core/securemsm/trustzone/qsapps/libs/applib/qsee/build/secureindicator/scorpion/IADAANAA/tzapp_entrylib.lib(sfs_api.o)
 .ARM.attributes
                0x000004f1       0x37 /local/mnt/workspace/CRMBuilds/TZ.BF.4.0.3.c1-00005-M8996AAAAANAZT-1_20170110_230814/b/HK11/trustzone_images/core/securemsm/trustzone/qsapps/libs/applib/qsee/build/secureindicator/scorpion/IADAANAA/tzapp_entrylib.lib(tzapp_lib_main.o)
 .ARM.attributes
                0x00000528       0x12 /local/mnt/workspace/CRMBuilds/TZ.BF.4.0.3.c1-00005-M8996AAAAANAZT-1_20170110_230814/b/HK11/trustzone_images/core/securemsm/trustzone/qsapps/libs/applib/qsee/build/secureindicator/scorpion/IADAANAA/tzapp_entrylib.lib(kthread_shared.o)
 .ARM.attributes
                0x0000053a       0x37 /local/mnt/workspace/CRMBuilds/TZ.BF.4.0.3.c1-00005-M8996AAAAANAZT-1_20170110_230814/b/HK11/trustzone_images/core/securemsm/trustzone/qsapps/libs/services/build/secureindicator/scorpion/IADAANAA/qsee_services.lib(qsee_log.o)
 .ARM.attributes
                0x00000571       0x37 /local/mnt/workspace/CRMBuilds/TZ.BF.4.0.3.c1-00005-M8996AAAAANAZT-1_20170110_230814/b/HK11/trustzone_images/core/securemsm/trustzone/qsee/mink/libstd/build/secureindicator/scorpion/IADAANAA/libstd.lib(memscpy.o)
 .ARM.attributes
                0x000005a8       0x37 /local/mnt/workspace/CRMBuilds/TZ.BF.4.0.3.c1-00005-M8996AAAAANAZT-1_20170110_230814/b/HK11/trustzone_images/core/securemsm/trustzone/qsee/mink/libstd/build/secureindicator/scorpion/IADAANAA/libstd.lib(secure_memset.o)
 .ARM.attributes
                0x000005df       0x37 /local/mnt/workspace/CRMBuilds/TZ.BF.4.0.3.c1-00005-M8996AAAAANAZT-1_20170110_230814/b/HK11/trustzone_images/core/securemsm/trustzone/qsee/mink/libstd/build/secureindicator/scorpion/IADAANAA/libstd.lib(memcmp.o)
 .ARM.attributes
                0x00000616       0x37 /local/mnt/workspace/CRMBuilds/TZ.BF.4.0.3.c1-00005-M8996AAAAANAZT-1_20170110_230814/b/HK11/trustzone_images/core/securemsm/trustzone/qsee/mink/libstd/build/secureindicator/scorpion/IADAANAA/libstd.lib(strlen.o)
 .ARM.attributes
                0x0000064d       0x37 /local/mnt/workspace/CRMBuilds/TZ.BF.4.0.3.c1-00005-M8996AAAAANAZT-1_20170110_230814/b/HK11/trustzone_images/core/securemsm/trustzone/qsee/mink/libstd/build/secureindicator/scorpion/IADAANAA/libstd.lib(strcmp.o)
 .ARM.attributes
                0x00000684       0x37 /local/mnt/workspace/CRMBuilds/TZ.BF.4.0.3.c1-00005-M8996AAAAANAZT-1_20170110_230814/b/HK11/trustzone_images/core/securemsm/trustzone/qsee/mink/libstd/build/secureindicator/scorpion/IADAANAA/libstd.lib(printf.o)
 .ARM.attributes
                0x000006bb       0x37 /local/mnt/workspace/CRMBuilds/TZ.BF.4.0.3.c1-00005-M8996AAAAANAZT-1_20170110_230814/b/HK11/trustzone_images/core/securemsm/trustzone/qsee/mink/libstd/build/secureindicator/scorpion/IADAANAA/libstd.lib(abort.o)
 .ARM.attributes
                0x000006f2       0x37 /local/mnt/workspace/CRMBuilds/TZ.BF.4.0.3.c1-00005-M8996AAAAANAZT-1_20170110_230814/b/HK11/trustzone_images/core/securemsm/trustzone/qsee/mink/libstd/build/secureindicator/scorpion/IADAANAA/libstd.lib(memchr.o)
 .ARM.attributes
                0x00000729       0x2b /afs/localcell/cm/gv2.6/sysname/pkg.@sys/qct/software/llvm/release/arm/3.5.2.4/lib/clang/3.5.2/lib/linux/libclang_rt.builtins-arm.a(aeabi_memcpy.S.o)
 .ARM.attributes
                0x00000754       0x2b /afs/localcell/cm/gv2.6/sysname/pkg.@sys/qct/software/llvm/release/arm/3.5.2.4/lib/clang/3.5.2/lib/linux/libclang_rt.builtins-arm.a(aeabi_memset.S.o)
 .ARM.attributes
                0x0000077f       0x2b /afs/localcell/cm/gv2.6/sysname/pkg.@sys/qct/software/llvm/release/arm/3.5.2.4/lib/clang/3.5.2/lib/linux/libclang_rt.builtins-arm.a(aeabi_uldivmod.S.o)
 .ARM.attributes
                0x000007aa       0x41 /afs/localcell/cm/gv2.6/sysname/pkg.@sys/qct/software/llvm/release/arm/3.5.2.4/lib/clang/3.5.2/lib/linux/libclang_rt.builtins-arm.a(udivmoddi4.c.o)
 .ARM.attributes
                0x000007eb       0x41 /afs/localcell/cm/gv2.6/sysname/pkg.@sys/qct/software/llvm/release/arm/3.5.2.4/lib/clang/3.5.2/lib/linux/libclang_rt.builtins-arm.a(udivsi3.c.o)
 .ARM.attributes
                0x0000082c       0x41 /afs/localcell/cm/gv2.6/sysname/pkg.@sys/qct/software/llvm/release/arm/3.5.2.4/lib/clang/3.5.2/lib/linux/libclang_rt.builtins-arm.a(umoddi3.c.o)
 .ARM.attributes
                0x0000086d       0x41 /afs/localcell/cm/gv2.6/sysname/pkg.@sys/qct/software/llvm/release/arm/3.5.2.4/lib/clang/3.5.2/lib/linux/libclang_rt.builtins-arm.a(umodsi3.c.o)
 .ARM.attributes
                0x000008ae       0x37 /local/mnt/workspace/CRMBuilds/TZ.BF.4.0.3.c1-00005-M8996AAAAANAZT-1_20170110_230814/b/HK11/trustzone_images/apps/securemsm/trustzone/qsapps/secureindicator/oem/build/secureindicator/scorpion/IADAANAA/secureindicator_oem.lib(si_oem.o)
 .ARM.attributes
                0x000008e5       0x37 /local/mnt/workspace/CRMBuilds/TZ.BF.4.0.3.c1-00005-M8996AAAAANAZT-1_20170110_230814/b/HK11/trustzone_images/core/securemsm/trustzone/qsapps/libs/applib/common_applib/build/secureindicator/scorpion/IADAANAA/tzapp_entrylib.lib(gpPersistObjCommon.o)
 .ARM.attributes
                0x0000091c       0x37 /local/mnt/workspace/CRMBuilds/TZ.BF.4.0.3.c1-00005-M8996AAAAANAZT-1_20170110_230814/b/HK11/trustzone_images/core/securemsm/trustzone/qsapps/libs/applib/common_applib/build/secureindicator/scorpion/IADAANAA/tzapp_entrylib.lib(gpPersistentObjects.o)
 .ARM.attributes
                0x00000953       0x37 /local/mnt/workspace/CRMBuilds/TZ.BF.4.0.3.c1-00005-M8996AAAAANAZT-1_20170110_230814/b/HK11/trustzone_images/core/securemsm/trustzone/qsapps/libs/applib/common_applib/build/secureindicator/scorpion/IADAANAA/tzapp_entrylib.lib(gpPersistObjData.o)
 .ARM.attributes
                0x0000098a       0x37 /local/mnt/workspace/CRMBuilds/TZ.BF.4.0.3.c1-00005-M8996AAAAANAZT-1_20170110_230814/b/HK11/trustzone_images/core/securemsm/trustzone/qsapps/libs/applib/common_applib/build/secureindicator/scorpion/IADAANAA/tzapp_entrylib.lib(gpPersistObjHandler.o)
 .ARM.attributes
                0x000009c1       0x37 /local/mnt/workspace/CRMBuilds/TZ.BF.4.0.3.c1-00005-M8996AAAAANAZT-1_20170110_230814/b/HK11/trustzone_images/core/securemsm/trustzone/qsapps/libs/applib/common_applib/build/secureindicator/scorpion/IADAANAA/tzapp_entrylib.lib(gpPersistObjIndex.o)
 .ARM.attributes
                0x000009f8       0x37 /local/mnt/workspace/CRMBuilds/TZ.BF.4.0.3.c1-00005-M8996AAAAANAZT-1_20170110_230814/b/HK11/trustzone_images/core/securemsm/trustzone/qsapps/libs/applib/common_applib/build/secureindicator/scorpion/IADAANAA/tzapp_entrylib.lib(gpPersistObjVersion.o)
 .ARM.attributes
                0x00000a2f       0x37 /local/mnt/workspace/CRMBuilds/TZ.BF.4.0.3.c1-00005-M8996AAAAANAZT-1_20170110_230814/b/HK11/trustzone_images/core/securemsm/trustzone/qsapps/libs/applib/common_applib/build/secureindicator/scorpion/IADAANAA/tzapp_entrylib.lib(gpPersistObjCrypto.o)
 .ARM.attributes
                0x00000a66       0x37 /local/mnt/workspace/CRMBuilds/TZ.BF.4.0.3.c1-00005-M8996AAAAANAZT-1_20170110_230814/b/HK11/trustzone_images/core/securemsm/trustzone/qsapps/libs/applib/common_applib/build/secureindicator/scorpion/IADAANAA/tzapp_entrylib.lib(gpPersistObjFileIO.o)
 .ARM.attributes
                0x00000a9d       0x37 /local/mnt/workspace/CRMBuilds/TZ.BF.4.0.3.c1-00005-M8996AAAAANAZT-1_20170110_230814/b/HK11/trustzone_images/core/securemsm/trustzone/qsapps/libs/applib/common_applib/build/secureindicator/scorpion/IADAANAA/tzapp_entrylib.lib(gpFileService.o)
 .ARM.attributes
                0x00000ad4       0x37 /local/mnt/workspace/CRMBuilds/TZ.BF.4.0.3.c1-00005-M8996AAAAANAZT-1_20170110_230814/b/HK11/trustzone_images/core/securemsm/trustzone/qsapps/libs/applib/qsee/build/secureindicator/scorpion/IADAANAA/tzapp_entrylib.lib(qsee_core_shim.o)
 .ARM.attributes
                0x00000b0b       0x37 /local/mnt/workspace/CRMBuilds/TZ.BF.4.0.3.c1-00005-M8996AAAAANAZT-1_20170110_230814/b/HK11/trustzone_images/core/securemsm/trustzone/qsapps/libs/applib/qsee/build/secureindicator/scorpion/IADAANAA/tzapp_entrylib.lib(stor.o)
 .ARM.attributes
                0x00000b42       0x37 /local/mnt/workspace/CRMBuilds/TZ.BF.4.0.3.c1-00005-M8996AAAAANAZT-1_20170110_230814/b/HK11/trustzone_images/core/securemsm/trustzone/qsapps/libs/applib/qsee/build/secureindicator/scorpion/IADAANAA/tzapp_entrylib.lib(stor_gpt.o)
 .ARM.attributes
                0x00000b79       0x37 /local/mnt/workspace/CRMBuilds/TZ.BF.4.0.3.c1-00005-M8996AAAAANAZT-1_20170110_230814/b/HK11/trustzone_images/core/securemsm/trustzone/qsapps/libs/applib/qsee/build/secureindicator/scorpion/IADAANAA/tzapp_entrylib.lib(stor_rpmbw.o)
 .ARM.attributes
                0x00000bb0       0x37 /local/mnt/workspace/CRMBuilds/TZ.BF.4.0.3.c1-00005-M8996AAAAANAZT-1_20170110_230814/b/HK11/trustzone_images/core/securemsm/trustzone/qsapps/libs/applib/qsee/build/secureindicator/scorpion/IADAANAA/tzapp_entrylib.lib(qsee_cfg_prop_shim.o)
 .ARM.attributes
                0x00000be7       0x37 /local/mnt/workspace/CRMBuilds/TZ.BF.4.0.3.c1-00005-M8996AAAAANAZT-1_20170110_230814/b/HK11/trustzone_images/core/securemsm/trustzone/qsapps/libs/applib/qsee/build/secureindicator/scorpion/IADAANAA/tzapp_entrylib.lib(qsee_cipher.o)
 .ARM.attributes
                0x00000c1e       0x37 /local/mnt/workspace/CRMBuilds/TZ.BF.4.0.3.c1-00005-M8996AAAAANAZT-1_20170110_230814/b/HK11/trustzone_images/core/securemsm/trustzone/qsapps/libs/applib/qsee/build/secureindicator/scorpion/IADAANAA/tzapp_entrylib.lib(qsee_hash.o)
 .ARM.attributes
                0x00000c55       0x37 /local/mnt/workspace/CRMBuilds/TZ.BF.4.0.3.c1-00005-M8996AAAAANAZT-1_20170110_230814/b/HK11/trustzone_images/core/securemsm/trustzone/qsapps/libs/applib/qsee/build/secureindicator/scorpion/IADAANAA/tzapp_entrylib.lib(qsee_hmac.o)
 .ARM.attributes
                0x00000c8c       0x37 /local/mnt/workspace/CRMBuilds/TZ.BF.4.0.3.c1-00005-M8996AAAAANAZT-1_20170110_230814/b/HK11/trustzone_images/core/securemsm/trustzone/qsapps/libs/applib/qsee/build/secureindicator/scorpion/IADAANAA/tzapp_entrylib.lib(gpPersistObjPanic.o)
 .ARM.attributes
                0x00000cc3       0x37 /local/mnt/workspace/CRMBuilds/TZ.BF.4.0.3.c1-00005-M8996AAAAANAZT-1_20170110_230814/b/HK11/trustzone_images/core/securemsm/trustzone/qsapps/libs/services/build/secureindicator/scorpion/IADAANAA/qsee_services.lib(qsee_kdf.o)
 .ARM.attributes
                0x00000cfa       0x37 /local/mnt/workspace/CRMBuilds/TZ.BF.4.0.3.c1-00005-M8996AAAAANAZT-1_20170110_230814/b/HK11/trustzone_images/core/securemsm/trustzone/qsee/mink/libstd/build/secureindicator/scorpion/IADAANAA/libstd.lib(strlcat.o)
 .ARM.attributes
                0x00000d31       0x37 /local/mnt/workspace/CRMBuilds/TZ.BF.4.0.3.c1-00005-M8996AAAAANAZT-1_20170110_230814/b/HK11/trustzone_images/core/securemsm/trustzone/qsee/mink/libstd/build/secureindicator/scorpion/IADAANAA/libstd.lib(strlcpy.o)
 .ARM.attributes
                0x00000d68       0x37 /local/mnt/workspace/CRMBuilds/TZ.BF.4.0.3.c1-00005-M8996AAAAANAZT-1_20170110_230814/b/HK11/trustzone_images/core/securemsm/trustzone/qsee/mink/libstd/build/secureindicator/scorpion/IADAANAA/libstd.lib(timesafe_memcmp.o)
 .ARM.attributes
                0x00000d9f       0x37 /local/mnt/workspace/CRMBuilds/TZ.BF.4.0.3.c1-00005-M8996AAAAANAZT-1_20170110_230814/b/HK11/trustzone_images/core/securemsm/trustzone/qsee/mink/libstd/build/secureindicator/scorpion/IADAANAA/libstd.lib(memset.o)
 .ARM.attributes
                0x00000dd6       0x37 /local/mnt/workspace/CRMBuilds/TZ.BF.4.0.3.c1-00005-M8996AAAAANAZT-1_20170110_230814/b/HK11/trustzone_images/core/securemsm/trustzone/qsee/mink/libstd/build/secureindicator/scorpion/IADAANAA/libstd.lib(memcpy.o)
 .ARM.attributes
                0x00000e0d       0x37 /local/mnt/workspace/CRMBuilds/TZ.BF.4.0.3.c1-00005-M8996AAAAANAZT-1_20170110_230814/b/HK11/trustzone_images/core/securemsm/trustzone/qsee/mink/libstd/build/secureindicator/scorpion/IADAANAA/libstd.lib(strncmp.o)

.comment        0x00000000       0x23
 .comment       0x00000000       0x23 /local/mnt/workspace/CRMBuilds/TZ.BF.4.0.3.c1-00005-M8996AAAAANAZT-1_20170110_230814/b/HK11/trustzone_images/apps/securemsm/trustzone/qsapps/secureindicator/build/secureindicator/scorpion/IADAANAA/si_main.o
                                 0x24 (size before relaxing)
 .comment       0x00000000       0x24 /local/mnt/workspace/CRMBuilds/TZ.BF.4.0.3.c1-00005-M8996AAAAANAZT-1_20170110_230814/b/HK11/trustzone_images/apps/securemsm/trustzone/qsapps/secureindicator/build/secureindicator/scorpion/IADAANAA/si.o
 .comment       0x00000000       0x24 /local/mnt/workspace/CRMBuilds/TZ.BF.4.0.3.c1-00005-M8996AAAAANAZT-1_20170110_230814/b/HK11/trustzone_images/apps/securemsm/trustzone/qsapps/secureindicator/build/secureindicator/scorpion/IADAANAA/metadata.o
 .comment       0x00000000       0x24 /local/mnt/workspace/CRMBuilds/TZ.BF.4.0.3.c1-00005-M8996AAAAANAZT-1_20170110_230814/b/HK11/trustzone_images/core/securemsm/sse/qsee/SecureDisplay/libpng/build/secureindicator/scorpion/IADAANAA/libpng.lib(png.o)
 .comment       0x00000000       0x24 /local/mnt/workspace/CRMBuilds/TZ.BF.4.0.3.c1-00005-M8996AAAAANAZT-1_20170110_230814/b/HK11/trustzone_images/core/securemsm/sse/qsee/SecureDisplay/libpng/build/secureindicator/scorpion/IADAANAA/libpng.lib(pngerror.o)
 .comment       0x00000000       0x24 /local/mnt/workspace/CRMBuilds/TZ.BF.4.0.3.c1-00005-M8996AAAAANAZT-1_20170110_230814/b/HK11/trustzone_images/core/securemsm/sse/qsee/SecureDisplay/libpng/build/secureindicator/scorpion/IADAANAA/libpng.lib(pngget.o)
 .comment       0x00000000       0x24 /local/mnt/workspace/CRMBuilds/TZ.BF.4.0.3.c1-00005-M8996AAAAANAZT-1_20170110_230814/b/HK11/trustzone_images/core/securemsm/sse/qsee/SecureDisplay/libpng/build/secureindicator/scorpion/IADAANAA/libpng.lib(pngmem.o)
 .comment       0x00000000       0x24 /local/mnt/workspace/CRMBuilds/TZ.BF.4.0.3.c1-00005-M8996AAAAANAZT-1_20170110_230814/b/HK11/trustzone_images/core/securemsm/sse/qsee/SecureDisplay/libpng/build/secureindicator/scorpion/IADAANAA/libpng.lib(pngread.o)
 .comment       0x00000000       0x24 /local/mnt/workspace/CRMBuilds/TZ.BF.4.0.3.c1-00005-M8996AAAAANAZT-1_20170110_230814/b/HK11/trustzone_images/core/securemsm/sse/qsee/SecureDisplay/libpng/build/secureindicator/scorpion/IADAANAA/libpng.lib(pngrio.o)
 .comment       0x00000000       0x24 /local/mnt/workspace/CRMBuilds/TZ.BF.4.0.3.c1-00005-M8996AAAAANAZT-1_20170110_230814/b/HK11/trustzone_images/core/securemsm/sse/qsee/SecureDisplay/libpng/build/secureindicator/scorpion/IADAANAA/libpng.lib(pngrutil.o)
 .comment       0x00000000       0x24 /local/mnt/workspace/CRMBuilds/TZ.BF.4.0.3.c1-00005-M8996AAAAANAZT-1_20170110_230814/b/HK11/trustzone_images/core/securemsm/sse/qsee/SecureDisplay/libpng/build/secureindicator/scorpion/IADAANAA/libpng.lib(pngset.o)
 .comment       0x00000000       0x24 /local/mnt/workspace/CRMBuilds/TZ.BF.4.0.3.c1-00005-M8996AAAAANAZT-1_20170110_230814/b/HK11/trustzone_images/core/securemsm/sse/qsee/SecureDisplay/zlib/build/secureindicator/scorpion/IADAANAA/zlib.lib(crc32.o)
 .comment       0x00000000       0x24 /local/mnt/workspace/CRMBuilds/TZ.BF.4.0.3.c1-00005-M8996AAAAANAZT-1_20170110_230814/b/HK11/trustzone_images/core/securemsm/sse/qsee/SecureDisplay/zlib/build/secureindicator/scorpion/IADAANAA/zlib.lib(inflate.o)
 .comment       0x00000000       0x24 /local/mnt/workspace/CRMBuilds/TZ.BF.4.0.3.c1-00005-M8996AAAAANAZT-1_20170110_230814/b/HK11/trustzone_images/core/securemsm/sse/qsee/SecureDisplay/zlib/build/secureindicator/scorpion/IADAANAA/zlib.lib(inftrees.o)
 .comment       0x00000000       0x24 /local/mnt/workspace/CRMBuilds/TZ.BF.4.0.3.c1-00005-M8996AAAAANAZT-1_20170110_230814/b/HK11/trustzone_images/core/securemsm/sse/qsee/SecureDisplay/zlib/build/secureindicator/scorpion/IADAANAA/zlib.lib(zutil.o)
 .comment       0x00000000       0x24 /local/mnt/workspace/CRMBuilds/TZ.BF.4.0.3.c1-00005-M8996AAAAANAZT-1_20170110_230814/b/HK11/trustzone_images/core/securemsm/sse/qsee/SecureDisplay/zlib/build/secureindicator/scorpion/IADAANAA/zlib.lib(adler32.o)
 .comment       0x00000000       0x24 /local/mnt/workspace/CRMBuilds/TZ.BF.4.0.3.c1-00005-M8996AAAAANAZT-1_20170110_230814/b/HK11/trustzone_images/core/securemsm/sse/qsee/SecureDisplay/zlib/build/secureindicator/scorpion/IADAANAA/zlib.lib(inffast.o)
 .comment       0x00000000       0x24 /local/mnt/workspace/CRMBuilds/TZ.BF.4.0.3.c1-00005-M8996AAAAANAZT-1_20170110_230814/b/HK11/trustzone_images/core/securemsm/trustzone/qsapps/libs/applib/common_applib/build/secureindicator/scorpion/IADAANAA/tzapp_entrylib.lib(common_applib.o)
 .comment       0x00000000       0x24 /local/mnt/workspace/CRMBuilds/TZ.BF.4.0.3.c1-00005-M8996AAAAANAZT-1_20170110_230814/b/HK11/trustzone_images/core/securemsm/trustzone/qsapps/libs/applib/qsee/build/secureindicator/scorpion/IADAANAA/tzapp_entrylib.lib(mink_shared_code.o)
 .comment       0x00000000       0x24 /local/mnt/workspace/CRMBuilds/TZ.BF.4.0.3.c1-00005-M8996AAAAANAZT-1_20170110_230814/b/HK11/trustzone_images/core/securemsm/trustzone/qsapps/libs/applib/qsee/build/secureindicator/scorpion/IADAANAA/tzapp_entrylib.lib(qsee_env.o)
 .comment       0x00000000       0x24 /local/mnt/workspace/CRMBuilds/TZ.BF.4.0.3.c1-00005-M8996AAAAANAZT-1_20170110_230814/b/HK11/trustzone_images/core/securemsm/trustzone/qsapps/libs/applib/qsee/build/secureindicator/scorpion/IADAANAA/tzapp_entrylib.lib(qsee_prng.o)
 .comment       0x00000000       0x24 /local/mnt/workspace/CRMBuilds/TZ.BF.4.0.3.c1-00005-M8996AAAAANAZT-1_20170110_230814/b/HK11/trustzone_images/core/securemsm/trustzone/qsapps/libs/applib/qsee/build/secureindicator/scorpion/IADAANAA/tzapp_entrylib.lib(qsee_appmessage.o)
 .comment       0x00000000       0x24 /local/mnt/workspace/CRMBuilds/TZ.BF.4.0.3.c1-00005-M8996AAAAANAZT-1_20170110_230814/b/HK11/trustzone_images/core/securemsm/trustzone/qsapps/libs/applib/qsee/build/secureindicator/scorpion/IADAANAA/tzapp_entrylib.lib(sfs_api.o)
 .comment       0x00000000       0x24 /local/mnt/workspace/CRMBuilds/TZ.BF.4.0.3.c1-00005-M8996AAAAANAZT-1_20170110_230814/b/HK11/trustzone_images/core/securemsm/trustzone/qsapps/libs/applib/qsee/build/secureindicator/scorpion/IADAANAA/tzapp_entrylib.lib(tzapp_lib_main.o)
 .comment       0x00000000       0x24 /local/mnt/workspace/CRMBuilds/TZ.BF.4.0.3.c1-00005-M8996AAAAANAZT-1_20170110_230814/b/HK11/trustzone_images/core/securemsm/trustzone/qsapps/libs/services/build/secureindicator/scorpion/IADAANAA/qsee_services.lib(qsee_log.o)
 .comment       0x00000000       0x24 /local/mnt/workspace/CRMBuilds/TZ.BF.4.0.3.c1-00005-M8996AAAAANAZT-1_20170110_230814/b/HK11/trustzone_images/core/securemsm/trustzone/qsee/mink/libstd/build/secureindicator/scorpion/IADAANAA/libstd.lib(memscpy.o)
 .comment       0x00000000       0x24 /local/mnt/workspace/CRMBuilds/TZ.BF.4.0.3.c1-00005-M8996AAAAANAZT-1_20170110_230814/b/HK11/trustzone_images/core/securemsm/trustzone/qsee/mink/libstd/build/secureindicator/scorpion/IADAANAA/libstd.lib(secure_memset.o)
 .comment       0x00000000       0x24 /local/mnt/workspace/CRMBuilds/TZ.BF.4.0.3.c1-00005-M8996AAAAANAZT-1_20170110_230814/b/HK11/trustzone_images/core/securemsm/trustzone/qsee/mink/libstd/build/secureindicator/scorpion/IADAANAA/libstd.lib(memcmp.o)
 .comment       0x00000000       0x24 /local/mnt/workspace/CRMBuilds/TZ.BF.4.0.3.c1-00005-M8996AAAAANAZT-1_20170110_230814/b/HK11/trustzone_images/core/securemsm/trustzone/qsee/mink/libstd/build/secureindicator/scorpion/IADAANAA/libstd.lib(strlen.o)
 .comment       0x00000000       0x24 /local/mnt/workspace/CRMBuilds/TZ.BF.4.0.3.c1-00005-M8996AAAAANAZT-1_20170110_230814/b/HK11/trustzone_images/core/securemsm/trustzone/qsee/mink/libstd/build/secureindicator/scorpion/IADAANAA/libstd.lib(strcmp.o)
 .comment       0x00000000       0x24 /local/mnt/workspace/CRMBuilds/TZ.BF.4.0.3.c1-00005-M8996AAAAANAZT-1_20170110_230814/b/HK11/trustzone_images/core/securemsm/trustzone/qsee/mink/libstd/build/secureindicator/scorpion/IADAANAA/libstd.lib(printf.o)
 .comment       0x00000000       0x24 /local/mnt/workspace/CRMBuilds/TZ.BF.4.0.3.c1-00005-M8996AAAAANAZT-1_20170110_230814/b/HK11/trustzone_images/core/securemsm/trustzone/qsee/mink/libstd/build/secureindicator/scorpion/IADAANAA/libstd.lib(abort.o)
 .comment       0x00000000       0x24 /local/mnt/workspace/CRMBuilds/TZ.BF.4.0.3.c1-00005-M8996AAAAANAZT-1_20170110_230814/b/HK11/trustzone_images/core/securemsm/trustzone/qsee/mink/libstd/build/secureindicator/scorpion/IADAANAA/libstd.lib(memchr.o)
 .comment       0x00000000       0x24 /afs/localcell/cm/gv2.6/sysname/pkg.@sys/qct/software/llvm/release/arm/3.5.2.4/lib/clang/3.5.2/lib/linux/libclang_rt.builtins-arm.a(udivmoddi4.c.o)
 .comment       0x00000000       0x24 /afs/localcell/cm/gv2.6/sysname/pkg.@sys/qct/software/llvm/release/arm/3.5.2.4/lib/clang/3.5.2/lib/linux/libclang_rt.builtins-arm.a(udivsi3.c.o)
 .comment       0x00000000       0x24 /afs/localcell/cm/gv2.6/sysname/pkg.@sys/qct/software/llvm/release/arm/3.5.2.4/lib/clang/3.5.2/lib/linux/libclang_rt.builtins-arm.a(umoddi3.c.o)
 .comment       0x00000000       0x24 /afs/localcell/cm/gv2.6/sysname/pkg.@sys/qct/software/llvm/release/arm/3.5.2.4/lib/clang/3.5.2/lib/linux/libclang_rt.builtins-arm.a(umodsi3.c.o)
 .comment       0x00000000       0x24 /local/mnt/workspace/CRMBuilds/TZ.BF.4.0.3.c1-00005-M8996AAAAANAZT-1_20170110_230814/b/HK11/trustzone_images/apps/securemsm/trustzone/qsapps/secureindicator/oem/build/secureindicator/scorpion/IADAANAA/secureindicator_oem.lib(si_oem.o)
 .comment       0x00000000       0x24 /local/mnt/workspace/CRMBuilds/TZ.BF.4.0.3.c1-00005-M8996AAAAANAZT-1_20170110_230814/b/HK11/trustzone_images/core/securemsm/trustzone/qsapps/libs/applib/common_applib/build/secureindicator/scorpion/IADAANAA/tzapp_entrylib.lib(gpPersistObjCommon.o)
 .comment       0x00000000       0x24 /local/mnt/workspace/CRMBuilds/TZ.BF.4.0.3.c1-00005-M8996AAAAANAZT-1_20170110_230814/b/HK11/trustzone_images/core/securemsm/trustzone/qsapps/libs/applib/common_applib/build/secureindicator/scorpion/IADAANAA/tzapp_entrylib.lib(gpPersistentObjects.o)
 .comment       0x00000000       0x24 /local/mnt/workspace/CRMBuilds/TZ.BF.4.0.3.c1-00005-M8996AAAAANAZT-1_20170110_230814/b/HK11/trustzone_images/core/securemsm/trustzone/qsapps/libs/applib/common_applib/build/secureindicator/scorpion/IADAANAA/tzapp_entrylib.lib(gpPersistObjData.o)
 .comment       0x00000000       0x24 /local/mnt/workspace/CRMBuilds/TZ.BF.4.0.3.c1-00005-M8996AAAAANAZT-1_20170110_230814/b/HK11/trustzone_images/core/securemsm/trustzone/qsapps/libs/applib/common_applib/build/secureindicator/scorpion/IADAANAA/tzapp_entrylib.lib(gpPersistObjHandler.o)
 .comment       0x00000000       0x24 /local/mnt/workspace/CRMBuilds/TZ.BF.4.0.3.c1-00005-M8996AAAAANAZT-1_20170110_230814/b/HK11/trustzone_images/core/securemsm/trustzone/qsapps/libs/applib/common_applib/build/secureindicator/scorpion/IADAANAA/tzapp_entrylib.lib(gpPersistObjIndex.o)
 .comment       0x00000000       0x24 /local/mnt/workspace/CRMBuilds/TZ.BF.4.0.3.c1-00005-M8996AAAAANAZT-1_20170110_230814/b/HK11/trustzone_images/core/securemsm/trustzone/qsapps/libs/applib/common_applib/build/secureindicator/scorpion/IADAANAA/tzapp_entrylib.lib(gpPersistObjVersion.o)
 .comment       0x00000000       0x24 /local/mnt/workspace/CRMBuilds/TZ.BF.4.0.3.c1-00005-M8996AAAAANAZT-1_20170110_230814/b/HK11/trustzone_images/core/securemsm/trustzone/qsapps/libs/applib/common_applib/build/secureindicator/scorpion/IADAANAA/tzapp_entrylib.lib(gpPersistObjCrypto.o)
 .comment       0x00000000       0x24 /local/mnt/workspace/CRMBuilds/TZ.BF.4.0.3.c1-00005-M8996AAAAANAZT-1_20170110_230814/b/HK11/trustzone_images/core/securemsm/trustzone/qsapps/libs/applib/common_applib/build/secureindicator/scorpion/IADAANAA/tzapp_entrylib.lib(gpPersistObjFileIO.o)
 .comment       0x00000000       0x24 /local/mnt/workspace/CRMBuilds/TZ.BF.4.0.3.c1-00005-M8996AAAAANAZT-1_20170110_230814/b/HK11/trustzone_images/core/securemsm/trustzone/qsapps/libs/applib/common_applib/build/secureindicator/scorpion/IADAANAA/tzapp_entrylib.lib(gpFileService.o)
 .comment       0x00000000       0x24 /local/mnt/workspace/CRMBuilds/TZ.BF.4.0.3.c1-00005-M8996AAAAANAZT-1_20170110_230814/b/HK11/trustzone_images/core/securemsm/trustzone/qsapps/libs/applib/qsee/build/secureindicator/scorpion/IADAANAA/tzapp_entrylib.lib(qsee_core_shim.o)
 .comment       0x00000000       0x24 /local/mnt/workspace/CRMBuilds/TZ.BF.4.0.3.c1-00005-M8996AAAAANAZT-1_20170110_230814/b/HK11/trustzone_images/core/securemsm/trustzone/qsapps/libs/applib/qsee/build/secureindicator/scorpion/IADAANAA/tzapp_entrylib.lib(stor.o)
 .comment       0x00000000       0x24 /local/mnt/workspace/CRMBuilds/TZ.BF.4.0.3.c1-00005-M8996AAAAANAZT-1_20170110_230814/b/HK11/trustzone_images/core/securemsm/trustzone/qsapps/libs/applib/qsee/build/secureindicator/scorpion/IADAANAA/tzapp_entrylib.lib(stor_gpt.o)
 .comment       0x00000000       0x24 /local/mnt/workspace/CRMBuilds/TZ.BF.4.0.3.c1-00005-M8996AAAAANAZT-1_20170110_230814/b/HK11/trustzone_images/core/securemsm/trustzone/qsapps/libs/applib/qsee/build/secureindicator/scorpion/IADAANAA/tzapp_entrylib.lib(stor_rpmbw.o)
 .comment       0x00000000       0x24 /local/mnt/workspace/CRMBuilds/TZ.BF.4.0.3.c1-00005-M8996AAAAANAZT-1_20170110_230814/b/HK11/trustzone_images/core/securemsm/trustzone/qsapps/libs/applib/qsee/build/secureindicator/scorpion/IADAANAA/tzapp_entrylib.lib(qsee_cfg_prop_shim.o)
 .comment       0x00000000       0x24 /local/mnt/workspace/CRMBuilds/TZ.BF.4.0.3.c1-00005-M8996AAAAANAZT-1_20170110_230814/b/HK11/trustzone_images/core/securemsm/trustzone/qsapps/libs/applib/qsee/build/secureindicator/scorpion/IADAANAA/tzapp_entrylib.lib(qsee_cipher.o)
 .comment       0x00000000       0x24 /local/mnt/workspace/CRMBuilds/TZ.BF.4.0.3.c1-00005-M8996AAAAANAZT-1_20170110_230814/b/HK11/trustzone_images/core/securemsm/trustzone/qsapps/libs/applib/qsee/build/secureindicator/scorpion/IADAANAA/tzapp_entrylib.lib(qsee_hash.o)
 .comment       0x00000000       0x24 /local/mnt/workspace/CRMBuilds/TZ.BF.4.0.3.c1-00005-M8996AAAAANAZT-1_20170110_230814/b/HK11/trustzone_images/core/securemsm/trustzone/qsapps/libs/applib/qsee/build/secureindicator/scorpion/IADAANAA/tzapp_entrylib.lib(qsee_hmac.o)
 .comment       0x00000000       0x24 /local/mnt/workspace/CRMBuilds/TZ.BF.4.0.3.c1-00005-M8996AAAAANAZT-1_20170110_230814/b/HK11/trustzone_images/core/securemsm/trustzone/qsapps/libs/applib/qsee/build/secureindicator/scorpion/IADAANAA/tzapp_entrylib.lib(gpPersistObjPanic.o)
 .comment       0x00000000       0x24 /local/mnt/workspace/CRMBuilds/TZ.BF.4.0.3.c1-00005-M8996AAAAANAZT-1_20170110_230814/b/HK11/trustzone_images/core/securemsm/trustzone/qsapps/libs/services/build/secureindicator/scorpion/IADAANAA/qsee_services.lib(qsee_kdf.o)
 .comment       0x00000000       0x24 /local/mnt/workspace/CRMBuilds/TZ.BF.4.0.3.c1-00005-M8996AAAAANAZT-1_20170110_230814/b/HK11/trustzone_images/core/securemsm/trustzone/qsee/mink/libstd/build/secureindicator/scorpion/IADAANAA/libstd.lib(strlcat.o)
 .comment       0x00000000       0x24 /local/mnt/workspace/CRMBuilds/TZ.BF.4.0.3.c1-00005-M8996AAAAANAZT-1_20170110_230814/b/HK11/trustzone_images/core/securemsm/trustzone/qsee/mink/libstd/build/secureindicator/scorpion/IADAANAA/libstd.lib(strlcpy.o)
 .comment       0x00000000       0x24 /local/mnt/workspace/CRMBuilds/TZ.BF.4.0.3.c1-00005-M8996AAAAANAZT-1_20170110_230814/b/HK11/trustzone_images/core/securemsm/trustzone/qsee/mink/libstd/build/secureindicator/scorpion/IADAANAA/libstd.lib(timesafe_memcmp.o)
 .comment       0x00000000       0x24 /local/mnt/workspace/CRMBuilds/TZ.BF.4.0.3.c1-00005-M8996AAAAANAZT-1_20170110_230814/b/HK11/trustzone_images/core/securemsm/trustzone/qsee/mink/libstd/build/secureindicator/scorpion/IADAANAA/libstd.lib(memset.o)
 .comment       0x00000000       0x24 /local/mnt/workspace/CRMBuilds/TZ.BF.4.0.3.c1-00005-M8996AAAAANAZT-1_20170110_230814/b/HK11/trustzone_images/core/securemsm/trustzone/qsee/mink/libstd/build/secureindicator/scorpion/IADAANAA/libstd.lib(memcpy.o)
 .comment       0x00000000       0x24 /local/mnt/workspace/CRMBuilds/TZ.BF.4.0.3.c1-00005-M8996AAAAANAZT-1_20170110_230814/b/HK11/trustzone_images/core/securemsm/trustzone/qsee/mink/libstd/build/secureindicator/scorpion/IADAANAA/libstd.lib(strncmp.o)

.debug_info     0x00000000    0x170f8
 .debug_info    0x00000000      0x1cf /local/mnt/workspace/CRMBuilds/TZ.BF.4.0.3.c1-00005-M8996AAAAANAZT-1_20170110_230814/b/HK11/trustzone_images/apps/securemsm/trustzone/qsapps/secureindicator/build/secureindicator/scorpion/IADAANAA/si_main.o
 .debug_info    0x000001cf      0xddb /local/mnt/workspace/CRMBuilds/TZ.BF.4.0.3.c1-00005-M8996AAAAANAZT-1_20170110_230814/b/HK11/trustzone_images/apps/securemsm/trustzone/qsapps/secureindicator/build/secureindicator/scorpion/IADAANAA/si.o
 .debug_info    0x00000faa       0xa5 /local/mnt/workspace/CRMBuilds/TZ.BF.4.0.3.c1-00005-M8996AAAAANAZT-1_20170110_230814/b/HK11/trustzone_images/apps/securemsm/trustzone/qsapps/secureindicator/build/secureindicator/scorpion/IADAANAA/metadata.o
 .debug_info    0x0000104f      0xe61 /local/mnt/workspace/CRMBuilds/TZ.BF.4.0.3.c1-00005-M8996AAAAANAZT-1_20170110_230814/b/HK11/trustzone_images/core/securemsm/sse/qsee/SecureDisplay/libpng/build/secureindicator/scorpion/IADAANAA/libpng.lib(png.o)
 .debug_info    0x00001eb0      0x8c2 /local/mnt/workspace/CRMBuilds/TZ.BF.4.0.3.c1-00005-M8996AAAAANAZT-1_20170110_230814/b/HK11/trustzone_images/core/securemsm/sse/qsee/SecureDisplay/libpng/build/secureindicator/scorpion/IADAANAA/libpng.lib(pngerror.o)
 .debug_info    0x00002772      0xa60 /local/mnt/workspace/CRMBuilds/TZ.BF.4.0.3.c1-00005-M8996AAAAANAZT-1_20170110_230814/b/HK11/trustzone_images/core/securemsm/sse/qsee/SecureDisplay/libpng/build/secureindicator/scorpion/IADAANAA/libpng.lib(pngget.o)
 .debug_info    0x000031d2      0x994 /local/mnt/workspace/CRMBuilds/TZ.BF.4.0.3.c1-00005-M8996AAAAANAZT-1_20170110_230814/b/HK11/trustzone_images/core/securemsm/sse/qsee/SecureDisplay/libpng/build/secureindicator/scorpion/IADAANAA/libpng.lib(pngmem.o)
 .debug_info    0x00003b66      0xd2f /local/mnt/workspace/CRMBuilds/TZ.BF.4.0.3.c1-00005-M8996AAAAANAZT-1_20170110_230814/b/HK11/trustzone_images/core/securemsm/sse/qsee/SecureDisplay/libpng/build/secureindicator/scorpion/IADAANAA/libpng.lib(pngread.o)
 .debug_info    0x00004895      0x783 /local/mnt/workspace/CRMBuilds/TZ.BF.4.0.3.c1-00005-M8996AAAAANAZT-1_20170110_230814/b/HK11/trustzone_images/core/securemsm/sse/qsee/SecureDisplay/libpng/build/secureindicator/scorpion/IADAANAA/libpng.lib(pngrio.o)
 .debug_info    0x00005018     0x13fa /local/mnt/workspace/CRMBuilds/TZ.BF.4.0.3.c1-00005-M8996AAAAANAZT-1_20170110_230814/b/HK11/trustzone_images/core/securemsm/sse/qsee/SecureDisplay/libpng/build/secureindicator/scorpion/IADAANAA/libpng.lib(pngrutil.o)
 .debug_info    0x00006412      0x9d1 /local/mnt/workspace/CRMBuilds/TZ.BF.4.0.3.c1-00005-M8996AAAAANAZT-1_20170110_230814/b/HK11/trustzone_images/core/securemsm/sse/qsee/SecureDisplay/libpng/build/secureindicator/scorpion/IADAANAA/libpng.lib(pngset.o)
 .debug_info    0x00006de3      0x396 /local/mnt/workspace/CRMBuilds/TZ.BF.4.0.3.c1-00005-M8996AAAAANAZT-1_20170110_230814/b/HK11/trustzone_images/core/securemsm/sse/qsee/SecureDisplay/zlib/build/secureindicator/scorpion/IADAANAA/zlib.lib(crc32.o)
 .debug_info    0x00007179      0xd29 /local/mnt/workspace/CRMBuilds/TZ.BF.4.0.3.c1-00005-M8996AAAAANAZT-1_20170110_230814/b/HK11/trustzone_images/core/securemsm/sse/qsee/SecureDisplay/zlib/build/secureindicator/scorpion/IADAANAA/zlib.lib(inflate.o)
 .debug_info    0x00007ea2      0x2f3 /local/mnt/workspace/CRMBuilds/TZ.BF.4.0.3.c1-00005-M8996AAAAANAZT-1_20170110_230814/b/HK11/trustzone_images/core/securemsm/sse/qsee/SecureDisplay/zlib/build/secureindicator/scorpion/IADAANAA/zlib.lib(inftrees.o)
 .debug_info    0x00008195      0x18c /local/mnt/workspace/CRMBuilds/TZ.BF.4.0.3.c1-00005-M8996AAAAANAZT-1_20170110_230814/b/HK11/trustzone_images/core/securemsm/sse/qsee/SecureDisplay/zlib/build/secureindicator/scorpion/IADAANAA/zlib.lib(zutil.o)
 .debug_info    0x00008321      0x1cd /local/mnt/workspace/CRMBuilds/TZ.BF.4.0.3.c1-00005-M8996AAAAANAZT-1_20170110_230814/b/HK11/trustzone_images/core/securemsm/sse/qsee/SecureDisplay/zlib/build/secureindicator/scorpion/IADAANAA/zlib.lib(adler32.o)
 .debug_info    0x000084ee      0x72c /local/mnt/workspace/CRMBuilds/TZ.BF.4.0.3.c1-00005-M8996AAAAANAZT-1_20170110_230814/b/HK11/trustzone_images/core/securemsm/sse/qsee/SecureDisplay/zlib/build/secureindicator/scorpion/IADAANAA/zlib.lib(inffast.o)
 .debug_info    0x00008c1a     0x1424 /local/mnt/workspace/CRMBuilds/TZ.BF.4.0.3.c1-00005-M8996AAAAANAZT-1_20170110_230814/b/HK11/trustzone_images/core/securemsm/trustzone/qsapps/libs/applib/common_applib/build/secureindicator/scorpion/IADAANAA/tzapp_entrylib.lib(common_applib.o)
 .debug_info    0x0000a03e      0x581 /local/mnt/workspace/CRMBuilds/TZ.BF.4.0.3.c1-00005-M8996AAAAANAZT-1_20170110_230814/b/HK11/trustzone_images/core/securemsm/trustzone/qsapps/libs/applib/qsee/build/secureindicator/scorpion/IADAANAA/tzapp_entrylib.lib(mink_shared_code.o)
 .debug_info    0x0000a5bf      0x627 /local/mnt/workspace/CRMBuilds/TZ.BF.4.0.3.c1-00005-M8996AAAAANAZT-1_20170110_230814/b/HK11/trustzone_images/core/securemsm/trustzone/qsapps/libs/applib/qsee/build/secureindicator/scorpion/IADAANAA/tzapp_entrylib.lib(qsee_env.o)
 .debug_info    0x0000abe6      0x2c4 /local/mnt/workspace/CRMBuilds/TZ.BF.4.0.3.c1-00005-M8996AAAAANAZT-1_20170110_230814/b/HK11/trustzone_images/core/securemsm/trustzone/qsapps/libs/applib/qsee/build/secureindicator/scorpion/IADAANAA/tzapp_entrylib.lib(qsee_prng.o)
 .debug_info    0x0000aeaa      0x53f /local/mnt/workspace/CRMBuilds/TZ.BF.4.0.3.c1-00005-M8996AAAAANAZT-1_20170110_230814/b/HK11/trustzone_images/core/securemsm/trustzone/qsapps/libs/applib/qsee/build/secureindicator/scorpion/IADAANAA/tzapp_entrylib.lib(qsee_appmessage.o)
 .debug_info    0x0000b3e9      0xa05 /local/mnt/workspace/CRMBuilds/TZ.BF.4.0.3.c1-00005-M8996AAAAANAZT-1_20170110_230814/b/HK11/trustzone_images/core/securemsm/trustzone/qsapps/libs/applib/qsee/build/secureindicator/scorpion/IADAANAA/tzapp_entrylib.lib(sfs_api.o)
 .debug_info    0x0000bdee      0x39f /local/mnt/workspace/CRMBuilds/TZ.BF.4.0.3.c1-00005-M8996AAAAANAZT-1_20170110_230814/b/HK11/trustzone_images/core/securemsm/trustzone/qsapps/libs/applib/qsee/build/secureindicator/scorpion/IADAANAA/tzapp_entrylib.lib(tzapp_lib_main.o)
 .debug_info    0x0000c18d      0x10d /local/mnt/workspace/CRMBuilds/TZ.BF.4.0.3.c1-00005-M8996AAAAANAZT-1_20170110_230814/b/HK11/trustzone_images/core/securemsm/trustzone/qsapps/libs/services/build/secureindicator/scorpion/IADAANAA/qsee_services.lib(qsee_log.o)
 .debug_info    0x0000c29a       0xa2 /local/mnt/workspace/CRMBuilds/TZ.BF.4.0.3.c1-00005-M8996AAAAANAZT-1_20170110_230814/b/HK11/trustzone_images/core/securemsm/trustzone/qsee/mink/libstd/build/secureindicator/scorpion/IADAANAA/libstd.lib(memscpy.o)
 .debug_info    0x0000c33c       0xb8 /local/mnt/workspace/CRMBuilds/TZ.BF.4.0.3.c1-00005-M8996AAAAANAZT-1_20170110_230814/b/HK11/trustzone_images/core/securemsm/trustzone/qsee/mink/libstd/build/secureindicator/scorpion/IADAANAA/libstd.lib(secure_memset.o)
 .debug_info    0x0000c3f4       0xbb /local/mnt/workspace/CRMBuilds/TZ.BF.4.0.3.c1-00005-M8996AAAAANAZT-1_20170110_230814/b/HK11/trustzone_images/core/securemsm/trustzone/qsee/mink/libstd/build/secureindicator/scorpion/IADAANAA/libstd.lib(memcmp.o)
 .debug_info    0x0000c4af       0x96 /local/mnt/workspace/CRMBuilds/TZ.BF.4.0.3.c1-00005-M8996AAAAANAZT-1_20170110_230814/b/HK11/trustzone_images/core/securemsm/trustzone/qsee/mink/libstd/build/secureindicator/scorpion/IADAANAA/libstd.lib(strlen.o)
 .debug_info    0x0000c545       0x73 /local/mnt/workspace/CRMBuilds/TZ.BF.4.0.3.c1-00005-M8996AAAAANAZT-1_20170110_230814/b/HK11/trustzone_images/core/securemsm/trustzone/qsee/mink/libstd/build/secureindicator/scorpion/IADAANAA/libstd.lib(strcmp.o)
 .debug_info    0x0000c5b8      0xac4 /local/mnt/workspace/CRMBuilds/TZ.BF.4.0.3.c1-00005-M8996AAAAANAZT-1_20170110_230814/b/HK11/trustzone_images/core/securemsm/trustzone/qsee/mink/libstd/build/secureindicator/scorpion/IADAANAA/libstd.lib(printf.o)
 .debug_info    0x0000d07c       0x39 /local/mnt/workspace/CRMBuilds/TZ.BF.4.0.3.c1-00005-M8996AAAAANAZT-1_20170110_230814/b/HK11/trustzone_images/core/securemsm/trustzone/qsee/mink/libstd/build/secureindicator/scorpion/IADAANAA/libstd.lib(abort.o)
 .debug_info    0x0000d0b5       0xeb /local/mnt/workspace/CRMBuilds/TZ.BF.4.0.3.c1-00005-M8996AAAAANAZT-1_20170110_230814/b/HK11/trustzone_images/core/securemsm/trustzone/qsee/mink/libstd/build/secureindicator/scorpion/IADAANAA/libstd.lib(memchr.o)
 .debug_info    0x0000d1a0       0x6f /local/mnt/workspace/CRMBuilds/TZ.BF.4.0.3.c1-00005-M8996AAAAANAZT-1_20170110_230814/b/HK11/trustzone_images/apps/securemsm/trustzone/qsapps/secureindicator/oem/build/secureindicator/scorpion/IADAANAA/secureindicator_oem.lib(si_oem.o)
 .debug_info    0x0000d20f      0x60d /local/mnt/workspace/CRMBuilds/TZ.BF.4.0.3.c1-00005-M8996AAAAANAZT-1_20170110_230814/b/HK11/trustzone_images/core/securemsm/trustzone/qsapps/libs/applib/common_applib/build/secureindicator/scorpion/IADAANAA/tzapp_entrylib.lib(gpPersistObjCommon.o)
 .debug_info    0x0000d81c      0x83e /local/mnt/workspace/CRMBuilds/TZ.BF.4.0.3.c1-00005-M8996AAAAANAZT-1_20170110_230814/b/HK11/trustzone_images/core/securemsm/trustzone/qsapps/libs/applib/common_applib/build/secureindicator/scorpion/IADAANAA/tzapp_entrylib.lib(gpPersistentObjects.o)
 .debug_info    0x0000e05a     0x1461 /local/mnt/workspace/CRMBuilds/TZ.BF.4.0.3.c1-00005-M8996AAAAANAZT-1_20170110_230814/b/HK11/trustzone_images/core/securemsm/trustzone/qsapps/libs/applib/common_applib/build/secureindicator/scorpion/IADAANAA/tzapp_entrylib.lib(gpPersistObjData.o)
 .debug_info    0x0000f4bb      0x696 /local/mnt/workspace/CRMBuilds/TZ.BF.4.0.3.c1-00005-M8996AAAAANAZT-1_20170110_230814/b/HK11/trustzone_images/core/securemsm/trustzone/qsapps/libs/applib/common_applib/build/secureindicator/scorpion/IADAANAA/tzapp_entrylib.lib(gpPersistObjHandler.o)
 .debug_info    0x0000fb51      0xd67 /local/mnt/workspace/CRMBuilds/TZ.BF.4.0.3.c1-00005-M8996AAAAANAZT-1_20170110_230814/b/HK11/trustzone_images/core/securemsm/trustzone/qsapps/libs/applib/common_applib/build/secureindicator/scorpion/IADAANAA/tzapp_entrylib.lib(gpPersistObjIndex.o)
 .debug_info    0x000108b8      0x9f1 /local/mnt/workspace/CRMBuilds/TZ.BF.4.0.3.c1-00005-M8996AAAAANAZT-1_20170110_230814/b/HK11/trustzone_images/core/securemsm/trustzone/qsapps/libs/applib/common_applib/build/secureindicator/scorpion/IADAANAA/tzapp_entrylib.lib(gpPersistObjVersion.o)
 .debug_info    0x000112a9      0x8ef /local/mnt/workspace/CRMBuilds/TZ.BF.4.0.3.c1-00005-M8996AAAAANAZT-1_20170110_230814/b/HK11/trustzone_images/core/securemsm/trustzone/qsapps/libs/applib/common_applib/build/secureindicator/scorpion/IADAANAA/tzapp_entrylib.lib(gpPersistObjCrypto.o)
 .debug_info    0x00011b98      0x48d /local/mnt/workspace/CRMBuilds/TZ.BF.4.0.3.c1-00005-M8996AAAAANAZT-1_20170110_230814/b/HK11/trustzone_images/core/securemsm/trustzone/qsapps/libs/applib/common_applib/build/secureindicator/scorpion/IADAANAA/tzapp_entrylib.lib(gpPersistObjFileIO.o)
 .debug_info    0x00012025      0x506 /local/mnt/workspace/CRMBuilds/TZ.BF.4.0.3.c1-00005-M8996AAAAANAZT-1_20170110_230814/b/HK11/trustzone_images/core/securemsm/trustzone/qsapps/libs/applib/common_applib/build/secureindicator/scorpion/IADAANAA/tzapp_entrylib.lib(gpFileService.o)
 .debug_info    0x0001252b      0x6d8 /local/mnt/workspace/CRMBuilds/TZ.BF.4.0.3.c1-00005-M8996AAAAANAZT-1_20170110_230814/b/HK11/trustzone_images/core/securemsm/trustzone/qsapps/libs/applib/qsee/build/secureindicator/scorpion/IADAANAA/tzapp_entrylib.lib(qsee_core_shim.o)
 .debug_info    0x00012c03      0x5a3 /local/mnt/workspace/CRMBuilds/TZ.BF.4.0.3.c1-00005-M8996AAAAANAZT-1_20170110_230814/b/HK11/trustzone_images/core/securemsm/trustzone/qsapps/libs/applib/qsee/build/secureindicator/scorpion/IADAANAA/tzapp_entrylib.lib(stor.o)
 .debug_info    0x000131a6      0xdeb /local/mnt/workspace/CRMBuilds/TZ.BF.4.0.3.c1-00005-M8996AAAAANAZT-1_20170110_230814/b/HK11/trustzone_images/core/securemsm/trustzone/qsapps/libs/applib/qsee/build/secureindicator/scorpion/IADAANAA/tzapp_entrylib.lib(stor_gpt.o)
 .debug_info    0x00013f91      0x4a2 /local/mnt/workspace/CRMBuilds/TZ.BF.4.0.3.c1-00005-M8996AAAAANAZT-1_20170110_230814/b/HK11/trustzone_images/core/securemsm/trustzone/qsapps/libs/applib/qsee/build/secureindicator/scorpion/IADAANAA/tzapp_entrylib.lib(stor_rpmbw.o)
 .debug_info    0x00014433      0x166 /local/mnt/workspace/CRMBuilds/TZ.BF.4.0.3.c1-00005-M8996AAAAANAZT-1_20170110_230814/b/HK11/trustzone_images/core/securemsm/trustzone/qsapps/libs/applib/qsee/build/secureindicator/scorpion/IADAANAA/tzapp_entrylib.lib(qsee_cfg_prop_shim.o)
 .debug_info    0x00014599      0xc62 /local/mnt/workspace/CRMBuilds/TZ.BF.4.0.3.c1-00005-M8996AAAAANAZT-1_20170110_230814/b/HK11/trustzone_images/core/securemsm/trustzone/qsapps/libs/applib/qsee/build/secureindicator/scorpion/IADAANAA/tzapp_entrylib.lib(qsee_cipher.o)
 .debug_info    0x000151fb      0xddc /local/mnt/workspace/CRMBuilds/TZ.BF.4.0.3.c1-00005-M8996AAAAANAZT-1_20170110_230814/b/HK11/trustzone_images/core/securemsm/trustzone/qsapps/libs/applib/qsee/build/secureindicator/scorpion/IADAANAA/tzapp_entrylib.lib(qsee_hash.o)
 .debug_info    0x00015fd7      0x81a /local/mnt/workspace/CRMBuilds/TZ.BF.4.0.3.c1-00005-M8996AAAAANAZT-1_20170110_230814/b/HK11/trustzone_images/core/securemsm/trustzone/qsapps/libs/applib/qsee/build/secureindicator/scorpion/IADAANAA/tzapp_entrylib.lib(qsee_hmac.o)
 .debug_info    0x000167f1       0x8c /local/mnt/workspace/CRMBuilds/TZ.BF.4.0.3.c1-00005-M8996AAAAANAZT-1_20170110_230814/b/HK11/trustzone_images/core/securemsm/trustzone/qsapps/libs/applib/qsee/build/secureindicator/scorpion/IADAANAA/tzapp_entrylib.lib(gpPersistObjPanic.o)
 .debug_info    0x0001687d      0x3c3 /local/mnt/workspace/CRMBuilds/TZ.BF.4.0.3.c1-00005-M8996AAAAANAZT-1_20170110_230814/b/HK11/trustzone_images/core/securemsm/trustzone/qsapps/libs/services/build/secureindicator/scorpion/IADAANAA/qsee_services.lib(qsee_kdf.o)
 .debug_info    0x00016c40       0xcd /local/mnt/workspace/CRMBuilds/TZ.BF.4.0.3.c1-00005-M8996AAAAANAZT-1_20170110_230814/b/HK11/trustzone_images/core/securemsm/trustzone/qsee/mink/libstd/build/secureindicator/scorpion/IADAANAA/libstd.lib(strlcat.o)
 .debug_info    0x00016d0d       0xbe /local/mnt/workspace/CRMBuilds/TZ.BF.4.0.3.c1-00005-M8996AAAAANAZT-1_20170110_230814/b/HK11/trustzone_images/core/securemsm/trustzone/qsee/mink/libstd/build/secureindicator/scorpion/IADAANAA/libstd.lib(strlcpy.o)
 .debug_info    0x00016dcb       0xcd /local/mnt/workspace/CRMBuilds/TZ.BF.4.0.3.c1-00005-M8996AAAAANAZT-1_20170110_230814/b/HK11/trustzone_images/core/securemsm/trustzone/qsee/mink/libstd/build/secureindicator/scorpion/IADAANAA/libstd.lib(timesafe_memcmp.o)
 .debug_info    0x00016e98       0xad /local/mnt/workspace/CRMBuilds/TZ.BF.4.0.3.c1-00005-M8996AAAAANAZT-1_20170110_230814/b/HK11/trustzone_images/core/securemsm/trustzone/qsee/mink/libstd/build/secureindicator/scorpion/IADAANAA/libstd.lib(memset.o)
 .debug_info    0x00016f45       0xed /local/mnt/workspace/CRMBuilds/TZ.BF.4.0.3.c1-00005-M8996AAAAANAZT-1_20170110_230814/b/HK11/trustzone_images/core/securemsm/trustzone/qsee/mink/libstd/build/secureindicator/scorpion/IADAANAA/libstd.lib(memcpy.o)
 .debug_info    0x00017032       0xc6 /local/mnt/workspace/CRMBuilds/TZ.BF.4.0.3.c1-00005-M8996AAAAANAZT-1_20170110_230814/b/HK11/trustzone_images/core/securemsm/trustzone/qsee/mink/libstd/build/secureindicator/scorpion/IADAANAA/libstd.lib(strncmp.o)

.debug_abbrev   0x00000000     0x489f
 .debug_abbrev  0x00000000       0xbb /local/mnt/workspace/CRMBuilds/TZ.BF.4.0.3.c1-00005-M8996AAAAANAZT-1_20170110_230814/b/HK11/trustzone_images/apps/securemsm/trustzone/qsapps/secureindicator/build/secureindicator/scorpion/IADAANAA/si_main.o
 .debug_abbrev  0x000000bb      0x289 /local/mnt/workspace/CRMBuilds/TZ.BF.4.0.3.c1-00005-M8996AAAAANAZT-1_20170110_230814/b/HK11/trustzone_images/apps/securemsm/trustzone/qsapps/secureindicator/build/secureindicator/scorpion/IADAANAA/si.o
 .debug_abbrev  0x00000344       0x63 /local/mnt/workspace/CRMBuilds/TZ.BF.4.0.3.c1-00005-M8996AAAAANAZT-1_20170110_230814/b/HK11/trustzone_images/apps/securemsm/trustzone/qsapps/secureindicator/build/secureindicator/scorpion/IADAANAA/metadata.o
 .debug_abbrev  0x000003a7      0x1ff /local/mnt/workspace/CRMBuilds/TZ.BF.4.0.3.c1-00005-M8996AAAAANAZT-1_20170110_230814/b/HK11/trustzone_images/core/securemsm/sse/qsee/SecureDisplay/libpng/build/secureindicator/scorpion/IADAANAA/libpng.lib(png.o)
 .debug_abbrev  0x000005a6      0x191 /local/mnt/workspace/CRMBuilds/TZ.BF.4.0.3.c1-00005-M8996AAAAANAZT-1_20170110_230814/b/HK11/trustzone_images/core/securemsm/sse/qsee/SecureDisplay/libpng/build/secureindicator/scorpion/IADAANAA/libpng.lib(pngerror.o)
 .debug_abbrev  0x00000737      0x136 /local/mnt/workspace/CRMBuilds/TZ.BF.4.0.3.c1-00005-M8996AAAAANAZT-1_20170110_230814/b/HK11/trustzone_images/core/securemsm/sse/qsee/SecureDisplay/libpng/build/secureindicator/scorpion/IADAANAA/libpng.lib(pngget.o)
 .debug_abbrev  0x0000086d      0x17c /local/mnt/workspace/CRMBuilds/TZ.BF.4.0.3.c1-00005-M8996AAAAANAZT-1_20170110_230814/b/HK11/trustzone_images/core/securemsm/sse/qsee/SecureDisplay/libpng/build/secureindicator/scorpion/IADAANAA/libpng.lib(pngmem.o)
 .debug_abbrev  0x000009e9      0x1cb /local/mnt/workspace/CRMBuilds/TZ.BF.4.0.3.c1-00005-M8996AAAAANAZT-1_20170110_230814/b/HK11/trustzone_images/core/securemsm/sse/qsee/SecureDisplay/libpng/build/secureindicator/scorpion/IADAANAA/libpng.lib(pngread.o)
 .debug_abbrev  0x00000bb4       0xee /local/mnt/workspace/CRMBuilds/TZ.BF.4.0.3.c1-00005-M8996AAAAANAZT-1_20170110_230814/b/HK11/trustzone_images/core/securemsm/sse/qsee/SecureDisplay/libpng/build/secureindicator/scorpion/IADAANAA/libpng.lib(pngrio.o)
 .debug_abbrev  0x00000ca2      0x2a1 /local/mnt/workspace/CRMBuilds/TZ.BF.4.0.3.c1-00005-M8996AAAAANAZT-1_20170110_230814/b/HK11/trustzone_images/core/securemsm/sse/qsee/SecureDisplay/libpng/build/secureindicator/scorpion/IADAANAA/libpng.lib(pngrutil.o)
 .debug_abbrev  0x00000f43      0x13f /local/mnt/workspace/CRMBuilds/TZ.BF.4.0.3.c1-00005-M8996AAAAANAZT-1_20170110_230814/b/HK11/trustzone_images/core/securemsm/sse/qsee/SecureDisplay/libpng/build/secureindicator/scorpion/IADAANAA/libpng.lib(pngset.o)
 .debug_abbrev  0x00001082      0x19e /local/mnt/workspace/CRMBuilds/TZ.BF.4.0.3.c1-00005-M8996AAAAANAZT-1_20170110_230814/b/HK11/trustzone_images/core/securemsm/sse/qsee/SecureDisplay/zlib/build/secureindicator/scorpion/IADAANAA/zlib.lib(crc32.o)
 .debug_abbrev  0x00001220      0x233 /local/mnt/workspace/CRMBuilds/TZ.BF.4.0.3.c1-00005-M8996AAAAANAZT-1_20170110_230814/b/HK11/trustzone_images/core/securemsm/sse/qsee/SecureDisplay/zlib/build/secureindicator/scorpion/IADAANAA/zlib.lib(inflate.o)
 .debug_abbrev  0x00001453      0x11b /local/mnt/workspace/CRMBuilds/TZ.BF.4.0.3.c1-00005-M8996AAAAANAZT-1_20170110_230814/b/HK11/trustzone_images/core/securemsm/sse/qsee/SecureDisplay/zlib/build/secureindicator/scorpion/IADAANAA/zlib.lib(inftrees.o)
 .debug_abbrev  0x0000156e      0x110 /local/mnt/workspace/CRMBuilds/TZ.BF.4.0.3.c1-00005-M8996AAAAANAZT-1_20170110_230814/b/HK11/trustzone_images/core/securemsm/sse/qsee/SecureDisplay/zlib/build/secureindicator/scorpion/IADAANAA/zlib.lib(zutil.o)
 .debug_abbrev  0x0000167e       0x9c /local/mnt/workspace/CRMBuilds/TZ.BF.4.0.3.c1-00005-M8996AAAAANAZT-1_20170110_230814/b/HK11/trustzone_images/core/securemsm/sse/qsee/SecureDisplay/zlib/build/secureindicator/scorpion/IADAANAA/zlib.lib(adler32.o)
 .debug_abbrev  0x0000171a      0x13a /local/mnt/workspace/CRMBuilds/TZ.BF.4.0.3.c1-00005-M8996AAAAANAZT-1_20170110_230814/b/HK11/trustzone_images/core/securemsm/sse/qsee/SecureDisplay/zlib/build/secureindicator/scorpion/IADAANAA/zlib.lib(inffast.o)
 .debug_abbrev  0x00001854      0x303 /local/mnt/workspace/CRMBuilds/TZ.BF.4.0.3.c1-00005-M8996AAAAANAZT-1_20170110_230814/b/HK11/trustzone_images/core/securemsm/trustzone/qsapps/libs/applib/common_applib/build/secureindicator/scorpion/IADAANAA/tzapp_entrylib.lib(common_applib.o)
 .debug_abbrev  0x00001b57      0x181 /local/mnt/workspace/CRMBuilds/TZ.BF.4.0.3.c1-00005-M8996AAAAANAZT-1_20170110_230814/b/HK11/trustzone_images/core/securemsm/trustzone/qsapps/libs/applib/qsee/build/secureindicator/scorpion/IADAANAA/tzapp_entrylib.lib(mink_shared_code.o)
 .debug_abbrev  0x00001cd8      0x184 /local/mnt/workspace/CRMBuilds/TZ.BF.4.0.3.c1-00005-M8996AAAAANAZT-1_20170110_230814/b/HK11/trustzone_images/core/securemsm/trustzone/qsapps/libs/applib/qsee/build/secureindicator/scorpion/IADAANAA/tzapp_entrylib.lib(qsee_env.o)
 .debug_abbrev  0x00001e5c      0x126 /local/mnt/workspace/CRMBuilds/TZ.BF.4.0.3.c1-00005-M8996AAAAANAZT-1_20170110_230814/b/HK11/trustzone_images/core/securemsm/trustzone/qsapps/libs/applib/qsee/build/secureindicator/scorpion/IADAANAA/tzapp_entrylib.lib(qsee_prng.o)
 .debug_abbrev  0x00001f82      0x17a /local/mnt/workspace/CRMBuilds/TZ.BF.4.0.3.c1-00005-M8996AAAAANAZT-1_20170110_230814/b/HK11/trustzone_images/core/securemsm/trustzone/qsapps/libs/applib/qsee/build/secureindicator/scorpion/IADAANAA/tzapp_entrylib.lib(qsee_appmessage.o)
 .debug_abbrev  0x000020fc      0x1ae /local/mnt/workspace/CRMBuilds/TZ.BF.4.0.3.c1-00005-M8996AAAAANAZT-1_20170110_230814/b/HK11/trustzone_images/core/securemsm/trustzone/qsapps/libs/applib/qsee/build/secureindicator/scorpion/IADAANAA/tzapp_entrylib.lib(sfs_api.o)
 .debug_abbrev  0x000022aa      0x11a /local/mnt/workspace/CRMBuilds/TZ.BF.4.0.3.c1-00005-M8996AAAAANAZT-1_20170110_230814/b/HK11/trustzone_images/core/securemsm/trustzone/qsapps/libs/applib/qsee/build/secureindicator/scorpion/IADAANAA/tzapp_entrylib.lib(tzapp_lib_main.o)
 .debug_abbrev  0x000023c4       0xec /local/mnt/workspace/CRMBuilds/TZ.BF.4.0.3.c1-00005-M8996AAAAANAZT-1_20170110_230814/b/HK11/trustzone_images/core/securemsm/trustzone/qsapps/libs/services/build/secureindicator/scorpion/IADAANAA/qsee_services.lib(qsee_log.o)
 .debug_abbrev  0x000024b0       0x8a /local/mnt/workspace/CRMBuilds/TZ.BF.4.0.3.c1-00005-M8996AAAAANAZT-1_20170110_230814/b/HK11/trustzone_images/core/securemsm/trustzone/qsee/mink/libstd/build/secureindicator/scorpion/IADAANAA/libstd.lib(memscpy.o)
 .debug_abbrev  0x0000253a       0x83 /local/mnt/workspace/CRMBuilds/TZ.BF.4.0.3.c1-00005-M8996AAAAANAZT-1_20170110_230814/b/HK11/trustzone_images/core/securemsm/trustzone/qsee/mink/libstd/build/secureindicator/scorpion/IADAANAA/libstd.lib(secure_memset.o)
 .debug_abbrev  0x000025bd       0x7b /local/mnt/workspace/CRMBuilds/TZ.BF.4.0.3.c1-00005-M8996AAAAANAZT-1_20170110_230814/b/HK11/trustzone_images/core/securemsm/trustzone/qsee/mink/libstd/build/secureindicator/scorpion/IADAANAA/libstd.lib(memcmp.o)
 .debug_abbrev  0x00002638       0x83 /local/mnt/workspace/CRMBuilds/TZ.BF.4.0.3.c1-00005-M8996AAAAANAZT-1_20170110_230814/b/HK11/trustzone_images/core/securemsm/trustzone/qsee/mink/libstd/build/secureindicator/scorpion/IADAANAA/libstd.lib(strlen.o)
 .debug_abbrev  0x000026bb       0x69 /local/mnt/workspace/CRMBuilds/TZ.BF.4.0.3.c1-00005-M8996AAAAANAZT-1_20170110_230814/b/HK11/trustzone_images/core/securemsm/trustzone/qsee/mink/libstd/build/secureindicator/scorpion/IADAANAA/libstd.lib(strcmp.o)
 .debug_abbrev  0x00002724      0x261 /local/mnt/workspace/CRMBuilds/TZ.BF.4.0.3.c1-00005-M8996AAAAANAZT-1_20170110_230814/b/HK11/trustzone_images/core/securemsm/trustzone/qsee/mink/libstd/build/secureindicator/scorpion/IADAANAA/libstd.lib(printf.o)
 .debug_abbrev  0x00002985       0x2e /local/mnt/workspace/CRMBuilds/TZ.BF.4.0.3.c1-00005-M8996AAAAANAZT-1_20170110_230814/b/HK11/trustzone_images/core/securemsm/trustzone/qsee/mink/libstd/build/secureindicator/scorpion/IADAANAA/libstd.lib(abort.o)
 .debug_abbrev  0x000029b3       0x8b /local/mnt/workspace/CRMBuilds/TZ.BF.4.0.3.c1-00005-M8996AAAAANAZT-1_20170110_230814/b/HK11/trustzone_images/core/securemsm/trustzone/qsee/mink/libstd/build/secureindicator/scorpion/IADAANAA/libstd.lib(memchr.o)
 .debug_abbrev  0x00002a3e       0x5a /local/mnt/workspace/CRMBuilds/TZ.BF.4.0.3.c1-00005-M8996AAAAANAZT-1_20170110_230814/b/HK11/trustzone_images/apps/securemsm/trustzone/qsapps/secureindicator/oem/build/secureindicator/scorpion/IADAANAA/secureindicator_oem.lib(si_oem.o)
 .debug_abbrev  0x00002a98      0x182 /local/mnt/workspace/CRMBuilds/TZ.BF.4.0.3.c1-00005-M8996AAAAANAZT-1_20170110_230814/b/HK11/trustzone_images/core/securemsm/trustzone/qsapps/libs/applib/common_applib/build/secureindicator/scorpion/IADAANAA/tzapp_entrylib.lib(gpPersistObjCommon.o)
 .debug_abbrev  0x00002c1a      0x150 /local/mnt/workspace/CRMBuilds/TZ.BF.4.0.3.c1-00005-M8996AAAAANAZT-1_20170110_230814/b/HK11/trustzone_images/core/securemsm/trustzone/qsapps/libs/applib/common_applib/build/secureindicator/scorpion/IADAANAA/tzapp_entrylib.lib(gpPersistentObjects.o)
 .debug_abbrev  0x00002d6a      0x1eb /local/mnt/workspace/CRMBuilds/TZ.BF.4.0.3.c1-00005-M8996AAAAANAZT-1_20170110_230814/b/HK11/trustzone_images/core/securemsm/trustzone/qsapps/libs/applib/common_applib/build/secureindicator/scorpion/IADAANAA/tzapp_entrylib.lib(gpPersistObjData.o)
 .debug_abbrev  0x00002f55      0x18d /local/mnt/workspace/CRMBuilds/TZ.BF.4.0.3.c1-00005-M8996AAAAANAZT-1_20170110_230814/b/HK11/trustzone_images/core/securemsm/trustzone/qsapps/libs/applib/common_applib/build/secureindicator/scorpion/IADAANAA/tzapp_entrylib.lib(gpPersistObjHandler.o)
 .debug_abbrev  0x000030e2      0x21c /local/mnt/workspace/CRMBuilds/TZ.BF.4.0.3.c1-00005-M8996AAAAANAZT-1_20170110_230814/b/HK11/trustzone_images/core/securemsm/trustzone/qsapps/libs/applib/common_applib/build/secureindicator/scorpion/IADAANAA/tzapp_entrylib.lib(gpPersistObjIndex.o)
 .debug_abbrev  0x000032fe      0x21e /local/mnt/workspace/CRMBuilds/TZ.BF.4.0.3.c1-00005-M8996AAAAANAZT-1_20170110_230814/b/HK11/trustzone_images/core/securemsm/trustzone/qsapps/libs/applib/common_applib/build/secureindicator/scorpion/IADAANAA/tzapp_entrylib.lib(gpPersistObjVersion.o)
 .debug_abbrev  0x0000351c      0x1e5 /local/mnt/workspace/CRMBuilds/TZ.BF.4.0.3.c1-00005-M8996AAAAANAZT-1_20170110_230814/b/HK11/trustzone_images/core/securemsm/trustzone/qsapps/libs/applib/common_applib/build/secureindicator/scorpion/IADAANAA/tzapp_entrylib.lib(gpPersistObjCrypto.o)
 .debug_abbrev  0x00003701       0xdf /local/mnt/workspace/CRMBuilds/TZ.BF.4.0.3.c1-00005-M8996AAAAANAZT-1_20170110_230814/b/HK11/trustzone_images/core/securemsm/trustzone/qsapps/libs/applib/common_applib/build/secureindicator/scorpion/IADAANAA/tzapp_entrylib.lib(gpPersistObjFileIO.o)
 .debug_abbrev  0x000037e0      0x10b /local/mnt/workspace/CRMBuilds/TZ.BF.4.0.3.c1-00005-M8996AAAAANAZT-1_20170110_230814/b/HK11/trustzone_images/core/securemsm/trustzone/qsapps/libs/applib/common_applib/build/secureindicator/scorpion/IADAANAA/tzapp_entrylib.lib(gpFileService.o)
 .debug_abbrev  0x000038eb       0xf9 /local/mnt/workspace/CRMBuilds/TZ.BF.4.0.3.c1-00005-M8996AAAAANAZT-1_20170110_230814/b/HK11/trustzone_images/core/securemsm/trustzone/qsapps/libs/applib/qsee/build/secureindicator/scorpion/IADAANAA/tzapp_entrylib.lib(qsee_core_shim.o)
 .debug_abbrev  0x000039e4      0x160 /local/mnt/workspace/CRMBuilds/TZ.BF.4.0.3.c1-00005-M8996AAAAANAZT-1_20170110_230814/b/HK11/trustzone_images/core/securemsm/trustzone/qsapps/libs/applib/qsee/build/secureindicator/scorpion/IADAANAA/tzapp_entrylib.lib(stor.o)
 .debug_abbrev  0x00003b44      0x18e /local/mnt/workspace/CRMBuilds/TZ.BF.4.0.3.c1-00005-M8996AAAAANAZT-1_20170110_230814/b/HK11/trustzone_images/core/securemsm/trustzone/qsapps/libs/applib/qsee/build/secureindicator/scorpion/IADAANAA/tzapp_entrylib.lib(stor_gpt.o)
 .debug_abbrev  0x00003cd2       0xd3 /local/mnt/workspace/CRMBuilds/TZ.BF.4.0.3.c1-00005-M8996AAAAANAZT-1_20170110_230814/b/HK11/trustzone_images/core/securemsm/trustzone/qsapps/libs/applib/qsee/build/secureindicator/scorpion/IADAANAA/tzapp_entrylib.lib(stor_rpmbw.o)
 .debug_abbrev  0x00003da5       0xc1 /local/mnt/workspace/CRMBuilds/TZ.BF.4.0.3.c1-00005-M8996AAAAANAZT-1_20170110_230814/b/HK11/trustzone_images/core/securemsm/trustzone/qsapps/libs/applib/qsee/build/secureindicator/scorpion/IADAANAA/tzapp_entrylib.lib(qsee_cfg_prop_shim.o)
 .debug_abbrev  0x00003e66      0x1d3 /local/mnt/workspace/CRMBuilds/TZ.BF.4.0.3.c1-00005-M8996AAAAANAZT-1_20170110_230814/b/HK11/trustzone_images/core/securemsm/trustzone/qsapps/libs/applib/qsee/build/secureindicator/scorpion/IADAANAA/tzapp_entrylib.lib(qsee_cipher.o)
 .debug_abbrev  0x00004039      0x1bc /local/mnt/workspace/CRMBuilds/TZ.BF.4.0.3.c1-00005-M8996AAAAANAZT-1_20170110_230814/b/HK11/trustzone_images/core/securemsm/trustzone/qsapps/libs/applib/qsee/build/secureindicator/scorpion/IADAANAA/tzapp_entrylib.lib(qsee_hash.o)
 .debug_abbrev  0x000041f5      0x1a3 /local/mnt/workspace/CRMBuilds/TZ.BF.4.0.3.c1-00005-M8996AAAAANAZT-1_20170110_230814/b/HK11/trustzone_images/core/securemsm/trustzone/qsapps/libs/applib/qsee/build/secureindicator/scorpion/IADAANAA/tzapp_entrylib.lib(qsee_hmac.o)
 .debug_abbrev  0x00004398       0x84 /local/mnt/workspace/CRMBuilds/TZ.BF.4.0.3.c1-00005-M8996AAAAANAZT-1_20170110_230814/b/HK11/trustzone_images/core/securemsm/trustzone/qsapps/libs/applib/qsee/build/secureindicator/scorpion/IADAANAA/tzapp_entrylib.lib(gpPersistObjPanic.o)
 .debug_abbrev  0x0000441c      0x145 /local/mnt/workspace/CRMBuilds/TZ.BF.4.0.3.c1-00005-M8996AAAAANAZT-1_20170110_230814/b/HK11/trustzone_images/core/securemsm/trustzone/qsapps/libs/services/build/secureindicator/scorpion/IADAANAA/qsee_services.lib(qsee_kdf.o)
 .debug_abbrev  0x00004561       0x94 /local/mnt/workspace/CRMBuilds/TZ.BF.4.0.3.c1-00005-M8996AAAAANAZT-1_20170110_230814/b/HK11/trustzone_images/core/securemsm/trustzone/qsee/mink/libstd/build/secureindicator/scorpion/IADAANAA/libstd.lib(strlcat.o)
 .debug_abbrev  0x000045f5       0x94 /local/mnt/workspace/CRMBuilds/TZ.BF.4.0.3.c1-00005-M8996AAAAANAZT-1_20170110_230814/b/HK11/trustzone_images/core/securemsm/trustzone/qsee/mink/libstd/build/secureindicator/scorpion/IADAANAA/libstd.lib(strlcpy.o)
 .debug_abbrev  0x00004689       0x83 /local/mnt/workspace/CRMBuilds/TZ.BF.4.0.3.c1-00005-M8996AAAAANAZT-1_20170110_230814/b/HK11/trustzone_images/core/securemsm/trustzone/qsee/mink/libstd/build/secureindicator/scorpion/IADAANAA/libstd.lib(timesafe_memcmp.o)
 .debug_abbrev  0x0000470c       0x85 /local/mnt/workspace/CRMBuilds/TZ.BF.4.0.3.c1-00005-M8996AAAAANAZT-1_20170110_230814/b/HK11/trustzone_images/core/securemsm/trustzone/qsee/mink/libstd/build/secureindicator/scorpion/IADAANAA/libstd.lib(memset.o)
 .debug_abbrev  0x00004791       0x98 /local/mnt/workspace/CRMBuilds/TZ.BF.4.0.3.c1-00005-M8996AAAAANAZT-1_20170110_230814/b/HK11/trustzone_images/core/securemsm/trustzone/qsee/mink/libstd/build/secureindicator/scorpion/IADAANAA/libstd.lib(memcpy.o)
 .debug_abbrev  0x00004829       0x76 /local/mnt/workspace/CRMBuilds/TZ.BF.4.0.3.c1-00005-M8996AAAAANAZT-1_20170110_230814/b/HK11/trustzone_images/core/securemsm/trustzone/qsee/mink/libstd/build/secureindicator/scorpion/IADAANAA/libstd.lib(strncmp.o)

.debug_line     0x00000000     0xc3e9
 .debug_line    0x00000000      0x282 /local/mnt/workspace/CRMBuilds/TZ.BF.4.0.3.c1-00005-M8996AAAAANAZT-1_20170110_230814/b/HK11/trustzone_images/apps/securemsm/trustzone/qsapps/secureindicator/build/secureindicator/scorpion/IADAANAA/si_main.o
 .debug_line    0x00000282      0x4ec /local/mnt/workspace/CRMBuilds/TZ.BF.4.0.3.c1-00005-M8996AAAAANAZT-1_20170110_230814/b/HK11/trustzone_images/apps/securemsm/trustzone/qsapps/secureindicator/build/secureindicator/scorpion/IADAANAA/si.o
 .debug_line    0x0000076e       0xf0 /local/mnt/workspace/CRMBuilds/TZ.BF.4.0.3.c1-00005-M8996AAAAANAZT-1_20170110_230814/b/HK11/trustzone_images/apps/securemsm/trustzone/qsapps/secureindicator/build/secureindicator/scorpion/IADAANAA/metadata.o
 .debug_line    0x0000085e      0x466 /local/mnt/workspace/CRMBuilds/TZ.BF.4.0.3.c1-00005-M8996AAAAANAZT-1_20170110_230814/b/HK11/trustzone_images/core/securemsm/sse/qsee/SecureDisplay/libpng/build/secureindicator/scorpion/IADAANAA/libpng.lib(png.o)
 .debug_line    0x00000cc4      0x2f3 /local/mnt/workspace/CRMBuilds/TZ.BF.4.0.3.c1-00005-M8996AAAAANAZT-1_20170110_230814/b/HK11/trustzone_images/core/securemsm/sse/qsee/SecureDisplay/libpng/build/secureindicator/scorpion/IADAANAA/libpng.lib(pngerror.o)
 .debug_line    0x00000fb7      0x2f5 /local/mnt/workspace/CRMBuilds/TZ.BF.4.0.3.c1-00005-M8996AAAAANAZT-1_20170110_230814/b/HK11/trustzone_images/core/securemsm/sse/qsee/SecureDisplay/libpng/build/secureindicator/scorpion/IADAANAA/libpng.lib(pngget.o)
 .debug_line    0x000012ac      0x2fd /local/mnt/workspace/CRMBuilds/TZ.BF.4.0.3.c1-00005-M8996AAAAANAZT-1_20170110_230814/b/HK11/trustzone_images/core/securemsm/sse/qsee/SecureDisplay/libpng/build/secureindicator/scorpion/IADAANAA/libpng.lib(pngmem.o)
 .debug_line    0x000015a9      0x414 /local/mnt/workspace/CRMBuilds/TZ.BF.4.0.3.c1-00005-M8996AAAAANAZT-1_20170110_230814/b/HK11/trustzone_images/core/securemsm/sse/qsee/SecureDisplay/libpng/build/secureindicator/scorpion/IADAANAA/libpng.lib(pngread.o)
 .debug_line    0x000019bd      0x2ac /local/mnt/workspace/CRMBuilds/TZ.BF.4.0.3.c1-00005-M8996AAAAANAZT-1_20170110_230814/b/HK11/trustzone_images/core/securemsm/sse/qsee/SecureDisplay/libpng/build/secureindicator/scorpion/IADAANAA/libpng.lib(pngrio.o)
 .debug_line    0x00001c69      0x6dd /local/mnt/workspace/CRMBuilds/TZ.BF.4.0.3.c1-00005-M8996AAAAANAZT-1_20170110_230814/b/HK11/trustzone_images/core/securemsm/sse/qsee/SecureDisplay/libpng/build/secureindicator/scorpion/IADAANAA/libpng.lib(pngrutil.o)
 .debug_line    0x00002346      0x325 /local/mnt/workspace/CRMBuilds/TZ.BF.4.0.3.c1-00005-M8996AAAAANAZT-1_20170110_230814/b/HK11/trustzone_images/core/securemsm/sse/qsee/SecureDisplay/libpng/build/secureindicator/scorpion/IADAANAA/libpng.lib(pngset.o)
 .debug_line    0x0000266b      0x285 /local/mnt/workspace/CRMBuilds/TZ.BF.4.0.3.c1-00005-M8996AAAAANAZT-1_20170110_230814/b/HK11/trustzone_images/core/securemsm/sse/qsee/SecureDisplay/zlib/build/secureindicator/scorpion/IADAANAA/zlib.lib(crc32.o)
 .debug_line    0x000028f0      0xade /local/mnt/workspace/CRMBuilds/TZ.BF.4.0.3.c1-00005-M8996AAAAANAZT-1_20170110_230814/b/HK11/trustzone_images/core/securemsm/sse/qsee/SecureDisplay/zlib/build/secureindicator/scorpion/IADAANAA/zlib.lib(inflate.o)
 .debug_line    0x000033ce      0x2b9 /local/mnt/workspace/CRMBuilds/TZ.BF.4.0.3.c1-00005-M8996AAAAANAZT-1_20170110_230814/b/HK11/trustzone_images/core/securemsm/sse/qsee/SecureDisplay/zlib/build/secureindicator/scorpion/IADAANAA/zlib.lib(inftrees.o)
 .debug_line    0x00003687      0x18e /local/mnt/workspace/CRMBuilds/TZ.BF.4.0.3.c1-00005-M8996AAAAANAZT-1_20170110_230814/b/HK11/trustzone_images/core/securemsm/sse/qsee/SecureDisplay/zlib/build/secureindicator/scorpion/IADAANAA/zlib.lib(zutil.o)
 .debug_line    0x00003815      0x26c /local/mnt/workspace/CRMBuilds/TZ.BF.4.0.3.c1-00005-M8996AAAAANAZT-1_20170110_230814/b/HK11/trustzone_images/core/securemsm/sse/qsee/SecureDisplay/zlib/build/secureindicator/scorpion/IADAANAA/zlib.lib(adler32.o)
 .debug_line    0x00003a81      0x37b /local/mnt/workspace/CRMBuilds/TZ.BF.4.0.3.c1-00005-M8996AAAAANAZT-1_20170110_230814/b/HK11/trustzone_images/core/securemsm/sse/qsee/SecureDisplay/zlib/build/secureindicator/scorpion/IADAANAA/zlib.lib(inffast.o)
 .debug_line    0x00003dfc      0x7c6 /local/mnt/workspace/CRMBuilds/TZ.BF.4.0.3.c1-00005-M8996AAAAANAZT-1_20170110_230814/b/HK11/trustzone_images/core/securemsm/trustzone/qsapps/libs/applib/common_applib/build/secureindicator/scorpion/IADAANAA/tzapp_entrylib.lib(common_applib.o)
 .debug_line    0x000045c2      0x36c /local/mnt/workspace/CRMBuilds/TZ.BF.4.0.3.c1-00005-M8996AAAAANAZT-1_20170110_230814/b/HK11/trustzone_images/core/securemsm/trustzone/qsapps/libs/applib/qsee/build/secureindicator/scorpion/IADAANAA/tzapp_entrylib.lib(mink_shared_code.o)
 .debug_line    0x0000492e      0x2f9 /local/mnt/workspace/CRMBuilds/TZ.BF.4.0.3.c1-00005-M8996AAAAANAZT-1_20170110_230814/b/HK11/trustzone_images/core/securemsm/trustzone/qsapps/libs/applib/qsee/build/secureindicator/scorpion/IADAANAA/tzapp_entrylib.lib(qsee_env.o)
 .debug_line    0x00004c27      0x28b /local/mnt/workspace/CRMBuilds/TZ.BF.4.0.3.c1-00005-M8996AAAAANAZT-1_20170110_230814/b/HK11/trustzone_images/core/securemsm/trustzone/qsapps/libs/applib/qsee/build/secureindicator/scorpion/IADAANAA/tzapp_entrylib.lib(qsee_prng.o)
 .debug_line    0x00004eb2      0x310 /local/mnt/workspace/CRMBuilds/TZ.BF.4.0.3.c1-00005-M8996AAAAANAZT-1_20170110_230814/b/HK11/trustzone_images/core/securemsm/trustzone/qsapps/libs/applib/qsee/build/secureindicator/scorpion/IADAANAA/tzapp_entrylib.lib(qsee_appmessage.o)
 .debug_line    0x000051c2      0x4fa /local/mnt/workspace/CRMBuilds/TZ.BF.4.0.3.c1-00005-M8996AAAAANAZT-1_20170110_230814/b/HK11/trustzone_images/core/securemsm/trustzone/qsapps/libs/applib/qsee/build/secureindicator/scorpion/IADAANAA/tzapp_entrylib.lib(sfs_api.o)
 .debug_line    0x000056bc      0x218 /local/mnt/workspace/CRMBuilds/TZ.BF.4.0.3.c1-00005-M8996AAAAANAZT-1_20170110_230814/b/HK11/trustzone_images/core/securemsm/trustzone/qsapps/libs/applib/qsee/build/secureindicator/scorpion/IADAANAA/tzapp_entrylib.lib(tzapp_lib_main.o)
 .debug_line    0x000058d4      0x13c /local/mnt/workspace/CRMBuilds/TZ.BF.4.0.3.c1-00005-M8996AAAAANAZT-1_20170110_230814/b/HK11/trustzone_images/core/securemsm/trustzone/qsapps/libs/services/build/secureindicator/scorpion/IADAANAA/qsee_services.lib(qsee_log.o)
 .debug_line    0x00005a10      0x126 /local/mnt/workspace/CRMBuilds/TZ.BF.4.0.3.c1-00005-M8996AAAAANAZT-1_20170110_230814/b/HK11/trustzone_images/core/securemsm/trustzone/qsee/mink/libstd/build/secureindicator/scorpion/IADAANAA/libstd.lib(memscpy.o)
 .debug_line    0x00005b36      0x12d /local/mnt/workspace/CRMBuilds/TZ.BF.4.0.3.c1-00005-M8996AAAAANAZT-1_20170110_230814/b/HK11/trustzone_images/core/securemsm/trustzone/qsee/mink/libstd/build/secureindicator/scorpion/IADAANAA/libstd.lib(secure_memset.o)
 .debug_line    0x00005c63      0x13a /local/mnt/workspace/CRMBuilds/TZ.BF.4.0.3.c1-00005-M8996AAAAANAZT-1_20170110_230814/b/HK11/trustzone_images/core/securemsm/trustzone/qsee/mink/libstd/build/secureindicator/scorpion/IADAANAA/libstd.lib(memcmp.o)
 .debug_line    0x00005d9d      0x147 /local/mnt/workspace/CRMBuilds/TZ.BF.4.0.3.c1-00005-M8996AAAAANAZT-1_20170110_230814/b/HK11/trustzone_images/core/securemsm/trustzone/qsee/mink/libstd/build/secureindicator/scorpion/IADAANAA/libstd.lib(strlen.o)
 .debug_line    0x00005ee4       0xdb /local/mnt/workspace/CRMBuilds/TZ.BF.4.0.3.c1-00005-M8996AAAAANAZT-1_20170110_230814/b/HK11/trustzone_images/core/securemsm/trustzone/qsee/mink/libstd/build/secureindicator/scorpion/IADAANAA/libstd.lib(strcmp.o)
 .debug_line    0x00005fbf      0x559 /local/mnt/workspace/CRMBuilds/TZ.BF.4.0.3.c1-00005-M8996AAAAANAZT-1_20170110_230814/b/HK11/trustzone_images/core/securemsm/trustzone/qsee/mink/libstd/build/secureindicator/scorpion/IADAANAA/libstd.lib(printf.o)
 .debug_line    0x00006518       0xd2 /local/mnt/workspace/CRMBuilds/TZ.BF.4.0.3.c1-00005-M8996AAAAANAZT-1_20170110_230814/b/HK11/trustzone_images/core/securemsm/trustzone/qsee/mink/libstd/build/secureindicator/scorpion/IADAANAA/libstd.lib(abort.o)
 .debug_line    0x000065ea      0x183 /local/mnt/workspace/CRMBuilds/TZ.BF.4.0.3.c1-00005-M8996AAAAANAZT-1_20170110_230814/b/HK11/trustzone_images/core/securemsm/trustzone/qsee/mink/libstd/build/secureindicator/scorpion/IADAANAA/libstd.lib(memchr.o)
 .debug_line    0x0000676d       0xce /local/mnt/workspace/CRMBuilds/TZ.BF.4.0.3.c1-00005-M8996AAAAANAZT-1_20170110_230814/b/HK11/trustzone_images/apps/securemsm/trustzone/qsapps/secureindicator/oem/build/secureindicator/scorpion/IADAANAA/secureindicator_oem.lib(si_oem.o)
 .debug_line    0x0000683b      0x46c /local/mnt/workspace/CRMBuilds/TZ.BF.4.0.3.c1-00005-M8996AAAAANAZT-1_20170110_230814/b/HK11/trustzone_images/core/securemsm/trustzone/qsapps/libs/applib/common_applib/build/secureindicator/scorpion/IADAANAA/tzapp_entrylib.lib(gpPersistObjCommon.o)
 .debug_line    0x00006ca7      0x504 /local/mnt/workspace/CRMBuilds/TZ.BF.4.0.3.c1-00005-M8996AAAAANAZT-1_20170110_230814/b/HK11/trustzone_images/core/securemsm/trustzone/qsapps/libs/applib/common_applib/build/secureindicator/scorpion/IADAANAA/tzapp_entrylib.lib(gpPersistentObjects.o)
 .debug_line    0x000071ab      0x9a9 /local/mnt/workspace/CRMBuilds/TZ.BF.4.0.3.c1-00005-M8996AAAAANAZT-1_20170110_230814/b/HK11/trustzone_images/core/securemsm/trustzone/qsapps/libs/applib/common_applib/build/secureindicator/scorpion/IADAANAA/tzapp_entrylib.lib(gpPersistObjData.o)
 .debug_line    0x00007b54      0x452 /local/mnt/workspace/CRMBuilds/TZ.BF.4.0.3.c1-00005-M8996AAAAANAZT-1_20170110_230814/b/HK11/trustzone_images/core/securemsm/trustzone/qsapps/libs/applib/common_applib/build/secureindicator/scorpion/IADAANAA/tzapp_entrylib.lib(gpPersistObjHandler.o)
 .debug_line    0x00007fa6      0x5e9 /local/mnt/workspace/CRMBuilds/TZ.BF.4.0.3.c1-00005-M8996AAAAANAZT-1_20170110_230814/b/HK11/trustzone_images/core/securemsm/trustzone/qsapps/libs/applib/common_applib/build/secureindicator/scorpion/IADAANAA/tzapp_entrylib.lib(gpPersistObjIndex.o)
 .debug_line    0x0000858f      0x5c4 /local/mnt/workspace/CRMBuilds/TZ.BF.4.0.3.c1-00005-M8996AAAAANAZT-1_20170110_230814/b/HK11/trustzone_images/core/securemsm/trustzone/qsapps/libs/applib/common_applib/build/secureindicator/scorpion/IADAANAA/tzapp_entrylib.lib(gpPersistObjVersion.o)
 .debug_line    0x00008b53      0x4bd /local/mnt/workspace/CRMBuilds/TZ.BF.4.0.3.c1-00005-M8996AAAAANAZT-1_20170110_230814/b/HK11/trustzone_images/core/securemsm/trustzone/qsapps/libs/applib/common_applib/build/secureindicator/scorpion/IADAANAA/tzapp_entrylib.lib(gpPersistObjCrypto.o)
 .debug_line    0x00009010      0x314 /local/mnt/workspace/CRMBuilds/TZ.BF.4.0.3.c1-00005-M8996AAAAANAZT-1_20170110_230814/b/HK11/trustzone_images/core/securemsm/trustzone/qsapps/libs/applib/common_applib/build/secureindicator/scorpion/IADAANAA/tzapp_entrylib.lib(gpPersistObjFileIO.o)
 .debug_line    0x00009324      0x38e /local/mnt/workspace/CRMBuilds/TZ.BF.4.0.3.c1-00005-M8996AAAAANAZT-1_20170110_230814/b/HK11/trustzone_images/core/securemsm/trustzone/qsapps/libs/applib/common_applib/build/secureindicator/scorpion/IADAANAA/tzapp_entrylib.lib(gpFileService.o)
 .debug_line    0x000096b2      0x2dd /local/mnt/workspace/CRMBuilds/TZ.BF.4.0.3.c1-00005-M8996AAAAANAZT-1_20170110_230814/b/HK11/trustzone_images/core/securemsm/trustzone/qsapps/libs/applib/qsee/build/secureindicator/scorpion/IADAANAA/tzapp_entrylib.lib(qsee_core_shim.o)
 .debug_line    0x0000998f      0x30d /local/mnt/workspace/CRMBuilds/TZ.BF.4.0.3.c1-00005-M8996AAAAANAZT-1_20170110_230814/b/HK11/trustzone_images/core/securemsm/trustzone/qsapps/libs/applib/qsee/build/secureindicator/scorpion/IADAANAA/tzapp_entrylib.lib(stor.o)
 .debug_line    0x00009c9c      0x676 /local/mnt/workspace/CRMBuilds/TZ.BF.4.0.3.c1-00005-M8996AAAAANAZT-1_20170110_230814/b/HK11/trustzone_images/core/securemsm/trustzone/qsapps/libs/applib/qsee/build/secureindicator/scorpion/IADAANAA/tzapp_entrylib.lib(stor_gpt.o)
 .debug_line    0x0000a312      0x2a2 /local/mnt/workspace/CRMBuilds/TZ.BF.4.0.3.c1-00005-M8996AAAAANAZT-1_20170110_230814/b/HK11/trustzone_images/core/securemsm/trustzone/qsapps/libs/applib/qsee/build/secureindicator/scorpion/IADAANAA/tzapp_entrylib.lib(stor_rpmbw.o)
 .debug_line    0x0000a5b4      0x1d7 /local/mnt/workspace/CRMBuilds/TZ.BF.4.0.3.c1-00005-M8996AAAAANAZT-1_20170110_230814/b/HK11/trustzone_images/core/securemsm/trustzone/qsapps/libs/applib/qsee/build/secureindicator/scorpion/IADAANAA/tzapp_entrylib.lib(qsee_cfg_prop_shim.o)
 .debug_line    0x0000a78b      0x5a4 /local/mnt/workspace/CRMBuilds/TZ.BF.4.0.3.c1-00005-M8996AAAAANAZT-1_20170110_230814/b/HK11/trustzone_images/core/securemsm/trustzone/qsapps/libs/applib/qsee/build/secureindicator/scorpion/IADAANAA/tzapp_entrylib.lib(qsee_cipher.o)
 .debug_line    0x0000ad2f      0x566 /local/mnt/workspace/CRMBuilds/TZ.BF.4.0.3.c1-00005-M8996AAAAANAZT-1_20170110_230814/b/HK11/trustzone_images/core/securemsm/trustzone/qsapps/libs/applib/qsee/build/secureindicator/scorpion/IADAANAA/tzapp_entrylib.lib(qsee_hash.o)
 .debug_line    0x0000b295      0x42f /local/mnt/workspace/CRMBuilds/TZ.BF.4.0.3.c1-00005-M8996AAAAANAZT-1_20170110_230814/b/HK11/trustzone_images/core/securemsm/trustzone/qsapps/libs/applib/qsee/build/secureindicator/scorpion/IADAANAA/tzapp_entrylib.lib(qsee_hmac.o)
 .debug_line    0x0000b6c4      0x1cc /local/mnt/workspace/CRMBuilds/TZ.BF.4.0.3.c1-00005-M8996AAAAANAZT-1_20170110_230814/b/HK11/trustzone_images/core/securemsm/trustzone/qsapps/libs/applib/qsee/build/secureindicator/scorpion/IADAANAA/tzapp_entrylib.lib(gpPersistObjPanic.o)
 .debug_line    0x0000b890      0x2b8 /local/mnt/workspace/CRMBuilds/TZ.BF.4.0.3.c1-00005-M8996AAAAANAZT-1_20170110_230814/b/HK11/trustzone_images/core/securemsm/trustzone/qsapps/libs/services/build/secureindicator/scorpion/IADAANAA/qsee_services.lib(qsee_kdf.o)
 .debug_line    0x0000bb48      0x154 /local/mnt/workspace/CRMBuilds/TZ.BF.4.0.3.c1-00005-M8996AAAAANAZT-1_20170110_230814/b/HK11/trustzone_images/core/securemsm/trustzone/qsee/mink/libstd/build/secureindicator/scorpion/IADAANAA/libstd.lib(strlcat.o)
 .debug_line    0x0000bc9c      0x141 /local/mnt/workspace/CRMBuilds/TZ.BF.4.0.3.c1-00005-M8996AAAAANAZT-1_20170110_230814/b/HK11/trustzone_images/core/securemsm/trustzone/qsee/mink/libstd/build/secureindicator/scorpion/IADAANAA/libstd.lib(strlcpy.o)
 .debug_line    0x0000bddd      0x135 /local/mnt/workspace/CRMBuilds/TZ.BF.4.0.3.c1-00005-M8996AAAAANAZT-1_20170110_230814/b/HK11/trustzone_images/core/securemsm/trustzone/qsee/mink/libstd/build/secureindicator/scorpion/IADAANAA/libstd.lib(timesafe_memcmp.o)
 .debug_line    0x0000bf12      0x142 /local/mnt/workspace/CRMBuilds/TZ.BF.4.0.3.c1-00005-M8996AAAAANAZT-1_20170110_230814/b/HK11/trustzone_images/core/securemsm/trustzone/qsee/mink/libstd/build/secureindicator/scorpion/IADAANAA/libstd.lib(memset.o)
 .debug_line    0x0000c054      0x251 /local/mnt/workspace/CRMBuilds/TZ.BF.4.0.3.c1-00005-M8996AAAAANAZT-1_20170110_230814/b/HK11/trustzone_images/core/securemsm/trustzone/qsee/mink/libstd/build/secureindicator/scorpion/IADAANAA/libstd.lib(memcpy.o)
 .debug_line    0x0000c2a5      0x144 /local/mnt/workspace/CRMBuilds/TZ.BF.4.0.3.c1-00005-M8996AAAAANAZT-1_20170110_230814/b/HK11/trustzone_images/core/securemsm/trustzone/qsee/mink/libstd/build/secureindicator/scorpion/IADAANAA/libstd.lib(strncmp.o)

.debug_pubnames
                0x00000000     0x35a7
 .debug_pubnames
                0x00000000       0x4d /local/mnt/workspace/CRMBuilds/TZ.BF.4.0.3.c1-00005-M8996AAAAANAZT-1_20170110_230814/b/HK11/trustzone_images/apps/securemsm/trustzone/qsapps/secureindicator/build/secureindicator/scorpion/IADAANAA/si_main.o
 .debug_pubnames
                0x0000004d      0x104 /local/mnt/workspace/CRMBuilds/TZ.BF.4.0.3.c1-00005-M8996AAAAANAZT-1_20170110_230814/b/HK11/trustzone_images/apps/securemsm/trustzone/qsapps/secureindicator/build/secureindicator/scorpion/IADAANAA/si.o
 .debug_pubnames
                0x00000151       0x5a /local/mnt/workspace/CRMBuilds/TZ.BF.4.0.3.c1-00005-M8996AAAAANAZT-1_20170110_230814/b/HK11/trustzone_images/apps/securemsm/trustzone/qsapps/secureindicator/build/secureindicator/scorpion/IADAANAA/metadata.o
 .debug_pubnames
                0x000001ab      0x1e8 /local/mnt/workspace/CRMBuilds/TZ.BF.4.0.3.c1-00005-M8996AAAAANAZT-1_20170110_230814/b/HK11/trustzone_images/core/securemsm/sse/qsee/SecureDisplay/libpng/build/secureindicator/scorpion/IADAANAA/libpng.lib(png.o)
 .debug_pubnames
                0x00000393       0x94 /local/mnt/workspace/CRMBuilds/TZ.BF.4.0.3.c1-00005-M8996AAAAANAZT-1_20170110_230814/b/HK11/trustzone_images/core/securemsm/sse/qsee/SecureDisplay/libpng/build/secureindicator/scorpion/IADAANAA/libpng.lib(pngerror.o)
 .debug_pubnames
                0x00000427       0xaa /local/mnt/workspace/CRMBuilds/TZ.BF.4.0.3.c1-00005-M8996AAAAANAZT-1_20170110_230814/b/HK11/trustzone_images/core/securemsm/sse/qsee/SecureDisplay/libpng/build/secureindicator/scorpion/IADAANAA/libpng.lib(pngget.o)
 .debug_pubnames
                0x000004d1       0xd3 /local/mnt/workspace/CRMBuilds/TZ.BF.4.0.3.c1-00005-M8996AAAAANAZT-1_20170110_230814/b/HK11/trustzone_images/core/securemsm/sse/qsee/SecureDisplay/libpng/build/secureindicator/scorpion/IADAANAA/libpng.lib(pngmem.o)
 .debug_pubnames
                0x000005a4      0x13b /local/mnt/workspace/CRMBuilds/TZ.BF.4.0.3.c1-00005-M8996AAAAANAZT-1_20170110_230814/b/HK11/trustzone_images/core/securemsm/sse/qsee/SecureDisplay/libpng/build/secureindicator/scorpion/IADAANAA/libpng.lib(pngread.o)
 .debug_pubnames
                0x000006df       0x38 /local/mnt/workspace/CRMBuilds/TZ.BF.4.0.3.c1-00005-M8996AAAAANAZT-1_20170110_230814/b/HK11/trustzone_images/core/securemsm/sse/qsee/SecureDisplay/libpng/build/secureindicator/scorpion/IADAANAA/libpng.lib(pngrio.o)
 .debug_pubnames
                0x00000717      0x2bb /local/mnt/workspace/CRMBuilds/TZ.BF.4.0.3.c1-00005-M8996AAAAANAZT-1_20170110_230814/b/HK11/trustzone_images/core/securemsm/sse/qsee/SecureDisplay/libpng/build/secureindicator/scorpion/IADAANAA/libpng.lib(pngrutil.o)
 .debug_pubnames
                0x000009d2       0x6c /local/mnt/workspace/CRMBuilds/TZ.BF.4.0.3.c1-00005-M8996AAAAANAZT-1_20170110_230814/b/HK11/trustzone_images/core/securemsm/sse/qsee/SecureDisplay/libpng/build/secureindicator/scorpion/IADAANAA/libpng.lib(pngset.o)
 .debug_pubnames
                0x00000a3e       0xbf /local/mnt/workspace/CRMBuilds/TZ.BF.4.0.3.c1-00005-M8996AAAAANAZT-1_20170110_230814/b/HK11/trustzone_images/core/securemsm/sse/qsee/SecureDisplay/zlib/build/secureindicator/scorpion/IADAANAA/zlib.lib(crc32.o)
 .debug_pubnames
                0x00000afd      0x18b /local/mnt/workspace/CRMBuilds/TZ.BF.4.0.3.c1-00005-M8996AAAAANAZT-1_20170110_230814/b/HK11/trustzone_images/core/securemsm/sse/qsee/SecureDisplay/zlib/build/secureindicator/scorpion/IADAANAA/zlib.lib(inflate.o)
 .debug_pubnames
                0x00000c88       0x60 /local/mnt/workspace/CRMBuilds/TZ.BF.4.0.3.c1-00005-M8996AAAAANAZT-1_20170110_230814/b/HK11/trustzone_images/core/securemsm/sse/qsee/SecureDisplay/zlib/build/secureindicator/scorpion/IADAANAA/zlib.lib(inftrees.o)
 .debug_pubnames
                0x00000ce8       0x66 /local/mnt/workspace/CRMBuilds/TZ.BF.4.0.3.c1-00005-M8996AAAAANAZT-1_20170110_230814/b/HK11/trustzone_images/core/securemsm/sse/qsee/SecureDisplay/zlib/build/secureindicator/scorpion/IADAANAA/zlib.lib(zutil.o)
 .debug_pubnames
                0x00000d4e       0x5d /local/mnt/workspace/CRMBuilds/TZ.BF.4.0.3.c1-00005-M8996AAAAANAZT-1_20170110_230814/b/HK11/trustzone_images/core/securemsm/sse/qsee/SecureDisplay/zlib/build/secureindicator/scorpion/IADAANAA/zlib.lib(adler32.o)
 .debug_pubnames
                0x00000dab       0x23 /local/mnt/workspace/CRMBuilds/TZ.BF.4.0.3.c1-00005-M8996AAAAANAZT-1_20170110_230814/b/HK11/trustzone_images/core/securemsm/sse/qsee/SecureDisplay/zlib/build/secureindicator/scorpion/IADAANAA/zlib.lib(inffast.o)
 .debug_pubnames
                0x00000dce      0x4ee /local/mnt/workspace/CRMBuilds/TZ.BF.4.0.3.c1-00005-M8996AAAAANAZT-1_20170110_230814/b/HK11/trustzone_images/core/securemsm/trustzone/qsapps/libs/applib/common_applib/build/secureindicator/scorpion/IADAANAA/tzapp_entrylib.lib(common_applib.o)
 .debug_pubnames
                0x000012bc       0x9c /local/mnt/workspace/CRMBuilds/TZ.BF.4.0.3.c1-00005-M8996AAAAANAZT-1_20170110_230814/b/HK11/trustzone_images/core/securemsm/trustzone/qsapps/libs/applib/qsee/build/secureindicator/scorpion/IADAANAA/tzapp_entrylib.lib(mink_shared_code.o)
 .debug_pubnames
                0x00001358      0x1e5 /local/mnt/workspace/CRMBuilds/TZ.BF.4.0.3.c1-00005-M8996AAAAANAZT-1_20170110_230814/b/HK11/trustzone_images/core/securemsm/trustzone/qsapps/libs/applib/qsee/build/secureindicator/scorpion/IADAANAA/tzapp_entrylib.lib(qsee_env.o)
 .debug_pubnames
                0x0000153d       0x4b /local/mnt/workspace/CRMBuilds/TZ.BF.4.0.3.c1-00005-M8996AAAAANAZT-1_20170110_230814/b/HK11/trustzone_images/core/securemsm/trustzone/qsapps/libs/applib/qsee/build/secureindicator/scorpion/IADAANAA/tzapp_entrylib.lib(qsee_prng.o)
 .debug_pubnames
                0x00001588       0xe2 /local/mnt/workspace/CRMBuilds/TZ.BF.4.0.3.c1-00005-M8996AAAAANAZT-1_20170110_230814/b/HK11/trustzone_images/core/securemsm/trustzone/qsapps/libs/applib/qsee/build/secureindicator/scorpion/IADAANAA/tzapp_entrylib.lib(qsee_appmessage.o)
 .debug_pubnames
                0x0000166a      0x149 /local/mnt/workspace/CRMBuilds/TZ.BF.4.0.3.c1-00005-M8996AAAAANAZT-1_20170110_230814/b/HK11/trustzone_images/core/securemsm/trustzone/qsapps/libs/applib/qsee/build/secureindicator/scorpion/IADAANAA/tzapp_entrylib.lib(sfs_api.o)
 .debug_pubnames
                0x000017b3       0xbf /local/mnt/workspace/CRMBuilds/TZ.BF.4.0.3.c1-00005-M8996AAAAANAZT-1_20170110_230814/b/HK11/trustzone_images/core/securemsm/trustzone/qsapps/libs/applib/qsee/build/secureindicator/scorpion/IADAANAA/tzapp_entrylib.lib(tzapp_lib_main.o)
 .debug_pubnames
                0x00001872       0x4b /local/mnt/workspace/CRMBuilds/TZ.BF.4.0.3.c1-00005-M8996AAAAANAZT-1_20170110_230814/b/HK11/trustzone_images/core/securemsm/trustzone/qsapps/libs/services/build/secureindicator/scorpion/IADAANAA/qsee_services.lib(qsee_log.o)
 .debug_pubnames
                0x000018bd       0x1e /local/mnt/workspace/CRMBuilds/TZ.BF.4.0.3.c1-00005-M8996AAAAANAZT-1_20170110_230814/b/HK11/trustzone_images/core/securemsm/trustzone/qsee/mink/libstd/build/secureindicator/scorpion/IADAANAA/libstd.lib(memscpy.o)
 .debug_pubnames
                0x000018db       0x24 /local/mnt/workspace/CRMBuilds/TZ.BF.4.0.3.c1-00005-M8996AAAAANAZT-1_20170110_230814/b/HK11/trustzone_images/core/securemsm/trustzone/qsee/mink/libstd/build/secureindicator/scorpion/IADAANAA/libstd.lib(secure_memset.o)
 .debug_pubnames
                0x000018ff       0x1d /local/mnt/workspace/CRMBuilds/TZ.BF.4.0.3.c1-00005-M8996AAAAANAZT-1_20170110_230814/b/HK11/trustzone_images/core/securemsm/trustzone/qsee/mink/libstd/build/secureindicator/scorpion/IADAANAA/libstd.lib(memcmp.o)
 .debug_pubnames
                0x0000191c       0x1d /local/mnt/workspace/CRMBuilds/TZ.BF.4.0.3.c1-00005-M8996AAAAANAZT-1_20170110_230814/b/HK11/trustzone_images/core/securemsm/trustzone/qsee/mink/libstd/build/secureindicator/scorpion/IADAANAA/libstd.lib(strlen.o)
 .debug_pubnames
                0x00001939       0x1d /local/mnt/workspace/CRMBuilds/TZ.BF.4.0.3.c1-00005-M8996AAAAANAZT-1_20170110_230814/b/HK11/trustzone_images/core/securemsm/trustzone/qsee/mink/libstd/build/secureindicator/scorpion/IADAANAA/libstd.lib(strcmp.o)
 .debug_pubnames
                0x00001956       0xcf /local/mnt/workspace/CRMBuilds/TZ.BF.4.0.3.c1-00005-M8996AAAAANAZT-1_20170110_230814/b/HK11/trustzone_images/core/securemsm/trustzone/qsee/mink/libstd/build/secureindicator/scorpion/IADAANAA/libstd.lib(printf.o)
 .debug_pubnames
                0x00001a25       0x1c /local/mnt/workspace/CRMBuilds/TZ.BF.4.0.3.c1-00005-M8996AAAAANAZT-1_20170110_230814/b/HK11/trustzone_images/core/securemsm/trustzone/qsee/mink/libstd/build/secureindicator/scorpion/IADAANAA/libstd.lib(abort.o)
 .debug_pubnames
                0x00001a41       0x1d /local/mnt/workspace/CRMBuilds/TZ.BF.4.0.3.c1-00005-M8996AAAAANAZT-1_20170110_230814/b/HK11/trustzone_images/core/securemsm/trustzone/qsee/mink/libstd/build/secureindicator/scorpion/IADAANAA/libstd.lib(memchr.o)
 .debug_pubnames
                0x00001a5e       0x3a /local/mnt/workspace/CRMBuilds/TZ.BF.4.0.3.c1-00005-M8996AAAAANAZT-1_20170110_230814/b/HK11/trustzone_images/apps/securemsm/trustzone/qsapps/secureindicator/oem/build/secureindicator/scorpion/IADAANAA/secureindicator_oem.lib(si_oem.o)
 .debug_pubnames
                0x00001a98      0x113 /local/mnt/workspace/CRMBuilds/TZ.BF.4.0.3.c1-00005-M8996AAAAANAZT-1_20170110_230814/b/HK11/trustzone_images/core/securemsm/trustzone/qsapps/libs/applib/common_applib/build/secureindicator/scorpion/IADAANAA/tzapp_entrylib.lib(gpPersistObjCommon.o)
 .debug_pubnames
                0x00001bab      0x1df /local/mnt/workspace/CRMBuilds/TZ.BF.4.0.3.c1-00005-M8996AAAAANAZT-1_20170110_230814/b/HK11/trustzone_images/core/securemsm/trustzone/qsapps/libs/applib/common_applib/build/secureindicator/scorpion/IADAANAA/tzapp_entrylib.lib(gpPersistentObjects.o)
 .debug_pubnames
                0x00001d8a      0x39d /local/mnt/workspace/CRMBuilds/TZ.BF.4.0.3.c1-00005-M8996AAAAANAZT-1_20170110_230814/b/HK11/trustzone_images/core/securemsm/trustzone/qsapps/libs/applib/common_applib/build/secureindicator/scorpion/IADAANAA/tzapp_entrylib.lib(gpPersistObjData.o)
 .debug_pubnames
                0x00002127      0x123 /local/mnt/workspace/CRMBuilds/TZ.BF.4.0.3.c1-00005-M8996AAAAANAZT-1_20170110_230814/b/HK11/trustzone_images/core/securemsm/trustzone/qsapps/libs/applib/common_applib/build/secureindicator/scorpion/IADAANAA/tzapp_entrylib.lib(gpPersistObjHandler.o)
 .debug_pubnames
                0x0000224a      0x232 /local/mnt/workspace/CRMBuilds/TZ.BF.4.0.3.c1-00005-M8996AAAAANAZT-1_20170110_230814/b/HK11/trustzone_images/core/securemsm/trustzone/qsapps/libs/applib/common_applib/build/secureindicator/scorpion/IADAANAA/tzapp_entrylib.lib(gpPersistObjIndex.o)
 .debug_pubnames
                0x0000247c      0x2b4 /local/mnt/workspace/CRMBuilds/TZ.BF.4.0.3.c1-00005-M8996AAAAANAZT-1_20170110_230814/b/HK11/trustzone_images/core/securemsm/trustzone/qsapps/libs/applib/common_applib/build/secureindicator/scorpion/IADAANAA/tzapp_entrylib.lib(gpPersistObjVersion.o)
 .debug_pubnames
                0x00002730      0x13b /local/mnt/workspace/CRMBuilds/TZ.BF.4.0.3.c1-00005-M8996AAAAANAZT-1_20170110_230814/b/HK11/trustzone_images/core/securemsm/trustzone/qsapps/libs/applib/common_applib/build/secureindicator/scorpion/IADAANAA/tzapp_entrylib.lib(gpPersistObjCrypto.o)
 .debug_pubnames
                0x0000286b       0xcc /local/mnt/workspace/CRMBuilds/TZ.BF.4.0.3.c1-00005-M8996AAAAANAZT-1_20170110_230814/b/HK11/trustzone_images/core/securemsm/trustzone/qsapps/libs/applib/common_applib/build/secureindicator/scorpion/IADAANAA/tzapp_entrylib.lib(gpPersistObjFileIO.o)
 .debug_pubnames
                0x00002937       0x53 /local/mnt/workspace/CRMBuilds/TZ.BF.4.0.3.c1-00005-M8996AAAAANAZT-1_20170110_230814/b/HK11/trustzone_images/core/securemsm/trustzone/qsapps/libs/applib/common_applib/build/secureindicator/scorpion/IADAANAA/tzapp_entrylib.lib(gpFileService.o)
 .debug_pubnames
                0x0000298a      0x147 /local/mnt/workspace/CRMBuilds/TZ.BF.4.0.3.c1-00005-M8996AAAAANAZT-1_20170110_230814/b/HK11/trustzone_images/core/securemsm/trustzone/qsapps/libs/applib/qsee/build/secureindicator/scorpion/IADAANAA/tzapp_entrylib.lib(qsee_core_shim.o)
 .debug_pubnames
                0x00002ad1      0x145 /local/mnt/workspace/CRMBuilds/TZ.BF.4.0.3.c1-00005-M8996AAAAANAZT-1_20170110_230814/b/HK11/trustzone_images/core/securemsm/trustzone/qsapps/libs/applib/qsee/build/secureindicator/scorpion/IADAANAA/tzapp_entrylib.lib(stor.o)
 .debug_pubnames
                0x00002c16      0x196 /local/mnt/workspace/CRMBuilds/TZ.BF.4.0.3.c1-00005-M8996AAAAANAZT-1_20170110_230814/b/HK11/trustzone_images/core/securemsm/trustzone/qsapps/libs/applib/qsee/build/secureindicator/scorpion/IADAANAA/tzapp_entrylib.lib(stor_gpt.o)
 .debug_pubnames
                0x00002dac      0x100 /local/mnt/workspace/CRMBuilds/TZ.BF.4.0.3.c1-00005-M8996AAAAANAZT-1_20170110_230814/b/HK11/trustzone_images/core/securemsm/trustzone/qsapps/libs/applib/qsee/build/secureindicator/scorpion/IADAANAA/tzapp_entrylib.lib(stor_rpmbw.o)
 .debug_pubnames
                0x00002eac       0x2a /local/mnt/workspace/CRMBuilds/TZ.BF.4.0.3.c1-00005-M8996AAAAANAZT-1_20170110_230814/b/HK11/trustzone_images/core/securemsm/trustzone/qsapps/libs/applib/qsee/build/secureindicator/scorpion/IADAANAA/tzapp_entrylib.lib(qsee_cfg_prop_shim.o)
 .debug_pubnames
                0x00002ed6      0x233 /local/mnt/workspace/CRMBuilds/TZ.BF.4.0.3.c1-00005-M8996AAAAANAZT-1_20170110_230814/b/HK11/trustzone_images/core/securemsm/trustzone/qsapps/libs/applib/qsee/build/secureindicator/scorpion/IADAANAA/tzapp_entrylib.lib(qsee_cipher.o)
 .debug_pubnames
                0x00003109      0x1f7 /local/mnt/workspace/CRMBuilds/TZ.BF.4.0.3.c1-00005-M8996AAAAANAZT-1_20170110_230814/b/HK11/trustzone_images/core/securemsm/trustzone/qsapps/libs/applib/qsee/build/secureindicator/scorpion/IADAANAA/tzapp_entrylib.lib(qsee_hash.o)
 .debug_pubnames
                0x00003300      0x152 /local/mnt/workspace/CRMBuilds/TZ.BF.4.0.3.c1-00005-M8996AAAAANAZT-1_20170110_230814/b/HK11/trustzone_images/core/securemsm/trustzone/qsapps/libs/applib/qsee/build/secureindicator/scorpion/IADAANAA/tzapp_entrylib.lib(qsee_hmac.o)
 .debug_pubnames
                0x00003452       0x3e /local/mnt/workspace/CRMBuilds/TZ.BF.4.0.3.c1-00005-M8996AAAAANAZT-1_20170110_230814/b/HK11/trustzone_images/core/securemsm/trustzone/qsapps/libs/applib/qsee/build/secureindicator/scorpion/IADAANAA/tzapp_entrylib.lib(gpPersistObjPanic.o)
 .debug_pubnames
                0x00003490       0x5d /local/mnt/workspace/CRMBuilds/TZ.BF.4.0.3.c1-00005-M8996AAAAANAZT-1_20170110_230814/b/HK11/trustzone_images/core/securemsm/trustzone/qsapps/libs/services/build/secureindicator/scorpion/IADAANAA/qsee_services.lib(qsee_kdf.o)
 .debug_pubnames
                0x000034ed       0x1e /local/mnt/workspace/CRMBuilds/TZ.BF.4.0.3.c1-00005-M8996AAAAANAZT-1_20170110_230814/b/HK11/trustzone_images/core/securemsm/trustzone/qsee/mink/libstd/build/secureindicator/scorpion/IADAANAA/libstd.lib(strlcat.o)
 .debug_pubnames
                0x0000350b       0x1e /local/mnt/workspace/CRMBuilds/TZ.BF.4.0.3.c1-00005-M8996AAAAANAZT-1_20170110_230814/b/HK11/trustzone_images/core/securemsm/trustzone/qsee/mink/libstd/build/secureindicator/scorpion/IADAANAA/libstd.lib(strlcpy.o)
 .debug_pubnames
                0x00003529       0x26 /local/mnt/workspace/CRMBuilds/TZ.BF.4.0.3.c1-00005-M8996AAAAANAZT-1_20170110_230814/b/HK11/trustzone_images/core/securemsm/trustzone/qsee/mink/libstd/build/secureindicator/scorpion/IADAANAA/libstd.lib(timesafe_memcmp.o)
 .debug_pubnames
                0x0000354f       0x1d /local/mnt/workspace/CRMBuilds/TZ.BF.4.0.3.c1-00005-M8996AAAAANAZT-1_20170110_230814/b/HK11/trustzone_images/core/securemsm/trustzone/qsee/mink/libstd/build/secureindicator/scorpion/IADAANAA/libstd.lib(memset.o)
 .debug_pubnames
                0x0000356c       0x1d /local/mnt/workspace/CRMBuilds/TZ.BF.4.0.3.c1-00005-M8996AAAAANAZT-1_20170110_230814/b/HK11/trustzone_images/core/securemsm/trustzone/qsee/mink/libstd/build/secureindicator/scorpion/IADAANAA/libstd.lib(memcpy.o)
 .debug_pubnames
                0x00003589       0x1e /local/mnt/workspace/CRMBuilds/TZ.BF.4.0.3.c1-00005-M8996AAAAANAZT-1_20170110_230814/b/HK11/trustzone_images/core/securemsm/trustzone/qsee/mink/libstd/build/secureindicator/scorpion/IADAANAA/libstd.lib(strncmp.o)

.debug_pubtypes
                0x00000000     0x4946
 .debug_pubtypes
                0x00000000       0xc7 /local/mnt/workspace/CRMBuilds/TZ.BF.4.0.3.c1-00005-M8996AAAAANAZT-1_20170110_230814/b/HK11/trustzone_images/apps/securemsm/trustzone/qsapps/secureindicator/build/secureindicator/scorpion/IADAANAA/si_main.o
 .debug_pubtypes
                0x000000c7      0x4a9 /local/mnt/workspace/CRMBuilds/TZ.BF.4.0.3.c1-00005-M8996AAAAANAZT-1_20170110_230814/b/HK11/trustzone_images/apps/securemsm/trustzone/qsapps/secureindicator/build/secureindicator/scorpion/IADAANAA/si.o
 .debug_pubtypes
                0x00000570       0x2c /local/mnt/workspace/CRMBuilds/TZ.BF.4.0.3.c1-00005-M8996AAAAANAZT-1_20170110_230814/b/HK11/trustzone_images/apps/securemsm/trustzone/qsapps/secureindicator/build/secureindicator/scorpion/IADAANAA/metadata.o
 .debug_pubtypes
                0x0000059c      0x313 /local/mnt/workspace/CRMBuilds/TZ.BF.4.0.3.c1-00005-M8996AAAAANAZT-1_20170110_230814/b/HK11/trustzone_images/core/securemsm/sse/qsee/SecureDisplay/libpng/build/secureindicator/scorpion/IADAANAA/libpng.lib(png.o)
 .debug_pubtypes
                0x000008af      0x2d7 /local/mnt/workspace/CRMBuilds/TZ.BF.4.0.3.c1-00005-M8996AAAAANAZT-1_20170110_230814/b/HK11/trustzone_images/core/securemsm/sse/qsee/SecureDisplay/libpng/build/secureindicator/scorpion/IADAANAA/libpng.lib(pngerror.o)
 .debug_pubtypes
                0x00000b86      0x2fa /local/mnt/workspace/CRMBuilds/TZ.BF.4.0.3.c1-00005-M8996AAAAANAZT-1_20170110_230814/b/HK11/trustzone_images/core/securemsm/sse/qsee/SecureDisplay/libpng/build/secureindicator/scorpion/IADAANAA/libpng.lib(pngget.o)
 .debug_pubtypes
                0x00000e80      0x2c9 /local/mnt/workspace/CRMBuilds/TZ.BF.4.0.3.c1-00005-M8996AAAAANAZT-1_20170110_230814/b/HK11/trustzone_images/core/securemsm/sse/qsee/SecureDisplay/libpng/build/secureindicator/scorpion/IADAANAA/libpng.lib(pngmem.o)
 .debug_pubtypes
                0x00001149      0x30e /local/mnt/workspace/CRMBuilds/TZ.BF.4.0.3.c1-00005-M8996AAAAANAZT-1_20170110_230814/b/HK11/trustzone_images/core/securemsm/sse/qsee/SecureDisplay/libpng/build/secureindicator/scorpion/IADAANAA/libpng.lib(pngread.o)
 .debug_pubtypes
                0x00001457      0x2b2 /local/mnt/workspace/CRMBuilds/TZ.BF.4.0.3.c1-00005-M8996AAAAANAZT-1_20170110_230814/b/HK11/trustzone_images/core/securemsm/sse/qsee/SecureDisplay/libpng/build/secureindicator/scorpion/IADAANAA/libpng.lib(pngrio.o)
 .debug_pubtypes
                0x00001709      0x2f6 /local/mnt/workspace/CRMBuilds/TZ.BF.4.0.3.c1-00005-M8996AAAAANAZT-1_20170110_230814/b/HK11/trustzone_images/core/securemsm/sse/qsee/SecureDisplay/libpng/build/secureindicator/scorpion/IADAANAA/libpng.lib(pngrutil.o)
 .debug_pubtypes
                0x000019ff      0x30b /local/mnt/workspace/CRMBuilds/TZ.BF.4.0.3.c1-00005-M8996AAAAANAZT-1_20170110_230814/b/HK11/trustzone_images/core/securemsm/sse/qsee/SecureDisplay/libpng/build/secureindicator/scorpion/IADAANAA/libpng.lib(pngset.o)
 .debug_pubtypes
                0x00001d0a       0x7f /local/mnt/workspace/CRMBuilds/TZ.BF.4.0.3.c1-00005-M8996AAAAANAZT-1_20170110_230814/b/HK11/trustzone_images/core/securemsm/sse/qsee/SecureDisplay/zlib/build/secureindicator/scorpion/IADAANAA/zlib.lib(crc32.o)
 .debug_pubtypes
                0x00001d89      0x14d /local/mnt/workspace/CRMBuilds/TZ.BF.4.0.3.c1-00005-M8996AAAAANAZT-1_20170110_230814/b/HK11/trustzone_images/core/securemsm/sse/qsee/SecureDisplay/zlib/build/secureindicator/scorpion/IADAANAA/zlib.lib(inflate.o)
 .debug_pubtypes
                0x00001ed6       0x6f /local/mnt/workspace/CRMBuilds/TZ.BF.4.0.3.c1-00005-M8996AAAAANAZT-1_20170110_230814/b/HK11/trustzone_images/core/securemsm/sse/qsee/SecureDisplay/zlib/build/secureindicator/scorpion/IADAANAA/zlib.lib(inftrees.o)
 .debug_pubtypes
                0x00001f45       0x5f /local/mnt/workspace/CRMBuilds/TZ.BF.4.0.3.c1-00005-M8996AAAAANAZT-1_20170110_230814/b/HK11/trustzone_images/core/securemsm/sse/qsee/SecureDisplay/zlib/build/secureindicator/scorpion/IADAANAA/zlib.lib(zutil.o)
 .debug_pubtypes
                0x00001fa4       0x7e /local/mnt/workspace/CRMBuilds/TZ.BF.4.0.3.c1-00005-M8996AAAAANAZT-1_20170110_230814/b/HK11/trustzone_images/core/securemsm/sse/qsee/SecureDisplay/zlib/build/secureindicator/scorpion/IADAANAA/zlib.lib(adler32.o)
 .debug_pubtypes
                0x00002022      0x140 /local/mnt/workspace/CRMBuilds/TZ.BF.4.0.3.c1-00005-M8996AAAAANAZT-1_20170110_230814/b/HK11/trustzone_images/core/securemsm/sse/qsee/SecureDisplay/zlib/build/secureindicator/scorpion/IADAANAA/zlib.lib(inffast.o)
 .debug_pubtypes
                0x00002162      0x4a5 /local/mnt/workspace/CRMBuilds/TZ.BF.4.0.3.c1-00005-M8996AAAAANAZT-1_20170110_230814/b/HK11/trustzone_images/core/securemsm/trustzone/qsapps/libs/applib/common_applib/build/secureindicator/scorpion/IADAANAA/tzapp_entrylib.lib(common_applib.o)
 .debug_pubtypes
                0x00002607       0xf8 /local/mnt/workspace/CRMBuilds/TZ.BF.4.0.3.c1-00005-M8996AAAAANAZT-1_20170110_230814/b/HK11/trustzone_images/core/securemsm/trustzone/qsapps/libs/applib/qsee/build/secureindicator/scorpion/IADAANAA/tzapp_entrylib.lib(mink_shared_code.o)
 .debug_pubtypes
                0x000026ff       0xfc /local/mnt/workspace/CRMBuilds/TZ.BF.4.0.3.c1-00005-M8996AAAAANAZT-1_20170110_230814/b/HK11/trustzone_images/core/securemsm/trustzone/qsapps/libs/applib/qsee/build/secureindicator/scorpion/IADAANAA/tzapp_entrylib.lib(qsee_env.o)
 .debug_pubtypes
                0x000027fb       0xe1 /local/mnt/workspace/CRMBuilds/TZ.BF.4.0.3.c1-00005-M8996AAAAANAZT-1_20170110_230814/b/HK11/trustzone_images/core/securemsm/trustzone/qsapps/libs/applib/qsee/build/secureindicator/scorpion/IADAANAA/tzapp_entrylib.lib(qsee_prng.o)
 .debug_pubtypes
                0x000028dc       0xea /local/mnt/workspace/CRMBuilds/TZ.BF.4.0.3.c1-00005-M8996AAAAANAZT-1_20170110_230814/b/HK11/trustzone_images/core/securemsm/trustzone/qsapps/libs/applib/qsee/build/secureindicator/scorpion/IADAANAA/tzapp_entrylib.lib(qsee_appmessage.o)
 .debug_pubtypes
                0x000029c6      0x118 /local/mnt/workspace/CRMBuilds/TZ.BF.4.0.3.c1-00005-M8996AAAAANAZT-1_20170110_230814/b/HK11/trustzone_images/core/securemsm/trustzone/qsapps/libs/applib/qsee/build/secureindicator/scorpion/IADAANAA/tzapp_entrylib.lib(sfs_api.o)
 .debug_pubtypes
                0x00002ade       0xeb /local/mnt/workspace/CRMBuilds/TZ.BF.4.0.3.c1-00005-M8996AAAAANAZT-1_20170110_230814/b/HK11/trustzone_images/core/securemsm/trustzone/qsapps/libs/applib/qsee/build/secureindicator/scorpion/IADAANAA/tzapp_entrylib.lib(tzapp_lib_main.o)
 .debug_pubtypes
                0x00002bc9       0x69 /local/mnt/workspace/CRMBuilds/TZ.BF.4.0.3.c1-00005-M8996AAAAANAZT-1_20170110_230814/b/HK11/trustzone_images/core/securemsm/trustzone/qsapps/libs/services/build/secureindicator/scorpion/IADAANAA/qsee_services.lib(qsee_log.o)
 .debug_pubtypes
                0x00002c32       0x2e /local/mnt/workspace/CRMBuilds/TZ.BF.4.0.3.c1-00005-M8996AAAAANAZT-1_20170110_230814/b/HK11/trustzone_images/core/securemsm/trustzone/qsee/mink/libstd/build/secureindicator/scorpion/IADAANAA/libstd.lib(memscpy.o)
 .debug_pubtypes
                0x00002c60       0x54 /local/mnt/workspace/CRMBuilds/TZ.BF.4.0.3.c1-00005-M8996AAAAANAZT-1_20170110_230814/b/HK11/trustzone_images/core/securemsm/trustzone/qsee/mink/libstd/build/secureindicator/scorpion/IADAANAA/libstd.lib(secure_memset.o)
 .debug_pubtypes
                0x00002cb4       0x48 /local/mnt/workspace/CRMBuilds/TZ.BF.4.0.3.c1-00005-M8996AAAAANAZT-1_20170110_230814/b/HK11/trustzone_images/core/securemsm/trustzone/qsee/mink/libstd/build/secureindicator/scorpion/IADAANAA/libstd.lib(memcmp.o)
 .debug_pubtypes
                0x00002cfc       0x37 /local/mnt/workspace/CRMBuilds/TZ.BF.4.0.3.c1-00005-M8996AAAAANAZT-1_20170110_230814/b/HK11/trustzone_images/core/securemsm/trustzone/qsee/mink/libstd/build/secureindicator/scorpion/IADAANAA/libstd.lib(strlen.o)
 .debug_pubtypes
                0x00002d33       0x23 /local/mnt/workspace/CRMBuilds/TZ.BF.4.0.3.c1-00005-M8996AAAAANAZT-1_20170110_230814/b/HK11/trustzone_images/core/securemsm/trustzone/qsee/mink/libstd/build/secureindicator/scorpion/IADAANAA/libstd.lib(strcmp.o)
 .debug_pubtypes
                0x00002d56      0x13d /local/mnt/workspace/CRMBuilds/TZ.BF.4.0.3.c1-00005-M8996AAAAANAZT-1_20170110_230814/b/HK11/trustzone_images/core/securemsm/trustzone/qsee/mink/libstd/build/secureindicator/scorpion/IADAANAA/libstd.lib(printf.o)
 .debug_pubtypes
                0x00002e93        0x0 /local/mnt/workspace/CRMBuilds/TZ.BF.4.0.3.c1-00005-M8996AAAAANAZT-1_20170110_230814/b/HK11/trustzone_images/core/securemsm/trustzone/qsee/mink/libstd/build/secureindicator/scorpion/IADAANAA/libstd.lib(abort.o)
 .debug_pubtypes
                0x00002e93       0x48 /local/mnt/workspace/CRMBuilds/TZ.BF.4.0.3.c1-00005-M8996AAAAANAZT-1_20170110_230814/b/HK11/trustzone_images/core/securemsm/trustzone/qsee/mink/libstd/build/secureindicator/scorpion/IADAANAA/libstd.lib(memchr.o)
 .debug_pubtypes
                0x00002edb       0x23 /local/mnt/workspace/CRMBuilds/TZ.BF.4.0.3.c1-00005-M8996AAAAANAZT-1_20170110_230814/b/HK11/trustzone_images/apps/securemsm/trustzone/qsapps/secureindicator/oem/build/secureindicator/scorpion/IADAANAA/secureindicator_oem.lib(si_oem.o)
 .debug_pubtypes
                0x00002efe      0x11c /local/mnt/workspace/CRMBuilds/TZ.BF.4.0.3.c1-00005-M8996AAAAANAZT-1_20170110_230814/b/HK11/trustzone_images/core/securemsm/trustzone/qsapps/libs/applib/common_applib/build/secureindicator/scorpion/IADAANAA/tzapp_entrylib.lib(gpPersistObjCommon.o)
 .debug_pubtypes
                0x0000301a      0x158 /local/mnt/workspace/CRMBuilds/TZ.BF.4.0.3.c1-00005-M8996AAAAANAZT-1_20170110_230814/b/HK11/trustzone_images/core/securemsm/trustzone/qsapps/libs/applib/common_applib/build/secureindicator/scorpion/IADAANAA/tzapp_entrylib.lib(gpPersistentObjects.o)
 .debug_pubtypes
                0x00003172      0x15b /local/mnt/workspace/CRMBuilds/TZ.BF.4.0.3.c1-00005-M8996AAAAANAZT-1_20170110_230814/b/HK11/trustzone_images/core/securemsm/trustzone/qsapps/libs/applib/common_applib/build/secureindicator/scorpion/IADAANAA/tzapp_entrylib.lib(gpPersistObjData.o)
 .debug_pubtypes
                0x000032cd      0x119 /local/mnt/workspace/CRMBuilds/TZ.BF.4.0.3.c1-00005-M8996AAAAANAZT-1_20170110_230814/b/HK11/trustzone_images/core/securemsm/trustzone/qsapps/libs/applib/common_applib/build/secureindicator/scorpion/IADAANAA/tzapp_entrylib.lib(gpPersistObjHandler.o)
 .debug_pubtypes
                0x000033e6      0x156 /local/mnt/workspace/CRMBuilds/TZ.BF.4.0.3.c1-00005-M8996AAAAANAZT-1_20170110_230814/b/HK11/trustzone_images/core/securemsm/trustzone/qsapps/libs/applib/common_applib/build/secureindicator/scorpion/IADAANAA/tzapp_entrylib.lib(gpPersistObjIndex.o)
 .debug_pubtypes
                0x0000353c      0x13e /local/mnt/workspace/CRMBuilds/TZ.BF.4.0.3.c1-00005-M8996AAAAANAZT-1_20170110_230814/b/HK11/trustzone_images/core/securemsm/trustzone/qsapps/libs/applib/common_applib/build/secureindicator/scorpion/IADAANAA/tzapp_entrylib.lib(gpPersistObjVersion.o)
 .debug_pubtypes
                0x0000367a       0xcc /local/mnt/workspace/CRMBuilds/TZ.BF.4.0.3.c1-00005-M8996AAAAANAZT-1_20170110_230814/b/HK11/trustzone_images/core/securemsm/trustzone/qsapps/libs/applib/common_applib/build/secureindicator/scorpion/IADAANAA/tzapp_entrylib.lib(gpPersistObjCrypto.o)
 .debug_pubtypes
                0x00003746       0xb8 /local/mnt/workspace/CRMBuilds/TZ.BF.4.0.3.c1-00005-M8996AAAAANAZT-1_20170110_230814/b/HK11/trustzone_images/core/securemsm/trustzone/qsapps/libs/applib/common_applib/build/secureindicator/scorpion/IADAANAA/tzapp_entrylib.lib(gpPersistObjFileIO.o)
 .debug_pubtypes
                0x000037fe      0x233 /local/mnt/workspace/CRMBuilds/TZ.BF.4.0.3.c1-00005-M8996AAAAANAZT-1_20170110_230814/b/HK11/trustzone_images/core/securemsm/trustzone/qsapps/libs/applib/common_applib/build/secureindicator/scorpion/IADAANAA/tzapp_entrylib.lib(gpFileService.o)
 .debug_pubtypes
                0x00003a31      0x13f /local/mnt/workspace/CRMBuilds/TZ.BF.4.0.3.c1-00005-M8996AAAAANAZT-1_20170110_230814/b/HK11/trustzone_images/core/securemsm/trustzone/qsapps/libs/applib/qsee/build/secureindicator/scorpion/IADAANAA/tzapp_entrylib.lib(qsee_core_shim.o)
 .debug_pubtypes
                0x00003b70      0x19f /local/mnt/workspace/CRMBuilds/TZ.BF.4.0.3.c1-00005-M8996AAAAANAZT-1_20170110_230814/b/HK11/trustzone_images/core/securemsm/trustzone/qsapps/libs/applib/qsee/build/secureindicator/scorpion/IADAANAA/tzapp_entrylib.lib(stor.o)
 .debug_pubtypes
                0x00003d0f      0x32f /local/mnt/workspace/CRMBuilds/TZ.BF.4.0.3.c1-00005-M8996AAAAANAZT-1_20170110_230814/b/HK11/trustzone_images/core/securemsm/trustzone/qsapps/libs/applib/qsee/build/secureindicator/scorpion/IADAANAA/tzapp_entrylib.lib(stor_gpt.o)
 .debug_pubtypes
                0x0000403e      0x193 /local/mnt/workspace/CRMBuilds/TZ.BF.4.0.3.c1-00005-M8996AAAAANAZT-1_20170110_230814/b/HK11/trustzone_images/core/securemsm/trustzone/qsapps/libs/applib/qsee/build/secureindicator/scorpion/IADAANAA/tzapp_entrylib.lib(stor_rpmbw.o)
 .debug_pubtypes
                0x000041d1       0x81 /local/mnt/workspace/CRMBuilds/TZ.BF.4.0.3.c1-00005-M8996AAAAANAZT-1_20170110_230814/b/HK11/trustzone_images/core/securemsm/trustzone/qsapps/libs/applib/qsee/build/secureindicator/scorpion/IADAANAA/tzapp_entrylib.lib(qsee_cfg_prop_shim.o)
 .debug_pubtypes
                0x00004252      0x167 /local/mnt/workspace/CRMBuilds/TZ.BF.4.0.3.c1-00005-M8996AAAAANAZT-1_20170110_230814/b/HK11/trustzone_images/core/securemsm/trustzone/qsapps/libs/applib/qsee/build/secureindicator/scorpion/IADAANAA/tzapp_entrylib.lib(qsee_cipher.o)
 .debug_pubtypes
                0x000043b9      0x18c /local/mnt/workspace/CRMBuilds/TZ.BF.4.0.3.c1-00005-M8996AAAAANAZT-1_20170110_230814/b/HK11/trustzone_images/core/securemsm/trustzone/qsapps/libs/applib/qsee/build/secureindicator/scorpion/IADAANAA/tzapp_entrylib.lib(qsee_hash.o)
 .debug_pubtypes
                0x00004545      0x157 /local/mnt/workspace/CRMBuilds/TZ.BF.4.0.3.c1-00005-M8996AAAAANAZT-1_20170110_230814/b/HK11/trustzone_images/core/securemsm/trustzone/qsapps/libs/applib/qsee/build/secureindicator/scorpion/IADAANAA/tzapp_entrylib.lib(qsee_hmac.o)
 .debug_pubtypes
                0x0000469c       0x3f /local/mnt/workspace/CRMBuilds/TZ.BF.4.0.3.c1-00005-M8996AAAAANAZT-1_20170110_230814/b/HK11/trustzone_images/core/securemsm/trustzone/qsapps/libs/applib/qsee/build/secureindicator/scorpion/IADAANAA/tzapp_entrylib.lib(gpPersistObjPanic.o)
 .debug_pubtypes
                0x000046db       0xc3 /local/mnt/workspace/CRMBuilds/TZ.BF.4.0.3.c1-00005-M8996AAAAANAZT-1_20170110_230814/b/HK11/trustzone_images/core/securemsm/trustzone/qsapps/libs/services/build/secureindicator/scorpion/IADAANAA/qsee_services.lib(qsee_kdf.o)
 .debug_pubtypes
                0x0000479e       0x37 /local/mnt/workspace/CRMBuilds/TZ.BF.4.0.3.c1-00005-M8996AAAAANAZT-1_20170110_230814/b/HK11/trustzone_images/core/securemsm/trustzone/qsee/mink/libstd/build/secureindicator/scorpion/IADAANAA/libstd.lib(strlcat.o)
 .debug_pubtypes
                0x000047d5       0x37 /local/mnt/workspace/CRMBuilds/TZ.BF.4.0.3.c1-00005-M8996AAAAANAZT-1_20170110_230814/b/HK11/trustzone_images/core/securemsm/trustzone/qsee/mink/libstd/build/secureindicator/scorpion/IADAANAA/libstd.lib(strlcpy.o)
 .debug_pubtypes
                0x0000480c       0x54 /local/mnt/workspace/CRMBuilds/TZ.BF.4.0.3.c1-00005-M8996AAAAANAZT-1_20170110_230814/b/HK11/trustzone_images/core/securemsm/trustzone/qsee/mink/libstd/build/secureindicator/scorpion/IADAANAA/libstd.lib(timesafe_memcmp.o)
 .debug_pubtypes
                0x00004860       0x48 /local/mnt/workspace/CRMBuilds/TZ.BF.4.0.3.c1-00005-M8996AAAAANAZT-1_20170110_230814/b/HK11/trustzone_images/core/securemsm/trustzone/qsee/mink/libstd/build/secureindicator/scorpion/IADAANAA/libstd.lib(memset.o)
 .debug_pubtypes
                0x000048a8       0x4d /local/mnt/workspace/CRMBuilds/TZ.BF.4.0.3.c1-00005-M8996AAAAANAZT-1_20170110_230814/b/HK11/trustzone_images/core/securemsm/trustzone/qsee/mink/libstd/build/secureindicator/scorpion/IADAANAA/libstd.lib(memcpy.o)
 .debug_pubtypes
                0x000048f5       0x51 /local/mnt/workspace/CRMBuilds/TZ.BF.4.0.3.c1-00005-M8996AAAAANAZT-1_20170110_230814/b/HK11/trustzone_images/core/securemsm/trustzone/qsee/mink/libstd/build/secureindicator/scorpion/IADAANAA/libstd.lib(strncmp.o)

.debug_str      0x00000000     0x8b7d
 .debug_str     0x00000000      0x44c /local/mnt/workspace/CRMBuilds/TZ.BF.4.0.3.c1-00005-M8996AAAAANAZT-1_20170110_230814/b/HK11/trustzone_images/apps/securemsm/trustzone/qsapps/secureindicator/build/secureindicator/scorpion/IADAANAA/si_main.o
                                0x461 (size before relaxing)
 .debug_str     0x0000044c      0x7a2 /local/mnt/workspace/CRMBuilds/TZ.BF.4.0.3.c1-00005-M8996AAAAANAZT-1_20170110_230814/b/HK11/trustzone_images/apps/securemsm/trustzone/qsapps/secureindicator/build/secureindicator/scorpion/IADAANAA/si.o
                                0xc07 (size before relaxing)
 .debug_str     0x00000bee      0x17e /local/mnt/workspace/CRMBuilds/TZ.BF.4.0.3.c1-00005-M8996AAAAANAZT-1_20170110_230814/b/HK11/trustzone_images/apps/securemsm/trustzone/qsapps/secureindicator/build/secureindicator/scorpion/IADAANAA/metadata.o
                                0x1bc (size before relaxing)
 .debug_str     0x00000d6c      0x32c /local/mnt/workspace/CRMBuilds/TZ.BF.4.0.3.c1-00005-M8996AAAAANAZT-1_20170110_230814/b/HK11/trustzone_images/core/securemsm/sse/qsee/SecureDisplay/libpng/build/secureindicator/scorpion/IADAANAA/libpng.lib(png.o)
                                0x8ab (size before relaxing)
 .debug_str     0x00001098      0x135 /local/mnt/workspace/CRMBuilds/TZ.BF.4.0.3.c1-00005-M8996AAAAANAZT-1_20170110_230814/b/HK11/trustzone_images/core/securemsm/sse/qsee/SecureDisplay/libpng/build/secureindicator/scorpion/IADAANAA/libpng.lib(pngerror.o)
                                0x6c9 (size before relaxing)
 .debug_str     0x000011cd      0x12f /local/mnt/workspace/CRMBuilds/TZ.BF.4.0.3.c1-00005-M8996AAAAANAZT-1_20170110_230814/b/HK11/trustzone_images/core/securemsm/sse/qsee/SecureDisplay/libpng/build/secureindicator/scorpion/IADAANAA/libpng.lib(pngget.o)
                                0x6f7 (size before relaxing)
 .debug_str     0x000012fc      0x148 /local/mnt/workspace/CRMBuilds/TZ.BF.4.0.3.c1-00005-M8996AAAAANAZT-1_20170110_230814/b/HK11/trustzone_images/core/securemsm/sse/qsee/SecureDisplay/libpng/build/secureindicator/scorpion/IADAANAA/libpng.lib(pngmem.o)
                                0x6c5 (size before relaxing)
 .debug_str     0x00001444      0x1e2 /local/mnt/workspace/CRMBuilds/TZ.BF.4.0.3.c1-00005-M8996AAAAANAZT-1_20170110_230814/b/HK11/trustzone_images/core/securemsm/sse/qsee/SecureDisplay/libpng/build/secureindicator/scorpion/IADAANAA/libpng.lib(pngread.o)
                                0x7f9 (size before relaxing)
 .debug_str     0x00001626       0xc0 /local/mnt/workspace/CRMBuilds/TZ.BF.4.0.3.c1-00005-M8996AAAAANAZT-1_20170110_230814/b/HK11/trustzone_images/core/securemsm/sse/qsee/SecureDisplay/libpng/build/secureindicator/scorpion/IADAANAA/libpng.lib(pngrio.o)
                                0x629 (size before relaxing)
 .debug_str     0x000016e6      0x389 /local/mnt/workspace/CRMBuilds/TZ.BF.4.0.3.c1-00005-M8996AAAAANAZT-1_20170110_230814/b/HK11/trustzone_images/core/securemsm/sse/qsee/SecureDisplay/libpng/build/secureindicator/scorpion/IADAANAA/libpng.lib(pngrutil.o)
                                0x9bf (size before relaxing)
 .debug_str     0x00001a6f      0x11d /local/mnt/workspace/CRMBuilds/TZ.BF.4.0.3.c1-00005-M8996AAAAANAZT-1_20170110_230814/b/HK11/trustzone_images/core/securemsm/sse/qsee/SecureDisplay/libpng/build/secureindicator/scorpion/IADAANAA/libpng.lib(pngset.o)
                                0x6f7 (size before relaxing)
 .debug_str     0x00001b8c      0x152 /local/mnt/workspace/CRMBuilds/TZ.BF.4.0.3.c1-00005-M8996AAAAANAZT-1_20170110_230814/b/HK11/trustzone_images/core/securemsm/sse/qsee/SecureDisplay/zlib/build/secureindicator/scorpion/IADAANAA/zlib.lib(crc32.o)
                                0x259 (size before relaxing)
 .debug_str     0x00001cde      0x3ee /local/mnt/workspace/CRMBuilds/TZ.BF.4.0.3.c1-00005-M8996AAAAANAZT-1_20170110_230814/b/HK11/trustzone_images/core/securemsm/sse/qsee/SecureDisplay/zlib/build/secureindicator/scorpion/IADAANAA/zlib.lib(inflate.o)
                                0x646 (size before relaxing)
 .debug_str     0x000020cc      0x110 /local/mnt/workspace/CRMBuilds/TZ.BF.4.0.3.c1-00005-M8996AAAAANAZT-1_20170110_230814/b/HK11/trustzone_images/core/securemsm/sse/qsee/SecureDisplay/zlib/build/secureindicator/scorpion/IADAANAA/zlib.lib(inftrees.o)
                                0x253 (size before relaxing)
 .debug_str     0x000021dc       0xe7 /local/mnt/workspace/CRMBuilds/TZ.BF.4.0.3.c1-00005-M8996AAAAANAZT-1_20170110_230814/b/HK11/trustzone_images/core/securemsm/sse/qsee/SecureDisplay/zlib/build/secureindicator/scorpion/IADAANAA/zlib.lib(zutil.o)
                                0x1d9 (size before relaxing)
 .debug_str     0x000022c3       0xf8 /local/mnt/workspace/CRMBuilds/TZ.BF.4.0.3.c1-00005-M8996AAAAANAZT-1_20170110_230814/b/HK11/trustzone_images/core/securemsm/sse/qsee/SecureDisplay/zlib/build/secureindicator/scorpion/IADAANAA/zlib.lib(adler32.o)
                                0x1ed (size before relaxing)
 .debug_str     0x000023bb       0xca /local/mnt/workspace/CRMBuilds/TZ.BF.4.0.3.c1-00005-M8996AAAAANAZT-1_20170110_230814/b/HK11/trustzone_images/core/securemsm/sse/qsee/SecureDisplay/zlib/build/secureindicator/scorpion/IADAANAA/zlib.lib(inffast.o)
                                0x4bf (size before relaxing)
 .debug_str     0x00002485      0xd91 /local/mnt/workspace/CRMBuilds/TZ.BF.4.0.3.c1-00005-M8996AAAAANAZT-1_20170110_230814/b/HK11/trustzone_images/core/securemsm/trustzone/qsapps/libs/applib/common_applib/build/secureindicator/scorpion/IADAANAA/tzapp_entrylib.lib(common_applib.o)
                                0xfb1 (size before relaxing)
 .debug_str     0x00003216      0x172 /local/mnt/workspace/CRMBuilds/TZ.BF.4.0.3.c1-00005-M8996AAAAANAZT-1_20170110_230814/b/HK11/trustzone_images/core/securemsm/trustzone/qsapps/libs/applib/qsee/build/secureindicator/scorpion/IADAANAA/tzapp_entrylib.lib(mink_shared_code.o)
                                0x2f1 (size before relaxing)
 .debug_str     0x00003388      0x20e /local/mnt/workspace/CRMBuilds/TZ.BF.4.0.3.c1-00005-M8996AAAAANAZT-1_20170110_230814/b/HK11/trustzone_images/core/securemsm/trustzone/qsapps/libs/applib/qsee/build/secureindicator/scorpion/IADAANAA/tzapp_entrylib.lib(qsee_env.o)
                                0x3b5 (size before relaxing)
 .debug_str     0x00003596       0xf1 /local/mnt/workspace/CRMBuilds/TZ.BF.4.0.3.c1-00005-M8996AAAAANAZT-1_20170110_230814/b/HK11/trustzone_images/core/securemsm/trustzone/qsapps/libs/applib/qsee/build/secureindicator/scorpion/IADAANAA/tzapp_entrylib.lib(qsee_prng.o)
                                0x279 (size before relaxing)
 .debug_str     0x00003687      0x305 /local/mnt/workspace/CRMBuilds/TZ.BF.4.0.3.c1-00005-M8996AAAAANAZT-1_20170110_230814/b/HK11/trustzone_images/core/securemsm/trustzone/qsapps/libs/applib/qsee/build/secureindicator/scorpion/IADAANAA/tzapp_entrylib.lib(qsee_appmessage.o)
                                0x491 (size before relaxing)
 .debug_str     0x0000398c      0x8fa /local/mnt/workspace/CRMBuilds/TZ.BF.4.0.3.c1-00005-M8996AAAAANAZT-1_20170110_230814/b/HK11/trustzone_images/core/securemsm/trustzone/qsapps/libs/applib/qsee/build/secureindicator/scorpion/IADAANAA/tzapp_entrylib.lib(sfs_api.o)
                                0xb7d (size before relaxing)
 .debug_str     0x00004286      0x306 /local/mnt/workspace/CRMBuilds/TZ.BF.4.0.3.c1-00005-M8996AAAAANAZT-1_20170110_230814/b/HK11/trustzone_images/core/securemsm/trustzone/qsapps/libs/applib/qsee/build/secureindicator/scorpion/IADAANAA/tzapp_entrylib.lib(tzapp_lib_main.o)
                                0x472 (size before relaxing)
 .debug_str     0x0000458c       0xde /local/mnt/workspace/CRMBuilds/TZ.BF.4.0.3.c1-00005-M8996AAAAANAZT-1_20170110_230814/b/HK11/trustzone_images/core/securemsm/trustzone/qsapps/libs/services/build/secureindicator/scorpion/IADAANAA/qsee_services.lib(qsee_log.o)
                                0x1c6 (size before relaxing)
 .debug_str     0x0000466a       0xcc /local/mnt/workspace/CRMBuilds/TZ.BF.4.0.3.c1-00005-M8996AAAAANAZT-1_20170110_230814/b/HK11/trustzone_images/core/securemsm/trustzone/qsee/mink/libstd/build/secureindicator/scorpion/IADAANAA/libstd.lib(memscpy.o)
                                0x174 (size before relaxing)
 .debug_str     0x00004736       0xc0 /local/mnt/workspace/CRMBuilds/TZ.BF.4.0.3.c1-00005-M8996AAAAANAZT-1_20170110_230814/b/HK11/trustzone_images/core/securemsm/trustzone/qsee/mink/libstd/build/secureindicator/scorpion/IADAANAA/libstd.lib(secure_memset.o)
                                0x190 (size before relaxing)
 .debug_str     0x000047f6       0xa5 /local/mnt/workspace/CRMBuilds/TZ.BF.4.0.3.c1-00005-M8996AAAAANAZT-1_20170110_230814/b/HK11/trustzone_images/core/securemsm/trustzone/qsee/mink/libstd/build/secureindicator/scorpion/IADAANAA/libstd.lib(memcmp.o)
                                0x16c (size before relaxing)
 .debug_str     0x0000489b       0xa6 /local/mnt/workspace/CRMBuilds/TZ.BF.4.0.3.c1-00005-M8996AAAAANAZT-1_20170110_230814/b/HK11/trustzone_images/core/securemsm/trustzone/qsee/mink/libstd/build/secureindicator/scorpion/IADAANAA/libstd.lib(strlen.o)
                                0x159 (size before relaxing)
 .debug_str     0x00004941       0xa6 /local/mnt/workspace/CRMBuilds/TZ.BF.4.0.3.c1-00005-M8996AAAAANAZT-1_20170110_230814/b/HK11/trustzone_images/core/securemsm/trustzone/qsee/mink/libstd/build/secureindicator/scorpion/IADAANAA/libstd.lib(strcmp.o)
                                0x147 (size before relaxing)
 .debug_str     0x000049e7      0x294 /local/mnt/workspace/CRMBuilds/TZ.BF.4.0.3.c1-00005-M8996AAAAANAZT-1_20170110_230814/b/HK11/trustzone_images/core/securemsm/trustzone/qsee/mink/libstd/build/secureindicator/scorpion/IADAANAA/libstd.lib(printf.o)
                                0x471 (size before relaxing)
 .debug_str     0x00004c7b       0xa4 /local/mnt/workspace/CRMBuilds/TZ.BF.4.0.3.c1-00005-M8996AAAAANAZT-1_20170110_230814/b/HK11/trustzone_images/core/securemsm/trustzone/qsee/mink/libstd/build/secureindicator/scorpion/IADAANAA/libstd.lib(abort.o)
                                0x138 (size before relaxing)
 .debug_str     0x00004d1f       0xa6 /local/mnt/workspace/CRMBuilds/TZ.BF.4.0.3.c1-00005-M8996AAAAANAZT-1_20170110_230814/b/HK11/trustzone_images/core/securemsm/trustzone/qsee/mink/libstd/build/secureindicator/scorpion/IADAANAA/libstd.lib(memchr.o)
                                0x16e (size before relaxing)
 .debug_str     0x00004dc5       0xce /local/mnt/workspace/CRMBuilds/TZ.BF.4.0.3.c1-00005-M8996AAAAANAZT-1_20170110_230814/b/HK11/trustzone_images/apps/securemsm/trustzone/qsapps/secureindicator/oem/build/secureindicator/scorpion/IADAANAA/secureindicator_oem.lib(si_oem.o)
                                0x179 (size before relaxing)
 .debug_str     0x00004e93      0x307 /local/mnt/workspace/CRMBuilds/TZ.BF.4.0.3.c1-00005-M8996AAAAANAZT-1_20170110_230814/b/HK11/trustzone_images/core/securemsm/trustzone/qsapps/libs/applib/common_applib/build/secureindicator/scorpion/IADAANAA/tzapp_entrylib.lib(gpPersistObjCommon.o)
                                0x539 (size before relaxing)
 .debug_str     0x0000519a      0x298 /local/mnt/workspace/CRMBuilds/TZ.BF.4.0.3.c1-00005-M8996AAAAANAZT-1_20170110_230814/b/HK11/trustzone_images/core/securemsm/trustzone/qsapps/libs/applib/common_applib/build/secureindicator/scorpion/IADAANAA/tzapp_entrylib.lib(gpPersistentObjects.o)
                                0x5ea (size before relaxing)
 .debug_str     0x00005432      0x437 /local/mnt/workspace/CRMBuilds/TZ.BF.4.0.3.c1-00005-M8996AAAAANAZT-1_20170110_230814/b/HK11/trustzone_images/core/securemsm/trustzone/qsapps/libs/applib/common_applib/build/secureindicator/scorpion/IADAANAA/tzapp_entrylib.lib(gpPersistObjData.o)
                                0x744 (size before relaxing)
 .debug_str     0x00005869      0x206 /local/mnt/workspace/CRMBuilds/TZ.BF.4.0.3.c1-00005-M8996AAAAANAZT-1_20170110_230814/b/HK11/trustzone_images/core/securemsm/trustzone/qsapps/libs/applib/common_applib/build/secureindicator/scorpion/IADAANAA/tzapp_entrylib.lib(gpPersistObjHandler.o)
                                0x4b1 (size before relaxing)
 .debug_str     0x00005a6f      0x2c3 /local/mnt/workspace/CRMBuilds/TZ.BF.4.0.3.c1-00005-M8996AAAAANAZT-1_20170110_230814/b/HK11/trustzone_images/core/securemsm/trustzone/qsapps/libs/applib/common_applib/build/secureindicator/scorpion/IADAANAA/tzapp_entrylib.lib(gpPersistObjIndex.o)
                                0x602 (size before relaxing)
 .debug_str     0x00005d32      0x44e /local/mnt/workspace/CRMBuilds/TZ.BF.4.0.3.c1-00005-M8996AAAAANAZT-1_20170110_230814/b/HK11/trustzone_images/core/securemsm/trustzone/qsapps/libs/applib/common_applib/build/secureindicator/scorpion/IADAANAA/tzapp_entrylib.lib(gpPersistObjVersion.o)
                                0x6e4 (size before relaxing)
 .debug_str     0x00006180      0x49a /local/mnt/workspace/CRMBuilds/TZ.BF.4.0.3.c1-00005-M8996AAAAANAZT-1_20170110_230814/b/HK11/trustzone_images/core/securemsm/trustzone/qsapps/libs/applib/common_applib/build/secureindicator/scorpion/IADAANAA/tzapp_entrylib.lib(gpPersistObjCrypto.o)
                                0x63e (size before relaxing)
 .debug_str     0x0000661a      0x155 /local/mnt/workspace/CRMBuilds/TZ.BF.4.0.3.c1-00005-M8996AAAAANAZT-1_20170110_230814/b/HK11/trustzone_images/core/securemsm/trustzone/qsapps/libs/applib/common_applib/build/secureindicator/scorpion/IADAANAA/tzapp_entrylib.lib(gpPersistObjFileIO.o)
                                0x2ff (size before relaxing)
 .debug_str     0x0000676f      0x31d /local/mnt/workspace/CRMBuilds/TZ.BF.4.0.3.c1-00005-M8996AAAAANAZT-1_20170110_230814/b/HK11/trustzone_images/core/securemsm/trustzone/qsapps/libs/applib/common_applib/build/secureindicator/scorpion/IADAANAA/tzapp_entrylib.lib(gpFileService.o)
                                0x446 (size before relaxing)
 .debug_str     0x00006a8c      0x756 /local/mnt/workspace/CRMBuilds/TZ.BF.4.0.3.c1-00005-M8996AAAAANAZT-1_20170110_230814/b/HK11/trustzone_images/core/securemsm/trustzone/qsapps/libs/applib/qsee/build/secureindicator/scorpion/IADAANAA/tzapp_entrylib.lib(qsee_core_shim.o)
                                0x87a (size before relaxing)
 .debug_str     0x000071e2      0x36b /local/mnt/workspace/CRMBuilds/TZ.BF.4.0.3.c1-00005-M8996AAAAANAZT-1_20170110_230814/b/HK11/trustzone_images/core/securemsm/trustzone/qsapps/libs/applib/qsee/build/secureindicator/scorpion/IADAANAA/tzapp_entrylib.lib(stor.o)
                                0x5af (size before relaxing)
 .debug_str     0x0000754d      0x4d5 /local/mnt/workspace/CRMBuilds/TZ.BF.4.0.3.c1-00005-M8996AAAAANAZT-1_20170110_230814/b/HK11/trustzone_images/core/securemsm/trustzone/qsapps/libs/applib/qsee/build/secureindicator/scorpion/IADAANAA/tzapp_entrylib.lib(stor_gpt.o)
                                0x870 (size before relaxing)
 .debug_str     0x00007a22      0x170 /local/mnt/workspace/CRMBuilds/TZ.BF.4.0.3.c1-00005-M8996AAAAANAZT-1_20170110_230814/b/HK11/trustzone_images/core/securemsm/trustzone/qsapps/libs/applib/qsee/build/secureindicator/scorpion/IADAANAA/tzapp_entrylib.lib(stor_rpmbw.o)
                                0x4ff (size before relaxing)
 .debug_str     0x00007b92      0x122 /local/mnt/workspace/CRMBuilds/TZ.BF.4.0.3.c1-00005-M8996AAAAANAZT-1_20170110_230814/b/HK11/trustzone_images/core/securemsm/trustzone/qsapps/libs/applib/qsee/build/secureindicator/scorpion/IADAANAA/tzapp_entrylib.lib(qsee_cfg_prop_shim.o)
                                0x2c7 (size before relaxing)
 .debug_str     0x00007cb4      0x399 /local/mnt/workspace/CRMBuilds/TZ.BF.4.0.3.c1-00005-M8996AAAAANAZT-1_20170110_230814/b/HK11/trustzone_images/core/securemsm/trustzone/qsapps/libs/applib/qsee/build/secureindicator/scorpion/IADAANAA/tzapp_entrylib.lib(qsee_cipher.o)
                                0x6f9 (size before relaxing)
 .debug_str     0x0000804d      0x2ee /local/mnt/workspace/CRMBuilds/TZ.BF.4.0.3.c1-00005-M8996AAAAANAZT-1_20170110_230814/b/HK11/trustzone_images/core/securemsm/trustzone/qsapps/libs/applib/qsee/build/secureindicator/scorpion/IADAANAA/tzapp_entrylib.lib(qsee_hash.o)
                                0x633 (size before relaxing)
 .debug_str     0x0000833b      0x232 /local/mnt/workspace/CRMBuilds/TZ.BF.4.0.3.c1-00005-M8996AAAAANAZT-1_20170110_230814/b/HK11/trustzone_images/core/securemsm/trustzone/qsapps/libs/applib/qsee/build/secureindicator/scorpion/IADAANAA/tzapp_entrylib.lib(qsee_hmac.o)
                                0x4a6 (size before relaxing)
 .debug_str     0x0000856d       0xdf /local/mnt/workspace/CRMBuilds/TZ.BF.4.0.3.c1-00005-M8996AAAAANAZT-1_20170110_230814/b/HK11/trustzone_images/core/securemsm/trustzone/qsapps/libs/applib/qsee/build/secureindicator/scorpion/IADAANAA/tzapp_entrylib.lib(gpPersistObjPanic.o)
                                0x19b (size before relaxing)
 .debug_str     0x0000864c      0x125 /local/mnt/workspace/CRMBuilds/TZ.BF.4.0.3.c1-00005-M8996AAAAANAZT-1_20170110_230814/b/HK11/trustzone_images/core/securemsm/trustzone/qsapps/libs/services/build/secureindicator/scorpion/IADAANAA/qsee_services.lib(qsee_kdf.o)
                                0x2ad (size before relaxing)
 .debug_str     0x00008771       0xac /local/mnt/workspace/CRMBuilds/TZ.BF.4.0.3.c1-00005-M8996AAAAANAZT-1_20170110_230814/b/HK11/trustzone_images/core/securemsm/trustzone/qsee/mink/libstd/build/secureindicator/scorpion/IADAANAA/libstd.lib(strlcat.o)
                                0x16c (size before relaxing)
 .debug_str     0x0000881d       0xa8 /local/mnt/workspace/CRMBuilds/TZ.BF.4.0.3.c1-00005-M8996AAAAANAZT-1_20170110_230814/b/HK11/trustzone_images/core/securemsm/trustzone/qsee/mink/libstd/build/secureindicator/scorpion/IADAANAA/libstd.lib(strlcpy.o)
                                0x167 (size before relaxing)
 .debug_str     0x000088c5       0xc5 /local/mnt/workspace/CRMBuilds/TZ.BF.4.0.3.c1-00005-M8996AAAAANAZT-1_20170110_230814/b/HK11/trustzone_images/core/securemsm/trustzone/qsee/mink/libstd/build/secureindicator/scorpion/IADAANAA/libstd.lib(timesafe_memcmp.o)
                                0x191 (size before relaxing)
 .debug_str     0x0000898a       0x9f /local/mnt/workspace/CRMBuilds/TZ.BF.4.0.3.c1-00005-M8996AAAAANAZT-1_20170110_230814/b/HK11/trustzone_images/core/securemsm/trustzone/qsee/mink/libstd/build/secureindicator/scorpion/IADAANAA/libstd.lib(memset.o)
                                0x16d (size before relaxing)
 .debug_str     0x00008a29       0xa6 /local/mnt/workspace/CRMBuilds/TZ.BF.4.0.3.c1-00005-M8996AAAAANAZT-1_20170110_230814/b/HK11/trustzone_images/core/securemsm/trustzone/qsee/mink/libstd/build/secureindicator/scorpion/IADAANAA/libstd.lib(memcpy.o)
                                0x178 (size before relaxing)
 .debug_str     0x00008acf       0xae /local/mnt/workspace/CRMBuilds/TZ.BF.4.0.3.c1-00005-M8996AAAAANAZT-1_20170110_230814/b/HK11/trustzone_images/core/securemsm/trustzone/qsee/mink/libstd/build/secureindicator/scorpion/IADAANAA/libstd.lib(strncmp.o)
                                0x173 (size before relaxing)

.debug_loc      0x00000000     0xee44
 .debug_loc     0x00000000       0xaf /local/mnt/workspace/CRMBuilds/TZ.BF.4.0.3.c1-00005-M8996AAAAANAZT-1_20170110_230814/b/HK11/trustzone_images/apps/securemsm/trustzone/qsapps/secureindicator/build/secureindicator/scorpion/IADAANAA/si_main.o
 .debug_loc     0x000000af      0x6d2 /local/mnt/workspace/CRMBuilds/TZ.BF.4.0.3.c1-00005-M8996AAAAANAZT-1_20170110_230814/b/HK11/trustzone_images/apps/securemsm/trustzone/qsapps/secureindicator/build/secureindicator/scorpion/IADAANAA/si.o
 .debug_loc     0x00000781        0x0 /local/mnt/workspace/CRMBuilds/TZ.BF.4.0.3.c1-00005-M8996AAAAANAZT-1_20170110_230814/b/HK11/trustzone_images/apps/securemsm/trustzone/qsapps/secureindicator/build/secureindicator/scorpion/IADAANAA/metadata.o
 .debug_loc     0x00000781      0x4af /local/mnt/workspace/CRMBuilds/TZ.BF.4.0.3.c1-00005-M8996AAAAANAZT-1_20170110_230814/b/HK11/trustzone_images/core/securemsm/sse/qsee/SecureDisplay/libpng/build/secureindicator/scorpion/IADAANAA/libpng.lib(png.o)
 .debug_loc     0x00000c30       0x57 /local/mnt/workspace/CRMBuilds/TZ.BF.4.0.3.c1-00005-M8996AAAAANAZT-1_20170110_230814/b/HK11/trustzone_images/core/securemsm/sse/qsee/SecureDisplay/libpng/build/secureindicator/scorpion/IADAANAA/libpng.lib(pngerror.o)
 .debug_loc     0x00000c87      0x17d /local/mnt/workspace/CRMBuilds/TZ.BF.4.0.3.c1-00005-M8996AAAAANAZT-1_20170110_230814/b/HK11/trustzone_images/core/securemsm/sse/qsee/SecureDisplay/libpng/build/secureindicator/scorpion/IADAANAA/libpng.lib(pngget.o)
 .debug_loc     0x00000e04      0x163 /local/mnt/workspace/CRMBuilds/TZ.BF.4.0.3.c1-00005-M8996AAAAANAZT-1_20170110_230814/b/HK11/trustzone_images/core/securemsm/sse/qsee/SecureDisplay/libpng/build/secureindicator/scorpion/IADAANAA/libpng.lib(pngmem.o)
 .debug_loc     0x00000f67      0x415 /local/mnt/workspace/CRMBuilds/TZ.BF.4.0.3.c1-00005-M8996AAAAANAZT-1_20170110_230814/b/HK11/trustzone_images/core/securemsm/sse/qsee/SecureDisplay/libpng/build/secureindicator/scorpion/IADAANAA/libpng.lib(pngread.o)
 .debug_loc     0x0000137c        0x0 /local/mnt/workspace/CRMBuilds/TZ.BF.4.0.3.c1-00005-M8996AAAAANAZT-1_20170110_230814/b/HK11/trustzone_images/core/securemsm/sse/qsee/SecureDisplay/libpng/build/secureindicator/scorpion/IADAANAA/libpng.lib(pngrio.o)
 .debug_loc     0x0000137c      0xab7 /local/mnt/workspace/CRMBuilds/TZ.BF.4.0.3.c1-00005-M8996AAAAANAZT-1_20170110_230814/b/HK11/trustzone_images/core/securemsm/sse/qsee/SecureDisplay/libpng/build/secureindicator/scorpion/IADAANAA/libpng.lib(pngrutil.o)
 .debug_loc     0x00001e33      0x1bb /local/mnt/workspace/CRMBuilds/TZ.BF.4.0.3.c1-00005-M8996AAAAANAZT-1_20170110_230814/b/HK11/trustzone_images/core/securemsm/sse/qsee/SecureDisplay/libpng/build/secureindicator/scorpion/IADAANAA/libpng.lib(pngset.o)
 .debug_loc     0x00001fee      0x337 /local/mnt/workspace/CRMBuilds/TZ.BF.4.0.3.c1-00005-M8996AAAAANAZT-1_20170110_230814/b/HK11/trustzone_images/core/securemsm/sse/qsee/SecureDisplay/zlib/build/secureindicator/scorpion/IADAANAA/zlib.lib(crc32.o)
 .debug_loc     0x00002325     0x17c9 /local/mnt/workspace/CRMBuilds/TZ.BF.4.0.3.c1-00005-M8996AAAAANAZT-1_20170110_230814/b/HK11/trustzone_images/core/securemsm/sse/qsee/SecureDisplay/zlib/build/secureindicator/scorpion/IADAANAA/zlib.lib(inflate.o)
 .debug_loc     0x00003aee      0x44f /local/mnt/workspace/CRMBuilds/TZ.BF.4.0.3.c1-00005-M8996AAAAANAZT-1_20170110_230814/b/HK11/trustzone_images/core/securemsm/sse/qsee/SecureDisplay/zlib/build/secureindicator/scorpion/IADAANAA/zlib.lib(inftrees.o)
 .debug_loc     0x00003f3d       0xa6 /local/mnt/workspace/CRMBuilds/TZ.BF.4.0.3.c1-00005-M8996AAAAANAZT-1_20170110_230814/b/HK11/trustzone_images/core/securemsm/sse/qsee/SecureDisplay/zlib/build/secureindicator/scorpion/IADAANAA/zlib.lib(zutil.o)
 .debug_loc     0x00003fe3      0x4e8 /local/mnt/workspace/CRMBuilds/TZ.BF.4.0.3.c1-00005-M8996AAAAANAZT-1_20170110_230814/b/HK11/trustzone_images/core/securemsm/sse/qsee/SecureDisplay/zlib/build/secureindicator/scorpion/IADAANAA/zlib.lib(adler32.o)
 .debug_loc     0x000044cb      0x649 /local/mnt/workspace/CRMBuilds/TZ.BF.4.0.3.c1-00005-M8996AAAAANAZT-1_20170110_230814/b/HK11/trustzone_images/core/securemsm/sse/qsee/SecureDisplay/zlib/build/secureindicator/scorpion/IADAANAA/zlib.lib(inffast.o)
 .debug_loc     0x00004b14      0x6b4 /local/mnt/workspace/CRMBuilds/TZ.BF.4.0.3.c1-00005-M8996AAAAANAZT-1_20170110_230814/b/HK11/trustzone_images/core/securemsm/trustzone/qsapps/libs/applib/common_applib/build/secureindicator/scorpion/IADAANAA/tzapp_entrylib.lib(common_applib.o)
 .debug_loc     0x000051c8      0x1ea /local/mnt/workspace/CRMBuilds/TZ.BF.4.0.3.c1-00005-M8996AAAAANAZT-1_20170110_230814/b/HK11/trustzone_images/core/securemsm/trustzone/qsapps/libs/applib/qsee/build/secureindicator/scorpion/IADAANAA/tzapp_entrylib.lib(mink_shared_code.o)
 .debug_loc     0x000053b2      0x1fd /local/mnt/workspace/CRMBuilds/TZ.BF.4.0.3.c1-00005-M8996AAAAANAZT-1_20170110_230814/b/HK11/trustzone_images/core/securemsm/trustzone/qsapps/libs/applib/qsee/build/secureindicator/scorpion/IADAANAA/tzapp_entrylib.lib(qsee_env.o)
 .debug_loc     0x000055af       0x7b /local/mnt/workspace/CRMBuilds/TZ.BF.4.0.3.c1-00005-M8996AAAAANAZT-1_20170110_230814/b/HK11/trustzone_images/core/securemsm/trustzone/qsapps/libs/applib/qsee/build/secureindicator/scorpion/IADAANAA/tzapp_entrylib.lib(qsee_prng.o)
 .debug_loc     0x0000562a      0x2dc /local/mnt/workspace/CRMBuilds/TZ.BF.4.0.3.c1-00005-M8996AAAAANAZT-1_20170110_230814/b/HK11/trustzone_images/core/securemsm/trustzone/qsapps/libs/applib/qsee/build/secureindicator/scorpion/IADAANAA/tzapp_entrylib.lib(qsee_appmessage.o)
 .debug_loc     0x00005906      0x57b /local/mnt/workspace/CRMBuilds/TZ.BF.4.0.3.c1-00005-M8996AAAAANAZT-1_20170110_230814/b/HK11/trustzone_images/core/securemsm/trustzone/qsapps/libs/applib/qsee/build/secureindicator/scorpion/IADAANAA/tzapp_entrylib.lib(sfs_api.o)
 .debug_loc     0x00005e81       0xf0 /local/mnt/workspace/CRMBuilds/TZ.BF.4.0.3.c1-00005-M8996AAAAANAZT-1_20170110_230814/b/HK11/trustzone_images/core/securemsm/trustzone/qsapps/libs/applib/qsee/build/secureindicator/scorpion/IADAANAA/tzapp_entrylib.lib(tzapp_lib_main.o)
 .debug_loc     0x00005f71       0x31 /local/mnt/workspace/CRMBuilds/TZ.BF.4.0.3.c1-00005-M8996AAAAANAZT-1_20170110_230814/b/HK11/trustzone_images/core/securemsm/trustzone/qsapps/libs/services/build/secureindicator/scorpion/IADAANAA/qsee_services.lib(qsee_log.o)
 .debug_loc     0x00005fa2       0x62 /local/mnt/workspace/CRMBuilds/TZ.BF.4.0.3.c1-00005-M8996AAAAANAZT-1_20170110_230814/b/HK11/trustzone_images/core/securemsm/trustzone/qsee/mink/libstd/build/secureindicator/scorpion/IADAANAA/libstd.lib(memscpy.o)
 .debug_loc     0x00006004       0x62 /local/mnt/workspace/CRMBuilds/TZ.BF.4.0.3.c1-00005-M8996AAAAANAZT-1_20170110_230814/b/HK11/trustzone_images/core/securemsm/trustzone/qsee/mink/libstd/build/secureindicator/scorpion/IADAANAA/libstd.lib(secure_memset.o)
 .debug_loc     0x00006066       0x80 /local/mnt/workspace/CRMBuilds/TZ.BF.4.0.3.c1-00005-M8996AAAAANAZT-1_20170110_230814/b/HK11/trustzone_images/core/securemsm/trustzone/qsee/mink/libstd/build/secureindicator/scorpion/IADAANAA/libstd.lib(memcmp.o)
 .debug_loc     0x000060e6       0x47 /local/mnt/workspace/CRMBuilds/TZ.BF.4.0.3.c1-00005-M8996AAAAANAZT-1_20170110_230814/b/HK11/trustzone_images/core/securemsm/trustzone/qsee/mink/libstd/build/secureindicator/scorpion/IADAANAA/libstd.lib(strlen.o)
 .debug_loc     0x0000612d       0x13 /local/mnt/workspace/CRMBuilds/TZ.BF.4.0.3.c1-00005-M8996AAAAANAZT-1_20170110_230814/b/HK11/trustzone_images/core/securemsm/trustzone/qsee/mink/libstd/build/secureindicator/scorpion/IADAANAA/libstd.lib(strcmp.o)
 .debug_loc     0x00006140      0xa65 /local/mnt/workspace/CRMBuilds/TZ.BF.4.0.3.c1-00005-M8996AAAAANAZT-1_20170110_230814/b/HK11/trustzone_images/core/securemsm/trustzone/qsee/mink/libstd/build/secureindicator/scorpion/IADAANAA/libstd.lib(printf.o)
 .debug_loc     0x00006ba5        0x0 /local/mnt/workspace/CRMBuilds/TZ.BF.4.0.3.c1-00005-M8996AAAAANAZT-1_20170110_230814/b/HK11/trustzone_images/core/securemsm/trustzone/qsee/mink/libstd/build/secureindicator/scorpion/IADAANAA/libstd.lib(abort.o)
 .debug_loc     0x00006ba5       0x9e /local/mnt/workspace/CRMBuilds/TZ.BF.4.0.3.c1-00005-M8996AAAAANAZT-1_20170110_230814/b/HK11/trustzone_images/core/securemsm/trustzone/qsee/mink/libstd/build/secureindicator/scorpion/IADAANAA/libstd.lib(memchr.o)
 .debug_loc     0x00006c43        0x0 /local/mnt/workspace/CRMBuilds/TZ.BF.4.0.3.c1-00005-M8996AAAAANAZT-1_20170110_230814/b/HK11/trustzone_images/apps/securemsm/trustzone/qsapps/secureindicator/oem/build/secureindicator/scorpion/IADAANAA/secureindicator_oem.lib(si_oem.o)
 .debug_loc     0x00006c43      0x423 /local/mnt/workspace/CRMBuilds/TZ.BF.4.0.3.c1-00005-M8996AAAAANAZT-1_20170110_230814/b/HK11/trustzone_images/core/securemsm/trustzone/qsapps/libs/applib/common_applib/build/secureindicator/scorpion/IADAANAA/tzapp_entrylib.lib(gpPersistObjCommon.o)
 .debug_loc     0x00007066      0xa03 /local/mnt/workspace/CRMBuilds/TZ.BF.4.0.3.c1-00005-M8996AAAAANAZT-1_20170110_230814/b/HK11/trustzone_images/core/securemsm/trustzone/qsapps/libs/applib/common_applib/build/secureindicator/scorpion/IADAANAA/tzapp_entrylib.lib(gpPersistentObjects.o)
 .debug_loc     0x00007a69     0x1a86 /local/mnt/workspace/CRMBuilds/TZ.BF.4.0.3.c1-00005-M8996AAAAANAZT-1_20170110_230814/b/HK11/trustzone_images/core/securemsm/trustzone/qsapps/libs/applib/common_applib/build/secureindicator/scorpion/IADAANAA/tzapp_entrylib.lib(gpPersistObjData.o)
 .debug_loc     0x000094ef      0x51f /local/mnt/workspace/CRMBuilds/TZ.BF.4.0.3.c1-00005-M8996AAAAANAZT-1_20170110_230814/b/HK11/trustzone_images/core/securemsm/trustzone/qsapps/libs/applib/common_applib/build/secureindicator/scorpion/IADAANAA/tzapp_entrylib.lib(gpPersistObjHandler.o)
 .debug_loc     0x00009a0e      0xc13 /local/mnt/workspace/CRMBuilds/TZ.BF.4.0.3.c1-00005-M8996AAAAANAZT-1_20170110_230814/b/HK11/trustzone_images/core/securemsm/trustzone/qsapps/libs/applib/common_applib/build/secureindicator/scorpion/IADAANAA/tzapp_entrylib.lib(gpPersistObjIndex.o)
 .debug_loc     0x0000a621      0x90c /local/mnt/workspace/CRMBuilds/TZ.BF.4.0.3.c1-00005-M8996AAAAANAZT-1_20170110_230814/b/HK11/trustzone_images/core/securemsm/trustzone/qsapps/libs/applib/common_applib/build/secureindicator/scorpion/IADAANAA/tzapp_entrylib.lib(gpPersistObjVersion.o)
 .debug_loc     0x0000af2d      0x92e /local/mnt/workspace/CRMBuilds/TZ.BF.4.0.3.c1-00005-M8996AAAAANAZT-1_20170110_230814/b/HK11/trustzone_images/core/securemsm/trustzone/qsapps/libs/applib/common_applib/build/secureindicator/scorpion/IADAANAA/tzapp_entrylib.lib(gpPersistObjCrypto.o)
 .debug_loc     0x0000b85b      0x515 /local/mnt/workspace/CRMBuilds/TZ.BF.4.0.3.c1-00005-M8996AAAAANAZT-1_20170110_230814/b/HK11/trustzone_images/core/securemsm/trustzone/qsapps/libs/applib/common_applib/build/secureindicator/scorpion/IADAANAA/tzapp_entrylib.lib(gpPersistObjFileIO.o)
 .debug_loc     0x0000bd70      0x3fb /local/mnt/workspace/CRMBuilds/TZ.BF.4.0.3.c1-00005-M8996AAAAANAZT-1_20170110_230814/b/HK11/trustzone_images/core/securemsm/trustzone/qsapps/libs/applib/common_applib/build/secureindicator/scorpion/IADAANAA/tzapp_entrylib.lib(gpFileService.o)
 .debug_loc     0x0000c16b      0x3e0 /local/mnt/workspace/CRMBuilds/TZ.BF.4.0.3.c1-00005-M8996AAAAANAZT-1_20170110_230814/b/HK11/trustzone_images/core/securemsm/trustzone/qsapps/libs/applib/qsee/build/secureindicator/scorpion/IADAANAA/tzapp_entrylib.lib(qsee_core_shim.o)
 .debug_loc     0x0000c54b      0x17d /local/mnt/workspace/CRMBuilds/TZ.BF.4.0.3.c1-00005-M8996AAAAANAZT-1_20170110_230814/b/HK11/trustzone_images/core/securemsm/trustzone/qsapps/libs/applib/qsee/build/secureindicator/scorpion/IADAANAA/tzapp_entrylib.lib(stor.o)
 .debug_loc     0x0000c6c8      0xc8b /local/mnt/workspace/CRMBuilds/TZ.BF.4.0.3.c1-00005-M8996AAAAANAZT-1_20170110_230814/b/HK11/trustzone_images/core/securemsm/trustzone/qsapps/libs/applib/qsee/build/secureindicator/scorpion/IADAANAA/tzapp_entrylib.lib(stor_gpt.o)
 .debug_loc     0x0000d353      0x2d0 /local/mnt/workspace/CRMBuilds/TZ.BF.4.0.3.c1-00005-M8996AAAAANAZT-1_20170110_230814/b/HK11/trustzone_images/core/securemsm/trustzone/qsapps/libs/applib/qsee/build/secureindicator/scorpion/IADAANAA/tzapp_entrylib.lib(stor_rpmbw.o)
 .debug_loc     0x0000d623       0x78 /local/mnt/workspace/CRMBuilds/TZ.BF.4.0.3.c1-00005-M8996AAAAANAZT-1_20170110_230814/b/HK11/trustzone_images/core/securemsm/trustzone/qsapps/libs/applib/qsee/build/secureindicator/scorpion/IADAANAA/tzapp_entrylib.lib(qsee_cfg_prop_shim.o)
 .debug_loc     0x0000d69b      0x6af /local/mnt/workspace/CRMBuilds/TZ.BF.4.0.3.c1-00005-M8996AAAAANAZT-1_20170110_230814/b/HK11/trustzone_images/core/securemsm/trustzone/qsapps/libs/applib/qsee/build/secureindicator/scorpion/IADAANAA/tzapp_entrylib.lib(qsee_cipher.o)
 .debug_loc     0x0000dd4a      0x694 /local/mnt/workspace/CRMBuilds/TZ.BF.4.0.3.c1-00005-M8996AAAAANAZT-1_20170110_230814/b/HK11/trustzone_images/core/securemsm/trustzone/qsapps/libs/applib/qsee/build/secureindicator/scorpion/IADAANAA/tzapp_entrylib.lib(qsee_hash.o)
 .debug_loc     0x0000e3de      0x386 /local/mnt/workspace/CRMBuilds/TZ.BF.4.0.3.c1-00005-M8996AAAAANAZT-1_20170110_230814/b/HK11/trustzone_images/core/securemsm/trustzone/qsapps/libs/applib/qsee/build/secureindicator/scorpion/IADAANAA/tzapp_entrylib.lib(qsee_hmac.o)
 .debug_loc     0x0000e764       0x13 /local/mnt/workspace/CRMBuilds/TZ.BF.4.0.3.c1-00005-M8996AAAAANAZT-1_20170110_230814/b/HK11/trustzone_images/core/securemsm/trustzone/qsapps/libs/applib/qsee/build/secureindicator/scorpion/IADAANAA/tzapp_entrylib.lib(gpPersistObjPanic.o)
 .debug_loc     0x0000e777      0x196 /local/mnt/workspace/CRMBuilds/TZ.BF.4.0.3.c1-00005-M8996AAAAANAZT-1_20170110_230814/b/HK11/trustzone_images/core/securemsm/trustzone/qsapps/libs/services/build/secureindicator/scorpion/IADAANAA/qsee_services.lib(qsee_kdf.o)
 .debug_loc     0x0000e90d       0xa1 /local/mnt/workspace/CRMBuilds/TZ.BF.4.0.3.c1-00005-M8996AAAAANAZT-1_20170110_230814/b/HK11/trustzone_images/core/securemsm/trustzone/qsee/mink/libstd/build/secureindicator/scorpion/IADAANAA/libstd.lib(strlcat.o)
 .debug_loc     0x0000e9ae       0x57 /local/mnt/workspace/CRMBuilds/TZ.BF.4.0.3.c1-00005-M8996AAAAANAZT-1_20170110_230814/b/HK11/trustzone_images/core/securemsm/trustzone/qsee/mink/libstd/build/secureindicator/scorpion/IADAANAA/libstd.lib(strlcpy.o)
 .debug_loc     0x0000ea05       0x6a /local/mnt/workspace/CRMBuilds/TZ.BF.4.0.3.c1-00005-M8996AAAAANAZT-1_20170110_230814/b/HK11/trustzone_images/core/securemsm/trustzone/qsee/mink/libstd/build/secureindicator/scorpion/IADAANAA/libstd.lib(timesafe_memcmp.o)
 .debug_loc     0x0000ea6f       0x65 /local/mnt/workspace/CRMBuilds/TZ.BF.4.0.3.c1-00005-M8996AAAAANAZT-1_20170110_230814/b/HK11/trustzone_images/core/securemsm/trustzone/qsee/mink/libstd/build/secureindicator/scorpion/IADAANAA/libstd.lib(memset.o)
 .debug_loc     0x0000ead4      0x311 /local/mnt/workspace/CRMBuilds/TZ.BF.4.0.3.c1-00005-M8996AAAAANAZT-1_20170110_230814/b/HK11/trustzone_images/core/securemsm/trustzone/qsee/mink/libstd/build/secureindicator/scorpion/IADAANAA/libstd.lib(memcpy.o)
 .debug_loc     0x0000ede5       0x5f /local/mnt/workspace/CRMBuilds/TZ.BF.4.0.3.c1-00005-M8996AAAAANAZT-1_20170110_230814/b/HK11/trustzone_images/core/securemsm/trustzone/qsee/mink/libstd/build/secureindicator/scorpion/IADAANAA/libstd.lib(strncmp.o)

.debug_ranges   0x00000000     0x14e0
 .debug_ranges  0x00000000        0x0 /local/mnt/workspace/CRMBuilds/TZ.BF.4.0.3.c1-00005-M8996AAAAANAZT-1_20170110_230814/b/HK11/trustzone_images/apps/securemsm/trustzone/qsapps/secureindicator/build/secureindicator/scorpion/IADAANAA/si_main.o
 .debug_ranges  0x00000000       0xb0 /local/mnt/workspace/CRMBuilds/TZ.BF.4.0.3.c1-00005-M8996AAAAANAZT-1_20170110_230814/b/HK11/trustzone_images/apps/securemsm/trustzone/qsapps/secureindicator/build/secureindicator/scorpion/IADAANAA/si.o
 .debug_ranges  0x000000b0        0x0 /local/mnt/workspace/CRMBuilds/TZ.BF.4.0.3.c1-00005-M8996AAAAANAZT-1_20170110_230814/b/HK11/trustzone_images/apps/securemsm/trustzone/qsapps/secureindicator/build/secureindicator/scorpion/IADAANAA/metadata.o
 .debug_ranges  0x000000b0       0x18 /local/mnt/workspace/CRMBuilds/TZ.BF.4.0.3.c1-00005-M8996AAAAANAZT-1_20170110_230814/b/HK11/trustzone_images/core/securemsm/sse/qsee/SecureDisplay/libpng/build/secureindicator/scorpion/IADAANAA/libpng.lib(png.o)
 .debug_ranges  0x000000c8        0x0 /local/mnt/workspace/CRMBuilds/TZ.BF.4.0.3.c1-00005-M8996AAAAANAZT-1_20170110_230814/b/HK11/trustzone_images/core/securemsm/sse/qsee/SecureDisplay/libpng/build/secureindicator/scorpion/IADAANAA/libpng.lib(pngerror.o)
 .debug_ranges  0x000000c8        0x0 /local/mnt/workspace/CRMBuilds/TZ.BF.4.0.3.c1-00005-M8996AAAAANAZT-1_20170110_230814/b/HK11/trustzone_images/core/securemsm/sse/qsee/SecureDisplay/libpng/build/secureindicator/scorpion/IADAANAA/libpng.lib(pngget.o)
 .debug_ranges  0x000000c8        0x0 /local/mnt/workspace/CRMBuilds/TZ.BF.4.0.3.c1-00005-M8996AAAAANAZT-1_20170110_230814/b/HK11/trustzone_images/core/securemsm/sse/qsee/SecureDisplay/libpng/build/secureindicator/scorpion/IADAANAA/libpng.lib(pngmem.o)
 .debug_ranges  0x000000c8       0x48 /local/mnt/workspace/CRMBuilds/TZ.BF.4.0.3.c1-00005-M8996AAAAANAZT-1_20170110_230814/b/HK11/trustzone_images/core/securemsm/sse/qsee/SecureDisplay/libpng/build/secureindicator/scorpion/IADAANAA/libpng.lib(pngread.o)
 .debug_ranges  0x00000110        0x0 /local/mnt/workspace/CRMBuilds/TZ.BF.4.0.3.c1-00005-M8996AAAAANAZT-1_20170110_230814/b/HK11/trustzone_images/core/securemsm/sse/qsee/SecureDisplay/libpng/build/secureindicator/scorpion/IADAANAA/libpng.lib(pngrio.o)
 .debug_ranges  0x00000110      0x158 /local/mnt/workspace/CRMBuilds/TZ.BF.4.0.3.c1-00005-M8996AAAAANAZT-1_20170110_230814/b/HK11/trustzone_images/core/securemsm/sse/qsee/SecureDisplay/libpng/build/secureindicator/scorpion/IADAANAA/libpng.lib(pngrutil.o)
 .debug_ranges  0x00000268        0x0 /local/mnt/workspace/CRMBuilds/TZ.BF.4.0.3.c1-00005-M8996AAAAANAZT-1_20170110_230814/b/HK11/trustzone_images/core/securemsm/sse/qsee/SecureDisplay/libpng/build/secureindicator/scorpion/IADAANAA/libpng.lib(pngset.o)
 .debug_ranges  0x00000268       0x40 /local/mnt/workspace/CRMBuilds/TZ.BF.4.0.3.c1-00005-M8996AAAAANAZT-1_20170110_230814/b/HK11/trustzone_images/core/securemsm/sse/qsee/SecureDisplay/zlib/build/secureindicator/scorpion/IADAANAA/zlib.lib(crc32.o)
 .debug_ranges  0x000002a8       0x68 /local/mnt/workspace/CRMBuilds/TZ.BF.4.0.3.c1-00005-M8996AAAAANAZT-1_20170110_230814/b/HK11/trustzone_images/core/securemsm/sse/qsee/SecureDisplay/zlib/build/secureindicator/scorpion/IADAANAA/zlib.lib(inflate.o)
 .debug_ranges  0x00000310        0x0 /local/mnt/workspace/CRMBuilds/TZ.BF.4.0.3.c1-00005-M8996AAAAANAZT-1_20170110_230814/b/HK11/trustzone_images/core/securemsm/sse/qsee/SecureDisplay/zlib/build/secureindicator/scorpion/IADAANAA/zlib.lib(inftrees.o)
 .debug_ranges  0x00000310        0x0 /local/mnt/workspace/CRMBuilds/TZ.BF.4.0.3.c1-00005-M8996AAAAANAZT-1_20170110_230814/b/HK11/trustzone_images/core/securemsm/sse/qsee/SecureDisplay/zlib/build/secureindicator/scorpion/IADAANAA/zlib.lib(zutil.o)
 .debug_ranges  0x00000310        0x0 /local/mnt/workspace/CRMBuilds/TZ.BF.4.0.3.c1-00005-M8996AAAAANAZT-1_20170110_230814/b/HK11/trustzone_images/core/securemsm/sse/qsee/SecureDisplay/zlib/build/secureindicator/scorpion/IADAANAA/zlib.lib(adler32.o)
 .debug_ranges  0x00000310        0x0 /local/mnt/workspace/CRMBuilds/TZ.BF.4.0.3.c1-00005-M8996AAAAANAZT-1_20170110_230814/b/HK11/trustzone_images/core/securemsm/sse/qsee/SecureDisplay/zlib/build/secureindicator/scorpion/IADAANAA/zlib.lib(inffast.o)
 .debug_ranges  0x00000310       0xf0 /local/mnt/workspace/CRMBuilds/TZ.BF.4.0.3.c1-00005-M8996AAAAANAZT-1_20170110_230814/b/HK11/trustzone_images/core/securemsm/trustzone/qsapps/libs/applib/common_applib/build/secureindicator/scorpion/IADAANAA/tzapp_entrylib.lib(common_applib.o)
 .debug_ranges  0x00000400       0x90 /local/mnt/workspace/CRMBuilds/TZ.BF.4.0.3.c1-00005-M8996AAAAANAZT-1_20170110_230814/b/HK11/trustzone_images/core/securemsm/trustzone/qsapps/libs/applib/qsee/build/secureindicator/scorpion/IADAANAA/tzapp_entrylib.lib(mink_shared_code.o)
 .debug_ranges  0x00000490       0x20 /local/mnt/workspace/CRMBuilds/TZ.BF.4.0.3.c1-00005-M8996AAAAANAZT-1_20170110_230814/b/HK11/trustzone_images/core/securemsm/trustzone/qsapps/libs/applib/qsee/build/secureindicator/scorpion/IADAANAA/tzapp_entrylib.lib(qsee_env.o)
 .debug_ranges  0x000004b0       0x30 /local/mnt/workspace/CRMBuilds/TZ.BF.4.0.3.c1-00005-M8996AAAAANAZT-1_20170110_230814/b/HK11/trustzone_images/core/securemsm/trustzone/qsapps/libs/applib/qsee/build/secureindicator/scorpion/IADAANAA/tzapp_entrylib.lib(qsee_prng.o)
 .debug_ranges  0x000004e0       0xc8 /local/mnt/workspace/CRMBuilds/TZ.BF.4.0.3.c1-00005-M8996AAAAANAZT-1_20170110_230814/b/HK11/trustzone_images/core/securemsm/trustzone/qsapps/libs/applib/qsee/build/secureindicator/scorpion/IADAANAA/tzapp_entrylib.lib(qsee_appmessage.o)
 .debug_ranges  0x000005a8        0x0 /local/mnt/workspace/CRMBuilds/TZ.BF.4.0.3.c1-00005-M8996AAAAANAZT-1_20170110_230814/b/HK11/trustzone_images/core/securemsm/trustzone/qsapps/libs/applib/qsee/build/secureindicator/scorpion/IADAANAA/tzapp_entrylib.lib(sfs_api.o)
 .debug_ranges  0x000005a8        0x0 /local/mnt/workspace/CRMBuilds/TZ.BF.4.0.3.c1-00005-M8996AAAAANAZT-1_20170110_230814/b/HK11/trustzone_images/core/securemsm/trustzone/qsapps/libs/applib/qsee/build/secureindicator/scorpion/IADAANAA/tzapp_entrylib.lib(tzapp_lib_main.o)
 .debug_ranges  0x000005a8        0x0 /local/mnt/workspace/CRMBuilds/TZ.BF.4.0.3.c1-00005-M8996AAAAANAZT-1_20170110_230814/b/HK11/trustzone_images/core/securemsm/trustzone/qsapps/libs/services/build/secureindicator/scorpion/IADAANAA/qsee_services.lib(qsee_log.o)
 .debug_ranges  0x000005a8        0x0 /local/mnt/workspace/CRMBuilds/TZ.BF.4.0.3.c1-00005-M8996AAAAANAZT-1_20170110_230814/b/HK11/trustzone_images/core/securemsm/trustzone/qsee/mink/libstd/build/secureindicator/scorpion/IADAANAA/libstd.lib(memscpy.o)
 .debug_ranges  0x000005a8        0x0 /local/mnt/workspace/CRMBuilds/TZ.BF.4.0.3.c1-00005-M8996AAAAANAZT-1_20170110_230814/b/HK11/trustzone_images/core/securemsm/trustzone/qsee/mink/libstd/build/secureindicator/scorpion/IADAANAA/libstd.lib(secure_memset.o)
 .debug_ranges  0x000005a8        0x0 /local/mnt/workspace/CRMBuilds/TZ.BF.4.0.3.c1-00005-M8996AAAAANAZT-1_20170110_230814/b/HK11/trustzone_images/core/securemsm/trustzone/qsee/mink/libstd/build/secureindicator/scorpion/IADAANAA/libstd.lib(memcmp.o)
 .debug_ranges  0x000005a8        0x0 /local/mnt/workspace/CRMBuilds/TZ.BF.4.0.3.c1-00005-M8996AAAAANAZT-1_20170110_230814/b/HK11/trustzone_images/core/securemsm/trustzone/qsee/mink/libstd/build/secureindicator/scorpion/IADAANAA/libstd.lib(strlen.o)
 .debug_ranges  0x000005a8        0x0 /local/mnt/workspace/CRMBuilds/TZ.BF.4.0.3.c1-00005-M8996AAAAANAZT-1_20170110_230814/b/HK11/trustzone_images/core/securemsm/trustzone/qsee/mink/libstd/build/secureindicator/scorpion/IADAANAA/libstd.lib(strcmp.o)
 .debug_ranges  0x000005a8      0x158 /local/mnt/workspace/CRMBuilds/TZ.BF.4.0.3.c1-00005-M8996AAAAANAZT-1_20170110_230814/b/HK11/trustzone_images/core/securemsm/trustzone/qsee/mink/libstd/build/secureindicator/scorpion/IADAANAA/libstd.lib(printf.o)
 .debug_ranges  0x00000700        0x0 /local/mnt/workspace/CRMBuilds/TZ.BF.4.0.3.c1-00005-M8996AAAAANAZT-1_20170110_230814/b/HK11/trustzone_images/core/securemsm/trustzone/qsee/mink/libstd/build/secureindicator/scorpion/IADAANAA/libstd.lib(abort.o)
 .debug_ranges  0x00000700        0x0 /local/mnt/workspace/CRMBuilds/TZ.BF.4.0.3.c1-00005-M8996AAAAANAZT-1_20170110_230814/b/HK11/trustzone_images/core/securemsm/trustzone/qsee/mink/libstd/build/secureindicator/scorpion/IADAANAA/libstd.lib(memchr.o)
 .debug_ranges  0x00000700        0x0 /local/mnt/workspace/CRMBuilds/TZ.BF.4.0.3.c1-00005-M8996AAAAANAZT-1_20170110_230814/b/HK11/trustzone_images/apps/securemsm/trustzone/qsapps/secureindicator/oem/build/secureindicator/scorpion/IADAANAA/secureindicator_oem.lib(si_oem.o)
 .debug_ranges  0x00000700        0x0 /local/mnt/workspace/CRMBuilds/TZ.BF.4.0.3.c1-00005-M8996AAAAANAZT-1_20170110_230814/b/HK11/trustzone_images/core/securemsm/trustzone/qsapps/libs/applib/common_applib/build/secureindicator/scorpion/IADAANAA/tzapp_entrylib.lib(gpPersistObjCommon.o)
 .debug_ranges  0x00000700        0x0 /local/mnt/workspace/CRMBuilds/TZ.BF.4.0.3.c1-00005-M8996AAAAANAZT-1_20170110_230814/b/HK11/trustzone_images/core/securemsm/trustzone/qsapps/libs/applib/common_applib/build/secureindicator/scorpion/IADAANAA/tzapp_entrylib.lib(gpPersistentObjects.o)
 .debug_ranges  0x00000700      0x378 /local/mnt/workspace/CRMBuilds/TZ.BF.4.0.3.c1-00005-M8996AAAAANAZT-1_20170110_230814/b/HK11/trustzone_images/core/securemsm/trustzone/qsapps/libs/applib/common_applib/build/secureindicator/scorpion/IADAANAA/tzapp_entrylib.lib(gpPersistObjData.o)
 .debug_ranges  0x00000a78       0x48 /local/mnt/workspace/CRMBuilds/TZ.BF.4.0.3.c1-00005-M8996AAAAANAZT-1_20170110_230814/b/HK11/trustzone_images/core/securemsm/trustzone/qsapps/libs/applib/common_applib/build/secureindicator/scorpion/IADAANAA/tzapp_entrylib.lib(gpPersistObjHandler.o)
 .debug_ranges  0x00000ac0      0x200 /local/mnt/workspace/CRMBuilds/TZ.BF.4.0.3.c1-00005-M8996AAAAANAZT-1_20170110_230814/b/HK11/trustzone_images/core/securemsm/trustzone/qsapps/libs/applib/common_applib/build/secureindicator/scorpion/IADAANAA/tzapp_entrylib.lib(gpPersistObjIndex.o)
 .debug_ranges  0x00000cc0      0x2f0 /local/mnt/workspace/CRMBuilds/TZ.BF.4.0.3.c1-00005-M8996AAAAANAZT-1_20170110_230814/b/HK11/trustzone_images/core/securemsm/trustzone/qsapps/libs/applib/common_applib/build/secureindicator/scorpion/IADAANAA/tzapp_entrylib.lib(gpPersistObjVersion.o)
 .debug_ranges  0x00000fb0       0x90 /local/mnt/workspace/CRMBuilds/TZ.BF.4.0.3.c1-00005-M8996AAAAANAZT-1_20170110_230814/b/HK11/trustzone_images/core/securemsm/trustzone/qsapps/libs/applib/common_applib/build/secureindicator/scorpion/IADAANAA/tzapp_entrylib.lib(gpPersistObjCrypto.o)
 .debug_ranges  0x00001040        0x0 /local/mnt/workspace/CRMBuilds/TZ.BF.4.0.3.c1-00005-M8996AAAAANAZT-1_20170110_230814/b/HK11/trustzone_images/core/securemsm/trustzone/qsapps/libs/applib/common_applib/build/secureindicator/scorpion/IADAANAA/tzapp_entrylib.lib(gpPersistObjFileIO.o)
 .debug_ranges  0x00001040        0x0 /local/mnt/workspace/CRMBuilds/TZ.BF.4.0.3.c1-00005-M8996AAAAANAZT-1_20170110_230814/b/HK11/trustzone_images/core/securemsm/trustzone/qsapps/libs/applib/common_applib/build/secureindicator/scorpion/IADAANAA/tzapp_entrylib.lib(gpFileService.o)
 .debug_ranges  0x00001040        0x0 /local/mnt/workspace/CRMBuilds/TZ.BF.4.0.3.c1-00005-M8996AAAAANAZT-1_20170110_230814/b/HK11/trustzone_images/core/securemsm/trustzone/qsapps/libs/applib/qsee/build/secureindicator/scorpion/IADAANAA/tzapp_entrylib.lib(qsee_core_shim.o)
 .debug_ranges  0x00001040       0x30 /local/mnt/workspace/CRMBuilds/TZ.BF.4.0.3.c1-00005-M8996AAAAANAZT-1_20170110_230814/b/HK11/trustzone_images/core/securemsm/trustzone/qsapps/libs/applib/qsee/build/secureindicator/scorpion/IADAANAA/tzapp_entrylib.lib(stor.o)
 .debug_ranges  0x00001070        0x0 /local/mnt/workspace/CRMBuilds/TZ.BF.4.0.3.c1-00005-M8996AAAAANAZT-1_20170110_230814/b/HK11/trustzone_images/core/securemsm/trustzone/qsapps/libs/applib/qsee/build/secureindicator/scorpion/IADAANAA/tzapp_entrylib.lib(stor_gpt.o)
 .debug_ranges  0x00001070        0x0 /local/mnt/workspace/CRMBuilds/TZ.BF.4.0.3.c1-00005-M8996AAAAANAZT-1_20170110_230814/b/HK11/trustzone_images/core/securemsm/trustzone/qsapps/libs/applib/qsee/build/secureindicator/scorpion/IADAANAA/tzapp_entrylib.lib(stor_rpmbw.o)
 .debug_ranges  0x00001070        0x0 /local/mnt/workspace/CRMBuilds/TZ.BF.4.0.3.c1-00005-M8996AAAAANAZT-1_20170110_230814/b/HK11/trustzone_images/core/securemsm/trustzone/qsapps/libs/applib/qsee/build/secureindicator/scorpion/IADAANAA/tzapp_entrylib.lib(qsee_cfg_prop_shim.o)
 .debug_ranges  0x00001070      0x238 /local/mnt/workspace/CRMBuilds/TZ.BF.4.0.3.c1-00005-M8996AAAAANAZT-1_20170110_230814/b/HK11/trustzone_images/core/securemsm/trustzone/qsapps/libs/applib/qsee/build/secureindicator/scorpion/IADAANAA/tzapp_entrylib.lib(qsee_cipher.o)
 .debug_ranges  0x000012a8      0x130 /local/mnt/workspace/CRMBuilds/TZ.BF.4.0.3.c1-00005-M8996AAAAANAZT-1_20170110_230814/b/HK11/trustzone_images/core/securemsm/trustzone/qsapps/libs/applib/qsee/build/secureindicator/scorpion/IADAANAA/tzapp_entrylib.lib(qsee_hash.o)
 .debug_ranges  0x000013d8       0xa8 /local/mnt/workspace/CRMBuilds/TZ.BF.4.0.3.c1-00005-M8996AAAAANAZT-1_20170110_230814/b/HK11/trustzone_images/core/securemsm/trustzone/qsapps/libs/applib/qsee/build/secureindicator/scorpion/IADAANAA/tzapp_entrylib.lib(qsee_hmac.o)
 .debug_ranges  0x00001480        0x0 /local/mnt/workspace/CRMBuilds/TZ.BF.4.0.3.c1-00005-M8996AAAAANAZT-1_20170110_230814/b/HK11/trustzone_images/core/securemsm/trustzone/qsapps/libs/applib/qsee/build/secureindicator/scorpion/IADAANAA/tzapp_entrylib.lib(gpPersistObjPanic.o)
 .debug_ranges  0x00001480       0x60 /local/mnt/workspace/CRMBuilds/TZ.BF.4.0.3.c1-00005-M8996AAAAANAZT-1_20170110_230814/b/HK11/trustzone_images/core/securemsm/trustzone/qsapps/libs/services/build/secureindicator/scorpion/IADAANAA/qsee_services.lib(qsee_kdf.o)
 .debug_ranges  0x000014e0        0x0 /local/mnt/workspace/CRMBuilds/TZ.BF.4.0.3.c1-00005-M8996AAAAANAZT-1_20170110_230814/b/HK11/trustzone_images/core/securemsm/trustzone/qsee/mink/libstd/build/secureindicator/scorpion/IADAANAA/libstd.lib(strlcat.o)
 .debug_ranges  0x000014e0        0x0 /local/mnt/workspace/CRMBuilds/TZ.BF.4.0.3.c1-00005-M8996AAAAANAZT-1_20170110_230814/b/HK11/trustzone_images/core/securemsm/trustzone/qsee/mink/libstd/build/secureindicator/scorpion/IADAANAA/libstd.lib(strlcpy.o)
 .debug_ranges  0x000014e0        0x0 /local/mnt/workspace/CRMBuilds/TZ.BF.4.0.3.c1-00005-M8996AAAAANAZT-1_20170110_230814/b/HK11/trustzone_images/core/securemsm/trustzone/qsee/mink/libstd/build/secureindicator/scorpion/IADAANAA/libstd.lib(timesafe_memcmp.o)
 .debug_ranges  0x000014e0        0x0 /local/mnt/workspace/CRMBuilds/TZ.BF.4.0.3.c1-00005-M8996AAAAANAZT-1_20170110_230814/b/HK11/trustzone_images/core/securemsm/trustzone/qsee/mink/libstd/build/secureindicator/scorpion/IADAANAA/libstd.lib(memset.o)
 .debug_ranges  0x000014e0        0x0 /local/mnt/workspace/CRMBuilds/TZ.BF.4.0.3.c1-00005-M8996AAAAANAZT-1_20170110_230814/b/HK11/trustzone_images/core/securemsm/trustzone/qsee/mink/libstd/build/secureindicator/scorpion/IADAANAA/libstd.lib(memcpy.o)
 .debug_ranges  0x000014e0        0x0 /local/mnt/workspace/CRMBuilds/TZ.BF.4.0.3.c1-00005-M8996AAAAANAZT-1_20170110_230814/b/HK11/trustzone_images/core/securemsm/trustzone/qsee/mink/libstd/build/secureindicator/scorpion/IADAANAA/libstd.lib(strncmp.o)

.debug_frame    0x00000000     0x31ac
 .debug_frame   0x00000000       0x70 /local/mnt/workspace/CRMBuilds/TZ.BF.4.0.3.c1-00005-M8996AAAAANAZT-1_20170110_230814/b/HK11/trustzone_images/apps/securemsm/trustzone/qsapps/secureindicator/build/secureindicator/scorpion/IADAANAA/si_main.o
 .debug_frame   0x00000070      0x104 /local/mnt/workspace/CRMBuilds/TZ.BF.4.0.3.c1-00005-M8996AAAAANAZT-1_20170110_230814/b/HK11/trustzone_images/apps/securemsm/trustzone/qsapps/secureindicator/build/secureindicator/scorpion/IADAANAA/si.o
 .debug_frame   0x00000174      0x21c /local/mnt/workspace/CRMBuilds/TZ.BF.4.0.3.c1-00005-M8996AAAAANAZT-1_20170110_230814/b/HK11/trustzone_images/core/securemsm/sse/qsee/SecureDisplay/libpng/build/secureindicator/scorpion/IADAANAA/libpng.lib(png.o)
 .debug_frame   0x00000390       0x90 /local/mnt/workspace/CRMBuilds/TZ.BF.4.0.3.c1-00005-M8996AAAAANAZT-1_20170110_230814/b/HK11/trustzone_images/core/securemsm/sse/qsee/SecureDisplay/libpng/build/secureindicator/scorpion/IADAANAA/libpng.lib(pngerror.o)
 .debug_frame   0x00000420       0x94 /local/mnt/workspace/CRMBuilds/TZ.BF.4.0.3.c1-00005-M8996AAAAANAZT-1_20170110_230814/b/HK11/trustzone_images/core/securemsm/sse/qsee/SecureDisplay/libpng/build/secureindicator/scorpion/IADAANAA/libpng.lib(pngget.o)
 .debug_frame   0x000004b4      0x100 /local/mnt/workspace/CRMBuilds/TZ.BF.4.0.3.c1-00005-M8996AAAAANAZT-1_20170110_230814/b/HK11/trustzone_images/core/securemsm/sse/qsee/SecureDisplay/libpng/build/secureindicator/scorpion/IADAANAA/libpng.lib(pngmem.o)
 .debug_frame   0x000005b4      0x1a0 /local/mnt/workspace/CRMBuilds/TZ.BF.4.0.3.c1-00005-M8996AAAAANAZT-1_20170110_230814/b/HK11/trustzone_images/core/securemsm/sse/qsee/SecureDisplay/libpng/build/secureindicator/scorpion/IADAANAA/libpng.lib(pngread.o)
 .debug_frame   0x00000754       0x3c /local/mnt/workspace/CRMBuilds/TZ.BF.4.0.3.c1-00005-M8996AAAAANAZT-1_20170110_230814/b/HK11/trustzone_images/core/securemsm/sse/qsee/SecureDisplay/libpng/build/secureindicator/scorpion/IADAANAA/libpng.lib(pngrio.o)
 .debug_frame   0x00000790      0x2f4 /local/mnt/workspace/CRMBuilds/TZ.BF.4.0.3.c1-00005-M8996AAAAANAZT-1_20170110_230814/b/HK11/trustzone_images/core/securemsm/sse/qsee/SecureDisplay/libpng/build/secureindicator/scorpion/IADAANAA/libpng.lib(pngrutil.o)
 .debug_frame   0x00000a84       0x84 /local/mnt/workspace/CRMBuilds/TZ.BF.4.0.3.c1-00005-M8996AAAAANAZT-1_20170110_230814/b/HK11/trustzone_images/core/securemsm/sse/qsee/SecureDisplay/libpng/build/secureindicator/scorpion/IADAANAA/libpng.lib(pngset.o)
 .debug_frame   0x00000b08       0xc8 /local/mnt/workspace/CRMBuilds/TZ.BF.4.0.3.c1-00005-M8996AAAAANAZT-1_20170110_230814/b/HK11/trustzone_images/core/securemsm/sse/qsee/SecureDisplay/zlib/build/secureindicator/scorpion/IADAANAA/zlib.lib(crc32.o)
 .debug_frame   0x00000bd0      0x200 /local/mnt/workspace/CRMBuilds/TZ.BF.4.0.3.c1-00005-M8996AAAAANAZT-1_20170110_230814/b/HK11/trustzone_images/core/securemsm/sse/qsee/SecureDisplay/zlib/build/secureindicator/scorpion/IADAANAA/zlib.lib(inflate.o)
 .debug_frame   0x00000dd0       0x3c /local/mnt/workspace/CRMBuilds/TZ.BF.4.0.3.c1-00005-M8996AAAAANAZT-1_20170110_230814/b/HK11/trustzone_images/core/securemsm/sse/qsee/SecureDisplay/zlib/build/secureindicator/scorpion/IADAANAA/zlib.lib(inftrees.o)
 .debug_frame   0x00000e0c       0x70 /local/mnt/workspace/CRMBuilds/TZ.BF.4.0.3.c1-00005-M8996AAAAANAZT-1_20170110_230814/b/HK11/trustzone_images/core/securemsm/sse/qsee/SecureDisplay/zlib/build/secureindicator/scorpion/IADAANAA/zlib.lib(zutil.o)
 .debug_frame   0x00000e7c       0x74 /local/mnt/workspace/CRMBuilds/TZ.BF.4.0.3.c1-00005-M8996AAAAANAZT-1_20170110_230814/b/HK11/trustzone_images/core/securemsm/sse/qsee/SecureDisplay/zlib/build/secureindicator/scorpion/IADAANAA/zlib.lib(adler32.o)
 .debug_frame   0x00000ef0       0x38 /local/mnt/workspace/CRMBuilds/TZ.BF.4.0.3.c1-00005-M8996AAAAANAZT-1_20170110_230814/b/HK11/trustzone_images/core/securemsm/sse/qsee/SecureDisplay/zlib/build/secureindicator/scorpion/IADAANAA/zlib.lib(inffast.o)
 .debug_frame   0x00000f28      0x37c /local/mnt/workspace/CRMBuilds/TZ.BF.4.0.3.c1-00005-M8996AAAAANAZT-1_20170110_230814/b/HK11/trustzone_images/core/securemsm/trustzone/qsapps/libs/applib/common_applib/build/secureindicator/scorpion/IADAANAA/tzapp_entrylib.lib(common_applib.o)
 .debug_frame   0x000012a4       0xa4 /local/mnt/workspace/CRMBuilds/TZ.BF.4.0.3.c1-00005-M8996AAAAANAZT-1_20170110_230814/b/HK11/trustzone_images/core/securemsm/trustzone/qsapps/libs/applib/qsee/build/secureindicator/scorpion/IADAANAA/tzapp_entrylib.lib(mink_shared_code.o)
 .debug_frame   0x00001348       0xac /local/mnt/workspace/CRMBuilds/TZ.BF.4.0.3.c1-00005-M8996AAAAANAZT-1_20170110_230814/b/HK11/trustzone_images/core/securemsm/trustzone/qsapps/libs/applib/qsee/build/secureindicator/scorpion/IADAANAA/tzapp_entrylib.lib(qsee_env.o)
 .debug_frame   0x000013f4       0x34 /local/mnt/workspace/CRMBuilds/TZ.BF.4.0.3.c1-00005-M8996AAAAANAZT-1_20170110_230814/b/HK11/trustzone_images/core/securemsm/trustzone/qsapps/libs/applib/qsee/build/secureindicator/scorpion/IADAANAA/tzapp_entrylib.lib(qsee_prng.o)
 .debug_frame   0x00001428       0x74 /local/mnt/workspace/CRMBuilds/TZ.BF.4.0.3.c1-00005-M8996AAAAANAZT-1_20170110_230814/b/HK11/trustzone_images/core/securemsm/trustzone/qsapps/libs/applib/qsee/build/secureindicator/scorpion/IADAANAA/tzapp_entrylib.lib(qsee_appmessage.o)
 .debug_frame   0x0000149c      0x1a0 /local/mnt/workspace/CRMBuilds/TZ.BF.4.0.3.c1-00005-M8996AAAAANAZT-1_20170110_230814/b/HK11/trustzone_images/core/securemsm/trustzone/qsapps/libs/applib/qsee/build/secureindicator/scorpion/IADAANAA/tzapp_entrylib.lib(sfs_api.o)
 .debug_frame   0x0000163c       0xc8 /local/mnt/workspace/CRMBuilds/TZ.BF.4.0.3.c1-00005-M8996AAAAANAZT-1_20170110_230814/b/HK11/trustzone_images/core/securemsm/trustzone/qsapps/libs/applib/qsee/build/secureindicator/scorpion/IADAANAA/tzapp_entrylib.lib(tzapp_lib_main.o)
 .debug_frame   0x00001704       0x54 /local/mnt/workspace/CRMBuilds/TZ.BF.4.0.3.c1-00005-M8996AAAAANAZT-1_20170110_230814/b/HK11/trustzone_images/core/securemsm/trustzone/qsapps/libs/services/build/secureindicator/scorpion/IADAANAA/qsee_services.lib(qsee_log.o)
 .debug_frame   0x00001758       0x30 /local/mnt/workspace/CRMBuilds/TZ.BF.4.0.3.c1-00005-M8996AAAAANAZT-1_20170110_230814/b/HK11/trustzone_images/core/securemsm/trustzone/qsee/mink/libstd/build/secureindicator/scorpion/IADAANAA/libstd.lib(memscpy.o)
 .debug_frame   0x00001788       0x30 /local/mnt/workspace/CRMBuilds/TZ.BF.4.0.3.c1-00005-M8996AAAAANAZT-1_20170110_230814/b/HK11/trustzone_images/core/securemsm/trustzone/qsee/mink/libstd/build/secureindicator/scorpion/IADAANAA/libstd.lib(secure_memset.o)
 .debug_frame   0x000017b8       0x20 /local/mnt/workspace/CRMBuilds/TZ.BF.4.0.3.c1-00005-M8996AAAAANAZT-1_20170110_230814/b/HK11/trustzone_images/core/securemsm/trustzone/qsee/mink/libstd/build/secureindicator/scorpion/IADAANAA/libstd.lib(memcmp.o)
 .debug_frame   0x000017d8       0x20 /local/mnt/workspace/CRMBuilds/TZ.BF.4.0.3.c1-00005-M8996AAAAANAZT-1_20170110_230814/b/HK11/trustzone_images/core/securemsm/trustzone/qsee/mink/libstd/build/secureindicator/scorpion/IADAANAA/libstd.lib(strlen.o)
 .debug_frame   0x000017f8       0x20 /local/mnt/workspace/CRMBuilds/TZ.BF.4.0.3.c1-00005-M8996AAAAANAZT-1_20170110_230814/b/HK11/trustzone_images/core/securemsm/trustzone/qsee/mink/libstd/build/secureindicator/scorpion/IADAANAA/libstd.lib(strcmp.o)
 .debug_frame   0x00001818      0x164 /local/mnt/workspace/CRMBuilds/TZ.BF.4.0.3.c1-00005-M8996AAAAANAZT-1_20170110_230814/b/HK11/trustzone_images/core/securemsm/trustzone/qsee/mink/libstd/build/secureindicator/scorpion/IADAANAA/libstd.lib(printf.o)
 .debug_frame   0x0000197c       0x2c /local/mnt/workspace/CRMBuilds/TZ.BF.4.0.3.c1-00005-M8996AAAAANAZT-1_20170110_230814/b/HK11/trustzone_images/core/securemsm/trustzone/qsee/mink/libstd/build/secureindicator/scorpion/IADAANAA/libstd.lib(abort.o)
 .debug_frame   0x000019a8       0x28 /local/mnt/workspace/CRMBuilds/TZ.BF.4.0.3.c1-00005-M8996AAAAANAZT-1_20170110_230814/b/HK11/trustzone_images/core/securemsm/trustzone/qsee/mink/libstd/build/secureindicator/scorpion/IADAANAA/libstd.lib(memchr.o)
 .debug_frame   0x000019d0      0x134 /local/mnt/workspace/CRMBuilds/TZ.BF.4.0.3.c1-00005-M8996AAAAANAZT-1_20170110_230814/b/HK11/trustzone_images/core/securemsm/trustzone/qsapps/libs/applib/common_applib/build/secureindicator/scorpion/IADAANAA/tzapp_entrylib.lib(gpPersistObjCommon.o)
 .debug_frame   0x00001b04      0x1ec /local/mnt/workspace/CRMBuilds/TZ.BF.4.0.3.c1-00005-M8996AAAAANAZT-1_20170110_230814/b/HK11/trustzone_images/core/securemsm/trustzone/qsapps/libs/applib/common_applib/build/secureindicator/scorpion/IADAANAA/tzapp_entrylib.lib(gpPersistentObjects.o)
 .debug_frame   0x00001cf0      0x2c0 /local/mnt/workspace/CRMBuilds/TZ.BF.4.0.3.c1-00005-M8996AAAAANAZT-1_20170110_230814/b/HK11/trustzone_images/core/securemsm/trustzone/qsapps/libs/applib/common_applib/build/secureindicator/scorpion/IADAANAA/tzapp_entrylib.lib(gpPersistObjData.o)
 .debug_frame   0x00001fb0      0x110 /local/mnt/workspace/CRMBuilds/TZ.BF.4.0.3.c1-00005-M8996AAAAANAZT-1_20170110_230814/b/HK11/trustzone_images/core/securemsm/trustzone/qsapps/libs/applib/common_applib/build/secureindicator/scorpion/IADAANAA/tzapp_entrylib.lib(gpPersistObjHandler.o)
 .debug_frame   0x000020c0      0x1dc /local/mnt/workspace/CRMBuilds/TZ.BF.4.0.3.c1-00005-M8996AAAAANAZT-1_20170110_230814/b/HK11/trustzone_images/core/securemsm/trustzone/qsapps/libs/applib/common_applib/build/secureindicator/scorpion/IADAANAA/tzapp_entrylib.lib(gpPersistObjIndex.o)
 .debug_frame   0x0000229c      0x168 /local/mnt/workspace/CRMBuilds/TZ.BF.4.0.3.c1-00005-M8996AAAAANAZT-1_20170110_230814/b/HK11/trustzone_images/core/securemsm/trustzone/qsapps/libs/applib/common_applib/build/secureindicator/scorpion/IADAANAA/tzapp_entrylib.lib(gpPersistObjVersion.o)
 .debug_frame   0x00002404      0x11c /local/mnt/workspace/CRMBuilds/TZ.BF.4.0.3.c1-00005-M8996AAAAANAZT-1_20170110_230814/b/HK11/trustzone_images/core/securemsm/trustzone/qsapps/libs/applib/common_applib/build/secureindicator/scorpion/IADAANAA/tzapp_entrylib.lib(gpPersistObjCrypto.o)
 .debug_frame   0x00002520      0x11c /local/mnt/workspace/CRMBuilds/TZ.BF.4.0.3.c1-00005-M8996AAAAANAZT-1_20170110_230814/b/HK11/trustzone_images/core/securemsm/trustzone/qsapps/libs/applib/common_applib/build/secureindicator/scorpion/IADAANAA/tzapp_entrylib.lib(gpPersistObjFileIO.o)
 .debug_frame   0x0000263c       0xb8 /local/mnt/workspace/CRMBuilds/TZ.BF.4.0.3.c1-00005-M8996AAAAANAZT-1_20170110_230814/b/HK11/trustzone_images/core/securemsm/trustzone/qsapps/libs/applib/common_applib/build/secureindicator/scorpion/IADAANAA/tzapp_entrylib.lib(gpFileService.o)
 .debug_frame   0x000026f4      0x168 /local/mnt/workspace/CRMBuilds/TZ.BF.4.0.3.c1-00005-M8996AAAAANAZT-1_20170110_230814/b/HK11/trustzone_images/core/securemsm/trustzone/qsapps/libs/applib/qsee/build/secureindicator/scorpion/IADAANAA/tzapp_entrylib.lib(qsee_core_shim.o)
 .debug_frame   0x0000285c       0xd0 /local/mnt/workspace/CRMBuilds/TZ.BF.4.0.3.c1-00005-M8996AAAAANAZT-1_20170110_230814/b/HK11/trustzone_images/core/securemsm/trustzone/qsapps/libs/applib/qsee/build/secureindicator/scorpion/IADAANAA/tzapp_entrylib.lib(stor.o)
 .debug_frame   0x0000292c      0x22c /local/mnt/workspace/CRMBuilds/TZ.BF.4.0.3.c1-00005-M8996AAAAANAZT-1_20170110_230814/b/HK11/trustzone_images/core/securemsm/trustzone/qsapps/libs/applib/qsee/build/secureindicator/scorpion/IADAANAA/tzapp_entrylib.lib(stor_gpt.o)
 .debug_frame   0x00002b58      0x128 /local/mnt/workspace/CRMBuilds/TZ.BF.4.0.3.c1-00005-M8996AAAAANAZT-1_20170110_230814/b/HK11/trustzone_images/core/securemsm/trustzone/qsapps/libs/applib/qsee/build/secureindicator/scorpion/IADAANAA/tzapp_entrylib.lib(stor_rpmbw.o)
 .debug_frame   0x00002c80       0x2c /local/mnt/workspace/CRMBuilds/TZ.BF.4.0.3.c1-00005-M8996AAAAANAZT-1_20170110_230814/b/HK11/trustzone_images/core/securemsm/trustzone/qsapps/libs/applib/qsee/build/secureindicator/scorpion/IADAANAA/tzapp_entrylib.lib(qsee_cfg_prop_shim.o)
 .debug_frame   0x00002cac      0x12c /local/mnt/workspace/CRMBuilds/TZ.BF.4.0.3.c1-00005-M8996AAAAANAZT-1_20170110_230814/b/HK11/trustzone_images/core/securemsm/trustzone/qsapps/libs/applib/qsee/build/secureindicator/scorpion/IADAANAA/tzapp_entrylib.lib(qsee_cipher.o)
 .debug_frame   0x00002dd8      0x168 /local/mnt/workspace/CRMBuilds/TZ.BF.4.0.3.c1-00005-M8996AAAAANAZT-1_20170110_230814/b/HK11/trustzone_images/core/securemsm/trustzone/qsapps/libs/applib/qsee/build/secureindicator/scorpion/IADAANAA/tzapp_entrylib.lib(qsee_hash.o)
 .debug_frame   0x00002f40      0x110 /local/mnt/workspace/CRMBuilds/TZ.BF.4.0.3.c1-00005-M8996AAAAANAZT-1_20170110_230814/b/HK11/trustzone_images/core/securemsm/trustzone/qsapps/libs/applib/qsee/build/secureindicator/scorpion/IADAANAA/tzapp_entrylib.lib(qsee_hmac.o)
 .debug_frame   0x00003050       0x30 /local/mnt/workspace/CRMBuilds/TZ.BF.4.0.3.c1-00005-M8996AAAAANAZT-1_20170110_230814/b/HK11/trustzone_images/core/securemsm/trustzone/qsapps/libs/applib/qsee/build/secureindicator/scorpion/IADAANAA/tzapp_entrylib.lib(gpPersistObjPanic.o)
 .debug_frame   0x00003080       0x38 /local/mnt/workspace/CRMBuilds/TZ.BF.4.0.3.c1-00005-M8996AAAAANAZT-1_20170110_230814/b/HK11/trustzone_images/core/securemsm/trustzone/qsapps/libs/services/build/secureindicator/scorpion/IADAANAA/qsee_services.lib(qsee_kdf.o)
 .debug_frame   0x000030b8       0x30 /local/mnt/workspace/CRMBuilds/TZ.BF.4.0.3.c1-00005-M8996AAAAANAZT-1_20170110_230814/b/HK11/trustzone_images/core/securemsm/trustzone/qsee/mink/libstd/build/secureindicator/scorpion/IADAANAA/libstd.lib(strlcat.o)
 .debug_frame   0x000030e8       0x20 /local/mnt/workspace/CRMBuilds/TZ.BF.4.0.3.c1-00005-M8996AAAAANAZT-1_20170110_230814/b/HK11/trustzone_images/core/securemsm/trustzone/qsee/mink/libstd/build/secureindicator/scorpion/IADAANAA/libstd.lib(strlcpy.o)
 .debug_frame   0x00003108       0x28 /local/mnt/workspace/CRMBuilds/TZ.BF.4.0.3.c1-00005-M8996AAAAANAZT-1_20170110_230814/b/HK11/trustzone_images/core/securemsm/trustzone/qsee/mink/libstd/build/secureindicator/scorpion/IADAANAA/libstd.lib(timesafe_memcmp.o)
 .debug_frame   0x00003130       0x20 /local/mnt/workspace/CRMBuilds/TZ.BF.4.0.3.c1-00005-M8996AAAAANAZT-1_20170110_230814/b/HK11/trustzone_images/core/securemsm/trustzone/qsee/mink/libstd/build/secureindicator/scorpion/IADAANAA/libstd.lib(memset.o)
 .debug_frame   0x00003150       0x34 /local/mnt/workspace/CRMBuilds/TZ.BF.4.0.3.c1-00005-M8996AAAAANAZT-1_20170110_230814/b/HK11/trustzone_images/core/securemsm/trustzone/qsee/mink/libstd/build/secureindicator/scorpion/IADAANAA/libstd.lib(memcpy.o)
 .debug_frame   0x00003184       0x28 /local/mnt/workspace/CRMBuilds/TZ.BF.4.0.3.c1-00005-M8996AAAAANAZT-1_20170110_230814/b/HK11/trustzone_images/core/securemsm/trustzone/qsee/mink/libstd/build/secureindicator/scorpion/IADAANAA/libstd.lib(strncmp.o)
