Archive member included because of file (symbol)

/local/mnt/workspace/CRMBuilds/TZ.BF.4.0.3.c1-00005-M8996AAAAANAZT-1_20170110_230814/b/HK11/trustzone_images/core/kernel/libstd/build/sampleapp/A53_64/IADAANAA/libstd.lib(memscpy.o)
                              /local/mnt/workspace/CRMBuilds/TZ.BF.4.0.3.c1-00005-M8996AAAAANAZT-1_20170110_230814/b/HK11/trustzone_images/core/securemsm/trustzone/qsapps/smplap64/build/sampleapp/A53_64/IADAANAA/app_content_protection.o (memscpy)
/local/mnt/workspace/CRMBuilds/TZ.BF.4.0.3.c1-00005-M8996AAAAANAZT-1_20170110_230814/b/HK11/trustzone_images/core/kernel/libstd/build/sampleapp/A53_64/IADAANAA/libstd.lib(strlcpy.o)
                              /local/mnt/workspace/CRMBuilds/TZ.BF.4.0.3.c1-00005-M8996AAAAANAZT-1_20170110_230814/b/HK11/trustzone_images/core/securemsm/trustzone/qsapps/smplap64/build/sampleapp/A53_64/IADAANAA/app_message_passing.o (strlcpy)
/local/mnt/workspace/CRMBuilds/TZ.BF.4.0.3.c1-00005-M8996AAAAANAZT-1_20170110_230814/b/HK11/trustzone_images/core/kernel/libstd/build/sampleapp/A53_64/IADAANAA/libstd.lib(secure_memset.o)
                              /local/mnt/workspace/CRMBuilds/TZ.BF.4.0.3.c1-00005-M8996AAAAANAZT-1_20170110_230814/b/HK11/trustzone_images/core/securemsm/trustzone/qsapps/smplap64/build/sampleapp/A53_64/IADAANAA/app_bio_lib.o (secure_memset)
/local/mnt/workspace/CRMBuilds/TZ.BF.4.0.3.c1-00005-M8996AAAAANAZT-1_20170110_230814/b/HK11/trustzone_images/core/kernel/libstd/build/sampleapp/A53_64/IADAANAA/libstd.lib(timesafe_memcmp.o)
                              /local/mnt/workspace/CRMBuilds/TZ.BF.4.0.3.c1-00005-M8996AAAAANAZT-1_20170110_230814/b/HK11/trustzone_images/core/securemsm/trustzone/qsapps/smplap64/build/sampleapp/A53_64/IADAANAA/app_bio_lib.o (timesafe_memcmp)
/local/mnt/workspace/CRMBuilds/TZ.BF.4.0.3.c1-00005-M8996AAAAANAZT-1_20170110_230814/b/HK11/trustzone_images/core/kernel/libstd/build/sampleapp/A53_64/IADAANAA/libstd.lib(timesafe_strncmp.o)
                              /local/mnt/workspace/CRMBuilds/TZ.BF.4.0.3.c1-00005-M8996AAAAANAZT-1_20170110_230814/b/HK11/trustzone_images/core/securemsm/trustzone/qsapps/smplap64/build/sampleapp/A53_64/IADAANAA/app_bio_lib.o (timesafe_strncmp)
/local/mnt/workspace/CRMBuilds/TZ.BF.4.0.3.c1-00005-M8996AAAAANAZT-1_20170110_230814/b/HK11/trustzone_images/core/securemsm/sse/qsee/SecureUI/build/sampleapp/A53_64/IADAANAA/secure_ui.lib(SecureUI.o)
                              /local/mnt/workspace/CRMBuilds/TZ.BF.4.0.3.c1-00005-M8996AAAAANAZT-1_20170110_230814/b/HK11/trustzone_images/core/securemsm/trustzone/qsapps/smplap64/build/sampleapp/A53_64/IADAANAA/app_main.o (sec_ui_alloc_app_buffer)
/local/mnt/workspace/CRMBuilds/TZ.BF.4.0.3.c1-00005-M8996AAAAANAZT-1_20170110_230814/b/HK11/trustzone_images/core/securemsm/sse/qsee/SecureUILib/lib/build/sampleapp/A53_64/IADAANAA/secure_ui_lib.lib(SecureUILib.o)
                              /local/mnt/workspace/CRMBuilds/TZ.BF.4.0.3.c1-00005-M8996AAAAANAZT-1_20170110_230814/b/HK11/trustzone_images/core/securemsm/trustzone/qsapps/smplap64/build/sampleapp/A53_64/IADAANAA/app_main.o (secUiProcessCmd)
/local/mnt/workspace/CRMBuilds/TZ.BF.4.0.3.c1-00005-M8996AAAAANAZT-1_20170110_230814/b/HK11/trustzone_images/core/securemsm/sse/qsee/SecureUILib/lib/build/sampleapp/A53_64/IADAANAA/secure_ui_lib.lib(01_startTouch.o)
                              /local/mnt/workspace/CRMBuilds/TZ.BF.4.0.3.c1-00005-M8996AAAAANAZT-1_20170110_230814/b/HK11/trustzone_images/core/securemsm/sse/qsee/SecureUILib/lib/build/sampleapp/A53_64/IADAANAA/secure_ui_lib.lib(SecureUILib.o) (processCmdStartTouch)
/local/mnt/workspace/CRMBuilds/TZ.BF.4.0.3.c1-00005-M8996AAAAANAZT-1_20170110_230814/b/HK11/trustzone_images/core/securemsm/sse/qsee/SecureUILib/lib/build/sampleapp/A53_64/IADAANAA/secure_ui_lib.lib(02_processTouch.o)
                              /local/mnt/workspace/CRMBuilds/TZ.BF.4.0.3.c1-00005-M8996AAAAANAZT-1_20170110_230814/b/HK11/trustzone_images/core/securemsm/sse/qsee/SecureUILib/lib/build/sampleapp/A53_64/IADAANAA/secure_ui_lib.lib(SecureUILib.o) (processCmdProcessTouch)
/local/mnt/workspace/CRMBuilds/TZ.BF.4.0.3.c1-00005-M8996AAAAANAZT-1_20170110_230814/b/HK11/trustzone_images/core/securemsm/sse/qsee/SecureUILib/lib/build/sampleapp/A53_64/IADAANAA/secure_ui_lib.lib(03_stopTouch.o)
                              /local/mnt/workspace/CRMBuilds/TZ.BF.4.0.3.c1-00005-M8996AAAAANAZT-1_20170110_230814/b/HK11/trustzone_images/core/securemsm/sse/qsee/SecureUILib/lib/build/sampleapp/A53_64/IADAANAA/secure_ui_lib.lib(SecureUILib.o) (processCmdStopTouch)
/local/mnt/workspace/CRMBuilds/TZ.BF.4.0.3.c1-00005-M8996AAAAANAZT-1_20170110_230814/b/HK11/trustzone_images/core/securemsm/trustzone/qsapps/libs/applib/common_applib/build/sampleapp/A53_64/IADAANAA/tzapp_entrylib.lib(common_applib.o)
                              /local/mnt/workspace/CRMBuilds/TZ.BF.4.0.3.c1-00005-M8996AAAAANAZT-1_20170110_230814/b/HK11/trustzone_images/core/securemsm/trustzone/qsapps/smplap64/build/sampleapp/A53_64/IADAANAA/app_main.o (__stack_chk_fail)
/local/mnt/workspace/CRMBuilds/TZ.BF.4.0.3.c1-00005-M8996AAAAANAZT-1_20170110_230814/b/HK11/trustzone_images/core/securemsm/trustzone/qsapps/libs/applib/proxy/build/sampleapp/A53_64/IADAANAA/tzlib_proxy.lib(prxy_services.o)
                              /local/mnt/workspace/CRMBuilds/TZ.BF.4.0.3.c1-00005-M8996AAAAANAZT-1_20170110_230814/b/HK11/trustzone_images/core/securemsm/trustzone/qsapps/smplap64/build/sampleapp/A53_64/IADAANAA/app_sfs.o (close)
/local/mnt/workspace/CRMBuilds/TZ.BF.4.0.3.c1-00005-M8996AAAAANAZT-1_20170110_230814/b/HK11/trustzone_images/core/securemsm/trustzone/qsapps/libs/applib/proxy/build/sampleapp/A53_64/IADAANAA/tzlib_proxy.lib(prxy_qsee_shim.o)
                              /local/mnt/workspace/CRMBuilds/TZ.BF.4.0.3.c1-00005-M8996AAAAANAZT-1_20170110_230814/b/HK11/trustzone_images/core/securemsm/trustzone/qsapps/smplap64/build/sampleapp/A53_64/IADAANAA/app_rsa.o (qsee_BIGINT_read_radix)
/local/mnt/workspace/CRMBuilds/TZ.BF.4.0.3.c1-00005-M8996AAAAANAZT-1_20170110_230814/b/HK11/trustzone_images/core/securemsm/trustzone/qsapps/libs/applib/proxy/build/sampleapp/A53_64/IADAANAA/tzlib_proxy.lib(prxy_ufaes.o)
                              /local/mnt/workspace/CRMBuilds/TZ.BF.4.0.3.c1-00005-M8996AAAAANAZT-1_20170110_230814/b/HK11/trustzone_images/core/securemsm/trustzone/qsapps/smplap64/build/sampleapp/A53_64/IADAANAA/app_crypto.o (qsee_SW_CipherData)
/local/mnt/workspace/CRMBuilds/TZ.BF.4.0.3.c1-00005-M8996AAAAANAZT-1_20170110_230814/b/HK11/trustzone_images/core/securemsm/trustzone/qsapps/libs/applib/proxy/build/sampleapp/A53_64/IADAANAA/tzlib_proxy.lib(prxy_ufdes.o)
                              /local/mnt/workspace/CRMBuilds/TZ.BF.4.0.3.c1-00005-M8996AAAAANAZT-1_20170110_230814/b/HK11/trustzone_images/core/securemsm/trustzone/qsapps/libs/applib/proxy/build/sampleapp/A53_64/IADAANAA/tzlib_proxy.lib(prxy_qsee_shim.o) (SW_CipherDESData)
/local/mnt/workspace/CRMBuilds/TZ.BF.4.0.3.c1-00005-M8996AAAAANAZT-1_20170110_230814/b/HK11/trustzone_images/core/securemsm/trustzone/qsapps/libs/applib/proxy/build/sampleapp/A53_64/IADAANAA/tzlib_proxy.lib(prxy_ufsha.o)
                              /local/mnt/workspace/CRMBuilds/TZ.BF.4.0.3.c1-00005-M8996AAAAANAZT-1_20170110_230814/b/HK11/trustzone_images/core/securemsm/trustzone/qsapps/smplap64/build/sampleapp/A53_64/IADAANAA/app_crypto.o (qsee_SW_Hash_Final)
/local/mnt/workspace/CRMBuilds/TZ.BF.4.0.3.c1-00005-M8996AAAAANAZT-1_20170110_230814/b/HK11/trustzone_images/core/securemsm/trustzone/qsapps/libs/applib/proxy/build/sampleapp/A53_64/IADAANAA/tzlib_proxy.lib(prxy_secmath.o)
                              /local/mnt/workspace/CRMBuilds/TZ.BF.4.0.3.c1-00005-M8996AAAAANAZT-1_20170110_230814/b/HK11/trustzone_images/core/securemsm/trustzone/qsapps/libs/applib/proxy/build/sampleapp/A53_64/IADAANAA/tzlib_proxy.lib(prxy_qsee_shim.o) (secmath_BIGINT_read_radix)
/local/mnt/workspace/CRMBuilds/TZ.BF.4.0.3.c1-00005-M8996AAAAANAZT-1_20170110_230814/b/HK11/trustzone_images/core/securemsm/trustzone/qsapps/libs/applib/proxy/build/sampleapp/A53_64/IADAANAA/tzlib_proxy.lib(prxy_secrsa.o)
                              /local/mnt/workspace/CRMBuilds/TZ.BF.4.0.3.c1-00005-M8996AAAAANAZT-1_20170110_230814/b/HK11/trustzone_images/core/securemsm/trustzone/qsapps/libs/applib/proxy/build/sampleapp/A53_64/IADAANAA/tzlib_proxy.lib(prxy_qsee_shim.o) (ce_rsa_decrypt)
/local/mnt/workspace/CRMBuilds/TZ.BF.4.0.3.c1-00005-M8996AAAAANAZT-1_20170110_230814/b/HK11/trustzone_images/core/securemsm/trustzone/qsapps/libs/applib/proxy/build/sampleapp/A53_64/IADAANAA/tzlib_proxy.lib(prxy_ecc.o)
                              /local/mnt/workspace/CRMBuilds/TZ.BF.4.0.3.c1-00005-M8996AAAAANAZT-1_20170110_230814/b/HK11/trustzone_images/core/securemsm/trustzone/qsapps/libs/applib/proxy/build/sampleapp/A53_64/IADAANAA/tzlib_proxy.lib(prxy_qsee_shim.o) (ECC_hash_to_bigval)
/local/mnt/workspace/CRMBuilds/TZ.BF.4.0.3.c1-00005-M8996AAAAANAZT-1_20170110_230814/b/HK11/trustzone_images/core/securemsm/trustzone/qsapps/libs/applib/qsee64/build/sampleapp/A53_64/IADAANAA/tzapp_entrylib.lib(mink_shared_code.o)
                              /local/mnt/workspace/CRMBuilds/TZ.BF.4.0.3.c1-00005-M8996AAAAANAZT-1_20170110_230814/b/HK11/trustzone_images/core/securemsm/trustzone/qsapps/libs/applib/common_applib/build/sampleapp/A53_64/IADAANAA/tzapp_entrylib.lib(common_applib.o) (minkIPC)
/local/mnt/workspace/CRMBuilds/TZ.BF.4.0.3.c1-00005-M8996AAAAANAZT-1_20170110_230814/b/HK11/trustzone_images/core/securemsm/trustzone/qsapps/libs/applib/qsee64/build/sampleapp/A53_64/IADAANAA/tzapp_entrylib.lib(qsee_env.o)
                              /local/mnt/workspace/CRMBuilds/TZ.BF.4.0.3.c1-00005-M8996AAAAANAZT-1_20170110_230814/b/HK11/trustzone_images/core/securemsm/trustzone/qsapps/smplap64/build/sampleapp/A53_64/IADAANAA/app_smplserv_test.o (qsee_open)
/local/mnt/workspace/CRMBuilds/TZ.BF.4.0.3.c1-00005-M8996AAAAANAZT-1_20170110_230814/b/HK11/trustzone_images/core/securemsm/trustzone/qsapps/libs/applib/qsee64/build/sampleapp/A53_64/IADAANAA/tzapp_entrylib.lib(qsee_core_shim.o)
                              /local/mnt/workspace/CRMBuilds/TZ.BF.4.0.3.c1-00005-M8996AAAAANAZT-1_20170110_230814/b/HK11/trustzone_images/core/securemsm/trustzone/qsapps/smplap64/build/sampleapp/A53_64/IADAANAA/app_fuses.o (qsee_blow_sw_fuse)
/local/mnt/workspace/CRMBuilds/TZ.BF.4.0.3.c1-00005-M8996AAAAANAZT-1_20170110_230814/b/HK11/trustzone_images/core/securemsm/trustzone/qsapps/libs/applib/qsee64/build/sampleapp/A53_64/IADAANAA/tzapp_entrylib.lib(qsee_deviceid.o)
                              /local/mnt/workspace/CRMBuilds/TZ.BF.4.0.3.c1-00005-M8996AAAAANAZT-1_20170110_230814/b/HK11/trustzone_images/core/securemsm/trustzone/qsapps/smplap64/build/sampleapp/A53_64/IADAANAA/qsee_api_tests.o (qsee_read_jtag_id)
/local/mnt/workspace/CRMBuilds/TZ.BF.4.0.3.c1-00005-M8996AAAAANAZT-1_20170110_230814/b/HK11/trustzone_images/core/securemsm/trustzone/qsapps/libs/applib/qsee64/build/sampleapp/A53_64/IADAANAA/tzapp_entrylib.lib(qsee_prng.o)
                              /local/mnt/workspace/CRMBuilds/TZ.BF.4.0.3.c1-00005-M8996AAAAANAZT-1_20170110_230814/b/HK11/trustzone_images/core/securemsm/trustzone/qsapps/smplap64/build/sampleapp/A53_64/IADAANAA/qsee_api_tests.o (qsee_prng_getdata)
/local/mnt/workspace/CRMBuilds/TZ.BF.4.0.3.c1-00005-M8996AAAAANAZT-1_20170110_230814/b/HK11/trustzone_images/core/securemsm/trustzone/qsapps/libs/applib/qsee64/build/sampleapp/A53_64/IADAANAA/tzapp_entrylib.lib(qsee_secdisp.o)
                              /local/mnt/workspace/CRMBuilds/TZ.BF.4.0.3.c1-00005-M8996AAAAANAZT-1_20170110_230814/b/HK11/trustzone_images/core/securemsm/sse/qsee/SecureUI/build/sampleapp/A53_64/IADAANAA/secure_ui.lib(SecureUI.o) (qsee_sd_get_session)
/local/mnt/workspace/CRMBuilds/TZ.BF.4.0.3.c1-00005-M8996AAAAANAZT-1_20170110_230814/b/HK11/trustzone_images/core/securemsm/trustzone/qsapps/libs/applib/qsee64/build/sampleapp/A53_64/IADAANAA/tzapp_entrylib.lib(qsee_nsmem.o)
                              /local/mnt/workspace/CRMBuilds/TZ.BF.4.0.3.c1-00005-M8996AAAAANAZT-1_20170110_230814/b/HK11/trustzone_images/core/securemsm/trustzone/qsapps/smplap64/build/sampleapp/A53_64/IADAANAA/qsee_api_tests.o (qsee_is_ns_range)
/local/mnt/workspace/CRMBuilds/TZ.BF.4.0.3.c1-00005-M8996AAAAANAZT-1_20170110_230814/b/HK11/trustzone_images/core/securemsm/trustzone/qsapps/libs/applib/qsee64/build/sampleapp/A53_64/IADAANAA/tzapp_entrylib.lib(qsee_cmac.o)
                              /local/mnt/workspace/CRMBuilds/TZ.BF.4.0.3.c1-00005-M8996AAAAANAZT-1_20170110_230814/b/HK11/trustzone_images/core/securemsm/trustzone/qsapps/smplap64/build/sampleapp/A53_64/IADAANAA/app_crypto.o (qsee_cmac)
/local/mnt/workspace/CRMBuilds/TZ.BF.4.0.3.c1-00005-M8996AAAAANAZT-1_20170110_230814/b/HK11/trustzone_images/core/securemsm/trustzone/qsapps/libs/applib/qsee64/build/sampleapp/A53_64/IADAANAA/tzapp_entrylib.lib(qsee_crypto_shim.o)
                              /local/mnt/workspace/CRMBuilds/TZ.BF.4.0.3.c1-00005-M8996AAAAANAZT-1_20170110_230814/b/HK11/trustzone_images/core/securemsm/trustzone/qsapps/smplap64/build/sampleapp/A53_64/IADAANAA/app_crypto.o (qsee_set_bandwidth)
/local/mnt/workspace/CRMBuilds/TZ.BF.4.0.3.c1-00005-M8996AAAAANAZT-1_20170110_230814/b/HK11/trustzone_images/core/securemsm/trustzone/qsapps/libs/applib/qsee64/build/sampleapp/A53_64/IADAANAA/tzapp_entrylib.lib(qsee_timer_shim.o)
                              /local/mnt/workspace/CRMBuilds/TZ.BF.4.0.3.c1-00005-M8996AAAAANAZT-1_20170110_230814/b/HK11/trustzone_images/core/securemsm/trustzone/qsapps/smplap64/build/sampleapp/A53_64/IADAANAA/app_crypto.o (qsee_get_uptime)
/local/mnt/workspace/CRMBuilds/TZ.BF.4.0.3.c1-00005-M8996AAAAANAZT-1_20170110_230814/b/HK11/trustzone_images/core/securemsm/trustzone/qsapps/libs/applib/qsee64/build/sampleapp/A53_64/IADAANAA/tzapp_entrylib.lib(tzapp_syscall.o)
                              /local/mnt/workspace/CRMBuilds/TZ.BF.4.0.3.c1-00005-M8996AAAAANAZT-1_20170110_230814/b/HK11/trustzone_images/core/securemsm/trustzone/qsapps/libs/applib/qsee64/build/sampleapp/A53_64/IADAANAA/qsee64/src/tzapp_entry.o (app_export_init_info_to_qsee)
/local/mnt/workspace/CRMBuilds/TZ.BF.4.0.3.c1-00005-M8996AAAAANAZT-1_20170110_230814/b/HK11/trustzone_images/core/securemsm/trustzone/qsapps/libs/applib/qsee64/build/sampleapp/A53_64/IADAANAA/tzapp_entrylib.lib(qsee_comstr.o)
                              /local/mnt/workspace/CRMBuilds/TZ.BF.4.0.3.c1-00005-M8996AAAAANAZT-1_20170110_230814/b/HK11/trustzone_images/core/securemsm/trustzone/qsapps/smplap64/build/sampleapp/A53_64/IADAANAA/qsee_api_tests.o (qsee_strlcat)
/local/mnt/workspace/CRMBuilds/TZ.BF.4.0.3.c1-00005-M8996AAAAANAZT-1_20170110_230814/b/HK11/trustzone_images/core/securemsm/trustzone/qsapps/libs/applib/qsee64/build/sampleapp/A53_64/IADAANAA/tzapp_entrylib.lib(stor.o)
                              /local/mnt/workspace/CRMBuilds/TZ.BF.4.0.3.c1-00005-M8996AAAAANAZT-1_20170110_230814/b/HK11/trustzone_images/core/securemsm/trustzone/qsapps/smplap64/build/sampleapp/A53_64/IADAANAA/app_stor.o (qsee_stor_add_partition)
/local/mnt/workspace/CRMBuilds/TZ.BF.4.0.3.c1-00005-M8996AAAAANAZT-1_20170110_230814/b/HK11/trustzone_images/core/securemsm/trustzone/qsapps/libs/applib/qsee64/build/sampleapp/A53_64/IADAANAA/tzapp_entrylib.lib(stor_gpt.o)
                              /local/mnt/workspace/CRMBuilds/TZ.BF.4.0.3.c1-00005-M8996AAAAANAZT-1_20170110_230814/b/HK11/trustzone_images/core/securemsm/trustzone/qsapps/libs/applib/qsee64/build/sampleapp/A53_64/IADAANAA/tzapp_entrylib.lib(stor.o) (gpt_add_partition)
/local/mnt/workspace/CRMBuilds/TZ.BF.4.0.3.c1-00005-M8996AAAAANAZT-1_20170110_230814/b/HK11/trustzone_images/core/securemsm/trustzone/qsapps/libs/applib/qsee64/build/sampleapp/A53_64/IADAANAA/tzapp_entrylib.lib(stor_rpmbw.o)
                              /local/mnt/workspace/CRMBuilds/TZ.BF.4.0.3.c1-00005-M8996AAAAANAZT-1_20170110_230814/b/HK11/trustzone_images/core/securemsm/trustzone/qsapps/libs/applib/qsee64/build/sampleapp/A53_64/IADAANAA/tzapp_entrylib.lib(stor.o) (rpmbw_add_partition)
/local/mnt/workspace/CRMBuilds/TZ.BF.4.0.3.c1-00005-M8996AAAAANAZT-1_20170110_230814/b/HK11/trustzone_images/core/securemsm/trustzone/qsapps/libs/applib/qsee64/build/sampleapp/A53_64/IADAANAA/tzapp_entrylib.lib(qsee_counter_shim.o)
                              /local/mnt/workspace/CRMBuilds/TZ.BF.4.0.3.c1-00005-M8996AAAAANAZT-1_20170110_230814/b/HK11/trustzone_images/core/securemsm/trustzone/qsapps/smplap64/build/sampleapp/A53_64/IADAANAA/app_sfs.o (qsee_create_counter)
/local/mnt/workspace/CRMBuilds/TZ.BF.4.0.3.c1-00005-M8996AAAAANAZT-1_20170110_230814/b/HK11/trustzone_images/core/securemsm/trustzone/qsapps/libs/applib/qsee64/build/sampleapp/A53_64/IADAANAA/tzapp_entrylib.lib(qsee_cipher.o)
                              /local/mnt/workspace/CRMBuilds/TZ.BF.4.0.3.c1-00005-M8996AAAAANAZT-1_20170110_230814/b/HK11/trustzone_images/core/securemsm/trustzone/qsapps/smplap64/build/sampleapp/A53_64/IADAANAA/app_crypto.o (qsee_cipher_decrypt)
/local/mnt/workspace/CRMBuilds/TZ.BF.4.0.3.c1-00005-M8996AAAAANAZT-1_20170110_230814/b/HK11/trustzone_images/core/securemsm/trustzone/qsapps/libs/applib/qsee64/build/sampleapp/A53_64/IADAANAA/tzapp_entrylib.lib(qsee_hash.o)
                              /local/mnt/workspace/CRMBuilds/TZ.BF.4.0.3.c1-00005-M8996AAAAANAZT-1_20170110_230814/b/HK11/trustzone_images/core/securemsm/trustzone/qsapps/smplap64/build/sampleapp/A53_64/IADAANAA/app_crypto.o (qsee_hash)
/local/mnt/workspace/CRMBuilds/TZ.BF.4.0.3.c1-00005-M8996AAAAANAZT-1_20170110_230814/b/HK11/trustzone_images/core/securemsm/trustzone/qsapps/libs/applib/qsee64/build/sampleapp/A53_64/IADAANAA/tzapp_entrylib.lib(qsee_hmac.o)
                              /local/mnt/workspace/CRMBuilds/TZ.BF.4.0.3.c1-00005-M8996AAAAANAZT-1_20170110_230814/b/HK11/trustzone_images/core/securemsm/trustzone/qsapps/smplap64/build/sampleapp/A53_64/IADAANAA/app_crypto.o (qsee_hmac)
/local/mnt/workspace/CRMBuilds/TZ.BF.4.0.3.c1-00005-M8996AAAAANAZT-1_20170110_230814/b/HK11/trustzone_images/core/securemsm/trustzone/qsapps/libs/applib/qsee64/build/sampleapp/A53_64/IADAANAA/tzapp_entrylib.lib(qsee_i2c.o)
                              /local/mnt/workspace/CRMBuilds/TZ.BF.4.0.3.c1-00005-M8996AAAAANAZT-1_20170110_230814/b/HK11/trustzone_images/core/securemsm/trustzone/qsapps/smplap64/build/sampleapp/A53_64/IADAANAA/qsee_api_tests.o (qsee_i2c_close)
/local/mnt/workspace/CRMBuilds/TZ.BF.4.0.3.c1-00005-M8996AAAAANAZT-1_20170110_230814/b/HK11/trustzone_images/core/securemsm/trustzone/qsapps/libs/applib/qsee64/build/sampleapp/A53_64/IADAANAA/tzapp_entrylib.lib(qsee_spi.o)
                              /local/mnt/workspace/CRMBuilds/TZ.BF.4.0.3.c1-00005-M8996AAAAANAZT-1_20170110_230814/b/HK11/trustzone_images/core/securemsm/trustzone/qsapps/smplap64/build/sampleapp/A53_64/IADAANAA/qsee_api_tests.o (qsee_spi_close)
/local/mnt/workspace/CRMBuilds/TZ.BF.4.0.3.c1-00005-M8996AAAAANAZT-1_20170110_230814/b/HK11/trustzone_images/core/securemsm/trustzone/qsapps/libs/applib/qsee64/build/sampleapp/A53_64/IADAANAA/tzapp_entrylib.lib(qsee_tlmm.o)
                              /local/mnt/workspace/CRMBuilds/TZ.BF.4.0.3.c1-00005-M8996AAAAANAZT-1_20170110_230814/b/HK11/trustzone_images/core/securemsm/trustzone/qsapps/smplap64/build/sampleapp/A53_64/IADAANAA/qsee_api_tests.o (qsee_tlmm_config_gpio_id)
/local/mnt/workspace/CRMBuilds/TZ.BF.4.0.3.c1-00005-M8996AAAAANAZT-1_20170110_230814/b/HK11/trustzone_images/core/securemsm/trustzone/qsapps/libs/applib/qsee64/build/sampleapp/A53_64/IADAANAA/tzapp_entrylib.lib(qsee_bulletin_board_shim.o)
                              /local/mnt/workspace/CRMBuilds/TZ.BF.4.0.3.c1-00005-M8996AAAAANAZT-1_20170110_230814/b/HK11/trustzone_images/core/securemsm/trustzone/qsapps/smplap64/build/sampleapp/A53_64/IADAANAA/app_bulletin_board.o (qsee_bulletin_board_post)
/local/mnt/workspace/CRMBuilds/TZ.BF.4.0.3.c1-00005-M8996AAAAANAZT-1_20170110_230814/b/HK11/trustzone_images/core/securemsm/trustzone/qsapps/libs/applib/qsee64/build/sampleapp/A53_64/IADAANAA/tzapp_entrylib.lib(qsee_dcache.o)
                              /local/mnt/workspace/CRMBuilds/TZ.BF.4.0.3.c1-00005-M8996AAAAANAZT-1_20170110_230814/b/HK11/trustzone_images/core/securemsm/trustzone/qsapps/smplap64/build/sampleapp/A53_64/IADAANAA/qsee_api_tests.o (qsee_dcache_clean_region)
/local/mnt/workspace/CRMBuilds/TZ.BF.4.0.3.c1-00005-M8996AAAAANAZT-1_20170110_230814/b/HK11/trustzone_images/core/securemsm/trustzone/qsapps/libs/applib/qsee64/build/sampleapp/A53_64/IADAANAA/tzapp_entrylib.lib(qsee_shared_buffer.o)
                              /local/mnt/workspace/CRMBuilds/TZ.BF.4.0.3.c1-00005-M8996AAAAANAZT-1_20170110_230814/b/HK11/trustzone_images/core/securemsm/trustzone/qsapps/smplap64/build/sampleapp/A53_64/IADAANAA/app_main.o (qsee_deregister_shared_buffer)
/local/mnt/workspace/CRMBuilds/TZ.BF.4.0.3.c1-00005-M8996AAAAANAZT-1_20170110_230814/b/HK11/trustzone_images/core/securemsm/trustzone/qsapps/libs/applib/qsee64/build/sampleapp/A53_64/IADAANAA/tzapp_entrylib.lib(qsee_sync.o)
                              /local/mnt/workspace/CRMBuilds/TZ.BF.4.0.3.c1-00005-M8996AAAAANAZT-1_20170110_230814/b/HK11/trustzone_images/core/securemsm/trustzone/qsapps/smplap64/build/sampleapp/A53_64/IADAANAA/qsee_api_tests.o (qsee_spin)
/local/mnt/workspace/CRMBuilds/TZ.BF.4.0.3.c1-00005-M8996AAAAANAZT-1_20170110_230814/b/HK11/trustzone_images/core/securemsm/trustzone/qsapps/libs/applib/qsee64/build/sampleapp/A53_64/IADAANAA/tzapp_entrylib.lib(qsee_oem_buffer.o)
                              /local/mnt/workspace/CRMBuilds/TZ.BF.4.0.3.c1-00005-M8996AAAAANAZT-1_20170110_230814/b/HK11/trustzone_images/core/securemsm/trustzone/qsapps/smplap64/build/sampleapp/A53_64/IADAANAA/qsee_api_tests.o (qsee_get_oem_buffer_length)
/local/mnt/workspace/CRMBuilds/TZ.BF.4.0.3.c1-00005-M8996AAAAANAZT-1_20170110_230814/b/HK11/trustzone_images/core/securemsm/trustzone/qsapps/libs/applib/qsee64/build/sampleapp/A53_64/IADAANAA/tzapp_entrylib.lib(qsee_intmask.o)
                              /local/mnt/workspace/CRMBuilds/TZ.BF.4.0.3.c1-00005-M8996AAAAANAZT-1_20170110_230814/b/HK11/trustzone_images/core/securemsm/trustzone/qsapps/smplap64/build/sampleapp/A53_64/IADAANAA/qsee_api_tests.o (qsee_disable_all_interrupts)
/local/mnt/workspace/CRMBuilds/TZ.BF.4.0.3.c1-00005-M8996AAAAANAZT-1_20170110_230814/b/HK11/trustzone_images/core/securemsm/trustzone/qsapps/libs/applib/qsee64/build/sampleapp/A53_64/IADAANAA/tzapp_entrylib.lib(qsee_trans_ns_addr.o)
                              /local/mnt/workspace/CRMBuilds/TZ.BF.4.0.3.c1-00005-M8996AAAAANAZT-1_20170110_230814/b/HK11/trustzone_images/core/securemsm/trustzone/qsapps/smplap64/build/sampleapp/A53_64/IADAANAA/qsee_api_tests.o (qsee_trans_ns_addr)
/local/mnt/workspace/CRMBuilds/TZ.BF.4.0.3.c1-00005-M8996AAAAANAZT-1_20170110_230814/b/HK11/trustzone_images/core/securemsm/trustzone/qsapps/libs/applib/qsee64/build/sampleapp/A53_64/IADAANAA/tzapp_entrylib.lib(qsee_appmessage.o)
                              /local/mnt/workspace/CRMBuilds/TZ.BF.4.0.3.c1-00005-M8996AAAAANAZT-1_20170110_230814/b/HK11/trustzone_images/core/securemsm/trustzone/qsapps/smplap64/build/sampleapp/A53_64/IADAANAA/app_message_passing.o (qsee_decapsulate_inter_app_message)
/local/mnt/workspace/CRMBuilds/TZ.BF.4.0.3.c1-00005-M8996AAAAANAZT-1_20170110_230814/b/HK11/trustzone_images/core/securemsm/trustzone/qsapps/libs/applib/qsee64/build/sampleapp/A53_64/IADAANAA/tzapp_entrylib.lib(sfs_api.o)
                              /local/mnt/workspace/CRMBuilds/TZ.BF.4.0.3.c1-00005-M8996AAAAANAZT-1_20170110_230814/b/HK11/trustzone_images/core/securemsm/trustzone/qsapps/smplap64/build/sampleapp/A53_64/IADAANAA/app_sfs.o (qsee_sfs_clean_file_list)
/local/mnt/workspace/CRMBuilds/TZ.BF.4.0.3.c1-00005-M8996AAAAANAZT-1_20170110_230814/b/HK11/trustzone_images/core/securemsm/trustzone/qsapps/libs/applib/qsee64/build/sampleapp/A53_64/IADAANAA/tzapp_entrylib.lib(tzapp_lib_main.o)
                              /local/mnt/workspace/CRMBuilds/TZ.BF.4.0.3.c1-00005-M8996AAAAANAZT-1_20170110_230814/b/HK11/trustzone_images/core/securemsm/trustzone/qsapps/libs/applib/common_applib/build/sampleapp/A53_64/IADAANAA/tzapp_entrylib.lib(common_applib.o) (CApp_invoke)
/local/mnt/workspace/CRMBuilds/TZ.BF.4.0.3.c1-00005-M8996AAAAANAZT-1_20170110_230814/b/HK11/trustzone_images/core/securemsm/trustzone/qsapps/libs/applib/qsee64/build/sampleapp/A53_64/IADAANAA/tzapp_entrylib.lib(kthread_shared.o)
                              /local/mnt/workspace/CRMBuilds/TZ.BF.4.0.3.c1-00005-M8996AAAAANAZT-1_20170110_230814/b/HK11/trustzone_images/core/securemsm/trustzone/qsapps/libs/applib/qsee64/build/sampleapp/A53_64/IADAANAA/tzapp_entrylib.lib(mink_shared_code.o) (mink_generic_syscall)
/local/mnt/workspace/CRMBuilds/TZ.BF.4.0.3.c1-00005-M8996AAAAANAZT-1_20170110_230814/b/HK11/trustzone_images/core/securemsm/trustzone/qsapps/libs/biometric/build/sampleapp/A53_64/IADAANAA/biometric_lib.lib(biometric.o)
                              /local/mnt/workspace/CRMBuilds/TZ.BF.4.0.3.c1-00005-M8996AAAAANAZT-1_20170110_230814/b/HK11/trustzone_images/core/securemsm/trustzone/qsapps/smplap64/build/sampleapp/A53_64/IADAANAA/app_bio_lib.o (bio_get_auth_result)
/local/mnt/workspace/CRMBuilds/TZ.BF.4.0.3.c1-00005-M8996AAAAANAZT-1_20170110_230814/b/HK11/trustzone_images/core/securemsm/trustzone/qsapps/libs/biometric/build/sampleapp/A53_64/IADAANAA/biometric_lib.lib(biometric_serializer.o)
                              /local/mnt/workspace/CRMBuilds/TZ.BF.4.0.3.c1-00005-M8996AAAAANAZT-1_20170110_230814/b/HK11/trustzone_images/core/securemsm/trustzone/qsapps/libs/biometric/build/sampleapp/A53_64/IADAANAA/biometric_lib.lib(biometric.o) (bio_deserialize_auth_result)
/afs/localcell/cm/gv2.6/sysname/pkg.@sys/qct/software/llvm/release/arm/3.5.2.4/tools/lib64/lib/libc.a(vsnprintf.o)
                              /local/mnt/workspace/CRMBuilds/TZ.BF.4.0.3.c1-00005-M8996AAAAANAZT-1_20170110_230814/b/HK11/trustzone_images/core/securemsm/trustzone/qsapps/libs/applib/proxy/build/sampleapp/A53_64/IADAANAA/tzlib_proxy.lib(prxy_services.o) (vsnprintf)
/afs/localcell/cm/gv2.6/sysname/pkg.@sys/qct/software/llvm/release/arm/3.5.2.4/tools/lib64/lib/libc.a(memcmp.o)
                              /local/mnt/workspace/CRMBuilds/TZ.BF.4.0.3.c1-00005-M8996AAAAANAZT-1_20170110_230814/b/HK11/trustzone_images/core/securemsm/trustzone/qsapps/smplap64/build/sampleapp/A53_64/IADAANAA/app_smplserv_test.o (memcmp)
/afs/localcell/cm/gv2.6/sysname/pkg.@sys/qct/software/llvm/release/arm/3.5.2.4/tools/lib64/lib/libc.a(memcpy.o)
                              /local/mnt/workspace/CRMBuilds/TZ.BF.4.0.3.c1-00005-M8996AAAAANAZT-1_20170110_230814/b/HK11/trustzone_images/core/securemsm/trustzone/qsapps/smplap64/build/sampleapp/A53_64/IADAANAA/app_main.o (memcpy)
/afs/localcell/cm/gv2.6/sysname/pkg.@sys/qct/software/llvm/release/arm/3.5.2.4/tools/lib64/lib/libc.a(memmove.o)
                              /local/mnt/workspace/CRMBuilds/TZ.BF.4.0.3.c1-00005-M8996AAAAANAZT-1_20170110_230814/b/HK11/trustzone_images/core/securemsm/trustzone/qsapps/libs/applib/qsee64/build/sampleapp/A53_64/IADAANAA/tzapp_entrylib.lib(qsee_comstr.o) (memmove)
/afs/localcell/cm/gv2.6/sysname/pkg.@sys/qct/software/llvm/release/arm/3.5.2.4/tools/lib64/lib/libc.a(memset.o)
                              /local/mnt/workspace/CRMBuilds/TZ.BF.4.0.3.c1-00005-M8996AAAAANAZT-1_20170110_230814/b/HK11/trustzone_images/core/securemsm/trustzone/qsapps/smplap64/build/sampleapp/A53_64/IADAANAA/app_crypto.o (memset)
/afs/localcell/cm/gv2.6/sysname/pkg.@sys/qct/software/llvm/release/arm/3.5.2.4/tools/lib64/lib/libc.a(strcmp.o)
                              /local/mnt/workspace/CRMBuilds/TZ.BF.4.0.3.c1-00005-M8996AAAAANAZT-1_20170110_230814/b/HK11/trustzone_images/core/securemsm/trustzone/qsapps/smplap64/build/sampleapp/A53_64/IADAANAA/app_sfs.o (strcmp)
/afs/localcell/cm/gv2.6/sysname/pkg.@sys/qct/software/llvm/release/arm/3.5.2.4/tools/lib64/lib/libc.a(strlen.o)
                              /local/mnt/workspace/CRMBuilds/TZ.BF.4.0.3.c1-00005-M8996AAAAANAZT-1_20170110_230814/b/HK11/trustzone_images/core/securemsm/trustzone/qsapps/smplap64/build/sampleapp/A53_64/IADAANAA/app_crypto.o (strlen)
/afs/localcell/cm/gv2.6/sysname/pkg.@sys/qct/software/llvm/release/arm/3.5.2.4/tools/lib64/lib/libc.a(strncmp.o)
                              /local/mnt/workspace/CRMBuilds/TZ.BF.4.0.3.c1-00005-M8996AAAAANAZT-1_20170110_230814/b/HK11/trustzone_images/core/securemsm/trustzone/qsapps/smplap64/build/sampleapp/A53_64/IADAANAA/app_sfs.o (strncmp)
/afs/localcell/cm/gv2.6/sysname/pkg.@sys/qct/software/llvm/release/arm/3.5.2.4/tools/lib64/lib/libc.a(strnlen.o)
                              /local/mnt/workspace/CRMBuilds/TZ.BF.4.0.3.c1-00005-M8996AAAAANAZT-1_20170110_230814/b/HK11/trustzone_images/core/securemsm/trustzone/qsapps/libs/biometric/build/sampleapp/A53_64/IADAANAA/biometric_lib.lib(biometric_serializer.o) (strnlen)
/afs/localcell/cm/gv2.6/sysname/pkg.@sys/qct/software/llvm/release/arm/3.5.2.4/tools/lib64/lib/libc.a(__errno_location.o)
                              /afs/localcell/cm/gv2.6/sysname/pkg.@sys/qct/software/llvm/release/arm/3.5.2.4/tools/lib64/lib/libc.a(vsnprintf.o) (__errno_location)
/afs/localcell/cm/gv2.6/sysname/pkg.@sys/qct/software/llvm/release/arm/3.5.2.4/tools/lib64/lib/libc.a(libc.o)
                              /afs/localcell/cm/gv2.6/sysname/pkg.@sys/qct/software/llvm/release/arm/3.5.2.4/tools/lib64/lib/libc.a(__errno_location.o) (__libc)
/afs/localcell/cm/gv2.6/sysname/pkg.@sys/qct/software/llvm/release/arm/3.5.2.4/tools/lib64/lib/libc.a(vfprintf.o)
                              /afs/localcell/cm/gv2.6/sysname/pkg.@sys/qct/software/llvm/release/arm/3.5.2.4/tools/lib64/lib/libc.a(vsnprintf.o) (vfprintf)
/afs/localcell/cm/gv2.6/sysname/pkg.@sys/qct/software/llvm/release/arm/3.5.2.4/tools/lib64/lib/libc.a(memchr.o)
                              /afs/localcell/cm/gv2.6/sysname/pkg.@sys/qct/software/llvm/release/arm/3.5.2.4/tools/lib64/lib/libc.a(strnlen.o) (memchr)
/afs/localcell/cm/gv2.6/sysname/pkg.@sys/qct/software/llvm/release/arm/3.5.2.4/tools/lib64/lib/libc.a(strerror.o)
                              /afs/localcell/cm/gv2.6/sysname/pkg.@sys/qct/software/llvm/release/arm/3.5.2.4/tools/lib64/lib/libc.a(vfprintf.o) (strerror)
/afs/localcell/cm/gv2.6/sysname/pkg.@sys/qct/software/llvm/release/arm/3.5.2.4/tools/lib64/lib/libc.a(wctomb.o)
                              /afs/localcell/cm/gv2.6/sysname/pkg.@sys/qct/software/llvm/release/arm/3.5.2.4/tools/lib64/lib/libc.a(vfprintf.o) (wctomb)
/afs/localcell/cm/gv2.6/sysname/pkg.@sys/qct/software/llvm/release/arm/3.5.2.4/tools/lib64/lib/libc.a(__lockfile.o)
                              /afs/localcell/cm/gv2.6/sysname/pkg.@sys/qct/software/llvm/release/arm/3.5.2.4/tools/lib64/lib/libc.a(vfprintf.o) (__lockfile)
/afs/localcell/cm/gv2.6/sysname/pkg.@sys/qct/software/llvm/release/arm/3.5.2.4/tools/lib64/lib/libc.a(fwrite.o)
                              /afs/localcell/cm/gv2.6/sysname/pkg.@sys/qct/software/llvm/release/arm/3.5.2.4/tools/lib64/lib/libc.a(vfprintf.o) (__fwritex)
/afs/localcell/cm/gv2.6/sysname/pkg.@sys/qct/software/llvm/release/arm/3.5.2.4/tools/lib64/lib/libc.a(__wait.o)
                              /afs/localcell/cm/gv2.6/sysname/pkg.@sys/qct/software/llvm/release/arm/3.5.2.4/tools/lib64/lib/libc.a(__lockfile.o) (__wait)
/afs/localcell/cm/gv2.6/sysname/pkg.@sys/qct/software/llvm/release/arm/3.5.2.4/tools/lib64/lib/libc.a(syscall.o)
                              /afs/localcell/cm/gv2.6/sysname/pkg.@sys/qct/software/llvm/release/arm/3.5.2.4/tools/lib64/lib/libc.a(__lockfile.o) (__syscall)
/afs/localcell/cm/gv2.6/sysname/pkg.@sys/qct/software/llvm/release/arm/3.5.2.4/tools/lib64/lib/libc.a(wcrtomb.o)
                              /afs/localcell/cm/gv2.6/sysname/pkg.@sys/qct/software/llvm/release/arm/3.5.2.4/tools/lib64/lib/libc.a(wctomb.o) (wcrtomb)
/afs/localcell/cm/gv2.6/sysname/pkg.@sys/qct/software/llvm/release/arm/3.5.2.4/tools/lib64/lib/libc.a(__towrite.o)
                              /afs/localcell/cm/gv2.6/sysname/pkg.@sys/qct/software/llvm/release/arm/3.5.2.4/tools/lib64/lib/libc.a(fwrite.o) (__towrite)
/afs/localcell/cm/gv2.6/sysname/pkg.@sys/qct/software/llvm/release/arm/3.5.2.4/tools/lib64/lib/libc.a(__stdio_exit.o)
                              /afs/localcell/cm/gv2.6/sysname/pkg.@sys/qct/software/llvm/release/arm/3.5.2.4/tools/lib64/lib/libc.a(__towrite.o) (__stdio_exit)
/afs/localcell/cm/gv2.6/sysname/pkg.@sys/qct/software/llvm/release/arm/3.5.2.4/tools/lib64/lib/libc.a(__lock.o)
                              /afs/localcell/cm/gv2.6/sysname/pkg.@sys/qct/software/llvm/release/arm/3.5.2.4/tools/lib64/lib/libc.a(__stdio_exit.o) (__lock)
/local/mnt/workspace/CRMBuilds/TZ.BF.4.0.3.c1-00005-M8996AAAAANAZT-1_20170110_230814/b/HK11/trustzone_images/core/securemsm/sse/qsee/SecureTouch/drTs/lib/build/sampleapp/A53_64/IADAANAA/touch_lib.lib(01_open.o)
                              /local/mnt/workspace/CRMBuilds/TZ.BF.4.0.3.c1-00005-M8996AAAAANAZT-1_20170110_230814/b/HK11/trustzone_images/core/securemsm/sse/qsee/SecureUILib/lib/build/sampleapp/A53_64/IADAANAA/secure_ui_lib.lib(01_startTouch.o) (touchOpen)
/local/mnt/workspace/CRMBuilds/TZ.BF.4.0.3.c1-00005-M8996AAAAANAZT-1_20170110_230814/b/HK11/trustzone_images/core/securemsm/sse/qsee/SecureTouch/drTs/lib/build/sampleapp/A53_64/IADAANAA/touch_lib.lib(02_close.o)
                              /local/mnt/workspace/CRMBuilds/TZ.BF.4.0.3.c1-00005-M8996AAAAANAZT-1_20170110_230814/b/HK11/trustzone_images/core/securemsm/sse/qsee/SecureUILib/lib/build/sampleapp/A53_64/IADAANAA/secure_ui_lib.lib(03_stopTouch.o) (touchClose)
/local/mnt/workspace/CRMBuilds/TZ.BF.4.0.3.c1-00005-M8996AAAAANAZT-1_20170110_230814/b/HK11/trustzone_images/core/securemsm/sse/qsee/SecureTouch/drTs/lib/build/sampleapp/A53_64/IADAANAA/touch_lib.lib(03_getData.o)
                              /local/mnt/workspace/CRMBuilds/TZ.BF.4.0.3.c1-00005-M8996AAAAANAZT-1_20170110_230814/b/HK11/trustzone_images/core/securemsm/sse/qsee/SecureUILib/lib/build/sampleapp/A53_64/IADAANAA/secure_ui_lib.lib(02_processTouch.o) (touchGetData)
/local/mnt/workspace/CRMBuilds/TZ.BF.4.0.3.c1-00005-M8996AAAAANAZT-1_20170110_230814/b/HK11/trustzone_images/core/securemsm/trustzone/qsapps/libs/applib/common_applib/build/sampleapp/A53_64/IADAANAA/tzapp_entrylib.lib(gpPersistObjCommon.o)
                              /local/mnt/workspace/CRMBuilds/TZ.BF.4.0.3.c1-00005-M8996AAAAANAZT-1_20170110_230814/b/HK11/trustzone_images/core/securemsm/trustzone/qsapps/libs/applib/qsee64/build/sampleapp/A53_64/IADAANAA/tzapp_entrylib.lib(sfs_api.o) (gpCommon_Close_Object)
/local/mnt/workspace/CRMBuilds/TZ.BF.4.0.3.c1-00005-M8996AAAAANAZT-1_20170110_230814/b/HK11/trustzone_images/core/securemsm/trustzone/qsapps/libs/applib/common_applib/build/sampleapp/A53_64/IADAANAA/tzapp_entrylib.lib(gpPersistentObjects.o)
                              /local/mnt/workspace/CRMBuilds/TZ.BF.4.0.3.c1-00005-M8996AAAAANAZT-1_20170110_230814/b/HK11/trustzone_images/core/securemsm/trustzone/qsapps/libs/applib/qsee64/build/sampleapp/A53_64/IADAANAA/tzapp_entrylib.lib(sfs_api.o) (TEE_AllocatePersistentObjectEnumerator)
/local/mnt/workspace/CRMBuilds/TZ.BF.4.0.3.c1-00005-M8996AAAAANAZT-1_20170110_230814/b/HK11/trustzone_images/core/securemsm/trustzone/qsapps/libs/applib/common_applib/build/sampleapp/A53_64/IADAANAA/tzapp_entrylib.lib(gpPersistObjData.o)
                              /local/mnt/workspace/CRMBuilds/TZ.BF.4.0.3.c1-00005-M8996AAAAANAZT-1_20170110_230814/b/HK11/trustzone_images/core/securemsm/trustzone/qsapps/libs/applib/common_applib/build/sampleapp/A53_64/IADAANAA/tzapp_entrylib.lib(gpPersistObjCommon.o) (gpData_Close_Object)
/local/mnt/workspace/CRMBuilds/TZ.BF.4.0.3.c1-00005-M8996AAAAANAZT-1_20170110_230814/b/HK11/trustzone_images/core/securemsm/trustzone/qsapps/libs/applib/common_applib/build/sampleapp/A53_64/IADAANAA/tzapp_entrylib.lib(gpPersistObjHandler.o)
                              /local/mnt/workspace/CRMBuilds/TZ.BF.4.0.3.c1-00005-M8996AAAAANAZT-1_20170110_230814/b/HK11/trustzone_images/core/securemsm/trustzone/qsapps/libs/applib/common_applib/build/sampleapp/A53_64/IADAANAA/tzapp_entrylib.lib(gpPersistObjCommon.o) (gpHandler_Close_Handle)
/local/mnt/workspace/CRMBuilds/TZ.BF.4.0.3.c1-00005-M8996AAAAANAZT-1_20170110_230814/b/HK11/trustzone_images/core/securemsm/trustzone/qsapps/libs/applib/common_applib/build/sampleapp/A53_64/IADAANAA/tzapp_entrylib.lib(gpPersistObjIndex.o)
                              /local/mnt/workspace/CRMBuilds/TZ.BF.4.0.3.c1-00005-M8996AAAAANAZT-1_20170110_230814/b/HK11/trustzone_images/core/securemsm/trustzone/qsapps/libs/applib/common_applib/build/sampleapp/A53_64/IADAANAA/tzapp_entrylib.lib(gpPersistObjHandler.o) (gpIndex_Create_Entry)
/local/mnt/workspace/CRMBuilds/TZ.BF.4.0.3.c1-00005-M8996AAAAANAZT-1_20170110_230814/b/HK11/trustzone_images/core/securemsm/trustzone/qsapps/libs/applib/common_applib/build/sampleapp/A53_64/IADAANAA/tzapp_entrylib.lib(gpPersistObjVersion.o)
                              /local/mnt/workspace/CRMBuilds/TZ.BF.4.0.3.c1-00005-M8996AAAAANAZT-1_20170110_230814/b/HK11/trustzone_images/core/securemsm/trustzone/qsapps/libs/applib/common_applib/build/sampleapp/A53_64/IADAANAA/tzapp_entrylib.lib(gpPersistObjIndex.o) (gpVersion_Delete_Version)
/local/mnt/workspace/CRMBuilds/TZ.BF.4.0.3.c1-00005-M8996AAAAANAZT-1_20170110_230814/b/HK11/trustzone_images/core/securemsm/trustzone/qsapps/libs/applib/common_applib/build/sampleapp/A53_64/IADAANAA/tzapp_entrylib.lib(gpPersistObjCrypto.o)
                              /local/mnt/workspace/CRMBuilds/TZ.BF.4.0.3.c1-00005-M8996AAAAANAZT-1_20170110_230814/b/HK11/trustzone_images/core/securemsm/trustzone/qsapps/libs/applib/common_applib/build/sampleapp/A53_64/IADAANAA/tzapp_entrylib.lib(gpPersistObjData.o) (gpCrypto_Decrypt)
/local/mnt/workspace/CRMBuilds/TZ.BF.4.0.3.c1-00005-M8996AAAAANAZT-1_20170110_230814/b/HK11/trustzone_images/core/securemsm/trustzone/qsapps/libs/applib/common_applib/build/sampleapp/A53_64/IADAANAA/tzapp_entrylib.lib(gpPersistObjFileIO.o)
                              /local/mnt/workspace/CRMBuilds/TZ.BF.4.0.3.c1-00005-M8996AAAAANAZT-1_20170110_230814/b/HK11/trustzone_images/core/securemsm/trustzone/qsapps/libs/applib/common_applib/build/sampleapp/A53_64/IADAANAA/tzapp_entrylib.lib(gpPersistObjData.o) (gpFileIO_Read_File)
/local/mnt/workspace/CRMBuilds/TZ.BF.4.0.3.c1-00005-M8996AAAAANAZT-1_20170110_230814/b/HK11/trustzone_images/core/securemsm/trustzone/qsapps/libs/applib/common_applib/build/sampleapp/A53_64/IADAANAA/tzapp_entrylib.lib(gpFileService.o)
                              /local/mnt/workspace/CRMBuilds/TZ.BF.4.0.3.c1-00005-M8996AAAAANAZT-1_20170110_230814/b/HK11/trustzone_images/core/securemsm/trustzone/qsapps/libs/applib/common_applib/build/sampleapp/A53_64/IADAANAA/tzapp_entrylib.lib(gpPersistObjFileIO.o) (gpFileRead)
/local/mnt/workspace/CRMBuilds/TZ.BF.4.0.3.c1-00005-M8996AAAAANAZT-1_20170110_230814/b/HK11/trustzone_images/core/securemsm/trustzone/qsapps/libs/applib/qsee64/build/sampleapp/A53_64/IADAANAA/tzapp_entrylib.lib(qsee_cfg_prop_shim.o)
                              /local/mnt/workspace/CRMBuilds/TZ.BF.4.0.3.c1-00005-M8996AAAAANAZT-1_20170110_230814/b/HK11/trustzone_images/core/securemsm/trustzone/qsapps/libs/applib/common_applib/build/sampleapp/A53_64/IADAANAA/tzapp_entrylib.lib(gpPersistObjCommon.o) (qsee_cfg_getpropval)
/local/mnt/workspace/CRMBuilds/TZ.BF.4.0.3.c1-00005-M8996AAAAANAZT-1_20170110_230814/b/HK11/trustzone_images/core/securemsm/trustzone/qsapps/libs/applib/qsee64/build/sampleapp/A53_64/IADAANAA/tzapp_entrylib.lib(gpPersistObjPanic.o)
                              /local/mnt/workspace/CRMBuilds/TZ.BF.4.0.3.c1-00005-M8996AAAAANAZT-1_20170110_230814/b/HK11/trustzone_images/core/securemsm/trustzone/qsapps/libs/applib/common_applib/build/sampleapp/A53_64/IADAANAA/tzapp_entrylib.lib(gpPersistentObjects.o) (GPMemoryMgmt_verifyHandle)
/afs/localcell/cm/gv2.6/sysname/pkg.@sys/qct/software/llvm/release/arm/3.5.2.4/tools/lib64/lib/libc.a(strlcat.o)
                              /local/mnt/workspace/CRMBuilds/TZ.BF.4.0.3.c1-00005-M8996AAAAANAZT-1_20170110_230814/b/HK11/trustzone_images/core/securemsm/trustzone/qsapps/libs/applib/common_applib/build/sampleapp/A53_64/IADAANAA/tzapp_entrylib.lib(gpPersistObjCommon.o) (strlcat)
/local/mnt/workspace/CRMBuilds/TZ.BF.4.0.3.c1-00005-M8996AAAAANAZT-1_20170110_230814/b/HK11/trustzone_images/core/securemsm/sse/SecureTouch/controller/build/sampleapp/A53_64/IADAANAA/drts_controller_msm8996.lib(atmel_mxt_ts.o)
                              /local/mnt/workspace/CRMBuilds/TZ.BF.4.0.3.c1-00005-M8996AAAAANAZT-1_20170110_230814/b/HK11/trustzone_images/core/securemsm/sse/qsee/SecureTouch/drTs/lib/build/sampleapp/A53_64/IADAANAA/touch_lib.lib(01_open.o) (atmel_drTsClose)
/local/mnt/workspace/CRMBuilds/TZ.BF.4.0.3.c1-00005-M8996AAAAANAZT-1_20170110_230814/b/HK11/trustzone_images/core/securemsm/sse/SecureTouch/controller/build/sampleapp/A53_64/IADAANAA/drts_controller_msm8996.lib(synaptics_ts.o)
                              /local/mnt/workspace/CRMBuilds/TZ.BF.4.0.3.c1-00005-M8996AAAAANAZT-1_20170110_230814/b/HK11/trustzone_images/core/securemsm/sse/qsee/SecureTouch/drTs/lib/build/sampleapp/A53_64/IADAANAA/touch_lib.lib(01_open.o) (synaptics_drTsClose)
/local/mnt/workspace/CRMBuilds/TZ.BF.4.0.3.c1-00005-M8996AAAAANAZT-1_20170110_230814/b/HK11/trustzone_images/core/securemsm/sse/log/build/sampleapp/A53_64/IADAANAA/sselog.lib(sselog.o)
                              /local/mnt/workspace/CRMBuilds/TZ.BF.4.0.3.c1-00005-M8996AAAAANAZT-1_20170110_230814/b/HK11/trustzone_images/core/securemsm/sse/SecureTouch/controller/build/sampleapp/A53_64/IADAANAA/drts_controller_msm8996.lib(atmel_mxt_ts.o) (dumpHex)
/local/mnt/workspace/CRMBuilds/TZ.BF.4.0.3.c1-00005-M8996AAAAANAZT-1_20170110_230814/b/HK11/trustzone_images/core/securemsm/sse/qsee/SecureTouch/drTs/controller/build/sampleapp/A53_64/IADAANAA/touch_controller_i2c_msm8996.lib(atmel_mxt_ts_i2c.o)
                              /local/mnt/workspace/CRMBuilds/TZ.BF.4.0.3.c1-00005-M8996AAAAANAZT-1_20170110_230814/b/HK11/trustzone_images/core/securemsm/sse/SecureTouch/controller/build/sampleapp/A53_64/IADAANAA/drts_controller_msm8996.lib(atmel_mxt_ts.o) (atmel_i2cClose)
/local/mnt/workspace/CRMBuilds/TZ.BF.4.0.3.c1-00005-M8996AAAAANAZT-1_20170110_230814/b/HK11/trustzone_images/core/securemsm/sse/qsee/SecureTouch/drTs/controller/build/sampleapp/A53_64/IADAANAA/touch_controller_i2c_msm8996.lib(synaptics_ts_i2c.o)
                              /local/mnt/workspace/CRMBuilds/TZ.BF.4.0.3.c1-00005-M8996AAAAANAZT-1_20170110_230814/b/HK11/trustzone_images/core/securemsm/sse/SecureTouch/controller/build/sampleapp/A53_64/IADAANAA/drts_controller_msm8996.lib(synaptics_ts.o) (synaptics_i2cClose)
/afs/localcell/cm/gv2.6/sysname/pkg.@sys/qct/software/llvm/release/arm/3.5.2.4/tools/lib64/lib/libc.a(snprintf.o)
                              /local/mnt/workspace/CRMBuilds/TZ.BF.4.0.3.c1-00005-M8996AAAAANAZT-1_20170110_230814/b/HK11/trustzone_images/core/securemsm/sse/log/build/sampleapp/A53_64/IADAANAA/sselog.lib(sselog.o) (snprintf)

Allocating common symbols
Common symbol       size              file

apps_request_resp   0x28              /local/mnt/workspace/CRMBuilds/TZ.BF.4.0.3.c1-00005-M8996AAAAANAZT-1_20170110_230814/b/HK11/trustzone_images/core/securemsm/trustzone/qsapps/libs/applib/common_applib/build/sampleapp/A53_64/IADAANAA/tzapp_entrylib.lib(common_applib.o)
red_dot             0x28              /local/mnt/workspace/CRMBuilds/TZ.BF.4.0.3.c1-00005-M8996AAAAANAZT-1_20170110_230814/b/HK11/trustzone_images/core/securemsm/trustzone/qsapps/smplap64/build/sampleapp/A53_64/IADAANAA/app_secure_ui.o
aes_large_plain_text2
                    0x8000            /local/mnt/workspace/CRMBuilds/TZ.BF.4.0.3.c1-00005-M8996AAAAANAZT-1_20170110_230814/b/HK11/trustzone_images/core/securemsm/trustzone/qsapps/smplap64/build/sampleapp/A53_64/IADAANAA/app_crypto.o
__hwcap             0x8               /afs/localcell/cm/gv2.6/sysname/pkg.@sys/qct/software/llvm/release/arm/3.5.2.4/tools/lib64/lib/libc.a(libc.o)
__libc              0x38              /afs/localcell/cm/gv2.6/sysname/pkg.@sys/qct/software/llvm/release/arm/3.5.2.4/tools/lib64/lib/libc.a(libc.o)
gClientInfo         0x1c              /local/mnt/workspace/CRMBuilds/TZ.BF.4.0.3.c1-00005-M8996AAAAANAZT-1_20170110_230814/b/HK11/trustzone_images/core/securemsm/trustzone/qsapps/smplap64/build/sampleapp/A53_64/IADAANAA/app_stor.o
aes_large_cipher_text2
                    0x8400            /local/mnt/workspace/CRMBuilds/TZ.BF.4.0.3.c1-00005-M8996AAAAANAZT-1_20170110_230814/b/HK11/trustzone_images/core/securemsm/trustzone/qsapps/smplap64/build/sampleapp/A53_64/IADAANAA/app_crypto.o
green_dot           0x28              /local/mnt/workspace/CRMBuilds/TZ.BF.4.0.3.c1-00005-M8996AAAAANAZT-1_20170110_230814/b/HK11/trustzone_images/core/securemsm/trustzone/qsapps/smplap64/build/sampleapp/A53_64/IADAANAA/app_secure_ui.o
aes_large_plain_text_1
                    0x400             /local/mnt/workspace/CRMBuilds/TZ.BF.4.0.3.c1-00005-M8996AAAAANAZT-1_20170110_230814/b/HK11/trustzone_images/core/securemsm/trustzone/qsapps/smplap64/build/sampleapp/A53_64/IADAANAA/app_crypto.o
cipher_key          0x10              /local/mnt/workspace/CRMBuilds/TZ.BF.4.0.3.c1-00005-M8996AAAAANAZT-1_20170110_230814/b/HK11/trustzone_images/core/securemsm/trustzone/qsapps/smplap64/build/sampleapp/A53_64/IADAANAA/app_cmnlib.o
aes_performance     0x8000            /local/mnt/workspace/CRMBuilds/TZ.BF.4.0.3.c1-00005-M8996AAAAANAZT-1_20170110_230814/b/HK11/trustzone_images/core/securemsm/trustzone/qsapps/smplap64/build/sampleapp/A53_64/IADAANAA/app_crypto.o
image_dot           0x28              /local/mnt/workspace/CRMBuilds/TZ.BF.4.0.3.c1-00005-M8996AAAAANAZT-1_20170110_230814/b/HK11/trustzone_images/core/securemsm/trustzone/qsapps/smplap64/build/sampleapp/A53_64/IADAANAA/app_secure_ui.o
aes_large_cipher_text3
                    0x8400            /local/mnt/workspace/CRMBuilds/TZ.BF.4.0.3.c1-00005-M8996AAAAANAZT-1_20170110_230814/b/HK11/trustzone_images/core/securemsm/trustzone/qsapps/smplap64/build/sampleapp/A53_64/IADAANAA/app_crypto.o
__sysinfo           0x8               /afs/localcell/cm/gv2.6/sysname/pkg.@sys/qct/software/llvm/release/arm/3.5.2.4/tools/lib64/lib/libc.a(libc.o)
aes_large_cipher_text_1
                    0x400             /local/mnt/workspace/CRMBuilds/TZ.BF.4.0.3.c1-00005-M8996AAAAANAZT-1_20170110_230814/b/HK11/trustzone_images/core/securemsm/trustzone/qsapps/smplap64/build/sampleapp/A53_64/IADAANAA/app_crypto.o

Discarded input sections

 .text          0x0000000000000000        0x0 /local/mnt/workspace/CRMBuilds/TZ.BF.4.0.3.c1-00005-M8996AAAAANAZT-1_20170110_230814/b/HK11/trustzone_images/core/securemsm/trustzone/qsapps/libs/applib/qsee64/build/sampleapp/A53_64/IADAANAA/qsee64/src/tzapp_entry.o
 .data          0x0000000000000000        0x0 /local/mnt/workspace/CRMBuilds/TZ.BF.4.0.3.c1-00005-M8996AAAAANAZT-1_20170110_230814/b/HK11/trustzone_images/core/securemsm/trustzone/qsapps/libs/applib/qsee64/build/sampleapp/A53_64/IADAANAA/qsee64/src/tzapp_entry.o
 .bss           0x0000000000000000        0x0 /local/mnt/workspace/CRMBuilds/TZ.BF.4.0.3.c1-00005-M8996AAAAANAZT-1_20170110_230814/b/HK11/trustzone_images/core/securemsm/trustzone/qsapps/libs/applib/qsee64/build/sampleapp/A53_64/IADAANAA/qsee64/src/tzapp_entry.o
 .data          0x0000000000000000        0x0 /local/mnt/workspace/CRMBuilds/TZ.BF.4.0.3.c1-00005-M8996AAAAANAZT-1_20170110_230814/b/HK11/trustzone_images/core/securemsm/trustzone/qsapps/smplap64/build/sampleapp/A53_64/IADAANAA/app_main.o
 .bss           0x0000000000000000        0x0 /local/mnt/workspace/CRMBuilds/TZ.BF.4.0.3.c1-00005-M8996AAAAANAZT-1_20170110_230814/b/HK11/trustzone_images/core/securemsm/trustzone/qsapps/smplap64/build/sampleapp/A53_64/IADAANAA/app_smplserv_test.o
 .bss           0x0000000000000000        0x0 /local/mnt/workspace/CRMBuilds/TZ.BF.4.0.3.c1-00005-M8996AAAAANAZT-1_20170110_230814/b/HK11/trustzone_images/core/securemsm/trustzone/qsapps/smplap64/build/sampleapp/A53_64/IADAANAA/app_smplcert_test.o
 .data          0x0000000000000000        0x0 /local/mnt/workspace/CRMBuilds/TZ.BF.4.0.3.c1-00005-M8996AAAAANAZT-1_20170110_230814/b/HK11/trustzone_images/core/securemsm/trustzone/qsapps/smplap64/build/sampleapp/A53_64/IADAANAA/app_sfs.o
 .bss           0x0000000000000000        0x0 /local/mnt/workspace/CRMBuilds/TZ.BF.4.0.3.c1-00005-M8996AAAAANAZT-1_20170110_230814/b/HK11/trustzone_images/core/securemsm/trustzone/qsapps/smplap64/build/sampleapp/A53_64/IADAANAA/app_sfs.o
 .rodata        0x0000000000000000        0x5 /local/mnt/workspace/CRMBuilds/TZ.BF.4.0.3.c1-00005-M8996AAAAANAZT-1_20170110_230814/b/HK11/trustzone_images/core/securemsm/trustzone/qsapps/smplap64/build/sampleapp/A53_64/IADAANAA/app_rsa.o
 .data          0x0000000000000000        0x0 /local/mnt/workspace/CRMBuilds/TZ.BF.4.0.3.c1-00005-M8996AAAAANAZT-1_20170110_230814/b/HK11/trustzone_images/core/securemsm/trustzone/qsapps/smplap64/build/sampleapp/A53_64/IADAANAA/qsee_api_tests.o
 .bss           0x0000000000000000        0x0 /local/mnt/workspace/CRMBuilds/TZ.BF.4.0.3.c1-00005-M8996AAAAANAZT-1_20170110_230814/b/HK11/trustzone_images/core/securemsm/trustzone/qsapps/smplap64/build/sampleapp/A53_64/IADAANAA/app_cmnlib.o
 .rodata        0x0000000000000000        0x5 /local/mnt/workspace/CRMBuilds/TZ.BF.4.0.3.c1-00005-M8996AAAAANAZT-1_20170110_230814/b/HK11/trustzone_images/core/securemsm/trustzone/qsapps/smplap64/build/sampleapp/A53_64/IADAANAA/app_cmnlib.o
 .data          0x0000000000000000        0x0 /local/mnt/workspace/CRMBuilds/TZ.BF.4.0.3.c1-00005-M8996AAAAANAZT-1_20170110_230814/b/HK11/trustzone_images/core/securemsm/trustzone/qsapps/smplap64/build/sampleapp/A53_64/IADAANAA/app_message_passing.o
 .bss           0x0000000000000000        0x0 /local/mnt/workspace/CRMBuilds/TZ.BF.4.0.3.c1-00005-M8996AAAAANAZT-1_20170110_230814/b/HK11/trustzone_images/core/securemsm/trustzone/qsapps/smplap64/build/sampleapp/A53_64/IADAANAA/app_message_passing.o
 .data          0x0000000000000000        0x0 /local/mnt/workspace/CRMBuilds/TZ.BF.4.0.3.c1-00005-M8996AAAAANAZT-1_20170110_230814/b/HK11/trustzone_images/core/securemsm/trustzone/qsapps/smplap64/build/sampleapp/A53_64/IADAANAA/app_fuses.o
 .bss           0x0000000000000000        0x0 /local/mnt/workspace/CRMBuilds/TZ.BF.4.0.3.c1-00005-M8996AAAAANAZT-1_20170110_230814/b/HK11/trustzone_images/core/securemsm/trustzone/qsapps/smplap64/build/sampleapp/A53_64/IADAANAA/app_fuses.o
 .data          0x0000000000000000        0x0 /local/mnt/workspace/CRMBuilds/TZ.BF.4.0.3.c1-00005-M8996AAAAANAZT-1_20170110_230814/b/HK11/trustzone_images/core/securemsm/trustzone/qsapps/smplap64/build/sampleapp/A53_64/IADAANAA/app_content_protection.o
 .bss           0x0000000000000000        0x0 /local/mnt/workspace/CRMBuilds/TZ.BF.4.0.3.c1-00005-M8996AAAAANAZT-1_20170110_230814/b/HK11/trustzone_images/core/securemsm/trustzone/qsapps/smplap64/build/sampleapp/A53_64/IADAANAA/app_content_protection.o
 .data          0x0000000000000000        0x0 /local/mnt/workspace/CRMBuilds/TZ.BF.4.0.3.c1-00005-M8996AAAAANAZT-1_20170110_230814/b/HK11/trustzone_images/core/securemsm/trustzone/qsapps/smplap64/build/sampleapp/A53_64/IADAANAA/app_secure_ui.o
 .data          0x0000000000000000        0x0 /local/mnt/workspace/CRMBuilds/TZ.BF.4.0.3.c1-00005-M8996AAAAANAZT-1_20170110_230814/b/HK11/trustzone_images/core/securemsm/trustzone/qsapps/smplap64/build/sampleapp/A53_64/IADAANAA/app_bulletin_board.o
 .text          0x0000000000000000        0x0 /local/mnt/workspace/CRMBuilds/TZ.BF.4.0.3.c1-00005-M8996AAAAANAZT-1_20170110_230814/b/HK11/trustzone_images/core/securemsm/trustzone/qsapps/smplap64/build/sampleapp/A53_64/IADAANAA/metadata.o
 .data          0x0000000000000000        0x0 /local/mnt/workspace/CRMBuilds/TZ.BF.4.0.3.c1-00005-M8996AAAAANAZT-1_20170110_230814/b/HK11/trustzone_images/core/securemsm/trustzone/qsapps/smplap64/build/sampleapp/A53_64/IADAANAA/metadata.o
 .data          0x0000000000000000        0x0 /local/mnt/workspace/CRMBuilds/TZ.BF.4.0.3.c1-00005-M8996AAAAANAZT-1_20170110_230814/b/HK11/trustzone_images/core/kernel/libstd/build/sampleapp/A53_64/IADAANAA/libstd.lib(memscpy.o)
 .bss           0x0000000000000000        0x0 /local/mnt/workspace/CRMBuilds/TZ.BF.4.0.3.c1-00005-M8996AAAAANAZT-1_20170110_230814/b/HK11/trustzone_images/core/kernel/libstd/build/sampleapp/A53_64/IADAANAA/libstd.lib(memscpy.o)
 .data          0x0000000000000000        0x0 /local/mnt/workspace/CRMBuilds/TZ.BF.4.0.3.c1-00005-M8996AAAAANAZT-1_20170110_230814/b/HK11/trustzone_images/core/kernel/libstd/build/sampleapp/A53_64/IADAANAA/libstd.lib(strlcpy.o)
 .bss           0x0000000000000000        0x0 /local/mnt/workspace/CRMBuilds/TZ.BF.4.0.3.c1-00005-M8996AAAAANAZT-1_20170110_230814/b/HK11/trustzone_images/core/kernel/libstd/build/sampleapp/A53_64/IADAANAA/libstd.lib(strlcpy.o)
 .data          0x0000000000000000        0x0 /local/mnt/workspace/CRMBuilds/TZ.BF.4.0.3.c1-00005-M8996AAAAANAZT-1_20170110_230814/b/HK11/trustzone_images/core/kernel/libstd/build/sampleapp/A53_64/IADAANAA/libstd.lib(secure_memset.o)
 .bss           0x0000000000000000        0x0 /local/mnt/workspace/CRMBuilds/TZ.BF.4.0.3.c1-00005-M8996AAAAANAZT-1_20170110_230814/b/HK11/trustzone_images/core/kernel/libstd/build/sampleapp/A53_64/IADAANAA/libstd.lib(secure_memset.o)
 .data          0x0000000000000000        0x0 /local/mnt/workspace/CRMBuilds/TZ.BF.4.0.3.c1-00005-M8996AAAAANAZT-1_20170110_230814/b/HK11/trustzone_images/core/kernel/libstd/build/sampleapp/A53_64/IADAANAA/libstd.lib(timesafe_memcmp.o)
 .bss           0x0000000000000000        0x0 /local/mnt/workspace/CRMBuilds/TZ.BF.4.0.3.c1-00005-M8996AAAAANAZT-1_20170110_230814/b/HK11/trustzone_images/core/kernel/libstd/build/sampleapp/A53_64/IADAANAA/libstd.lib(timesafe_memcmp.o)
 .data          0x0000000000000000        0x0 /local/mnt/workspace/CRMBuilds/TZ.BF.4.0.3.c1-00005-M8996AAAAANAZT-1_20170110_230814/b/HK11/trustzone_images/core/kernel/libstd/build/sampleapp/A53_64/IADAANAA/libstd.lib(timesafe_strncmp.o)
 .bss           0x0000000000000000        0x0 /local/mnt/workspace/CRMBuilds/TZ.BF.4.0.3.c1-00005-M8996AAAAANAZT-1_20170110_230814/b/HK11/trustzone_images/core/kernel/libstd/build/sampleapp/A53_64/IADAANAA/libstd.lib(timesafe_strncmp.o)
 .data          0x0000000000000000        0x0 /local/mnt/workspace/CRMBuilds/TZ.BF.4.0.3.c1-00005-M8996AAAAANAZT-1_20170110_230814/b/HK11/trustzone_images/core/securemsm/sse/qsee/SecureUILib/lib/build/sampleapp/A53_64/IADAANAA/secure_ui_lib.lib(01_startTouch.o)
 .bss           0x0000000000000000        0x0 /local/mnt/workspace/CRMBuilds/TZ.BF.4.0.3.c1-00005-M8996AAAAANAZT-1_20170110_230814/b/HK11/trustzone_images/core/securemsm/sse/qsee/SecureUILib/lib/build/sampleapp/A53_64/IADAANAA/secure_ui_lib.lib(01_startTouch.o)
 .data          0x0000000000000000        0x0 /local/mnt/workspace/CRMBuilds/TZ.BF.4.0.3.c1-00005-M8996AAAAANAZT-1_20170110_230814/b/HK11/trustzone_images/core/securemsm/sse/qsee/SecureUILib/lib/build/sampleapp/A53_64/IADAANAA/secure_ui_lib.lib(02_processTouch.o)
 .bss           0x0000000000000000        0x0 /local/mnt/workspace/CRMBuilds/TZ.BF.4.0.3.c1-00005-M8996AAAAANAZT-1_20170110_230814/b/HK11/trustzone_images/core/securemsm/sse/qsee/SecureUILib/lib/build/sampleapp/A53_64/IADAANAA/secure_ui_lib.lib(02_processTouch.o)
 .data          0x0000000000000000        0x0 /local/mnt/workspace/CRMBuilds/TZ.BF.4.0.3.c1-00005-M8996AAAAANAZT-1_20170110_230814/b/HK11/trustzone_images/core/securemsm/sse/qsee/SecureUILib/lib/build/sampleapp/A53_64/IADAANAA/secure_ui_lib.lib(03_stopTouch.o)
 .bss           0x0000000000000000        0x0 /local/mnt/workspace/CRMBuilds/TZ.BF.4.0.3.c1-00005-M8996AAAAANAZT-1_20170110_230814/b/HK11/trustzone_images/core/securemsm/sse/qsee/SecureUILib/lib/build/sampleapp/A53_64/IADAANAA/secure_ui_lib.lib(03_stopTouch.o)
 .group         0x0000000000000000        0x8 /local/mnt/workspace/CRMBuilds/TZ.BF.4.0.3.c1-00005-M8996AAAAANAZT-1_20170110_230814/b/HK11/trustzone_images/core/securemsm/trustzone/qsapps/libs/applib/common_applib/build/sampleapp/A53_64/IADAANAA/tzapp_entrylib.lib(common_applib.o)
 .data          0x0000000000000000        0x0 /local/mnt/workspace/CRMBuilds/TZ.BF.4.0.3.c1-00005-M8996AAAAANAZT-1_20170110_230814/b/HK11/trustzone_images/core/securemsm/trustzone/qsapps/libs/applib/proxy/build/sampleapp/A53_64/IADAANAA/tzlib_proxy.lib(prxy_services.o)
 .bss           0x0000000000000000        0x0 /local/mnt/workspace/CRMBuilds/TZ.BF.4.0.3.c1-00005-M8996AAAAANAZT-1_20170110_230814/b/HK11/trustzone_images/core/securemsm/trustzone/qsapps/libs/applib/proxy/build/sampleapp/A53_64/IADAANAA/tzlib_proxy.lib(prxy_services.o)
 .data          0x0000000000000000        0x0 /local/mnt/workspace/CRMBuilds/TZ.BF.4.0.3.c1-00005-M8996AAAAANAZT-1_20170110_230814/b/HK11/trustzone_images/core/securemsm/trustzone/qsapps/libs/applib/proxy/build/sampleapp/A53_64/IADAANAA/tzlib_proxy.lib(prxy_qsee_shim.o)
 .bss           0x0000000000000000        0x0 /local/mnt/workspace/CRMBuilds/TZ.BF.4.0.3.c1-00005-M8996AAAAANAZT-1_20170110_230814/b/HK11/trustzone_images/core/securemsm/trustzone/qsapps/libs/applib/proxy/build/sampleapp/A53_64/IADAANAA/tzlib_proxy.lib(prxy_qsee_shim.o)
 .data          0x0000000000000000        0x0 /local/mnt/workspace/CRMBuilds/TZ.BF.4.0.3.c1-00005-M8996AAAAANAZT-1_20170110_230814/b/HK11/trustzone_images/core/securemsm/trustzone/qsapps/libs/applib/proxy/build/sampleapp/A53_64/IADAANAA/tzlib_proxy.lib(prxy_ufaes.o)
 .bss           0x0000000000000000        0x0 /local/mnt/workspace/CRMBuilds/TZ.BF.4.0.3.c1-00005-M8996AAAAANAZT-1_20170110_230814/b/HK11/trustzone_images/core/securemsm/trustzone/qsapps/libs/applib/proxy/build/sampleapp/A53_64/IADAANAA/tzlib_proxy.lib(prxy_ufaes.o)
 .data          0x0000000000000000        0x0 /local/mnt/workspace/CRMBuilds/TZ.BF.4.0.3.c1-00005-M8996AAAAANAZT-1_20170110_230814/b/HK11/trustzone_images/core/securemsm/trustzone/qsapps/libs/applib/proxy/build/sampleapp/A53_64/IADAANAA/tzlib_proxy.lib(prxy_ufdes.o)
 .bss           0x0000000000000000        0x0 /local/mnt/workspace/CRMBuilds/TZ.BF.4.0.3.c1-00005-M8996AAAAANAZT-1_20170110_230814/b/HK11/trustzone_images/core/securemsm/trustzone/qsapps/libs/applib/proxy/build/sampleapp/A53_64/IADAANAA/tzlib_proxy.lib(prxy_ufdes.o)
 .data          0x0000000000000000        0x0 /local/mnt/workspace/CRMBuilds/TZ.BF.4.0.3.c1-00005-M8996AAAAANAZT-1_20170110_230814/b/HK11/trustzone_images/core/securemsm/trustzone/qsapps/libs/applib/proxy/build/sampleapp/A53_64/IADAANAA/tzlib_proxy.lib(prxy_ufsha.o)
 .bss           0x0000000000000000        0x0 /local/mnt/workspace/CRMBuilds/TZ.BF.4.0.3.c1-00005-M8996AAAAANAZT-1_20170110_230814/b/HK11/trustzone_images/core/securemsm/trustzone/qsapps/libs/applib/proxy/build/sampleapp/A53_64/IADAANAA/tzlib_proxy.lib(prxy_ufsha.o)
 .data          0x0000000000000000        0x0 /local/mnt/workspace/CRMBuilds/TZ.BF.4.0.3.c1-00005-M8996AAAAANAZT-1_20170110_230814/b/HK11/trustzone_images/core/securemsm/trustzone/qsapps/libs/applib/proxy/build/sampleapp/A53_64/IADAANAA/tzlib_proxy.lib(prxy_secmath.o)
 .bss           0x0000000000000000        0x0 /local/mnt/workspace/CRMBuilds/TZ.BF.4.0.3.c1-00005-M8996AAAAANAZT-1_20170110_230814/b/HK11/trustzone_images/core/securemsm/trustzone/qsapps/libs/applib/proxy/build/sampleapp/A53_64/IADAANAA/tzlib_proxy.lib(prxy_secmath.o)
 .data          0x0000000000000000        0x0 /local/mnt/workspace/CRMBuilds/TZ.BF.4.0.3.c1-00005-M8996AAAAANAZT-1_20170110_230814/b/HK11/trustzone_images/core/securemsm/trustzone/qsapps/libs/applib/proxy/build/sampleapp/A53_64/IADAANAA/tzlib_proxy.lib(prxy_secrsa.o)
 .bss           0x0000000000000000        0x0 /local/mnt/workspace/CRMBuilds/TZ.BF.4.0.3.c1-00005-M8996AAAAANAZT-1_20170110_230814/b/HK11/trustzone_images/core/securemsm/trustzone/qsapps/libs/applib/proxy/build/sampleapp/A53_64/IADAANAA/tzlib_proxy.lib(prxy_secrsa.o)
 .data          0x0000000000000000        0x0 /local/mnt/workspace/CRMBuilds/TZ.BF.4.0.3.c1-00005-M8996AAAAANAZT-1_20170110_230814/b/HK11/trustzone_images/core/securemsm/trustzone/qsapps/libs/applib/proxy/build/sampleapp/A53_64/IADAANAA/tzlib_proxy.lib(prxy_ecc.o)
 .bss           0x0000000000000000        0x0 /local/mnt/workspace/CRMBuilds/TZ.BF.4.0.3.c1-00005-M8996AAAAANAZT-1_20170110_230814/b/HK11/trustzone_images/core/securemsm/trustzone/qsapps/libs/applib/proxy/build/sampleapp/A53_64/IADAANAA/tzlib_proxy.lib(prxy_ecc.o)
 .data          0x0000000000000000        0x0 /local/mnt/workspace/CRMBuilds/TZ.BF.4.0.3.c1-00005-M8996AAAAANAZT-1_20170110_230814/b/HK11/trustzone_images/core/securemsm/trustzone/qsapps/libs/applib/qsee64/build/sampleapp/A53_64/IADAANAA/tzapp_entrylib.lib(mink_shared_code.o)
 .bss           0x0000000000000000        0x0 /local/mnt/workspace/CRMBuilds/TZ.BF.4.0.3.c1-00005-M8996AAAAANAZT-1_20170110_230814/b/HK11/trustzone_images/core/securemsm/trustzone/qsapps/libs/applib/qsee64/build/sampleapp/A53_64/IADAANAA/tzapp_entrylib.lib(mink_shared_code.o)
 .data          0x0000000000000000        0x0 /local/mnt/workspace/CRMBuilds/TZ.BF.4.0.3.c1-00005-M8996AAAAANAZT-1_20170110_230814/b/HK11/trustzone_images/core/securemsm/trustzone/qsapps/libs/applib/qsee64/build/sampleapp/A53_64/IADAANAA/tzapp_entrylib.lib(qsee_env.o)
 .data          0x0000000000000000        0x0 /local/mnt/workspace/CRMBuilds/TZ.BF.4.0.3.c1-00005-M8996AAAAANAZT-1_20170110_230814/b/HK11/trustzone_images/core/securemsm/trustzone/qsapps/libs/applib/qsee64/build/sampleapp/A53_64/IADAANAA/tzapp_entrylib.lib(qsee_core_shim.o)
 .bss           0x0000000000000000        0x0 /local/mnt/workspace/CRMBuilds/TZ.BF.4.0.3.c1-00005-M8996AAAAANAZT-1_20170110_230814/b/HK11/trustzone_images/core/securemsm/trustzone/qsapps/libs/applib/qsee64/build/sampleapp/A53_64/IADAANAA/tzapp_entrylib.lib(qsee_core_shim.o)
 .data          0x0000000000000000        0x0 /local/mnt/workspace/CRMBuilds/TZ.BF.4.0.3.c1-00005-M8996AAAAANAZT-1_20170110_230814/b/HK11/trustzone_images/core/securemsm/trustzone/qsapps/libs/applib/qsee64/build/sampleapp/A53_64/IADAANAA/tzapp_entrylib.lib(qsee_deviceid.o)
 .bss           0x0000000000000000        0x0 /local/mnt/workspace/CRMBuilds/TZ.BF.4.0.3.c1-00005-M8996AAAAANAZT-1_20170110_230814/b/HK11/trustzone_images/core/securemsm/trustzone/qsapps/libs/applib/qsee64/build/sampleapp/A53_64/IADAANAA/tzapp_entrylib.lib(qsee_deviceid.o)
 .data          0x0000000000000000        0x0 /local/mnt/workspace/CRMBuilds/TZ.BF.4.0.3.c1-00005-M8996AAAAANAZT-1_20170110_230814/b/HK11/trustzone_images/core/securemsm/trustzone/qsapps/libs/applib/qsee64/build/sampleapp/A53_64/IADAANAA/tzapp_entrylib.lib(qsee_prng.o)
 .bss           0x0000000000000000        0x0 /local/mnt/workspace/CRMBuilds/TZ.BF.4.0.3.c1-00005-M8996AAAAANAZT-1_20170110_230814/b/HK11/trustzone_images/core/securemsm/trustzone/qsapps/libs/applib/qsee64/build/sampleapp/A53_64/IADAANAA/tzapp_entrylib.lib(qsee_prng.o)
 .data          0x0000000000000000        0x0 /local/mnt/workspace/CRMBuilds/TZ.BF.4.0.3.c1-00005-M8996AAAAANAZT-1_20170110_230814/b/HK11/trustzone_images/core/securemsm/trustzone/qsapps/libs/applib/qsee64/build/sampleapp/A53_64/IADAANAA/tzapp_entrylib.lib(qsee_secdisp.o)
 .bss           0x0000000000000000        0x0 /local/mnt/workspace/CRMBuilds/TZ.BF.4.0.3.c1-00005-M8996AAAAANAZT-1_20170110_230814/b/HK11/trustzone_images/core/securemsm/trustzone/qsapps/libs/applib/qsee64/build/sampleapp/A53_64/IADAANAA/tzapp_entrylib.lib(qsee_secdisp.o)
 .data          0x0000000000000000        0x0 /local/mnt/workspace/CRMBuilds/TZ.BF.4.0.3.c1-00005-M8996AAAAANAZT-1_20170110_230814/b/HK11/trustzone_images/core/securemsm/trustzone/qsapps/libs/applib/qsee64/build/sampleapp/A53_64/IADAANAA/tzapp_entrylib.lib(qsee_nsmem.o)
 .bss           0x0000000000000000        0x0 /local/mnt/workspace/CRMBuilds/TZ.BF.4.0.3.c1-00005-M8996AAAAANAZT-1_20170110_230814/b/HK11/trustzone_images/core/securemsm/trustzone/qsapps/libs/applib/qsee64/build/sampleapp/A53_64/IADAANAA/tzapp_entrylib.lib(qsee_nsmem.o)
 .data          0x0000000000000000        0x0 /local/mnt/workspace/CRMBuilds/TZ.BF.4.0.3.c1-00005-M8996AAAAANAZT-1_20170110_230814/b/HK11/trustzone_images/core/securemsm/trustzone/qsapps/libs/applib/qsee64/build/sampleapp/A53_64/IADAANAA/tzapp_entrylib.lib(qsee_cmac.o)
 .bss           0x0000000000000000        0x0 /local/mnt/workspace/CRMBuilds/TZ.BF.4.0.3.c1-00005-M8996AAAAANAZT-1_20170110_230814/b/HK11/trustzone_images/core/securemsm/trustzone/qsapps/libs/applib/qsee64/build/sampleapp/A53_64/IADAANAA/tzapp_entrylib.lib(qsee_cmac.o)
 .data          0x0000000000000000        0x0 /local/mnt/workspace/CRMBuilds/TZ.BF.4.0.3.c1-00005-M8996AAAAANAZT-1_20170110_230814/b/HK11/trustzone_images/core/securemsm/trustzone/qsapps/libs/applib/qsee64/build/sampleapp/A53_64/IADAANAA/tzapp_entrylib.lib(qsee_crypto_shim.o)
 .bss           0x0000000000000000        0x0 /local/mnt/workspace/CRMBuilds/TZ.BF.4.0.3.c1-00005-M8996AAAAANAZT-1_20170110_230814/b/HK11/trustzone_images/core/securemsm/trustzone/qsapps/libs/applib/qsee64/build/sampleapp/A53_64/IADAANAA/tzapp_entrylib.lib(qsee_crypto_shim.o)
 .data          0x0000000000000000        0x0 /local/mnt/workspace/CRMBuilds/TZ.BF.4.0.3.c1-00005-M8996AAAAANAZT-1_20170110_230814/b/HK11/trustzone_images/core/securemsm/trustzone/qsapps/libs/applib/qsee64/build/sampleapp/A53_64/IADAANAA/tzapp_entrylib.lib(qsee_timer_shim.o)
 .bss           0x0000000000000000        0x0 /local/mnt/workspace/CRMBuilds/TZ.BF.4.0.3.c1-00005-M8996AAAAANAZT-1_20170110_230814/b/HK11/trustzone_images/core/securemsm/trustzone/qsapps/libs/applib/qsee64/build/sampleapp/A53_64/IADAANAA/tzapp_entrylib.lib(qsee_timer_shim.o)
 .text          0x0000000000000000        0x0 /local/mnt/workspace/CRMBuilds/TZ.BF.4.0.3.c1-00005-M8996AAAAANAZT-1_20170110_230814/b/HK11/trustzone_images/core/securemsm/trustzone/qsapps/libs/applib/qsee64/build/sampleapp/A53_64/IADAANAA/tzapp_entrylib.lib(tzapp_syscall.o)
 .data          0x0000000000000000        0x0 /local/mnt/workspace/CRMBuilds/TZ.BF.4.0.3.c1-00005-M8996AAAAANAZT-1_20170110_230814/b/HK11/trustzone_images/core/securemsm/trustzone/qsapps/libs/applib/qsee64/build/sampleapp/A53_64/IADAANAA/tzapp_entrylib.lib(tzapp_syscall.o)
 .bss           0x0000000000000000        0x0 /local/mnt/workspace/CRMBuilds/TZ.BF.4.0.3.c1-00005-M8996AAAAANAZT-1_20170110_230814/b/HK11/trustzone_images/core/securemsm/trustzone/qsapps/libs/applib/qsee64/build/sampleapp/A53_64/IADAANAA/tzapp_entrylib.lib(tzapp_syscall.o)
 .data          0x0000000000000000        0x0 /local/mnt/workspace/CRMBuilds/TZ.BF.4.0.3.c1-00005-M8996AAAAANAZT-1_20170110_230814/b/HK11/trustzone_images/core/securemsm/trustzone/qsapps/libs/applib/qsee64/build/sampleapp/A53_64/IADAANAA/tzapp_entrylib.lib(qsee_comstr.o)
 .bss           0x0000000000000000        0x0 /local/mnt/workspace/CRMBuilds/TZ.BF.4.0.3.c1-00005-M8996AAAAANAZT-1_20170110_230814/b/HK11/trustzone_images/core/securemsm/trustzone/qsapps/libs/applib/qsee64/build/sampleapp/A53_64/IADAANAA/tzapp_entrylib.lib(qsee_comstr.o)
 .data          0x0000000000000000        0x0 /local/mnt/workspace/CRMBuilds/TZ.BF.4.0.3.c1-00005-M8996AAAAANAZT-1_20170110_230814/b/HK11/trustzone_images/core/securemsm/trustzone/qsapps/libs/applib/qsee64/build/sampleapp/A53_64/IADAANAA/tzapp_entrylib.lib(stor.o)
 .bss           0x0000000000000000        0x0 /local/mnt/workspace/CRMBuilds/TZ.BF.4.0.3.c1-00005-M8996AAAAANAZT-1_20170110_230814/b/HK11/trustzone_images/core/securemsm/trustzone/qsapps/libs/applib/qsee64/build/sampleapp/A53_64/IADAANAA/tzapp_entrylib.lib(stor.o)
 .data          0x0000000000000000        0x0 /local/mnt/workspace/CRMBuilds/TZ.BF.4.0.3.c1-00005-M8996AAAAANAZT-1_20170110_230814/b/HK11/trustzone_images/core/securemsm/trustzone/qsapps/libs/applib/qsee64/build/sampleapp/A53_64/IADAANAA/tzapp_entrylib.lib(stor_rpmbw.o)
 .bss           0x0000000000000000        0x0 /local/mnt/workspace/CRMBuilds/TZ.BF.4.0.3.c1-00005-M8996AAAAANAZT-1_20170110_230814/b/HK11/trustzone_images/core/securemsm/trustzone/qsapps/libs/applib/qsee64/build/sampleapp/A53_64/IADAANAA/tzapp_entrylib.lib(stor_rpmbw.o)
 .data          0x0000000000000000        0x0 /local/mnt/workspace/CRMBuilds/TZ.BF.4.0.3.c1-00005-M8996AAAAANAZT-1_20170110_230814/b/HK11/trustzone_images/core/securemsm/trustzone/qsapps/libs/applib/qsee64/build/sampleapp/A53_64/IADAANAA/tzapp_entrylib.lib(qsee_counter_shim.o)
 .bss           0x0000000000000000        0x0 /local/mnt/workspace/CRMBuilds/TZ.BF.4.0.3.c1-00005-M8996AAAAANAZT-1_20170110_230814/b/HK11/trustzone_images/core/securemsm/trustzone/qsapps/libs/applib/qsee64/build/sampleapp/A53_64/IADAANAA/tzapp_entrylib.lib(qsee_counter_shim.o)
 .data          0x0000000000000000        0x0 /local/mnt/workspace/CRMBuilds/TZ.BF.4.0.3.c1-00005-M8996AAAAANAZT-1_20170110_230814/b/HK11/trustzone_images/core/securemsm/trustzone/qsapps/libs/applib/qsee64/build/sampleapp/A53_64/IADAANAA/tzapp_entrylib.lib(qsee_cipher.o)
 .bss           0x0000000000000000        0x0 /local/mnt/workspace/CRMBuilds/TZ.BF.4.0.3.c1-00005-M8996AAAAANAZT-1_20170110_230814/b/HK11/trustzone_images/core/securemsm/trustzone/qsapps/libs/applib/qsee64/build/sampleapp/A53_64/IADAANAA/tzapp_entrylib.lib(qsee_cipher.o)
 .data          0x0000000000000000        0x0 /local/mnt/workspace/CRMBuilds/TZ.BF.4.0.3.c1-00005-M8996AAAAANAZT-1_20170110_230814/b/HK11/trustzone_images/core/securemsm/trustzone/qsapps/libs/applib/qsee64/build/sampleapp/A53_64/IADAANAA/tzapp_entrylib.lib(qsee_hash.o)
 .bss           0x0000000000000000        0x0 /local/mnt/workspace/CRMBuilds/TZ.BF.4.0.3.c1-00005-M8996AAAAANAZT-1_20170110_230814/b/HK11/trustzone_images/core/securemsm/trustzone/qsapps/libs/applib/qsee64/build/sampleapp/A53_64/IADAANAA/tzapp_entrylib.lib(qsee_hash.o)
 .data          0x0000000000000000        0x0 /local/mnt/workspace/CRMBuilds/TZ.BF.4.0.3.c1-00005-M8996AAAAANAZT-1_20170110_230814/b/HK11/trustzone_images/core/securemsm/trustzone/qsapps/libs/applib/qsee64/build/sampleapp/A53_64/IADAANAA/tzapp_entrylib.lib(qsee_hmac.o)
 .bss           0x0000000000000000        0x0 /local/mnt/workspace/CRMBuilds/TZ.BF.4.0.3.c1-00005-M8996AAAAANAZT-1_20170110_230814/b/HK11/trustzone_images/core/securemsm/trustzone/qsapps/libs/applib/qsee64/build/sampleapp/A53_64/IADAANAA/tzapp_entrylib.lib(qsee_hmac.o)
 .data          0x0000000000000000        0x0 /local/mnt/workspace/CRMBuilds/TZ.BF.4.0.3.c1-00005-M8996AAAAANAZT-1_20170110_230814/b/HK11/trustzone_images/core/securemsm/trustzone/qsapps/libs/applib/qsee64/build/sampleapp/A53_64/IADAANAA/tzapp_entrylib.lib(qsee_i2c.o)
 .bss           0x0000000000000000        0x0 /local/mnt/workspace/CRMBuilds/TZ.BF.4.0.3.c1-00005-M8996AAAAANAZT-1_20170110_230814/b/HK11/trustzone_images/core/securemsm/trustzone/qsapps/libs/applib/qsee64/build/sampleapp/A53_64/IADAANAA/tzapp_entrylib.lib(qsee_i2c.o)
 .data          0x0000000000000000        0x0 /local/mnt/workspace/CRMBuilds/TZ.BF.4.0.3.c1-00005-M8996AAAAANAZT-1_20170110_230814/b/HK11/trustzone_images/core/securemsm/trustzone/qsapps/libs/applib/qsee64/build/sampleapp/A53_64/IADAANAA/tzapp_entrylib.lib(qsee_spi.o)
 .bss           0x0000000000000000        0x0 /local/mnt/workspace/CRMBuilds/TZ.BF.4.0.3.c1-00005-M8996AAAAANAZT-1_20170110_230814/b/HK11/trustzone_images/core/securemsm/trustzone/qsapps/libs/applib/qsee64/build/sampleapp/A53_64/IADAANAA/tzapp_entrylib.lib(qsee_spi.o)
 .data          0x0000000000000000        0x0 /local/mnt/workspace/CRMBuilds/TZ.BF.4.0.3.c1-00005-M8996AAAAANAZT-1_20170110_230814/b/HK11/trustzone_images/core/securemsm/trustzone/qsapps/libs/applib/qsee64/build/sampleapp/A53_64/IADAANAA/tzapp_entrylib.lib(qsee_tlmm.o)
 .data          0x0000000000000000        0x0 /local/mnt/workspace/CRMBuilds/TZ.BF.4.0.3.c1-00005-M8996AAAAANAZT-1_20170110_230814/b/HK11/trustzone_images/core/securemsm/trustzone/qsapps/libs/applib/qsee64/build/sampleapp/A53_64/IADAANAA/tzapp_entrylib.lib(qsee_bulletin_board_shim.o)
 .bss           0x0000000000000000        0x0 /local/mnt/workspace/CRMBuilds/TZ.BF.4.0.3.c1-00005-M8996AAAAANAZT-1_20170110_230814/b/HK11/trustzone_images/core/securemsm/trustzone/qsapps/libs/applib/qsee64/build/sampleapp/A53_64/IADAANAA/tzapp_entrylib.lib(qsee_bulletin_board_shim.o)
 .data          0x0000000000000000        0x0 /local/mnt/workspace/CRMBuilds/TZ.BF.4.0.3.c1-00005-M8996AAAAANAZT-1_20170110_230814/b/HK11/trustzone_images/core/securemsm/trustzone/qsapps/libs/applib/qsee64/build/sampleapp/A53_64/IADAANAA/tzapp_entrylib.lib(qsee_dcache.o)
 .bss           0x0000000000000000        0x0 /local/mnt/workspace/CRMBuilds/TZ.BF.4.0.3.c1-00005-M8996AAAAANAZT-1_20170110_230814/b/HK11/trustzone_images/core/securemsm/trustzone/qsapps/libs/applib/qsee64/build/sampleapp/A53_64/IADAANAA/tzapp_entrylib.lib(qsee_dcache.o)
 .data          0x0000000000000000        0x0 /local/mnt/workspace/CRMBuilds/TZ.BF.4.0.3.c1-00005-M8996AAAAANAZT-1_20170110_230814/b/HK11/trustzone_images/core/securemsm/trustzone/qsapps/libs/applib/qsee64/build/sampleapp/A53_64/IADAANAA/tzapp_entrylib.lib(qsee_shared_buffer.o)
 .bss           0x0000000000000000        0x0 /local/mnt/workspace/CRMBuilds/TZ.BF.4.0.3.c1-00005-M8996AAAAANAZT-1_20170110_230814/b/HK11/trustzone_images/core/securemsm/trustzone/qsapps/libs/applib/qsee64/build/sampleapp/A53_64/IADAANAA/tzapp_entrylib.lib(qsee_shared_buffer.o)
 .data          0x0000000000000000        0x0 /local/mnt/workspace/CRMBuilds/TZ.BF.4.0.3.c1-00005-M8996AAAAANAZT-1_20170110_230814/b/HK11/trustzone_images/core/securemsm/trustzone/qsapps/libs/applib/qsee64/build/sampleapp/A53_64/IADAANAA/tzapp_entrylib.lib(qsee_sync.o)
 .bss           0x0000000000000000        0x0 /local/mnt/workspace/CRMBuilds/TZ.BF.4.0.3.c1-00005-M8996AAAAANAZT-1_20170110_230814/b/HK11/trustzone_images/core/securemsm/trustzone/qsapps/libs/applib/qsee64/build/sampleapp/A53_64/IADAANAA/tzapp_entrylib.lib(qsee_sync.o)
 .data          0x0000000000000000        0x0 /local/mnt/workspace/CRMBuilds/TZ.BF.4.0.3.c1-00005-M8996AAAAANAZT-1_20170110_230814/b/HK11/trustzone_images/core/securemsm/trustzone/qsapps/libs/applib/qsee64/build/sampleapp/A53_64/IADAANAA/tzapp_entrylib.lib(qsee_oem_buffer.o)
 .bss           0x0000000000000000        0x0 /local/mnt/workspace/CRMBuilds/TZ.BF.4.0.3.c1-00005-M8996AAAAANAZT-1_20170110_230814/b/HK11/trustzone_images/core/securemsm/trustzone/qsapps/libs/applib/qsee64/build/sampleapp/A53_64/IADAANAA/tzapp_entrylib.lib(qsee_oem_buffer.o)
 .data          0x0000000000000000        0x0 /local/mnt/workspace/CRMBuilds/TZ.BF.4.0.3.c1-00005-M8996AAAAANAZT-1_20170110_230814/b/HK11/trustzone_images/core/securemsm/trustzone/qsapps/libs/applib/qsee64/build/sampleapp/A53_64/IADAANAA/tzapp_entrylib.lib(qsee_intmask.o)
 .bss           0x0000000000000000        0x0 /local/mnt/workspace/CRMBuilds/TZ.BF.4.0.3.c1-00005-M8996AAAAANAZT-1_20170110_230814/b/HK11/trustzone_images/core/securemsm/trustzone/qsapps/libs/applib/qsee64/build/sampleapp/A53_64/IADAANAA/tzapp_entrylib.lib(qsee_intmask.o)
 .data          0x0000000000000000        0x0 /local/mnt/workspace/CRMBuilds/TZ.BF.4.0.3.c1-00005-M8996AAAAANAZT-1_20170110_230814/b/HK11/trustzone_images/core/securemsm/trustzone/qsapps/libs/applib/qsee64/build/sampleapp/A53_64/IADAANAA/tzapp_entrylib.lib(qsee_trans_ns_addr.o)
 .bss           0x0000000000000000        0x0 /local/mnt/workspace/CRMBuilds/TZ.BF.4.0.3.c1-00005-M8996AAAAANAZT-1_20170110_230814/b/HK11/trustzone_images/core/securemsm/trustzone/qsapps/libs/applib/qsee64/build/sampleapp/A53_64/IADAANAA/tzapp_entrylib.lib(qsee_trans_ns_addr.o)
 .data          0x0000000000000000        0x0 /local/mnt/workspace/CRMBuilds/TZ.BF.4.0.3.c1-00005-M8996AAAAANAZT-1_20170110_230814/b/HK11/trustzone_images/core/securemsm/trustzone/qsapps/libs/applib/qsee64/build/sampleapp/A53_64/IADAANAA/tzapp_entrylib.lib(qsee_appmessage.o)
 .bss           0x0000000000000000        0x0 /local/mnt/workspace/CRMBuilds/TZ.BF.4.0.3.c1-00005-M8996AAAAANAZT-1_20170110_230814/b/HK11/trustzone_images/core/securemsm/trustzone/qsapps/libs/applib/qsee64/build/sampleapp/A53_64/IADAANAA/tzapp_entrylib.lib(qsee_appmessage.o)
 .data          0x0000000000000000        0x0 /local/mnt/workspace/CRMBuilds/TZ.BF.4.0.3.c1-00005-M8996AAAAANAZT-1_20170110_230814/b/HK11/trustzone_images/core/securemsm/trustzone/qsapps/libs/applib/qsee64/build/sampleapp/A53_64/IADAANAA/tzapp_entrylib.lib(sfs_api.o)
 .data          0x0000000000000000        0x0 /local/mnt/workspace/CRMBuilds/TZ.BF.4.0.3.c1-00005-M8996AAAAANAZT-1_20170110_230814/b/HK11/trustzone_images/core/securemsm/trustzone/qsapps/libs/applib/qsee64/build/sampleapp/A53_64/IADAANAA/tzapp_entrylib.lib(tzapp_lib_main.o)
 .bss           0x0000000000000000        0x0 /local/mnt/workspace/CRMBuilds/TZ.BF.4.0.3.c1-00005-M8996AAAAANAZT-1_20170110_230814/b/HK11/trustzone_images/core/securemsm/trustzone/qsapps/libs/applib/qsee64/build/sampleapp/A53_64/IADAANAA/tzapp_entrylib.lib(tzapp_lib_main.o)
 .text          0x0000000000000000        0x0 /local/mnt/workspace/CRMBuilds/TZ.BF.4.0.3.c1-00005-M8996AAAAANAZT-1_20170110_230814/b/HK11/trustzone_images/core/securemsm/trustzone/qsapps/libs/applib/qsee64/build/sampleapp/A53_64/IADAANAA/tzapp_entrylib.lib(kthread_shared.o)
 .data          0x0000000000000000        0x0 /local/mnt/workspace/CRMBuilds/TZ.BF.4.0.3.c1-00005-M8996AAAAANAZT-1_20170110_230814/b/HK11/trustzone_images/core/securemsm/trustzone/qsapps/libs/applib/qsee64/build/sampleapp/A53_64/IADAANAA/tzapp_entrylib.lib(kthread_shared.o)
 .bss           0x0000000000000000        0x0 /local/mnt/workspace/CRMBuilds/TZ.BF.4.0.3.c1-00005-M8996AAAAANAZT-1_20170110_230814/b/HK11/trustzone_images/core/securemsm/trustzone/qsapps/libs/applib/qsee64/build/sampleapp/A53_64/IADAANAA/tzapp_entrylib.lib(kthread_shared.o)
 .data          0x0000000000000000        0x0 /local/mnt/workspace/CRMBuilds/TZ.BF.4.0.3.c1-00005-M8996AAAAANAZT-1_20170110_230814/b/HK11/trustzone_images/core/securemsm/trustzone/qsapps/libs/biometric/build/sampleapp/A53_64/IADAANAA/biometric_lib.lib(biometric_serializer.o)
 .data          0x0000000000000000        0x0 /afs/localcell/cm/gv2.6/sysname/pkg.@sys/qct/software/llvm/release/arm/3.5.2.4/tools/lib64/lib/libc.a(vsnprintf.o)
 .bss           0x0000000000000000        0x0 /afs/localcell/cm/gv2.6/sysname/pkg.@sys/qct/software/llvm/release/arm/3.5.2.4/tools/lib64/lib/libc.a(vsnprintf.o)
 .note.GNU-stack
                0x0000000000000000        0x0 /afs/localcell/cm/gv2.6/sysname/pkg.@sys/qct/software/llvm/release/arm/3.5.2.4/tools/lib64/lib/libc.a(vsnprintf.o)
 .data          0x0000000000000000        0x0 /afs/localcell/cm/gv2.6/sysname/pkg.@sys/qct/software/llvm/release/arm/3.5.2.4/tools/lib64/lib/libc.a(memcmp.o)
 .bss           0x0000000000000000        0x0 /afs/localcell/cm/gv2.6/sysname/pkg.@sys/qct/software/llvm/release/arm/3.5.2.4/tools/lib64/lib/libc.a(memcmp.o)
 .note.GNU-stack
                0x0000000000000000        0x0 /afs/localcell/cm/gv2.6/sysname/pkg.@sys/qct/software/llvm/release/arm/3.5.2.4/tools/lib64/lib/libc.a(memcmp.o)
 .data          0x0000000000000000        0x0 /afs/localcell/cm/gv2.6/sysname/pkg.@sys/qct/software/llvm/release/arm/3.5.2.4/tools/lib64/lib/libc.a(memcpy.o)
 .bss           0x0000000000000000        0x0 /afs/localcell/cm/gv2.6/sysname/pkg.@sys/qct/software/llvm/release/arm/3.5.2.4/tools/lib64/lib/libc.a(memcpy.o)
 .note.GNU-stack
                0x0000000000000000        0x0 /afs/localcell/cm/gv2.6/sysname/pkg.@sys/qct/software/llvm/release/arm/3.5.2.4/tools/lib64/lib/libc.a(memcpy.o)
 .data          0x0000000000000000        0x0 /afs/localcell/cm/gv2.6/sysname/pkg.@sys/qct/software/llvm/release/arm/3.5.2.4/tools/lib64/lib/libc.a(memmove.o)
 .bss           0x0000000000000000        0x0 /afs/localcell/cm/gv2.6/sysname/pkg.@sys/qct/software/llvm/release/arm/3.5.2.4/tools/lib64/lib/libc.a(memmove.o)
 .note.GNU-stack
                0x0000000000000000        0x0 /afs/localcell/cm/gv2.6/sysname/pkg.@sys/qct/software/llvm/release/arm/3.5.2.4/tools/lib64/lib/libc.a(memmove.o)
 .data          0x0000000000000000        0x0 /afs/localcell/cm/gv2.6/sysname/pkg.@sys/qct/software/llvm/release/arm/3.5.2.4/tools/lib64/lib/libc.a(memset.o)
 .bss           0x0000000000000000        0x0 /afs/localcell/cm/gv2.6/sysname/pkg.@sys/qct/software/llvm/release/arm/3.5.2.4/tools/lib64/lib/libc.a(memset.o)
 .note.GNU-stack
                0x0000000000000000        0x0 /afs/localcell/cm/gv2.6/sysname/pkg.@sys/qct/software/llvm/release/arm/3.5.2.4/tools/lib64/lib/libc.a(memset.o)
 .data          0x0000000000000000        0x0 /afs/localcell/cm/gv2.6/sysname/pkg.@sys/qct/software/llvm/release/arm/3.5.2.4/tools/lib64/lib/libc.a(strcmp.o)
 .bss           0x0000000000000000        0x0 /afs/localcell/cm/gv2.6/sysname/pkg.@sys/qct/software/llvm/release/arm/3.5.2.4/tools/lib64/lib/libc.a(strcmp.o)
 .note.GNU-stack
                0x0000000000000000        0x0 /afs/localcell/cm/gv2.6/sysname/pkg.@sys/qct/software/llvm/release/arm/3.5.2.4/tools/lib64/lib/libc.a(strcmp.o)
 .data          0x0000000000000000        0x0 /afs/localcell/cm/gv2.6/sysname/pkg.@sys/qct/software/llvm/release/arm/3.5.2.4/tools/lib64/lib/libc.a(strlen.o)
 .bss           0x0000000000000000        0x0 /afs/localcell/cm/gv2.6/sysname/pkg.@sys/qct/software/llvm/release/arm/3.5.2.4/tools/lib64/lib/libc.a(strlen.o)
 .note.GNU-stack
                0x0000000000000000        0x0 /afs/localcell/cm/gv2.6/sysname/pkg.@sys/qct/software/llvm/release/arm/3.5.2.4/tools/lib64/lib/libc.a(strlen.o)
 .data          0x0000000000000000        0x0 /afs/localcell/cm/gv2.6/sysname/pkg.@sys/qct/software/llvm/release/arm/3.5.2.4/tools/lib64/lib/libc.a(strncmp.o)
 .bss           0x0000000000000000        0x0 /afs/localcell/cm/gv2.6/sysname/pkg.@sys/qct/software/llvm/release/arm/3.5.2.4/tools/lib64/lib/libc.a(strncmp.o)
 .note.GNU-stack
                0x0000000000000000        0x0 /afs/localcell/cm/gv2.6/sysname/pkg.@sys/qct/software/llvm/release/arm/3.5.2.4/tools/lib64/lib/libc.a(strncmp.o)
 .data          0x0000000000000000        0x0 /afs/localcell/cm/gv2.6/sysname/pkg.@sys/qct/software/llvm/release/arm/3.5.2.4/tools/lib64/lib/libc.a(strnlen.o)
 .bss           0x0000000000000000        0x0 /afs/localcell/cm/gv2.6/sysname/pkg.@sys/qct/software/llvm/release/arm/3.5.2.4/tools/lib64/lib/libc.a(strnlen.o)
 .note.GNU-stack
                0x0000000000000000        0x0 /afs/localcell/cm/gv2.6/sysname/pkg.@sys/qct/software/llvm/release/arm/3.5.2.4/tools/lib64/lib/libc.a(strnlen.o)
 .data          0x0000000000000000        0x0 /afs/localcell/cm/gv2.6/sysname/pkg.@sys/qct/software/llvm/release/arm/3.5.2.4/tools/lib64/lib/libc.a(__errno_location.o)
 .note.GNU-stack
                0x0000000000000000        0x0 /afs/localcell/cm/gv2.6/sysname/pkg.@sys/qct/software/llvm/release/arm/3.5.2.4/tools/lib64/lib/libc.a(__errno_location.o)
 .text          0x0000000000000000        0x0 /afs/localcell/cm/gv2.6/sysname/pkg.@sys/qct/software/llvm/release/arm/3.5.2.4/tools/lib64/lib/libc.a(libc.o)
 .data          0x0000000000000000        0x0 /afs/localcell/cm/gv2.6/sysname/pkg.@sys/qct/software/llvm/release/arm/3.5.2.4/tools/lib64/lib/libc.a(libc.o)
 .note.GNU-stack
                0x0000000000000000        0x0 /afs/localcell/cm/gv2.6/sysname/pkg.@sys/qct/software/llvm/release/arm/3.5.2.4/tools/lib64/lib/libc.a(libc.o)
 .data          0x0000000000000000        0x0 /afs/localcell/cm/gv2.6/sysname/pkg.@sys/qct/software/llvm/release/arm/3.5.2.4/tools/lib64/lib/libc.a(vfprintf.o)
 .bss           0x0000000000000000        0x0 /afs/localcell/cm/gv2.6/sysname/pkg.@sys/qct/software/llvm/release/arm/3.5.2.4/tools/lib64/lib/libc.a(vfprintf.o)
 .note.GNU-stack
                0x0000000000000000        0x0 /afs/localcell/cm/gv2.6/sysname/pkg.@sys/qct/software/llvm/release/arm/3.5.2.4/tools/lib64/lib/libc.a(vfprintf.o)
 .data          0x0000000000000000        0x0 /afs/localcell/cm/gv2.6/sysname/pkg.@sys/qct/software/llvm/release/arm/3.5.2.4/tools/lib64/lib/libc.a(memchr.o)
 .bss           0x0000000000000000        0x0 /afs/localcell/cm/gv2.6/sysname/pkg.@sys/qct/software/llvm/release/arm/3.5.2.4/tools/lib64/lib/libc.a(memchr.o)
 .note.GNU-stack
                0x0000000000000000        0x0 /afs/localcell/cm/gv2.6/sysname/pkg.@sys/qct/software/llvm/release/arm/3.5.2.4/tools/lib64/lib/libc.a(memchr.o)
 .data          0x0000000000000000        0x0 /afs/localcell/cm/gv2.6/sysname/pkg.@sys/qct/software/llvm/release/arm/3.5.2.4/tools/lib64/lib/libc.a(strerror.o)
 .bss           0x0000000000000000        0x0 /afs/localcell/cm/gv2.6/sysname/pkg.@sys/qct/software/llvm/release/arm/3.5.2.4/tools/lib64/lib/libc.a(strerror.o)
 .note.GNU-stack
                0x0000000000000000        0x0 /afs/localcell/cm/gv2.6/sysname/pkg.@sys/qct/software/llvm/release/arm/3.5.2.4/tools/lib64/lib/libc.a(strerror.o)
 .data          0x0000000000000000        0x0 /afs/localcell/cm/gv2.6/sysname/pkg.@sys/qct/software/llvm/release/arm/3.5.2.4/tools/lib64/lib/libc.a(wctomb.o)
 .bss           0x0000000000000000        0x0 /afs/localcell/cm/gv2.6/sysname/pkg.@sys/qct/software/llvm/release/arm/3.5.2.4/tools/lib64/lib/libc.a(wctomb.o)
 .note.GNU-stack
                0x0000000000000000        0x0 /afs/localcell/cm/gv2.6/sysname/pkg.@sys/qct/software/llvm/release/arm/3.5.2.4/tools/lib64/lib/libc.a(wctomb.o)
 .data          0x0000000000000000        0x0 /afs/localcell/cm/gv2.6/sysname/pkg.@sys/qct/software/llvm/release/arm/3.5.2.4/tools/lib64/lib/libc.a(__lockfile.o)
 .bss           0x0000000000000000        0x0 /afs/localcell/cm/gv2.6/sysname/pkg.@sys/qct/software/llvm/release/arm/3.5.2.4/tools/lib64/lib/libc.a(__lockfile.o)
 .note.GNU-stack
                0x0000000000000000        0x0 /afs/localcell/cm/gv2.6/sysname/pkg.@sys/qct/software/llvm/release/arm/3.5.2.4/tools/lib64/lib/libc.a(__lockfile.o)
 .data          0x0000000000000000        0x0 /afs/localcell/cm/gv2.6/sysname/pkg.@sys/qct/software/llvm/release/arm/3.5.2.4/tools/lib64/lib/libc.a(fwrite.o)
 .bss           0x0000000000000000        0x0 /afs/localcell/cm/gv2.6/sysname/pkg.@sys/qct/software/llvm/release/arm/3.5.2.4/tools/lib64/lib/libc.a(fwrite.o)
 .note.GNU-stack
                0x0000000000000000        0x0 /afs/localcell/cm/gv2.6/sysname/pkg.@sys/qct/software/llvm/release/arm/3.5.2.4/tools/lib64/lib/libc.a(fwrite.o)
 .data          0x0000000000000000        0x0 /afs/localcell/cm/gv2.6/sysname/pkg.@sys/qct/software/llvm/release/arm/3.5.2.4/tools/lib64/lib/libc.a(__wait.o)
 .bss           0x0000000000000000        0x0 /afs/localcell/cm/gv2.6/sysname/pkg.@sys/qct/software/llvm/release/arm/3.5.2.4/tools/lib64/lib/libc.a(__wait.o)
 .note.GNU-stack
                0x0000000000000000        0x0 /afs/localcell/cm/gv2.6/sysname/pkg.@sys/qct/software/llvm/release/arm/3.5.2.4/tools/lib64/lib/libc.a(__wait.o)
 .data          0x0000000000000000        0x0 /afs/localcell/cm/gv2.6/sysname/pkg.@sys/qct/software/llvm/release/arm/3.5.2.4/tools/lib64/lib/libc.a(syscall.o)
 .bss           0x0000000000000000        0x0 /afs/localcell/cm/gv2.6/sysname/pkg.@sys/qct/software/llvm/release/arm/3.5.2.4/tools/lib64/lib/libc.a(syscall.o)
 .note.GNU-stack
                0x0000000000000000        0x0 /afs/localcell/cm/gv2.6/sysname/pkg.@sys/qct/software/llvm/release/arm/3.5.2.4/tools/lib64/lib/libc.a(syscall.o)
 .data          0x0000000000000000        0x0 /afs/localcell/cm/gv2.6/sysname/pkg.@sys/qct/software/llvm/release/arm/3.5.2.4/tools/lib64/lib/libc.a(wcrtomb.o)
 .bss           0x0000000000000000        0x0 /afs/localcell/cm/gv2.6/sysname/pkg.@sys/qct/software/llvm/release/arm/3.5.2.4/tools/lib64/lib/libc.a(wcrtomb.o)
 .note.GNU-stack
                0x0000000000000000        0x0 /afs/localcell/cm/gv2.6/sysname/pkg.@sys/qct/software/llvm/release/arm/3.5.2.4/tools/lib64/lib/libc.a(wcrtomb.o)
 .data          0x0000000000000000        0x0 /afs/localcell/cm/gv2.6/sysname/pkg.@sys/qct/software/llvm/release/arm/3.5.2.4/tools/lib64/lib/libc.a(__towrite.o)
 .bss           0x0000000000000000        0x0 /afs/localcell/cm/gv2.6/sysname/pkg.@sys/qct/software/llvm/release/arm/3.5.2.4/tools/lib64/lib/libc.a(__towrite.o)
 .note.GNU-stack
                0x0000000000000000        0x0 /afs/localcell/cm/gv2.6/sysname/pkg.@sys/qct/software/llvm/release/arm/3.5.2.4/tools/lib64/lib/libc.a(__towrite.o)
 .data          0x0000000000000000        0x0 /afs/localcell/cm/gv2.6/sysname/pkg.@sys/qct/software/llvm/release/arm/3.5.2.4/tools/lib64/lib/libc.a(__stdio_exit.o)
 .bss           0x0000000000000000        0x0 /afs/localcell/cm/gv2.6/sysname/pkg.@sys/qct/software/llvm/release/arm/3.5.2.4/tools/lib64/lib/libc.a(__stdio_exit.o)
 .note.GNU-stack
                0x0000000000000000        0x0 /afs/localcell/cm/gv2.6/sysname/pkg.@sys/qct/software/llvm/release/arm/3.5.2.4/tools/lib64/lib/libc.a(__stdio_exit.o)
 .data          0x0000000000000000        0x0 /afs/localcell/cm/gv2.6/sysname/pkg.@sys/qct/software/llvm/release/arm/3.5.2.4/tools/lib64/lib/libc.a(__lock.o)
 .bss           0x0000000000000000        0x0 /afs/localcell/cm/gv2.6/sysname/pkg.@sys/qct/software/llvm/release/arm/3.5.2.4/tools/lib64/lib/libc.a(__lock.o)
 .note.GNU-stack
                0x0000000000000000        0x0 /afs/localcell/cm/gv2.6/sysname/pkg.@sys/qct/software/llvm/release/arm/3.5.2.4/tools/lib64/lib/libc.a(__lock.o)
 .data          0x0000000000000000        0x0 /local/mnt/workspace/CRMBuilds/TZ.BF.4.0.3.c1-00005-M8996AAAAANAZT-1_20170110_230814/b/HK11/trustzone_images/core/securemsm/sse/qsee/SecureTouch/drTs/lib/build/sampleapp/A53_64/IADAANAA/touch_lib.lib(02_close.o)
 .bss           0x0000000000000000        0x0 /local/mnt/workspace/CRMBuilds/TZ.BF.4.0.3.c1-00005-M8996AAAAANAZT-1_20170110_230814/b/HK11/trustzone_images/core/securemsm/sse/qsee/SecureTouch/drTs/lib/build/sampleapp/A53_64/IADAANAA/touch_lib.lib(02_close.o)
 .data          0x0000000000000000        0x0 /local/mnt/workspace/CRMBuilds/TZ.BF.4.0.3.c1-00005-M8996AAAAANAZT-1_20170110_230814/b/HK11/trustzone_images/core/securemsm/sse/qsee/SecureTouch/drTs/lib/build/sampleapp/A53_64/IADAANAA/touch_lib.lib(03_getData.o)
 .data          0x0000000000000000        0x0 /local/mnt/workspace/CRMBuilds/TZ.BF.4.0.3.c1-00005-M8996AAAAANAZT-1_20170110_230814/b/HK11/trustzone_images/core/securemsm/trustzone/qsapps/libs/applib/common_applib/build/sampleapp/A53_64/IADAANAA/tzapp_entrylib.lib(gpPersistObjCommon.o)
 .data          0x0000000000000000        0x0 /local/mnt/workspace/CRMBuilds/TZ.BF.4.0.3.c1-00005-M8996AAAAANAZT-1_20170110_230814/b/HK11/trustzone_images/core/securemsm/trustzone/qsapps/libs/applib/common_applib/build/sampleapp/A53_64/IADAANAA/tzapp_entrylib.lib(gpPersistentObjects.o)
 .bss           0x0000000000000000        0x0 /local/mnt/workspace/CRMBuilds/TZ.BF.4.0.3.c1-00005-M8996AAAAANAZT-1_20170110_230814/b/HK11/trustzone_images/core/securemsm/trustzone/qsapps/libs/applib/common_applib/build/sampleapp/A53_64/IADAANAA/tzapp_entrylib.lib(gpPersistentObjects.o)
 .data          0x0000000000000000        0x0 /local/mnt/workspace/CRMBuilds/TZ.BF.4.0.3.c1-00005-M8996AAAAANAZT-1_20170110_230814/b/HK11/trustzone_images/core/securemsm/trustzone/qsapps/libs/applib/common_applib/build/sampleapp/A53_64/IADAANAA/tzapp_entrylib.lib(gpPersistObjData.o)
 .data          0x0000000000000000        0x0 /local/mnt/workspace/CRMBuilds/TZ.BF.4.0.3.c1-00005-M8996AAAAANAZT-1_20170110_230814/b/HK11/trustzone_images/core/securemsm/trustzone/qsapps/libs/applib/common_applib/build/sampleapp/A53_64/IADAANAA/tzapp_entrylib.lib(gpPersistObjIndex.o)
 .data          0x0000000000000000        0x0 /local/mnt/workspace/CRMBuilds/TZ.BF.4.0.3.c1-00005-M8996AAAAANAZT-1_20170110_230814/b/HK11/trustzone_images/core/securemsm/trustzone/qsapps/libs/applib/common_applib/build/sampleapp/A53_64/IADAANAA/tzapp_entrylib.lib(gpPersistObjCrypto.o)
 .data          0x0000000000000000        0x0 /local/mnt/workspace/CRMBuilds/TZ.BF.4.0.3.c1-00005-M8996AAAAANAZT-1_20170110_230814/b/HK11/trustzone_images/core/securemsm/trustzone/qsapps/libs/applib/common_applib/build/sampleapp/A53_64/IADAANAA/tzapp_entrylib.lib(gpPersistObjFileIO.o)
 .bss           0x0000000000000000        0x0 /local/mnt/workspace/CRMBuilds/TZ.BF.4.0.3.c1-00005-M8996AAAAANAZT-1_20170110_230814/b/HK11/trustzone_images/core/securemsm/trustzone/qsapps/libs/applib/common_applib/build/sampleapp/A53_64/IADAANAA/tzapp_entrylib.lib(gpPersistObjFileIO.o)
 .data          0x0000000000000000        0x0 /local/mnt/workspace/CRMBuilds/TZ.BF.4.0.3.c1-00005-M8996AAAAANAZT-1_20170110_230814/b/HK11/trustzone_images/core/securemsm/trustzone/qsapps/libs/applib/common_applib/build/sampleapp/A53_64/IADAANAA/tzapp_entrylib.lib(gpFileService.o)
 .bss           0x0000000000000000        0x0 /local/mnt/workspace/CRMBuilds/TZ.BF.4.0.3.c1-00005-M8996AAAAANAZT-1_20170110_230814/b/HK11/trustzone_images/core/securemsm/trustzone/qsapps/libs/applib/common_applib/build/sampleapp/A53_64/IADAANAA/tzapp_entrylib.lib(gpFileService.o)
 .data          0x0000000000000000        0x0 /local/mnt/workspace/CRMBuilds/TZ.BF.4.0.3.c1-00005-M8996AAAAANAZT-1_20170110_230814/b/HK11/trustzone_images/core/securemsm/trustzone/qsapps/libs/applib/qsee64/build/sampleapp/A53_64/IADAANAA/tzapp_entrylib.lib(qsee_cfg_prop_shim.o)
 .bss           0x0000000000000000        0x0 /local/mnt/workspace/CRMBuilds/TZ.BF.4.0.3.c1-00005-M8996AAAAANAZT-1_20170110_230814/b/HK11/trustzone_images/core/securemsm/trustzone/qsapps/libs/applib/qsee64/build/sampleapp/A53_64/IADAANAA/tzapp_entrylib.lib(qsee_cfg_prop_shim.o)
 .data          0x0000000000000000        0x0 /local/mnt/workspace/CRMBuilds/TZ.BF.4.0.3.c1-00005-M8996AAAAANAZT-1_20170110_230814/b/HK11/trustzone_images/core/securemsm/trustzone/qsapps/libs/applib/qsee64/build/sampleapp/A53_64/IADAANAA/tzapp_entrylib.lib(gpPersistObjPanic.o)
 .bss           0x0000000000000000        0x0 /local/mnt/workspace/CRMBuilds/TZ.BF.4.0.3.c1-00005-M8996AAAAANAZT-1_20170110_230814/b/HK11/trustzone_images/core/securemsm/trustzone/qsapps/libs/applib/qsee64/build/sampleapp/A53_64/IADAANAA/tzapp_entrylib.lib(gpPersistObjPanic.o)
 .data          0x0000000000000000        0x0 /afs/localcell/cm/gv2.6/sysname/pkg.@sys/qct/software/llvm/release/arm/3.5.2.4/tools/lib64/lib/libc.a(strlcat.o)
 .bss           0x0000000000000000        0x0 /afs/localcell/cm/gv2.6/sysname/pkg.@sys/qct/software/llvm/release/arm/3.5.2.4/tools/lib64/lib/libc.a(strlcat.o)
 .note.GNU-stack
                0x0000000000000000        0x0 /afs/localcell/cm/gv2.6/sysname/pkg.@sys/qct/software/llvm/release/arm/3.5.2.4/tools/lib64/lib/libc.a(strlcat.o)
 .data          0x0000000000000000        0x0 /local/mnt/workspace/CRMBuilds/TZ.BF.4.0.3.c1-00005-M8996AAAAANAZT-1_20170110_230814/b/HK11/trustzone_images/core/securemsm/sse/SecureTouch/controller/build/sampleapp/A53_64/IADAANAA/drts_controller_msm8996.lib(synaptics_ts.o)
 .data          0x0000000000000000        0x0 /local/mnt/workspace/CRMBuilds/TZ.BF.4.0.3.c1-00005-M8996AAAAANAZT-1_20170110_230814/b/HK11/trustzone_images/core/securemsm/sse/log/build/sampleapp/A53_64/IADAANAA/sselog.lib(sselog.o)
 .bss           0x0000000000000000        0x0 /local/mnt/workspace/CRMBuilds/TZ.BF.4.0.3.c1-00005-M8996AAAAANAZT-1_20170110_230814/b/HK11/trustzone_images/core/securemsm/sse/log/build/sampleapp/A53_64/IADAANAA/sselog.lib(sselog.o)
 .bss           0x0000000000000000        0x0 /local/mnt/workspace/CRMBuilds/TZ.BF.4.0.3.c1-00005-M8996AAAAANAZT-1_20170110_230814/b/HK11/trustzone_images/core/securemsm/sse/qsee/SecureTouch/drTs/controller/build/sampleapp/A53_64/IADAANAA/touch_controller_i2c_msm8996.lib(atmel_mxt_ts_i2c.o)
 .bss           0x0000000000000000        0x0 /local/mnt/workspace/CRMBuilds/TZ.BF.4.0.3.c1-00005-M8996AAAAANAZT-1_20170110_230814/b/HK11/trustzone_images/core/securemsm/sse/qsee/SecureTouch/drTs/controller/build/sampleapp/A53_64/IADAANAA/touch_controller_i2c_msm8996.lib(synaptics_ts_i2c.o)
 .data          0x0000000000000000        0x0 /afs/localcell/cm/gv2.6/sysname/pkg.@sys/qct/software/llvm/release/arm/3.5.2.4/tools/lib64/lib/libc.a(snprintf.o)
 .bss           0x0000000000000000        0x0 /afs/localcell/cm/gv2.6/sysname/pkg.@sys/qct/software/llvm/release/arm/3.5.2.4/tools/lib64/lib/libc.a(snprintf.o)
 .note.GNU-stack
                0x0000000000000000        0x0 /afs/localcell/cm/gv2.6/sysname/pkg.@sys/qct/software/llvm/release/arm/3.5.2.4/tools/lib64/lib/libc.a(snprintf.o)

Memory Configuration

Name             Origin             Length             Attributes
*default*        0x0000000000000000 0xffffffffffffffff

Linker script and memory map


.text           0x0000000000000000    0x4484d
 *\tzapp_entry.o(SORT(TZAPPENTRYCODE))
 TZAPPENTRYCODE
                0x0000000000000000       0x58 /local/mnt/workspace/CRMBuilds/TZ.BF.4.0.3.c1-00005-M8996AAAAANAZT-1_20170110_230814/b/HK11/trustzone_images/core/securemsm/trustzone/qsapps/libs/applib/qsee64/build/sampleapp/A53_64/IADAANAA/qsee64/src/tzapp_entry.o
                0x0000000000000000                __main
                0x0000000000000000                TZAPPENTRY
                0x0000000000000000                _main
                0x000000000000003c                get_cmnlib_ctx_ptr
 *(SORT(.text) SORT(.text.*) SORT(kthread_shared))
 .text          0x0000000000000058     0x1490 /local/mnt/workspace/CRMBuilds/TZ.BF.4.0.3.c1-00005-M8996AAAAANAZT-1_20170110_230814/b/HK11/trustzone_images/core/securemsm/trustzone/qsapps/smplap64/build/sampleapp/A53_64/IADAANAA/app_main.o
                0x0000000000000058                tz_app_init
                0x000000000000008c                tz_app_cmd_handler
                0x00000000000014d8                tz_app_shutdown
 .text          0x00000000000014e8      0x224 /local/mnt/workspace/CRMBuilds/TZ.BF.4.0.3.c1-00005-M8996AAAAANAZT-1_20170110_230814/b/HK11/trustzone_images/core/securemsm/trustzone/qsapps/smplap64/build/sampleapp/A53_64/IADAANAA/app_smplserv_test.o
                0x00000000000014e8                run_smplserv_test
                0x0000000000001608                run_smplserv_crash_test
 .text          0x000000000000170c       0xdc /local/mnt/workspace/CRMBuilds/TZ.BF.4.0.3.c1-00005-M8996AAAAANAZT-1_20170110_230814/b/HK11/trustzone_images/core/securemsm/trustzone/qsapps/smplap64/build/sampleapp/A53_64/IADAANAA/app_smplcert_test.o
                0x000000000000170c                run_smplcert_test
 .text          0x00000000000017e8     0x9a60 /local/mnt/workspace/CRMBuilds/TZ.BF.4.0.3.c1-00005-M8996AAAAANAZT-1_20170110_230814/b/HK11/trustzone_images/core/securemsm/trustzone/qsapps/smplap64/build/sampleapp/A53_64/IADAANAA/app_crypto.o
                0x00000000000017e8                tz_app_crypto_aes_func
                0x0000000000001bf8                tz_app_crypto_triple_des_func
                0x0000000000001f1c                tz_app_crypto_triple_des_large_func
                0x0000000000002298                tz_app_crypto_aes_large_func
                0x0000000000002688                tz_app_crypto_aes_xts_func
                0x0000000000002a4c                tz_app_crypto_aes_ccm_func
                0x0000000000003028                tz_app_crypto_aes_block_func
                0x000000000000332c                tz_app_crypto_hash_func
                0x00000000000033d4                tz_app_crypto_hash_block_func
                0x0000000000003560                tz_app_crypto_hash_aes_func
                0x0000000000003a38                tz_app_crypto_hmac_func
                0x0000000000003b64                tz_app_crypto_cmac_func
                0x0000000000003c28                tz_app_crypto_aes_perf
                0x0000000000003d6c                tz_app_crypto_triple_des_perf
                0x0000000000003eac                tz_app_crypto_aes_xts_perf
                0x0000000000004034                tz_app_crypto_hash_perf
                0x00000000000040b0                tz_app_crypto_hash_aes_perf
                0x00000000000042d0                tz_app_crypto_hmac_perf
                0x000000000000433c                tz_app_crypto_cmac_perf
                0x00000000000043ac                tz_app_aes_func
                0x00000000000048d8                tz_app_des_func
                0x0000000000004c1c                tz_app_aes_xts_func
                0x0000000000004ef8                tz_app_aes_ccm_func
                0x0000000000005294                tz_app_hash_func
                0x0000000000005440                tz_app_hash_aes_func
                0x000000000000574c                tz_app_hmac_func
                0x0000000000005940                tz_app_cmac_func
                0x0000000000005b08                tz_app_aes_perf
                0x00000000000060a0                tz_app_des_perf
                0x00000000000063a4                tz_app_aes_xts_perf
                0x00000000000066e4                tz_app_hash_perf
                0x0000000000006944                tz_app_hash_aes_perf
                0x0000000000006d90                tz_app_hmac_perf
                0x0000000000007064                tz_app_cmac_perf
                0x0000000000007340                tz_app_kdf_perf
                0x00000000000076ac                tz_app_crypto_kdf
                0x0000000000007a34                tz_app_crypto_ecdh_func
                0x0000000000007b54                tz_app_crypto_ecdsa_func
                0x0000000000007c7c                tz_app_crypto_generic_ecdsa_func
                0x0000000000008a7c                tz_app_crypto_generic_ecdh_func
                0x0000000000008d64                tz_app_ecdh_func
                0x0000000000008dfc                tz_app_ecdsa_func
                0x0000000000008ee0                tz_app_generic_ecdh_func
                0x0000000000008f64                tz_app_generic_ecdsa_func
                0x0000000000009010                tz_app_ufcrypto_aes_func
                0x0000000000009588                tz_app_ufcrypto_aes_gcm_func
                0x0000000000009a40                tz_app_ufcrypto_hash_func
                0x0000000000009b40                tz_app_ufcrypto_hmac_func
                0x0000000000009cb4                tz_app_sw_aes_func
                0x000000000000a090                tz_app_sw_hash_func
                0x000000000000a1fc                tz_app_sw_hmac_func
                0x000000000000a3f0                tz_app_ufcrypto_aes_perf
                0x000000000000a5a0                tz_app_ufcrypto_hash_perf
                0x000000000000a690                tz_app_ufcrypto_hmac_perf
                0x000000000000a764                tz_app_sw_aes_perf
                0x000000000000a9f8                tz_app_sw_aes_gcm_perf
                0x000000000000acb8                tz_app_sw_hash_perf
                0x000000000000ae74                tz_app_sw_hmac_perf
                0x000000000000b048                tz_app_crypto_test
                0x000000000000b0bc                tz_app_crypto_func_test
                0x000000000000b188                tz_app_crypto_perf_test
 .text          0x000000000000b248     0x4900 /local/mnt/workspace/CRMBuilds/TZ.BF.4.0.3.c1-00005-M8996AAAAANAZT-1_20170110_230814/b/HK11/trustzone_images/core/securemsm/trustzone/qsapps/smplap64/build/sampleapp/A53_64/IADAANAA/app_sfs.o
                0x000000000000b248                smplap_sfs_unit_open
                0x000000000000b4d0                smplap_sfs_unit_read_write
                0x000000000000b958                smplap_sfs_unit_get_size
                0x000000000000bc24                smplap_sfs_unit_seek
                0x000000000000cbe8                smplap_sfs_unit_rm
                0x000000000000cd20                smplap_sfs_unit_file_list
                0x000000000000d054                smplap_sfs_basic_use_cases
                0x000000000000dc24                smplap_sfs_perf_test
                0x000000000000e22c                smplap_sfs_unit_test_suite
                0x000000000000e284                tz_app_sfs
                0x000000000000ec74                tz_app_counter
                0x000000000000f500                tz_app_fs
 .text          0x000000000000fb48     0x1070 /local/mnt/workspace/CRMBuilds/TZ.BF.4.0.3.c1-00005-M8996AAAAANAZT-1_20170110_230814/b/HK11/trustzone_images/core/securemsm/trustzone/qsapps/smplap64/build/sampleapp/A53_64/IADAANAA/app_rsa.o
                0x000000000000fb48                init_key
                0x000000000000fba4                free_key
                0x000000000000fbb0                tzt_test_crypto_rsa_enc_dec_vect
                0x000000000000fdd0                test_crypto_rsa_enc_dec
                0x0000000000010074                tzt_test_crypto_rsa_sign_verify_vect
                0x00000000000102cc                test_crypto_rsa_sign_verify
                0x00000000000105d4                test_crypto_rsa_byte_count
                0x000000000001066c                test_crypto_rsa_CRT_verify
                0x0000000000010b5c                tz_app_crypto_rsa_test
 .text          0x0000000000010bb8     0x1650 /local/mnt/workspace/CRMBuilds/TZ.BF.4.0.3.c1-00005-M8996AAAAANAZT-1_20170110_230814/b/HK11/trustzone_images/core/securemsm/trustzone/qsapps/smplap64/build/sampleapp/A53_64/IADAANAA/qsee_api_tests.o
                0x0000000000010bb8                run_core_test
                0x0000000000010d44                run_securechannel_test
                0x0000000000010d78                run_misc_test
                0x0000000000010f6c                run_tlmm_tests
                0x000000000001111c                run_buses_spi_test
                0x0000000000011308                run_buses_test
                0x00000000000113a8                security_state_test
                0x00000000000114a0                run_abort_test
                0x00000000000114d0                run_cache_test
                0x0000000000011578                run_sharedbuffer_test
                0x000000000001161c                run_spin_test
                0x0000000000011624                run_trans_test
                0x0000000000011728                run_oem_buf_test
                0x0000000000011d08                run_intlock_tests
                0x0000000000012048                run_blsp_modify_ownership_test
                0x00000000000120d8                run_log_bitmask_test
 .text          0x0000000000012208      0x440 /local/mnt/workspace/CRMBuilds/TZ.BF.4.0.3.c1-00005-M8996AAAAANAZT-1_20170110_230814/b/HK11/trustzone_images/core/securemsm/trustzone/qsapps/smplap64/build/sampleapp/A53_64/IADAANAA/app_cmnlib.o
                0x0000000000012208                copy_S_BIGINT
                0x000000000001224c                test_crypto_rsa_complementary
                0x00000000000124f4                tz_app_cmnlib_test
 .text          0x0000000000012648      0x1d0 /local/mnt/workspace/CRMBuilds/TZ.BF.4.0.3.c1-00005-M8996AAAAANAZT-1_20170110_230814/b/HK11/trustzone_images/core/securemsm/trustzone/qsapps/smplap64/build/sampleapp/A53_64/IADAANAA/app_message_passing.o
                0x0000000000012648                run_message_passing_test
 .text          0x0000000000012818      0x114 /local/mnt/workspace/CRMBuilds/TZ.BF.4.0.3.c1-00005-M8996AAAAANAZT-1_20170110_230814/b/HK11/trustzone_images/core/securemsm/trustzone/qsapps/smplap64/build/sampleapp/A53_64/IADAANAA/app_fuses.o
                0x0000000000012818                run_fuse_test
                0x000000000001283c                run_sw_fuse_test
 .text          0x000000000001292c     0x1754 /local/mnt/workspace/CRMBuilds/TZ.BF.4.0.3.c1-00005-M8996AAAAANAZT-1_20170110_230814/b/HK11/trustzone_images/core/securemsm/trustzone/qsapps/smplap64/build/sampleapp/A53_64/IADAANAA/app_stor.o
                0x000000000001292c                BufferBackup
                0x000000000001299c                BufferRestore
                0x0000000000012a0c                qsee_stor_memset
                0x0000000000012a38                qsee_stor_deviceInitTest
                0x0000000000012aac                qsee_stor_deviceAddOpenPartitionTest
                0x0000000000012bdc                qsee_stor_devRWSingleContTest
                0x0000000000012ea0                qsee_stor_devRWSingleAltTest
                0x0000000000013170                qsee_stor_devRWDoubleContTest
                0x00000000000134b0                qsee_stor_devRWDoubleAltTest
                0x00000000000137b8                qsee_stor_AdversarialTest
                0x000000000001399c                qsee_stor_devRWAdversarialTest
                0x0000000000013cdc                qsee_stor_RWSProfileTest
                0x0000000000013f84                run_stor_test
 .text          0x0000000000014080      0x644 /local/mnt/workspace/CRMBuilds/TZ.BF.4.0.3.c1-00005-M8996AAAAANAZT-1_20170110_230814/b/HK11/trustzone_images/core/securemsm/trustzone/qsapps/smplap64/build/sampleapp/A53_64/IADAANAA/app_content_protection.o
                0x0000000000014080                mem_seg_copy
                0x0000000000014340                Content_Protection_Copy_NonsecureToSecure
 .text          0x00000000000146c4      0x808 /local/mnt/workspace/CRMBuilds/TZ.BF.4.0.3.c1-00005-M8996AAAAANAZT-1_20170110_230814/b/HK11/trustzone_images/core/securemsm/trustzone/qsapps/smplap64/build/sampleapp/A53_64/IADAANAA/app_secure_ui.o
                0x00000000000146c4                stop_disp
                0x00000000000146dc                copy_dot
                0x00000000000147e0                get_display_properties
                0x000000000001482c                start_disp_fullscreen
                0x00000000000148d4                show_image
                0x0000000000014a70                run_display_test
                0x0000000000014ae0                run_touch_test
 .text          0x0000000000014ecc     0x3090 /local/mnt/workspace/CRMBuilds/TZ.BF.4.0.3.c1-00005-M8996AAAAANAZT-1_20170110_230814/b/HK11/trustzone_images/core/securemsm/trustzone/qsapps/smplap64/build/sampleapp/A53_64/IADAANAA/app_bio_lib.o
                0x0000000000014ecc                run_bio_lib_tests
 .text          0x0000000000017f5c     0x1eec /local/mnt/workspace/CRMBuilds/TZ.BF.4.0.3.c1-00005-M8996AAAAANAZT-1_20170110_230814/b/HK11/trustzone_images/core/securemsm/trustzone/qsapps/smplap64/build/sampleapp/A53_64/IADAANAA/app_bulletin_board.o
                0x0000000000017f5c                run_bulletin_board_tests
 .text          0x0000000000019e48       0x30 /local/mnt/workspace/CRMBuilds/TZ.BF.4.0.3.c1-00005-M8996AAAAANAZT-1_20170110_230814/b/HK11/trustzone_images/core/kernel/libstd/build/sampleapp/A53_64/IADAANAA/libstd.lib(memscpy.o)
                0x0000000000019e48                memscpy
 .text          0x0000000000019e78       0x3c /local/mnt/workspace/CRMBuilds/TZ.BF.4.0.3.c1-00005-M8996AAAAANAZT-1_20170110_230814/b/HK11/trustzone_images/core/kernel/libstd/build/sampleapp/A53_64/IADAANAA/libstd.lib(strlcpy.o)
                0x0000000000019e78                strlcpy
 .text          0x0000000000019eb4       0x30 /local/mnt/workspace/CRMBuilds/TZ.BF.4.0.3.c1-00005-M8996AAAAANAZT-1_20170110_230814/b/HK11/trustzone_images/core/kernel/libstd/build/sampleapp/A53_64/IADAANAA/libstd.lib(secure_memset.o)
                0x0000000000019eb4                secure_memset
 .text          0x0000000000019ee4       0x40 /local/mnt/workspace/CRMBuilds/TZ.BF.4.0.3.c1-00005-M8996AAAAANAZT-1_20170110_230814/b/HK11/trustzone_images/core/kernel/libstd/build/sampleapp/A53_64/IADAANAA/libstd.lib(timesafe_memcmp.o)
                0x0000000000019ee4                timesafe_memcmp
 .text          0x0000000000019f24       0x84 /local/mnt/workspace/CRMBuilds/TZ.BF.4.0.3.c1-00005-M8996AAAAANAZT-1_20170110_230814/b/HK11/trustzone_images/core/kernel/libstd/build/sampleapp/A53_64/IADAANAA/libstd.lib(timesafe_strncmp.o)
                0x0000000000019f24                timesafe_strncmp
 .text          0x0000000000019fa8     0x21bc /local/mnt/workspace/CRMBuilds/TZ.BF.4.0.3.c1-00005-M8996AAAAANAZT-1_20170110_230814/b/HK11/trustzone_images/core/securemsm/sse/qsee/SecureUI/build/sampleapp/A53_64/IADAANAA/secure_ui.lib(SecureUI.o)
                0x0000000000019fa8                sec_ui_get_disp_properties
                0x000000000001a13c                sec_ui_start_disp_fullscreen
                0x000000000001abc0                session_is_unchanged
                0x000000000001ad20                sec_ui_stop_disp
                0x000000000001b164                sec_ui_show_buf
                0x000000000001b548                sec_ui_copy_to_buffer
                0x000000000001b804                sec_ui_hlos_release
                0x000000000001b8a4                sec_ui_alloc_app_buffer
                0x000000000001bc68                sec_ui_free_app_buffer
 .text          0x000000000001c164      0x158 /local/mnt/workspace/CRMBuilds/TZ.BF.4.0.3.c1-00005-M8996AAAAANAZT-1_20170110_230814/b/HK11/trustzone_images/core/securemsm/sse/qsee/SecureUILib/lib/build/sampleapp/A53_64/IADAANAA/secure_ui_lib.lib(SecureUILib.o)
                0x000000000001c164                secUiProcessCmd
                0x000000000001c218                secUiCmd
                0x000000000001c278                secUiRegisterTouchCallback
                0x000000000001c288                secUiTouchIsActive
                0x000000000001c2a0                secUiSetPanelSize
 .text          0x000000000001c2bc      0x11c /local/mnt/workspace/CRMBuilds/TZ.BF.4.0.3.c1-00005-M8996AAAAANAZT-1_20170110_230814/b/HK11/trustzone_images/core/securemsm/sse/qsee/SecureUILib/lib/build/sampleapp/A53_64/IADAANAA/secure_ui_lib.lib(01_startTouch.o)
                0x000000000001c2bc                processCmdStartTouch
 .text          0x000000000001c3d8      0x20c /local/mnt/workspace/CRMBuilds/TZ.BF.4.0.3.c1-00005-M8996AAAAANAZT-1_20170110_230814/b/HK11/trustzone_images/core/securemsm/sse/qsee/SecureUILib/lib/build/sampleapp/A53_64/IADAANAA/secure_ui_lib.lib(02_processTouch.o)
                0x000000000001c3d8                processCmdProcessTouch
 .text          0x000000000001c5e4      0x114 /local/mnt/workspace/CRMBuilds/TZ.BF.4.0.3.c1-00005-M8996AAAAANAZT-1_20170110_230814/b/HK11/trustzone_images/core/securemsm/sse/qsee/SecureUILib/lib/build/sampleapp/A53_64/IADAANAA/secure_ui_lib.lib(03_stopTouch.o)
                0x000000000001c5e4                secUiTouchStop
                0x000000000001c66c                processCmdStopTouch
 .text          0x000000000001c6f8      0x9b0 /local/mnt/workspace/CRMBuilds/TZ.BF.4.0.3.c1-00005-M8996AAAAANAZT-1_20170110_230814/b/HK11/trustzone_images/core/securemsm/trustzone/qsapps/libs/applib/common_applib/build/sampleapp/A53_64/IADAANAA/tzapp_entrylib.lib(common_applib.o)
                0x000000000001c6f8                qsee_err_fatal
                0x000000000001c718                platform_err_fatal
                0x000000000001c71c                platform_get_random
                0x000000000001c720                __stack_chk_fail
                0x000000000001c724                _sys_command_string
                0x000000000001c730                get_app_req_resp
                0x000000000001c73c                qsee_read_register
                0x000000000001c760                qsee_request_service
                0x000000000001c820                qsee_prepare_shared_buf_for_nosecure_read
                0x000000000001c844                qsee_prepare_shared_buf_for_secure_read
                0x000000000001c868                qsee_set_global_flag
                0x000000000001c88c                qsee_get_global_flag
                0x000000000001c8ac                qsee_oem_process_cmd
                0x000000000001c8d8                qsee_enforce_hdmi_hdcp_encryption
                0x000000000001c8fc                qsee_write_hdcp2p2_key_riv_enable
                0x000000000001c92c                qsee_read_hdcp2p2_min_encryption_level
                0x000000000001c950                qsee_write_hdcp2p2_min_encryption_level
                0x000000000001c974                qsee_get_hdcp_min_enc_level
                0x000000000001c998                qsee_set_hdcp_min_enc_level
                0x000000000001c9bc                qsee_write_hdcp1_key
                0x000000000001c9e0                qsee_set_hdcp_cpi_assert
                0x000000000001ca04                qsee_get_secure_state
                0x000000000001ca28                qsee_malloc
                0x000000000001ca38                qsee_realloc
                0x000000000001ca88                qsee_realloc_common
                0x000000000001cb40                qsee_free
                0x000000000001cb6c                qsee_cmnlib_malloc
                0x000000000001cb9c                qsee_cmnlib_free
                0x000000000001cbc8                tzlib_app_entry
                0x000000000001cd20                get_ta_app_name
                0x000000000001cd30                get_app_md
 .text.tz_module_open
                0x000000000001d0a8        0xc /local/mnt/workspace/CRMBuilds/TZ.BF.4.0.3.c1-00005-M8996AAAAANAZT-1_20170110_230814/b/HK11/trustzone_images/core/securemsm/trustzone/qsapps/libs/applib/common_applib/build/sampleapp/A53_64/IADAANAA/tzapp_entrylib.lib(common_applib.o)
                0x000000000001d0a8                tz_module_open
 .text          0x000000000001d0b4      0x6e8 /local/mnt/workspace/CRMBuilds/TZ.BF.4.0.3.c1-00005-M8996AAAAANAZT-1_20170110_230814/b/HK11/trustzone_images/core/securemsm/trustzone/qsapps/libs/applib/proxy/build/sampleapp/A53_64/IADAANAA/tzlib_proxy.lib(prxy_services.o)
                0x000000000001d0b4                qsee_kdf
                0x000000000001d0e0                qsee_log
                0x000000000001d1f0                qsee_log_set_mask
                0x000000000001d218                qsee_log_get_mask
                0x000000000001d244                open
                0x000000000001d29c                read
                0x000000000001d2c8                write
                0x000000000001d2f4                close
                0x000000000001d320                lstat
                0x000000000001d34c                mkdir
                0x000000000001d378                frename
                0x000000000001d3a4                opendir
                0x000000000001d3d0                readdir
                0x000000000001d3fc                rmdir
                0x000000000001d428                testdir
                0x000000000001d454                file_get_partition_free_size
                0x000000000001d480                fstat
                0x000000000001d4ac                lseek
                0x000000000001d4d8                time_getsystime
                0x000000000001d504                time_getutcsec
                0x000000000001d530                time_is_leap_year
                0x000000000001d55c                remove
                0x000000000001d588                unlink
                0x000000000001d5b4                link
                0x000000000001d5e0                telldir
                0x000000000001d60c                fsync
                0x000000000001d638                openat
                0x000000000001d68c                unlinkat
                0x000000000001d6b8                fcntl
                0x000000000001d710                creat
                0x000000000001d73c                file_dir_chown_chmod
                0x000000000001d770                get_error_number
 .text          0x000000000001d79c      0x2c4 /local/mnt/workspace/CRMBuilds/TZ.BF.4.0.3.c1-00005-M8996AAAAANAZT-1_20170110_230814/b/HK11/trustzone_images/core/securemsm/trustzone/qsapps/libs/applib/proxy/build/sampleapp/A53_64/IADAANAA/tzlib_proxy.lib(prxy_qsee_shim.o)
                0x000000000001d79c                qsee_rsa_key_gen
                0x000000000001d7b8                qsee_secpkcs8_parse
                0x000000000001d7d4                qsee_rsa_sign_hash
                0x000000000001d7f0                qsee_rsa_verify_signature
                0x000000000001d80c                qsee_rsa_encrypt
                0x000000000001d828                qsee_rsa_decrypt
                0x000000000001d844                qsee_BIGINT_read_unsigned_bin
                0x000000000001d860                qsee_util_init_s_bigint
                0x000000000001d87c                qsee_util_free_s_bigint
                0x000000000001d880                qsee_BIGINT_read_radix
                0x000000000001d89c                qsee_rsa_exptmod
                0x000000000001d8b8                qsee_util_count_bytes
                0x000000000001d8bc                qsee_SW_ECC_PubPrivate_Key_generate
                0x000000000001d8d8                qsee_SW_ECDH_Shared_Key_Derive
                0x000000000001d8f4                qsee_SW_ECDSA_Sign
                0x000000000001d910                qsee_SW_ECDSA_Verify
                0x000000000001d92c                qsee_ECC_hash_to_bigval
                0x000000000001d930                qsee_toggle_random_bit
                0x000000000001d934                qsee_get_random_bytes
                0x000000000001d938                qsee_in_curveP
                0x000000000001d954                qsee_SW_GENERIC_ECC_init
                0x000000000001d970                qsee_SW_GENERIC_ECDSA_sign
                0x000000000001d98c                qsee_SW_GENERIC_ECDSA_verify
                0x000000000001d9a8                qsee_SW_GENERIC_ECDH_shared_key_derive
                0x000000000001d9c4                qsee_SW_GENERIC_ECC_keypair_generate
                0x000000000001d9e0                qsee_SW_GENERIC_ECC_binary_to_bigval
                0x000000000001d9fc                qsee_SW_GENERIC_ECC_bigval_to_binary
                0x000000000001da18                qsee_SW_GENERIC_ECC_compare
                0x000000000001da34                qsee_SW_GENERIC_ECC_convert_input_to_bigval
                0x000000000001da50                qsee_SW_Cipher_DES_Init
                0x000000000001da54                qsee_SW_Cipher_DES_DeInit
                0x000000000001da58                qsee_SW_CipherDESData
                0x000000000001da5c                qsee_SW_Cipher_DES_SetParam
 .text          0x000000000001da60      0x18c /local/mnt/workspace/CRMBuilds/TZ.BF.4.0.3.c1-00005-M8996AAAAANAZT-1_20170110_230814/b/HK11/trustzone_images/core/securemsm/trustzone/qsapps/libs/applib/proxy/build/sampleapp/A53_64/IADAANAA/tzlib_proxy.lib(prxy_ufaes.o)
                0x000000000001da60                qsee_SW_Cipher_Init
                0x000000000001da8c                qsee_SW_Cipher_DeInit
                0x000000000001dab8                qsee_SW_Cipher_Reset
                0x000000000001dae4                qsee_SW_CipherData
                0x000000000001db10                qsee_SW_Cipher_SetParam
                0x000000000001db3c                qsee_SW_Cipher_GetParam
                0x000000000001db68                qsee_SW_AE_UpdateData
                0x000000000001db94                qsee_SW_AE_FinalData
                0x000000000001dbc0                qsee_SW_AE_UpdateAAD
 .text          0x000000000001dbec       0xb0 /local/mnt/workspace/CRMBuilds/TZ.BF.4.0.3.c1-00005-M8996AAAAANAZT-1_20170110_230814/b/HK11/trustzone_images/core/securemsm/trustzone/qsapps/libs/applib/proxy/build/sampleapp/A53_64/IADAANAA/tzlib_proxy.lib(prxy_ufdes.o)
                0x000000000001dbec                SW_Cipher_DES_Init
                0x000000000001dc18                SW_Cipher_DES_DeInit
                0x000000000001dc44                SW_CipherDESData
                0x000000000001dc70                SW_Cipher_DES_SetParam
 .text          0x000000000001dc9c       0xdc /local/mnt/workspace/CRMBuilds/TZ.BF.4.0.3.c1-00005-M8996AAAAANAZT-1_20170110_230814/b/HK11/trustzone_images/core/securemsm/trustzone/qsapps/libs/applib/proxy/build/sampleapp/A53_64/IADAANAA/tzlib_proxy.lib(prxy_ufsha.o)
                0x000000000001dc9c                qsee_SW_Hash_Init
                0x000000000001dcc8                qsee_SW_Hash_Update
                0x000000000001dcf4                qsee_SW_Hash_Final
                0x000000000001dd20                qsee_SW_Hmac
                0x000000000001dd4c                qsee_SW_Hash_Reset
 .text          0x000000000001dd78       0x58 /local/mnt/workspace/CRMBuilds/TZ.BF.4.0.3.c1-00005-M8996AAAAANAZT-1_20170110_230814/b/HK11/trustzone_images/core/securemsm/trustzone/qsapps/libs/applib/proxy/build/sampleapp/A53_64/IADAANAA/tzlib_proxy.lib(prxy_secmath.o)
                0x000000000001dd78                secmath_BIGINT_read_unsigned_bin
                0x000000000001dda4                secmath_BIGINT_read_radix
 .text          0x000000000001ddd0      0x1b4 /local/mnt/workspace/CRMBuilds/TZ.BF.4.0.3.c1-00005-M8996AAAAANAZT-1_20170110_230814/b/HK11/trustzone_images/core/securemsm/trustzone/qsapps/libs/applib/proxy/build/sampleapp/A53_64/IADAANAA/tzlib_proxy.lib(prxy_secrsa.o)
                0x000000000001ddd0                secpkcs8_parse
                0x000000000001ddfc                ce_rsa_key_gen
                0x000000000001de28                ce_rsa_encrypt
                0x000000000001de54                ce_rsa_decrypt
                0x000000000001de80                ce_rsa_sign_hash
                0x000000000001deac                ce_rsa_verify_signature
                0x000000000001ded8                ce_util_init_s_bigint
                0x000000000001df04                ce_util_free_s_bigint
                0x000000000001df2c                ce_util_count_bytes
                0x000000000001df58                ce_rsa_exptmod
 .text          0x000000000001df84      0x2e8 /local/mnt/workspace/CRMBuilds/TZ.BF.4.0.3.c1-00005-M8996AAAAANAZT-1_20170110_230814/b/HK11/trustzone_images/core/securemsm/trustzone/qsapps/libs/applib/proxy/build/sampleapp/A53_64/IADAANAA/tzlib_proxy.lib(prxy_ecc.o)
                0x000000000001df84                SW_ECC_PubPrivate_Key_generate
                0x000000000001dfb0                SW_ECDH_Shared_Key_Derive
                0x000000000001dfdc                SW_ECDSA_Sign
                0x000000000001e008                SW_ECDSA_Verify
                0x000000000001e034                ECC_hash_to_bigval
                0x000000000001e05c                toggle_random_bit
                0x000000000001e088                in_curveP
                0x000000000001e0b4                get_random_bytes
                0x000000000001e0e0                SW_GENERIC_ECC_init
                0x000000000001e10c                SW_GENERIC_ECDSA_sign
                0x000000000001e138                SW_GENERIC_ECDSA_verify
                0x000000000001e164                SW_GENERIC_ECDH_shared_key_derive
                0x000000000001e190                SW_GENERIC_ECC_keypair_generate
                0x000000000001e1bc                SW_GENERIC_ECC_binary_to_bigval
                0x000000000001e1e8                SW_GENERIC_ECC_bigval_to_binary
                0x000000000001e214                SW_GENERIC_ECC_compare
                0x000000000001e240                SW_GENERIC_ECC_convert_input_to_bigval
 .text          0x000000000001e26c      0x3e8 /local/mnt/workspace/CRMBuilds/TZ.BF.4.0.3.c1-00005-M8996AAAAANAZT-1_20170110_230814/b/HK11/trustzone_images/core/securemsm/trustzone/qsapps/libs/applib/qsee64/build/sampleapp/A53_64/IADAANAA/tzapp_entrylib.lib(mink_shared_code.o)
                0x000000000001e26c                UThread_syscall
                0x000000000001e294                minkIPC
                0x000000000001e420                minkServerLoop
                0x000000000001e62c                minkServerEntry
 .text          0x000000000001e654      0x430 /local/mnt/workspace/CRMBuilds/TZ.BF.4.0.3.c1-00005-M8996AAAAANAZT-1_20170110_230814/b/HK11/trustzone_images/core/securemsm/trustzone/qsapps/libs/applib/qsee64/build/sampleapp/A53_64/IADAANAA/tzapp_entrylib.lib(qsee_env.o)
                0x000000000001e654                qsee_set_env
                0x000000000001e684                qsee_open
                0x000000000001e724                qsee_open_singleton
                0x000000000001e92c                qsee_printf_ap
                0x000000000001e9dc                qsee_printf
 .text          0x000000000001ea84      0x280 /local/mnt/workspace/CRMBuilds/TZ.BF.4.0.3.c1-00005-M8996AAAAANAZT-1_20170110_230814/b/HK11/trustzone_images/core/securemsm/trustzone/qsapps/libs/applib/qsee64/build/sampleapp/A53_64/IADAANAA/tzapp_entrylib.lib(qsee_core_shim.o)
                0x000000000001ea84                qsee_exec_protect_memory
                0x000000000001eab0                qsee_is_sw_fuse_blown
                0x000000000001ead4                qsee_blow_sw_fuse
                0x000000000001eaf8                qsee_ks_decrypt
                0x000000000001eb70                qsee_ks_get_key
                0x000000000001ebdc                qsee_ks_delete_key
                0x000000000001ec08                qsee_ce_pipe_key_select
                0x000000000001ec38                qsee_ce_disable_sequence
                0x000000000001ec5c                qsee_ice_set_context_config
                0x000000000001ec90                qsee_hdmi_status_read
                0x000000000001ecbc                qsee_get_tz_app_id
                0x000000000001ece0                qsee_blsp_modify_ownership
 .text          0x000000000001ed04      0x194 /local/mnt/workspace/CRMBuilds/TZ.BF.4.0.3.c1-00005-M8996AAAAANAZT-1_20170110_230814/b/HK11/trustzone_images/core/securemsm/trustzone/qsapps/libs/applib/qsee64/build/sampleapp/A53_64/IADAANAA/tzapp_entrylib.lib(qsee_deviceid.o)
                0x000000000001ed04                qsee_read_jtag_id
                0x000000000001ed88                qsee_read_serial_num
                0x000000000001ee0c                qsee_get_device_uuid
 .text          0x000000000001ee98       0x8c /local/mnt/workspace/CRMBuilds/TZ.BF.4.0.3.c1-00005-M8996AAAAANAZT-1_20170110_230814/b/HK11/trustzone_images/core/securemsm/trustzone/qsapps/libs/applib/qsee64/build/sampleapp/A53_64/IADAANAA/tzapp_entrylib.lib(qsee_prng.o)
                0x000000000001ee98                qsee_prng_getdata
 .text          0x000000000001ef24      0x118 /local/mnt/workspace/CRMBuilds/TZ.BF.4.0.3.c1-00005-M8996AAAAANAZT-1_20170110_230814/b/HK11/trustzone_images/core/securemsm/trustzone/qsapps/libs/applib/qsee64/build/sampleapp/A53_64/IADAANAA/tzapp_entrylib.lib(qsee_secdisp.o)
                0x000000000001ef24                qsee_sd_get_session
                0x000000000001efac                qsee_sd_set_stop_allowed
 .text          0x000000000001f03c      0x294 /local/mnt/workspace/CRMBuilds/TZ.BF.4.0.3.c1-00005-M8996AAAAANAZT-1_20170110_230814/b/HK11/trustzone_images/core/securemsm/trustzone/qsapps/libs/applib/qsee64/build/sampleapp/A53_64/IADAANAA/tzapp_entrylib.lib(qsee_nsmem.o)
                0x000000000001f03c                qsee_is_s_tag_area
                0x000000000001f0e8                qsee_is_ns_range
                0x000000000001f188                qsee_vm_mem_count
                0x000000000001f234                qsee_tag_mem
 .text          0x000000000001f2d0       0xf8 /local/mnt/workspace/CRMBuilds/TZ.BF.4.0.3.c1-00005-M8996AAAAANAZT-1_20170110_230814/b/HK11/trustzone_images/core/securemsm/trustzone/qsapps/libs/applib/qsee64/build/sampleapp/A53_64/IADAANAA/tzapp_entrylib.lib(qsee_cmac.o)
                0x000000000001f2d0                qsee_cmac
 .text          0x000000000001f3c8       0x68 /local/mnt/workspace/CRMBuilds/TZ.BF.4.0.3.c1-00005-M8996AAAAANAZT-1_20170110_230814/b/HK11/trustzone_images/core/securemsm/trustzone/qsapps/libs/applib/qsee64/build/sampleapp/A53_64/IADAANAA/tzapp_entrylib.lib(qsee_crypto_shim.o)
                0x000000000001f3c8                qsee_crypto_lock_engine
                0x000000000001f400                qsee_set_bandwidth
 .text          0x000000000001f430       0x74 /local/mnt/workspace/CRMBuilds/TZ.BF.4.0.3.c1-00005-M8996AAAAANAZT-1_20170110_230814/b/HK11/trustzone_images/core/securemsm/trustzone/qsapps/libs/applib/qsee64/build/sampleapp/A53_64/IADAANAA/tzapp_entrylib.lib(qsee_timer_shim.o)
                0x000000000001f430                qsee_get_uptime
                0x000000000001f464                qsee_wdog_stop
                0x000000000001f484                qsee_wdog_pet
 .text          0x000000000001f4a4      0x3c0 /local/mnt/workspace/CRMBuilds/TZ.BF.4.0.3.c1-00005-M8996AAAAANAZT-1_20170110_230814/b/HK11/trustzone_images/core/securemsm/trustzone/qsapps/libs/applib/qsee64/build/sampleapp/A53_64/IADAANAA/tzapp_entrylib.lib(qsee_comstr.o)
                0x000000000001f4a4                cmp_char_i
                0x000000000001f4d8                qsee_strnicmp
                0x000000000001f52c                qsee_strlcpy
                0x000000000001f56c                qsee_strlcat
                0x000000000001f610                qsee_wstrlen
                0x000000000001f63c                qsee_wstrlcpy
                0x000000000001f6b4                qsee_wstrlcat
                0x000000000001f714                qsee_strtowstr
                0x000000000001f798                qsee_wstrtostr
                0x000000000001f7f8                qsee_wstrchr
                0x000000000001f834                qsee_wstrcmp
 .text          0x000000000001f864      0x1e8 /local/mnt/workspace/CRMBuilds/TZ.BF.4.0.3.c1-00005-M8996AAAAANAZT-1_20170110_230814/b/HK11/trustzone_images/core/securemsm/trustzone/qsapps/libs/applib/qsee64/build/sampleapp/A53_64/IADAANAA/tzapp_entrylib.lib(stor.o)
                0x000000000001f864                check_rpmb_handle
                0x000000000001f8ac                qsee_stor_device_init
                0x000000000001f8d0                qsee_stor_open_partition
                0x000000000001f900                qsee_stor_device_get_info
                0x000000000001f930                qsee_stor_client_get_info
                0x000000000001f964                qsee_stor_add_partition
                0x000000000001f990                qsee_stor_read_sectors
                0x000000000001f9c4                qsee_stor_write_sectors
                0x000000000001f9f8                qsee_stor_read_wp_config
                0x000000000001fa08                qsee_stor_write_wp_config
                0x000000000001fa18                qsee_stor_remove_client
 .text          0x000000000001fa4c     0x1eb0 /local/mnt/workspace/CRMBuilds/TZ.BF.4.0.3.c1-00005-M8996AAAAANAZT-1_20170110_230814/b/HK11/trustzone_images/core/securemsm/trustzone/qsapps/libs/applib/qsee64/build/sampleapp/A53_64/IADAANAA/tzapp_entrylib.lib(stor_gpt.o)
                0x000000000001fa4c                add_gpt_device_handle
                0x000000000001fbdc                add_gpt_client
                0x000000000001fdc8                gpt_dev_init
                0x0000000000020180                gpt_qsee_read_sectors
                0x000000000002056c                gpt_qsee_write_sectors
                0x00000000000208e0                gpt_add_partitions
                0x0000000000020c90                gpt_config_partitions
                0x0000000000020ed8                gpt_init
                0x00000000000211a0                gpt_open_partition
                0x00000000000212d8                gpt_device_get_info
                0x000000000002141c                gpt_client_get_info
                0x00000000000215b8                gpt_add_partition
                0x0000000000021640                gpt_read_sectors
                0x000000000002179c                gpt_write_sectors
 .text          0x00000000000218fc      0x1f8 /local/mnt/workspace/CRMBuilds/TZ.BF.4.0.3.c1-00005-M8996AAAAANAZT-1_20170110_230814/b/HK11/trustzone_images/core/securemsm/trustzone/qsapps/libs/applib/qsee64/build/sampleapp/A53_64/IADAANAA/tzapp_entrylib.lib(stor_rpmbw.o)
                0x00000000000218fc                rpmbw_init
                0x000000000002192c                rpmbw_open_partition
                0x0000000000021960                rpmbw_device_get_info
                0x0000000000021994                rpmbw_client_get_info
                0x00000000000219c8                rpmbw_add_partition
                0x00000000000219f8                rpmbw_read_sectors
                0x0000000000021a34                rpmbw_write_sectors
                0x0000000000021a70                rpmbw_read_wp_config
                0x0000000000021a9c                rpmbw_write_wp_config
                0x0000000000021ac8                rpmbw_remove_client
 .text          0x0000000000021af4      0x120 /local/mnt/workspace/CRMBuilds/TZ.BF.4.0.3.c1-00005-M8996AAAAANAZT-1_20170110_230814/b/HK11/trustzone_images/core/securemsm/trustzone/qsapps/libs/applib/qsee64/build/sampleapp/A53_64/IADAANAA/tzapp_entrylib.lib(qsee_counter_shim.o)
                0x0000000000021af4                qsee_counter_set_folder
                0x0000000000021b34                qsee_create_counter
                0x0000000000021b5c                qsee_query_counter
                0x0000000000021b84                qsee_increment_counter
                0x0000000000021ba8                qsee_delete_counter
                0x0000000000021bcc                qsee_query_rpmb_version
                0x0000000000021bf0                qsee_query_rpmb_enablement
 .text          0x0000000000021c14      0x8a0 /local/mnt/workspace/CRMBuilds/TZ.BF.4.0.3.c1-00005-M8996AAAAANAZT-1_20170110_230814/b/HK11/trustzone_images/core/securemsm/trustzone/qsapps/libs/applib/qsee64/build/sampleapp/A53_64/IADAANAA/tzapp_entrylib.lib(qsee_cipher.o)
                0x0000000000021c14                qsee_cipher_init
                0x0000000000021ce0                qsee_cipher_free_ctx
                0x0000000000021d30                qsee_cipher_set_param
                0x0000000000021f94                qsee_cipher_get_param
                0x00000000000221c8                qsee_cipher_encrypt
                0x00000000000222d8                qsee_cipher_decrypt
                0x00000000000223e8                qsee_cipher_reset
 .text          0x00000000000224b4      0xa4c /local/mnt/workspace/CRMBuilds/TZ.BF.4.0.3.c1-00005-M8996AAAAANAZT-1_20170110_230814/b/HK11/trustzone_images/core/securemsm/trustzone/qsapps/libs/applib/qsee64/build/sampleapp/A53_64/IADAANAA/tzapp_entrylib.lib(qsee_hash.o)
                0x00000000000224b4                qsee_hash_init
                0x0000000000022580                qsee_hash_free_ctx
                0x00000000000225d0                qsee_hash_update
                0x00000000000226cc                qsee_hash_final
                0x00000000000227c8                qsee_hash_set_param
                0x00000000000229fc                qsee_hash
                0x0000000000022abc                qsee_hashcipher_encrypt
                0x0000000000022c78                qsee_hashcipher_decrypt
                0x0000000000022e34                qsee_hash_reset
 .text          0x0000000000022f00      0x514 /local/mnt/workspace/CRMBuilds/TZ.BF.4.0.3.c1-00005-M8996AAAAANAZT-1_20170110_230814/b/HK11/trustzone_images/core/securemsm/trustzone/qsapps/libs/applib/qsee64/build/sampleapp/A53_64/IADAANAA/tzapp_entrylib.lib(qsee_hmac.o)
                0x0000000000022f00                qsee_hmac_init
                0x0000000000022ff0                qsee_hmac_free_ctx
                0x0000000000023040                qsee_hmac_update
                0x000000000002313c                qsee_hmac_final
                0x0000000000023238                qsee_hmac_set_param
                0x0000000000023344                qsee_hmac
 .text          0x0000000000023414      0x48c /local/mnt/workspace/CRMBuilds/TZ.BF.4.0.3.c1-00005-M8996AAAAANAZT-1_20170110_230814/b/HK11/trustzone_images/core/securemsm/trustzone/qsapps/libs/applib/qsee64/build/sampleapp/A53_64/IADAANAA/tzapp_entrylib.lib(qsee_i2c.o)
                0x0000000000023414                qsee_i2c_open
                0x000000000002350c                qsee_i2c_close
                0x00000000000235d8                qsee_i2c_read
                0x0000000000023794                qsee_i2c_write
 .text          0x00000000000238a0      0x558 /local/mnt/workspace/CRMBuilds/TZ.BF.4.0.3.c1-00005-M8996AAAAANAZT-1_20170110_230814/b/HK11/trustzone_images/core/securemsm/trustzone/qsapps/libs/applib/qsee64/build/sampleapp/A53_64/IADAANAA/tzapp_entrylib.lib(qsee_spi.o)
                0x00000000000238a0                qsee_spi_open
                0x000000000002392c                qsee_spi_close
                0x00000000000239b8                qsee_spi_read
                0x0000000000023b88                qsee_spi_write
                0x0000000000023c8c                qsee_spi_full_duplex
 .text          0x0000000000023df8      0x4bc /local/mnt/workspace/CRMBuilds/TZ.BF.4.0.3.c1-00005-M8996AAAAANAZT-1_20170110_230814/b/HK11/trustzone_images/core/securemsm/trustzone/qsapps/libs/applib/qsee64/build/sampleapp/A53_64/IADAANAA/tzapp_entrylib.lib(qsee_tlmm.o)
                0x0000000000023df8                qsee_tlmm_get_gpio_id
                0x0000000000023ee0                qsee_tlmm_release_gpio_id
                0x0000000000023f68                qsee_tlmm_config_gpio_id
                0x0000000000024088                qsee_tlmm_gpio_id_out
                0x0000000000024144                qsee_tlmm_gpio_id_in
                0x00000000000241fc                qsee_tlmm_select_gpio_id_mode
 .text          0x00000000000242b4       0x74 /local/mnt/workspace/CRMBuilds/TZ.BF.4.0.3.c1-00005-M8996AAAAANAZT-1_20170110_230814/b/HK11/trustzone_images/core/securemsm/trustzone/qsapps/libs/applib/qsee64/build/sampleapp/A53_64/IADAANAA/tzapp_entrylib.lib(qsee_bulletin_board_shim.o)
                0x00000000000242b4                qsee_bulletin_board_post
                0x00000000000242e8                qsee_bulletin_board_read
 .text          0x0000000000024328      0x204 /local/mnt/workspace/CRMBuilds/TZ.BF.4.0.3.c1-00005-M8996AAAAANAZT-1_20170110_230814/b/HK11/trustzone_images/core/securemsm/trustzone/qsapps/libs/applib/qsee64/build/sampleapp/A53_64/IADAANAA/tzapp_entrylib.lib(qsee_dcache.o)
                0x0000000000024328                qsee_dcache_clean_region
                0x00000000000243d4                qsee_dcache_flush_region
                0x0000000000024480                qsee_dcache_inval_region
 .text          0x000000000002452c      0x168 /local/mnt/workspace/CRMBuilds/TZ.BF.4.0.3.c1-00005-M8996AAAAANAZT-1_20170110_230814/b/HK11/trustzone_images/core/securemsm/trustzone/qsapps/libs/applib/qsee64/build/sampleapp/A53_64/IADAANAA/tzapp_entrylib.lib(qsee_shared_buffer.o)
                0x000000000002452c                qsee_register_shared_buffer
                0x00000000000245f4                qsee_deregister_shared_buffer
 .text          0x0000000000024694       0x8c /local/mnt/workspace/CRMBuilds/TZ.BF.4.0.3.c1-00005-M8996AAAAANAZT-1_20170110_230814/b/HK11/trustzone_images/core/securemsm/trustzone/qsapps/libs/applib/qsee64/build/sampleapp/A53_64/IADAANAA/tzapp_entrylib.lib(qsee_sync.o)
                0x0000000000024694                qsee_spin
 .text          0x0000000000024720      0x1e8 /local/mnt/workspace/CRMBuilds/TZ.BF.4.0.3.c1-00005-M8996AAAAANAZT-1_20170110_230814/b/HK11/trustzone_images/core/securemsm/trustzone/qsapps/libs/applib/qsee64/build/sampleapp/A53_64/IADAANAA/tzapp_entrylib.lib(qsee_oem_buffer.o)
                0x0000000000024720                qsee_get_oem_buffer_length
                0x00000000000247d0                qsee_read_oem_buffer
                0x000000000002486c                qsee_write_oem_buffer
 .text          0x0000000000024908      0x1f4 /local/mnt/workspace/CRMBuilds/TZ.BF.4.0.3.c1-00005-M8996AAAAANAZT-1_20170110_230814/b/HK11/trustzone_images/core/securemsm/trustzone/qsapps/libs/applib/qsee64/build/sampleapp/A53_64/IADAANAA/tzapp_entrylib.lib(qsee_intmask.o)
                0x0000000000024908                qsee_disable_all_interrupts
                0x00000000000249ac                qsee_set_intmask
                0x0000000000024a58                qsee_get_intmask
 .text          0x0000000000024afc       0xd8 /local/mnt/workspace/CRMBuilds/TZ.BF.4.0.3.c1-00005-M8996AAAAANAZT-1_20170110_230814/b/HK11/trustzone_images/core/securemsm/trustzone/qsapps/libs/applib/qsee64/build/sampleapp/A53_64/IADAANAA/tzapp_entrylib.lib(qsee_trans_ns_addr.o)
                0x0000000000024afc                qsee_trans_ns_addr
 .text          0x0000000000024bd4      0x20c /local/mnt/workspace/CRMBuilds/TZ.BF.4.0.3.c1-00005-M8996AAAAANAZT-1_20170110_230814/b/HK11/trustzone_images/core/securemsm/trustzone/qsapps/libs/applib/qsee64/build/sampleapp/A53_64/IADAANAA/tzapp_entrylib.lib(qsee_appmessage.o)
                0x0000000000024bd4                qsee_encapsulate_inter_app_message
                0x0000000000024cf4                qsee_decapsulate_inter_app_message
 .text          0x0000000000024de0      0x968 /local/mnt/workspace/CRMBuilds/TZ.BF.4.0.3.c1-00005-M8996AAAAANAZT-1_20170110_230814/b/HK11/trustzone_images/core/securemsm/trustzone/qsapps/libs/applib/qsee64/build/sampleapp/A53_64/IADAANAA/tzapp_entrylib.lib(sfs_api.o)
                0x0000000000024de0                qsee_sfs_open
                0x0000000000025028                qsee_sfs_close
                0x0000000000025030                qsee_sfs_read
                0x00000000000250f0                qsee_sfs_write
                0x000000000002517c                qsee_sfs_seek
                0x00000000000252a8                qsee_sfs_getSize
                0x000000000002537c                qsee_sfs_mkdir
                0x0000000000025384                qsee_sfs_rmdir
                0x000000000002538c                qsee_sfs_rm
                0x0000000000025440                qsee_sfs_error
                0x000000000002544c                qsee_sfs_get_file_list
                0x00000000000256c8                qsee_sfs_clean_file_list
                0x00000000000256f0                qsee_sfs_is_anti_rollback_enabled
 .text          0x0000000000025748       0xfc /local/mnt/workspace/CRMBuilds/TZ.BF.4.0.3.c1-00005-M8996AAAAANAZT-1_20170110_230814/b/HK11/trustzone_images/core/securemsm/trustzone/qsapps/libs/applib/qsee64/build/sampleapp/A53_64/IADAANAA/tzapp_entrylib.lib(tzapp_lib_main.o)
                0x0000000000025748                get_app_stack_base
                0x0000000000025754                get_app_stack_size
                0x000000000002576c                get_app_heap_base
                0x0000000000025778                get_app_heap_size
                0x0000000000025790                CApp_handleRequest
                0x00000000000257c4                CApp_invoke
                0x0000000000025814                secure_app_init
                0x000000000002582c                secure_app_shutdown
 .text          0x0000000000025844      0x4e8 /local/mnt/workspace/CRMBuilds/TZ.BF.4.0.3.c1-00005-M8996AAAAANAZT-1_20170110_230814/b/HK11/trustzone_images/core/securemsm/trustzone/qsapps/libs/biometric/build/sampleapp/A53_64/IADAANAA/biometric_lib.lib(biometric.o)
                0x0000000000025844                bio_set_auth_result
                0x0000000000025a08                bio_get_auth_result
                0x0000000000025bd0                bio_wait_for_hlos_event
 .text          0x0000000000025d2c      0x850 /local/mnt/workspace/CRMBuilds/TZ.BF.4.0.3.c1-00005-M8996AAAAANAZT-1_20170110_230814/b/HK11/trustzone_images/core/securemsm/trustzone/qsapps/libs/biometric/build/sampleapp/A53_64/IADAANAA/biometric_lib.lib(biometric_serializer.o)
                0x0000000000025d2c                bio_serialize_auth_result
                0x0000000000026060                bio_deserialize_auth_result
                0x0000000000026398                bio_serialize_file_poll_event_data
                0x0000000000026534                bio_parse_listener_response
 .text          0x000000000002657c      0x13c /afs/localcell/cm/gv2.6/sysname/pkg.@sys/qct/software/llvm/release/arm/3.5.2.4/tools/lib64/lib/libc.a(vsnprintf.o)
                0x000000000002657c                vsnprintf
 .text          0x00000000000266b8       0x34 /afs/localcell/cm/gv2.6/sysname/pkg.@sys/qct/software/llvm/release/arm/3.5.2.4/tools/lib64/lib/libc.a(memcmp.o)
                0x00000000000266b8                memcmp
 .text          0x00000000000266ec      0xa28 /afs/localcell/cm/gv2.6/sysname/pkg.@sys/qct/software/llvm/release/arm/3.5.2.4/tools/lib64/lib/libc.a(memcpy.o)
                0x00000000000266ec                memcpy
 .text          0x0000000000027114      0x484 /afs/localcell/cm/gv2.6/sysname/pkg.@sys/qct/software/llvm/release/arm/3.5.2.4/tools/lib64/lib/libc.a(memmove.o)
                0x0000000000027114                memmove
 .text          0x0000000000027598       0xb0 /afs/localcell/cm/gv2.6/sysname/pkg.@sys/qct/software/llvm/release/arm/3.5.2.4/tools/lib64/lib/libc.a(memset.o)
                0x0000000000027598                memset
 .text          0x0000000000027648       0x40 /afs/localcell/cm/gv2.6/sysname/pkg.@sys/qct/software/llvm/release/arm/3.5.2.4/tools/lib64/lib/libc.a(strcmp.o)
                0x0000000000027648                strcmp
 .text          0x0000000000027688       0x78 /afs/localcell/cm/gv2.6/sysname/pkg.@sys/qct/software/llvm/release/arm/3.5.2.4/tools/lib64/lib/libc.a(strlen.o)
                0x0000000000027688                strlen
 .text          0x0000000000027700       0x54 /afs/localcell/cm/gv2.6/sysname/pkg.@sys/qct/software/llvm/release/arm/3.5.2.4/tools/lib64/lib/libc.a(strncmp.o)
                0x0000000000027700                strncmp
 .text          0x0000000000027754       0x38 /afs/localcell/cm/gv2.6/sysname/pkg.@sys/qct/software/llvm/release/arm/3.5.2.4/tools/lib64/lib/libc.a(strnlen.o)
                0x0000000000027754                strnlen
 .text          0x000000000002778c       0x34 /afs/localcell/cm/gv2.6/sysname/pkg.@sys/qct/software/llvm/release/arm/3.5.2.4/tools/lib64/lib/libc.a(__errno_location.o)
                0x000000000002778c                __errno_location
 .text          0x00000000000277c0      0xe44 /afs/localcell/cm/gv2.6/sysname/pkg.@sys/qct/software/llvm/release/arm/3.5.2.4/tools/lib64/lib/libc.a(vfprintf.o)
                0x00000000000277c0                vfprintf
 .text          0x0000000000028604       0xdc /afs/localcell/cm/gv2.6/sysname/pkg.@sys/qct/software/llvm/release/arm/3.5.2.4/tools/lib64/lib/libc.a(memchr.o)
                0x0000000000028604                memchr
 .text          0x00000000000286e0       0x6c /afs/localcell/cm/gv2.6/sysname/pkg.@sys/qct/software/llvm/release/arm/3.5.2.4/tools/lib64/lib/libc.a(strerror.o)
                0x00000000000286e0                strerror
 .text          0x000000000002874c       0x24 /afs/localcell/cm/gv2.6/sysname/pkg.@sys/qct/software/llvm/release/arm/3.5.2.4/tools/lib64/lib/libc.a(wctomb.o)
                0x000000000002874c                wctomb
 .text          0x0000000000028770       0xd4 /afs/localcell/cm/gv2.6/sysname/pkg.@sys/qct/software/llvm/release/arm/3.5.2.4/tools/lib64/lib/libc.a(__lockfile.o)
                0x0000000000028770                __lockfile
                0x000000000002880c                __unlockfile
 .text          0x0000000000028844      0x19c /afs/localcell/cm/gv2.6/sysname/pkg.@sys/qct/software/llvm/release/arm/3.5.2.4/tools/lib64/lib/libc.a(fwrite.o)
                0x0000000000028844                __fwritex
                0x000000000002893c                fwrite_unlocked
                0x000000000002893c                fwrite
 .text          0x00000000000289e0       0xa4 /afs/localcell/cm/gv2.6/sysname/pkg.@sys/qct/software/llvm/release/arm/3.5.2.4/tools/lib64/lib/libc.a(__wait.o)
                0x00000000000289e0                __wait
 .text          0x0000000000028a84       0x40 /afs/localcell/cm/gv2.6/sysname/pkg.@sys/qct/software/llvm/release/arm/3.5.2.4/tools/lib64/lib/libc.a(syscall.o)
                0x0000000000028a84                __syscall
 .text          0x0000000000028ac4       0xf0 /afs/localcell/cm/gv2.6/sysname/pkg.@sys/qct/software/llvm/release/arm/3.5.2.4/tools/lib64/lib/libc.a(wcrtomb.o)
                0x0000000000028ac4                wcrtomb
 .text          0x0000000000028bb4       0x68 /afs/localcell/cm/gv2.6/sysname/pkg.@sys/qct/software/llvm/release/arm/3.5.2.4/tools/lib64/lib/libc.a(__towrite.o)
                0x0000000000028bb4                __towrite
                0x0000000000028c18                __flush_on_exit
 .text          0x0000000000028c1c       0xd4 /afs/localcell/cm/gv2.6/sysname/pkg.@sys/qct/software/llvm/release/arm/3.5.2.4/tools/lib64/lib/libc.a(__stdio_exit.o)
                0x0000000000028c1c                __stdio_exit
 .text          0x0000000000028cf0       0xa0 /afs/localcell/cm/gv2.6/sysname/pkg.@sys/qct/software/llvm/release/arm/3.5.2.4/tools/lib64/lib/libc.a(__lock.o)
                0x0000000000028cf0                __lock
                0x0000000000028d54                __unlock
 .text          0x0000000000028d90       0xe4 /local/mnt/workspace/CRMBuilds/TZ.BF.4.0.3.c1-00005-M8996AAAAANAZT-1_20170110_230814/b/HK11/trustzone_images/core/securemsm/sse/qsee/SecureTouch/drTs/lib/build/sampleapp/A53_64/IADAANAA/touch_lib.lib(01_open.o)
                0x0000000000028d90                touchOpen
 .text          0x0000000000028e74       0xd0 /local/mnt/workspace/CRMBuilds/TZ.BF.4.0.3.c1-00005-M8996AAAAANAZT-1_20170110_230814/b/HK11/trustzone_images/core/securemsm/sse/qsee/SecureTouch/drTs/lib/build/sampleapp/A53_64/IADAANAA/touch_lib.lib(02_close.o)
                0x0000000000028e74                touchClose
 .text          0x0000000000028f44      0x160 /local/mnt/workspace/CRMBuilds/TZ.BF.4.0.3.c1-00005-M8996AAAAANAZT-1_20170110_230814/b/HK11/trustzone_images/core/securemsm/sse/qsee/SecureTouch/drTs/lib/build/sampleapp/A53_64/IADAANAA/touch_lib.lib(03_getData.o)
                0x0000000000028f44                touchGetData
                0x0000000000029004                drNotifyEvent
 .text          0x00000000000290a4      0x794 /local/mnt/workspace/CRMBuilds/TZ.BF.4.0.3.c1-00005-M8996AAAAANAZT-1_20170110_230814/b/HK11/trustzone_images/core/securemsm/trustzone/qsapps/libs/applib/common_applib/build/sampleapp/A53_64/IADAANAA/tzapp_entrylib.lib(gpPersistObjCommon.o)
                0x00000000000290a4                gpCommon_Copy_Attributes
                0x0000000000029258                gpCommon_Init_Handles
                0x0000000000029354                gpCommon_Init_App_Info
                0x00000000000293dc                gpCommon_Clean_Attributes
                0x0000000000029458                gpCommon_Clean_Object_Handle
                0x00000000000294bc                gpCommon_Get_Object_Info
                0x0000000000029560                gpCommon_Close_Object
                0x0000000000029648                gpCommon_Get_File_Path
 .text          0x0000000000029838     0x12c4 /local/mnt/workspace/CRMBuilds/TZ.BF.4.0.3.c1-00005-M8996AAAAANAZT-1_20170110_230814/b/HK11/trustzone_images/core/securemsm/trustzone/qsapps/libs/applib/common_applib/build/sampleapp/A53_64/IADAANAA/tzapp_entrylib.lib(gpPersistentObjects.o)
                0x0000000000029838                TEE_OpenPersistentObject
                0x0000000000029a98                TEE_CreatePersistentObject
                0x0000000000029d80                TEE_CloseAndDeletePersistentObject1
                0x0000000000029ec0                TEE_CloseAndDeletePersistentObject
                0x0000000000029ec4                TEE_ReadObjectData
                0x000000000002a034                TEE_WriteObjectData
                0x000000000002a224                TEE_TruncateObjectData
                0x000000000002a3bc                TEE_SeekObjectData
                0x000000000002a4dc                TEE_RenamePersistentObject
                0x000000000002a644                TEE_AllocatePersistentObjectEnumerator
                0x000000000002a780                TEE_FreePersistentObjectEnumerator
                0x000000000002a814                TEE_ResetPersistentObjectEnumerator
                0x000000000002a8a8                TEE_StartPersistentObjectEnumerator
                0x000000000002a9dc                TEE_GetNextPersistentObject
 .text          0x000000000002aafc     0x2ea8 /local/mnt/workspace/CRMBuilds/TZ.BF.4.0.3.c1-00005-M8996AAAAANAZT-1_20170110_230814/b/HK11/trustzone_images/core/securemsm/trustzone/qsapps/libs/applib/common_applib/build/sampleapp/A53_64/IADAANAA/tzapp_entrylib.lib(gpPersistObjData.o)
                0x000000000002aafc                gpData_Create_Object
                0x000000000002b364                gpData_Delete_Object
                0x000000000002b4d4                gpData_Open_Object
                0x000000000002b6b0                gpData_Close_Object
                0x000000000002b700                gpData_Write_Data
                0x000000000002bcb4                gpData_Read_Data
                0x000000000002bf24                gpData_Trunc_Data
                0x000000000002c258                gpData_Seek_Data
 .text          0x000000000002d9a4      0xbdc /local/mnt/workspace/CRMBuilds/TZ.BF.4.0.3.c1-00005-M8996AAAAANAZT-1_20170110_230814/b/HK11/trustzone_images/core/securemsm/trustzone/qsapps/libs/applib/common_applib/build/sampleapp/A53_64/IADAANAA/tzapp_entrylib.lib(gpPersistObjHandler.o)
                0x000000000002d9a4                gpHandler_Create_Handle
                0x000000000002ddbc                gpHandler_Delete_Handle
                0x000000000002de80                gpHandler_Close_Handle
                0x000000000002e034                gpHandler_Open_Handle
                0x000000000002e0f8                gpHandler_Update_Handle
                0x000000000002e174                gpHandler_Rename_Handle
 .text          0x000000000002e580     0x1ba8 /local/mnt/workspace/CRMBuilds/TZ.BF.4.0.3.c1-00005-M8996AAAAANAZT-1_20170110_230814/b/HK11/trustzone_images/core/securemsm/trustzone/qsapps/libs/applib/common_applib/build/sampleapp/A53_64/IADAANAA/tzapp_entrylib.lib(gpPersistObjIndex.o)
                0x000000000002e580                index_Get_Index_Info
                0x000000000002e880                gpIndex_Create_Entry
                0x000000000002eb14                gpIndex_Delete_Entry
                0x000000000002ecd4                gpIndex_Get_Entry
                0x000000000002f050                gpIndex_Set_Entry
                0x000000000002f218                gpIndex_Rename_Entry
                0x000000000002f638                gpIndex_Get_Enum_Entry
                0x000000000002f8d8                gpIndex_Get_Index_Info
 .text          0x0000000000030128     0x1230 /local/mnt/workspace/CRMBuilds/TZ.BF.4.0.3.c1-00005-M8996AAAAANAZT-1_20170110_230814/b/HK11/trustzone_images/core/securemsm/trustzone/qsapps/libs/applib/common_applib/build/sampleapp/A53_64/IADAANAA/tzapp_entrylib.lib(gpPersistObjVersion.o)
                0x0000000000030128                version_Is_Rpmb_Usage_Enabled
                0x0000000000030210                gpVersion_Get_Version
                0x00000000000309a4                gpVersion_Set_Version
                0x0000000000030c74                gpVersion_Inc_Version
                0x0000000000030ccc                gpVersion_Delete_Version
 .text          0x0000000000031358      0xc2c /local/mnt/workspace/CRMBuilds/TZ.BF.4.0.3.c1-00005-M8996AAAAANAZT-1_20170110_230814/b/HK11/trustzone_images/core/securemsm/trustzone/qsapps/libs/applib/common_applib/build/sampleapp/A53_64/IADAANAA/tzapp_entrylib.lib(gpPersistObjCrypto.o)
                0x0000000000031358                gpCrypto_Encrypt
                0x00000000000317b4                gpCrypto_Integrity_Protect
                0x0000000000031a38                gpCrypto_Decrypt
                0x0000000000031c9c                gpCrypto_Integrity_Verify
 .text          0x0000000000031f84      0x4c4 /local/mnt/workspace/CRMBuilds/TZ.BF.4.0.3.c1-00005-M8996AAAAANAZT-1_20170110_230814/b/HK11/trustzone_images/core/securemsm/trustzone/qsapps/libs/applib/common_applib/build/sampleapp/A53_64/IADAANAA/tzapp_entrylib.lib(gpPersistObjFileIO.o)
                0x0000000000031f84                fileIO_Read_Data
                0x0000000000031ff8                fileIO_Write_Data
                0x0000000000032070                fileIO_Remove_Data
                0x00000000000320e4                fileIO_Rename_Data
                0x0000000000032158                gpFileIO_Read_File
                0x0000000000032224                gpFileIO_Write_File
                0x000000000003230c                gpFileIO_Remove_File
                0x000000000003239c                gpFileIO_Rename_File
 .text          0x0000000000032448      0x944 /local/mnt/workspace/CRMBuilds/TZ.BF.4.0.3.c1-00005-M8996AAAAANAZT-1_20170110_230814/b/HK11/trustzone_images/core/securemsm/trustzone/qsapps/libs/applib/common_applib/build/sampleapp/A53_64/IADAANAA/tzapp_entrylib.lib(gpFileService.o)
                0x0000000000032448                gpFileRead
                0x0000000000032744                gpFileWrite
                0x0000000000032a68                gpFileRemove
                0x0000000000032bf0                gpFileRename
 .text          0x0000000000032d8c       0x30 /local/mnt/workspace/CRMBuilds/TZ.BF.4.0.3.c1-00005-M8996AAAAANAZT-1_20170110_230814/b/HK11/trustzone_images/core/securemsm/trustzone/qsapps/libs/applib/qsee64/build/sampleapp/A53_64/IADAANAA/tzapp_entrylib.lib(qsee_cfg_prop_shim.o)
                0x0000000000032d8c                qsee_cfg_getpropval
 .text          0x0000000000032dbc        0xc /local/mnt/workspace/CRMBuilds/TZ.BF.4.0.3.c1-00005-M8996AAAAANAZT-1_20170110_230814/b/HK11/trustzone_images/core/securemsm/trustzone/qsapps/libs/applib/qsee64/build/sampleapp/A53_64/IADAANAA/tzapp_entrylib.lib(gpPersistObjPanic.o)
                0x0000000000032dbc                TEE_Panic
                0x0000000000032dc0                GPMemoryMgmt_verifyHandle
 .text          0x0000000000032dc8       0x60 /afs/localcell/cm/gv2.6/sysname/pkg.@sys/qct/software/llvm/release/arm/3.5.2.4/tools/lib64/lib/libc.a(strlcat.o)
                0x0000000000032dc8                strlcat
 .text          0x0000000000032e28      0x7f8 /local/mnt/workspace/CRMBuilds/TZ.BF.4.0.3.c1-00005-M8996AAAAANAZT-1_20170110_230814/b/HK11/trustzone_images/core/securemsm/sse/SecureTouch/controller/build/sampleapp/A53_64/IADAANAA/drts_controller_msm8996.lib(atmel_mxt_ts.o)
                0x0000000000032e28                dumpT9
                0x0000000000032e2c                dumpT100
                0x0000000000032e30                dumpT15
                0x0000000000032e34                dumpT42
                0x0000000000032e38                processT9
                0x0000000000032ee4                processT100
                0x0000000000032fd0                atmel_drTsOpen
                0x0000000000033410                atmel_drTsClose
                0x0000000000033484                atmel_drTsProcessEvents
 .text          0x0000000000033620      0x94c /local/mnt/workspace/CRMBuilds/TZ.BF.4.0.3.c1-00005-M8996AAAAANAZT-1_20170110_230814/b/HK11/trustzone_images/core/securemsm/sse/SecureTouch/controller/build/sampleapp/A53_64/IADAANAA/drts_controller_msm8996.lib(synaptics_ts.o)
                0x0000000000033620                synReadF12
                0x0000000000033878                synaptics_drTsOpen
                0x0000000000033d94                synaptics_drTsClose
                0x0000000000033e08                synaptics_drTsProcessEvents
 .text          0x0000000000033f6c       0xc8 /local/mnt/workspace/CRMBuilds/TZ.BF.4.0.3.c1-00005-M8996AAAAANAZT-1_20170110_230814/b/HK11/trustzone_images/core/securemsm/sse/log/build/sampleapp/A53_64/IADAANAA/sselog.lib(sselog.o)
                0x0000000000033f6c                dumpHex
 .text          0x0000000000034034      0x1f8 /local/mnt/workspace/CRMBuilds/TZ.BF.4.0.3.c1-00005-M8996AAAAANAZT-1_20170110_230814/b/HK11/trustzone_images/core/securemsm/sse/qsee/SecureTouch/drTs/controller/build/sampleapp/A53_64/IADAANAA/touch_controller_i2c_msm8996.lib(atmel_mxt_ts_i2c.o)
                0x0000000000034034                atmel_i2cReadReg
                0x000000000003411c                atmel_i2cOpen
                0x00000000000341a4                atmel_i2cClose
 .text          0x000000000003422c      0x1cc /local/mnt/workspace/CRMBuilds/TZ.BF.4.0.3.c1-00005-M8996AAAAANAZT-1_20170110_230814/b/HK11/trustzone_images/core/securemsm/sse/qsee/SecureTouch/drTs/controller/build/sampleapp/A53_64/IADAANAA/touch_controller_i2c_msm8996.lib(synaptics_ts_i2c.o)
                0x000000000003422c                synaptics_i2cReadReg
                0x000000000003430c                synaptics_i2cWriteReg
                0x0000000000034378                synaptics_i2cOpen
                0x00000000000343b8                synaptics_i2cClose
 .text          0x00000000000343f8       0x80 /afs/localcell/cm/gv2.6/sysname/pkg.@sys/qct/software/llvm/release/arm/3.5.2.4/tools/lib64/lib/libc.a(snprintf.o)
                0x00000000000343f8                snprintf
 kthread_shared
                0x0000000000034478       0x98 /local/mnt/workspace/CRMBuilds/TZ.BF.4.0.3.c1-00005-M8996AAAAANAZT-1_20170110_230814/b/HK11/trustzone_images/core/securemsm/trustzone/qsapps/libs/applib/qsee64/build/sampleapp/A53_64/IADAANAA/tzapp_entrylib.lib(kthread_shared.o)
                0x0000000000034478                mink_generic_syscall
 *(SORT(tzapp_syscall_asm))
 *fill*         0x0000000000034510       0xf0 
 tzapp_syscall_asm
                0x0000000000034600      0x200 /local/mnt/workspace/CRMBuilds/TZ.BF.4.0.3.c1-00005-M8996AAAAANAZT-1_20170110_230814/b/HK11/trustzone_images/core/securemsm/trustzone/qsapps/libs/applib/qsee64/build/sampleapp/A53_64/IADAANAA/tzapp_entrylib.lib(tzapp_syscall.o)
                0x0000000000034600                app_export_init_info_to_qsee
                0x0000000000034614                qsee_wait_default_signal_syscall
                0x00000000000346a4                qsee_generic_syscall
 *(SORT(.rodata))
 .rodata        0x0000000000034800       0x14 /local/mnt/workspace/CRMBuilds/TZ.BF.4.0.3.c1-00005-M8996AAAAANAZT-1_20170110_230814/b/HK11/trustzone_images/core/securemsm/sse/qsee/SecureUI/build/sampleapp/A53_64/IADAANAA/secure_ui.lib(SecureUI.o)
 *fill*         0x0000000000034814        0xc 
 .rodata        0x0000000000034820       0x30 /local/mnt/workspace/CRMBuilds/TZ.BF.4.0.3.c1-00005-M8996AAAAANAZT-1_20170110_230814/b/HK11/trustzone_images/core/securemsm/trustzone/qsapps/libs/applib/qsee64/build/sampleapp/A53_64/IADAANAA/tzapp_entrylib.lib(qsee_cipher.o)
 .rodata        0x0000000000034850       0x20 /local/mnt/workspace/CRMBuilds/TZ.BF.4.0.3.c1-00005-M8996AAAAANAZT-1_20170110_230814/b/HK11/trustzone_images/core/securemsm/trustzone/qsapps/libs/applib/qsee64/build/sampleapp/A53_64/IADAANAA/tzapp_entrylib.lib(qsee_tlmm.o)
 .rodata        0x0000000000034870       0x58 /local/mnt/workspace/CRMBuilds/TZ.BF.4.0.3.c1-00005-M8996AAAAANAZT-1_20170110_230814/b/HK11/trustzone_images/core/securemsm/trustzone/qsapps/libs/applib/qsee64/build/sampleapp/A53_64/IADAANAA/tzapp_entrylib.lib(qsee_appmessage.o)
 .rodata        0x00000000000348c8      0x114 /local/mnt/workspace/CRMBuilds/TZ.BF.4.0.3.c1-00005-M8996AAAAANAZT-1_20170110_230814/b/HK11/trustzone_images/core/securemsm/trustzone/qsapps/smplap64/build/sampleapp/A53_64/IADAANAA/app_crypto.o
 *fill*         0x00000000000349dc        0x4 
 .rodata        0x00000000000349e0       0xc0 /local/mnt/workspace/CRMBuilds/TZ.BF.4.0.3.c1-00005-M8996AAAAANAZT-1_20170110_230814/b/HK11/trustzone_images/core/securemsm/trustzone/qsapps/smplap64/build/sampleapp/A53_64/IADAANAA/app_bio_lib.o
 .rodata        0x0000000000034aa0       0x40 /local/mnt/workspace/CRMBuilds/TZ.BF.4.0.3.c1-00005-M8996AAAAANAZT-1_20170110_230814/b/HK11/trustzone_images/core/securemsm/trustzone/qsapps/smplap64/build/sampleapp/A53_64/IADAANAA/app_bulletin_board.o
 .rodata        0x0000000000034ae0       0xd0 /afs/localcell/cm/gv2.6/sysname/pkg.@sys/qct/software/llvm/release/arm/3.5.2.4/tools/lib64/lib/libc.a(vsnprintf.o)
 .rodata        0x0000000000034bb0       0x38 /afs/localcell/cm/gv2.6/sysname/pkg.@sys/qct/software/llvm/release/arm/3.5.2.4/tools/lib64/lib/libc.a(memcpy.o)
 .rodata        0x0000000000034be8       0xe0 /afs/localcell/cm/gv2.6/sysname/pkg.@sys/qct/software/llvm/release/arm/3.5.2.4/tools/lib64/lib/libc.a(memmove.o)
 .rodata        0x0000000000034cc8      0x390 /afs/localcell/cm/gv2.6/sysname/pkg.@sys/qct/software/llvm/release/arm/3.5.2.4/tools/lib64/lib/libc.a(vfprintf.o)
 .rodata        0x0000000000035058        0x8 /afs/localcell/cm/gv2.6/sysname/pkg.@sys/qct/software/llvm/release/arm/3.5.2.4/tools/lib64/lib/libc.a(__stdio_exit.o)
                0x0000000000035058                __stdout_used
                0x0000000000035058                __stdin_used
                0x0000000000035058                __stderr_used
 .rodata        0x0000000000035060       0x24 /local/mnt/workspace/CRMBuilds/TZ.BF.4.0.3.c1-00005-M8996AAAAANAZT-1_20170110_230814/b/HK11/trustzone_images/core/securemsm/trustzone/qsapps/smplap64/build/sampleapp/A53_64/IADAANAA/app_main.o
 .rodata        0x0000000000035084        0x4 /local/mnt/workspace/CRMBuilds/TZ.BF.4.0.3.c1-00005-M8996AAAAANAZT-1_20170110_230814/b/HK11/trustzone_images/core/securemsm/trustzone/qsapps/smplap64/build/sampleapp/A53_64/IADAANAA/metadata.o
                0x0000000000035084                TA_ACCEPT_BUF_SIZE
 .rodata        0x0000000000035088        0xc /local/mnt/workspace/CRMBuilds/TZ.BF.4.0.3.c1-00005-M8996AAAAANAZT-1_20170110_230814/b/HK11/trustzone_images/core/securemsm/trustzone/qsapps/libs/applib/qsee64/build/sampleapp/A53_64/IADAANAA/tzapp_entrylib.lib(qsee_hash.o)
 .rodata        0x0000000000035094        0xc /local/mnt/workspace/CRMBuilds/TZ.BF.4.0.3.c1-00005-M8996AAAAANAZT-1_20170110_230814/b/HK11/trustzone_images/core/securemsm/trustzone/qsapps/libs/applib/qsee64/build/sampleapp/A53_64/IADAANAA/tzapp_entrylib.lib(qsee_i2c.o)
 .rodata        0x00000000000350a0        0xc /local/mnt/workspace/CRMBuilds/TZ.BF.4.0.3.c1-00005-M8996AAAAANAZT-1_20170110_230814/b/HK11/trustzone_images/core/securemsm/trustzone/qsapps/libs/applib/qsee64/build/sampleapp/A53_64/IADAANAA/tzapp_entrylib.lib(qsee_oem_buffer.o)
 .rodata        0x00000000000350ac        0x4 /afs/localcell/cm/gv2.6/sysname/pkg.@sys/qct/software/llvm/release/arm/3.5.2.4/tools/lib64/lib/libc.a(__towrite.o)
                0x00000000000350ac                __towrite_used
 .rodata        0x00000000000350b0       0x7e /local/mnt/workspace/CRMBuilds/TZ.BF.4.0.3.c1-00005-M8996AAAAANAZT-1_20170110_230814/b/HK11/trustzone_images/core/securemsm/trustzone/qsapps/smplap64/build/sampleapp/A53_64/IADAANAA/app_sfs.o
 .rodata        0x000000000003512e      0x70c /afs/localcell/cm/gv2.6/sysname/pkg.@sys/qct/software/llvm/release/arm/3.5.2.4/tools/lib64/lib/libc.a(strerror.o)
 *(SORT(EXCLUDE_FILE(*\metadata.o) .rodata.*))
 *fill*         0x000000000003583a        0x6 
 .rodata.cst8   0x0000000000035840       0x18 /local/mnt/workspace/CRMBuilds/TZ.BF.4.0.3.c1-00005-M8996AAAAANAZT-1_20170110_230814/b/HK11/trustzone_images/core/securemsm/trustzone/qsapps/smplap64/build/sampleapp/A53_64/IADAANAA/app_main.o
 .rodata.cst8   0x0000000000035858       0x20 /local/mnt/workspace/CRMBuilds/TZ.BF.4.0.3.c1-00005-M8996AAAAANAZT-1_20170110_230814/b/HK11/trustzone_images/core/securemsm/trustzone/qsapps/smplap64/build/sampleapp/A53_64/IADAANAA/app_crypto.o
                                         0xc0 (size before relaxing)
 .rodata.cst4   0x0000000000035878        0x4 /local/mnt/workspace/CRMBuilds/TZ.BF.4.0.3.c1-00005-M8996AAAAANAZT-1_20170110_230814/b/HK11/trustzone_images/core/securemsm/trustzone/qsapps/smplap64/build/sampleapp/A53_64/IADAANAA/app_crypto.o
                                         0x2c (size before relaxing)
 .rodata.cst16  0x000000000003587c       0x10 /local/mnt/workspace/CRMBuilds/TZ.BF.4.0.3.c1-00005-M8996AAAAANAZT-1_20170110_230814/b/HK11/trustzone_images/core/securemsm/trustzone/qsapps/libs/applib/qsee64/build/sampleapp/A53_64/IADAANAA/tzapp_entrylib.lib(qsee_tlmm.o)
 .rodata.cst16  0x000000000003588c       0x10 /local/mnt/workspace/CRMBuilds/TZ.BF.4.0.3.c1-00005-M8996AAAAANAZT-1_20170110_230814/b/HK11/trustzone_images/core/securemsm/trustzone/qsapps/libs/biometric/build/sampleapp/A53_64/IADAANAA/biometric_lib.lib(biometric_serializer.o)
 .rodata.str1.1
                0x000000000003589c      0xf64 /local/mnt/workspace/CRMBuilds/TZ.BF.4.0.3.c1-00005-M8996AAAAANAZT-1_20170110_230814/b/HK11/trustzone_images/core/securemsm/trustzone/qsapps/smplap64/build/sampleapp/A53_64/IADAANAA/app_main.o
 .rodata.str1.1
                0x0000000000036800      0x18a /local/mnt/workspace/CRMBuilds/TZ.BF.4.0.3.c1-00005-M8996AAAAANAZT-1_20170110_230814/b/HK11/trustzone_images/core/securemsm/trustzone/qsapps/smplap64/build/sampleapp/A53_64/IADAANAA/app_smplserv_test.o
 .rodata.str1.1
                0x000000000003698a       0x7f /local/mnt/workspace/CRMBuilds/TZ.BF.4.0.3.c1-00005-M8996AAAAANAZT-1_20170110_230814/b/HK11/trustzone_images/core/securemsm/trustzone/qsapps/smplap64/build/sampleapp/A53_64/IADAANAA/app_smplcert_test.o
 .rodata.str1.1
                0x0000000000036a09     0x2cf5 /local/mnt/workspace/CRMBuilds/TZ.BF.4.0.3.c1-00005-M8996AAAAANAZT-1_20170110_230814/b/HK11/trustzone_images/core/securemsm/trustzone/qsapps/smplap64/build/sampleapp/A53_64/IADAANAA/app_crypto.o
 .rodata.str1.1
                0x00000000000396fe     0x201d /local/mnt/workspace/CRMBuilds/TZ.BF.4.0.3.c1-00005-M8996AAAAANAZT-1_20170110_230814/b/HK11/trustzone_images/core/securemsm/trustzone/qsapps/smplap64/build/sampleapp/A53_64/IADAANAA/app_sfs.o
                                       0x2061 (size before relaxing)
 .rodata.str1.1
                0x000000000003b71b     0x204b /local/mnt/workspace/CRMBuilds/TZ.BF.4.0.3.c1-00005-M8996AAAAANAZT-1_20170110_230814/b/HK11/trustzone_images/core/securemsm/trustzone/qsapps/smplap64/build/sampleapp/A53_64/IADAANAA/app_rsa.o
                                       0x2063 (size before relaxing)
 .rodata.str1.1
                0x000000000003d766     0x1596 /local/mnt/workspace/CRMBuilds/TZ.BF.4.0.3.c1-00005-M8996AAAAANAZT-1_20170110_230814/b/HK11/trustzone_images/core/securemsm/trustzone/qsapps/smplap64/build/sampleapp/A53_64/IADAANAA/qsee_api_tests.o
                                       0x159b (size before relaxing)
 .rodata.str1.1
                0x000000000003ecfc      0x24f /local/mnt/workspace/CRMBuilds/TZ.BF.4.0.3.c1-00005-M8996AAAAANAZT-1_20170110_230814/b/HK11/trustzone_images/core/securemsm/trustzone/qsapps/smplap64/build/sampleapp/A53_64/IADAANAA/app_cmnlib.o
 .rodata.str1.1
                0x000000000003ef4b      0x156 /local/mnt/workspace/CRMBuilds/TZ.BF.4.0.3.c1-00005-M8996AAAAANAZT-1_20170110_230814/b/HK11/trustzone_images/core/securemsm/trustzone/qsapps/smplap64/build/sampleapp/A53_64/IADAANAA/app_message_passing.o
 .rodata.str1.1
                0x000000000003f0a1      0x174 /local/mnt/workspace/CRMBuilds/TZ.BF.4.0.3.c1-00005-M8996AAAAANAZT-1_20170110_230814/b/HK11/trustzone_images/core/securemsm/trustzone/qsapps/smplap64/build/sampleapp/A53_64/IADAANAA/app_fuses.o
 .rodata.str1.1
                0x000000000003f215     0x1a09 /local/mnt/workspace/CRMBuilds/TZ.BF.4.0.3.c1-00005-M8996AAAAANAZT-1_20170110_230814/b/HK11/trustzone_images/core/securemsm/trustzone/qsapps/smplap64/build/sampleapp/A53_64/IADAANAA/app_stor.o
                                       0x1a30 (size before relaxing)
 .rodata.str1.1
                0x0000000000040c1e      0x4b3 /local/mnt/workspace/CRMBuilds/TZ.BF.4.0.3.c1-00005-M8996AAAAANAZT-1_20170110_230814/b/HK11/trustzone_images/core/securemsm/trustzone/qsapps/smplap64/build/sampleapp/A53_64/IADAANAA/app_content_protection.o
 .rodata.str1.1
                0x00000000000410d1      0x1e7 /local/mnt/workspace/CRMBuilds/TZ.BF.4.0.3.c1-00005-M8996AAAAANAZT-1_20170110_230814/b/HK11/trustzone_images/core/securemsm/trustzone/qsapps/smplap64/build/sampleapp/A53_64/IADAANAA/app_secure_ui.o
 .rodata.str1.1
                0x00000000000412b8      0xa96 /local/mnt/workspace/CRMBuilds/TZ.BF.4.0.3.c1-00005-M8996AAAAANAZT-1_20170110_230814/b/HK11/trustzone_images/core/securemsm/trustzone/qsapps/smplap64/build/sampleapp/A53_64/IADAANAA/app_bio_lib.o
                                        0xaa9 (size before relaxing)
 .rodata.str1.1
                0x0000000000041d4e      0x5f9 /local/mnt/workspace/CRMBuilds/TZ.BF.4.0.3.c1-00005-M8996AAAAANAZT-1_20170110_230814/b/HK11/trustzone_images/core/securemsm/trustzone/qsapps/smplap64/build/sampleapp/A53_64/IADAANAA/app_bulletin_board.o
                                        0x694 (size before relaxing)
 .rodata.str1.1
                0x0000000000042347      0x8e1 /local/mnt/workspace/CRMBuilds/TZ.BF.4.0.3.c1-00005-M8996AAAAANAZT-1_20170110_230814/b/HK11/trustzone_images/core/securemsm/sse/qsee/SecureUI/build/sampleapp/A53_64/IADAANAA/secure_ui.lib(SecureUI.o)
                                        0x906 (size before relaxing)
 .rodata.str1.1
                0x0000000000042c28       0x4e /local/mnt/workspace/CRMBuilds/TZ.BF.4.0.3.c1-00005-M8996AAAAANAZT-1_20170110_230814/b/HK11/trustzone_images/core/securemsm/sse/qsee/SecureUILib/lib/build/sampleapp/A53_64/IADAANAA/secure_ui_lib.lib(01_startTouch.o)
 .rodata.str1.1
                0x0000000000042c76       0x64 /local/mnt/workspace/CRMBuilds/TZ.BF.4.0.3.c1-00005-M8996AAAAANAZT-1_20170110_230814/b/HK11/trustzone_images/core/securemsm/sse/qsee/SecureUILib/lib/build/sampleapp/A53_64/IADAANAA/secure_ui_lib.lib(02_processTouch.o)
                                         0x7a (size before relaxing)
 .rodata.str1.1
                0x0000000000042cda       0x2f /local/mnt/workspace/CRMBuilds/TZ.BF.4.0.3.c1-00005-M8996AAAAANAZT-1_20170110_230814/b/HK11/trustzone_images/core/securemsm/sse/qsee/SecureUILib/lib/build/sampleapp/A53_64/IADAANAA/secure_ui_lib.lib(03_stopTouch.o)
                                         0x5a (size before relaxing)
 .rodata.str1.1
                0x0000000000042d09        0x7 /local/mnt/workspace/CRMBuilds/TZ.BF.4.0.3.c1-00005-M8996AAAAANAZT-1_20170110_230814/b/HK11/trustzone_images/core/securemsm/trustzone/qsapps/libs/applib/common_applib/build/sampleapp/A53_64/IADAANAA/tzapp_entrylib.lib(common_applib.o)
                                          0x9 (size before relaxing)
 .rodata.str1.1
                0x0000000000000000        0x1 /local/mnt/workspace/CRMBuilds/TZ.BF.4.0.3.c1-00005-M8996AAAAANAZT-1_20170110_230814/b/HK11/trustzone_images/core/securemsm/trustzone/qsapps/libs/applib/qsee64/build/sampleapp/A53_64/IADAANAA/tzapp_entrylib.lib(qsee_core_shim.o)
 .rodata.str1.1
                0x0000000000042d10       0x6f /local/mnt/workspace/CRMBuilds/TZ.BF.4.0.3.c1-00005-M8996AAAAANAZT-1_20170110_230814/b/HK11/trustzone_images/core/securemsm/trustzone/qsapps/libs/applib/qsee64/build/sampleapp/A53_64/IADAANAA/tzapp_entrylib.lib(qsee_spi.o)
 .rodata.str1.1
                0x0000000000042d7f       0xb7 /local/mnt/workspace/CRMBuilds/TZ.BF.4.0.3.c1-00005-M8996AAAAANAZT-1_20170110_230814/b/HK11/trustzone_images/core/securemsm/trustzone/qsapps/libs/applib/qsee64/build/sampleapp/A53_64/IADAANAA/tzapp_entrylib.lib(qsee_dcache.o)
 .rodata.str1.1
                0x0000000000042e36       0xe5 /local/mnt/workspace/CRMBuilds/TZ.BF.4.0.3.c1-00005-M8996AAAAANAZT-1_20170110_230814/b/HK11/trustzone_images/core/securemsm/trustzone/qsapps/libs/applib/qsee64/build/sampleapp/A53_64/IADAANAA/tzapp_entrylib.lib(qsee_shared_buffer.o)
 .rodata.str1.1
                0x0000000000042f1b       0xa8 /local/mnt/workspace/CRMBuilds/TZ.BF.4.0.3.c1-00005-M8996AAAAANAZT-1_20170110_230814/b/HK11/trustzone_images/core/securemsm/trustzone/qsapps/libs/applib/qsee64/build/sampleapp/A53_64/IADAANAA/tzapp_entrylib.lib(sfs_api.o)
                                         0xc0 (size before relaxing)
 .rodata.str1.1
                0x0000000000042fc3      0x286 /local/mnt/workspace/CRMBuilds/TZ.BF.4.0.3.c1-00005-M8996AAAAANAZT-1_20170110_230814/b/HK11/trustzone_images/core/securemsm/trustzone/qsapps/libs/biometric/build/sampleapp/A53_64/IADAANAA/biometric_lib.lib(biometric.o)
                                        0x28d (size before relaxing)
 .rodata.str1.1
                0x0000000000043249      0x381 /local/mnt/workspace/CRMBuilds/TZ.BF.4.0.3.c1-00005-M8996AAAAANAZT-1_20170110_230814/b/HK11/trustzone_images/core/securemsm/trustzone/qsapps/libs/biometric/build/sampleapp/A53_64/IADAANAA/biometric_lib.lib(biometric_serializer.o)
 .rodata.str1.1
                0x00000000000435ca       0x11 /afs/localcell/cm/gv2.6/sysname/pkg.@sys/qct/software/llvm/release/arm/3.5.2.4/tools/lib64/lib/libc.a(vfprintf.o)
 .rodata.cst16  0x00000000000435db       0x10 /afs/localcell/cm/gv2.6/sysname/pkg.@sys/qct/software/llvm/release/arm/3.5.2.4/tools/lib64/lib/libc.a(vfprintf.o)
 .rodata.str1.1
                0x00000000000435eb       0x58 /afs/localcell/cm/gv2.6/sysname/pkg.@sys/qct/software/llvm/release/arm/3.5.2.4/tools/lib64/lib/libc.a(strerror.o)
 .rodata.str1.1
                0x0000000000043643       0x3f /local/mnt/workspace/CRMBuilds/TZ.BF.4.0.3.c1-00005-M8996AAAAANAZT-1_20170110_230814/b/HK11/trustzone_images/core/securemsm/sse/qsee/SecureTouch/drTs/lib/build/sampleapp/A53_64/IADAANAA/touch_lib.lib(01_open.o)
 .rodata.str1.1
                0x0000000000043682       0x9d /local/mnt/workspace/CRMBuilds/TZ.BF.4.0.3.c1-00005-M8996AAAAANAZT-1_20170110_230814/b/HK11/trustzone_images/core/securemsm/sse/qsee/SecureTouch/drTs/lib/build/sampleapp/A53_64/IADAANAA/touch_lib.lib(02_close.o)
 .rodata.str1.1
                0x000000000004371f       0xae /local/mnt/workspace/CRMBuilds/TZ.BF.4.0.3.c1-00005-M8996AAAAANAZT-1_20170110_230814/b/HK11/trustzone_images/core/securemsm/sse/qsee/SecureTouch/drTs/lib/build/sampleapp/A53_64/IADAANAA/touch_lib.lib(03_getData.o)
                                         0xb8 (size before relaxing)
 .rodata.str1.1
                0x00000000000437cd       0xb1 /local/mnt/workspace/CRMBuilds/TZ.BF.4.0.3.c1-00005-M8996AAAAANAZT-1_20170110_230814/b/HK11/trustzone_images/core/securemsm/trustzone/qsapps/libs/applib/common_applib/build/sampleapp/A53_64/IADAANAA/tzapp_entrylib.lib(gpPersistObjCommon.o)
                                         0xcb (size before relaxing)
 .rodata.str1.1
                0x000000000004387e      0x172 /local/mnt/workspace/CRMBuilds/TZ.BF.4.0.3.c1-00005-M8996AAAAANAZT-1_20170110_230814/b/HK11/trustzone_images/core/securemsm/trustzone/qsapps/libs/applib/common_applib/build/sampleapp/A53_64/IADAANAA/tzapp_entrylib.lib(gpPersistentObjects.o)
                                        0x18a (size before relaxing)
 .rodata.str1.1
                0x00000000000439f0      0x31c /local/mnt/workspace/CRMBuilds/TZ.BF.4.0.3.c1-00005-M8996AAAAANAZT-1_20170110_230814/b/HK11/trustzone_images/core/securemsm/trustzone/qsapps/libs/applib/common_applib/build/sampleapp/A53_64/IADAANAA/tzapp_entrylib.lib(gpPersistObjData.o)
                                        0x334 (size before relaxing)
 .rodata.str1.1
                0x0000000000043d0c       0xcc /local/mnt/workspace/CRMBuilds/TZ.BF.4.0.3.c1-00005-M8996AAAAANAZT-1_20170110_230814/b/HK11/trustzone_images/core/securemsm/trustzone/qsapps/libs/applib/common_applib/build/sampleapp/A53_64/IADAANAA/tzapp_entrylib.lib(gpPersistObjHandler.o)
                                         0xe4 (size before relaxing)
 .rodata.str1.1
                0x0000000000043dd8      0x182 /local/mnt/workspace/CRMBuilds/TZ.BF.4.0.3.c1-00005-M8996AAAAANAZT-1_20170110_230814/b/HK11/trustzone_images/core/securemsm/trustzone/qsapps/libs/applib/common_applib/build/sampleapp/A53_64/IADAANAA/tzapp_entrylib.lib(gpPersistObjIndex.o)
                                        0x19f (size before relaxing)
 .rodata.str1.1
                0x0000000000043f5a      0x1e5 /local/mnt/workspace/CRMBuilds/TZ.BF.4.0.3.c1-00005-M8996AAAAANAZT-1_20170110_230814/b/HK11/trustzone_images/core/securemsm/trustzone/qsapps/libs/applib/common_applib/build/sampleapp/A53_64/IADAANAA/tzapp_entrylib.lib(gpPersistObjVersion.o)
                                        0x202 (size before relaxing)
 .rodata.str1.1
                0x000000000004413f      0x163 /local/mnt/workspace/CRMBuilds/TZ.BF.4.0.3.c1-00005-M8996AAAAANAZT-1_20170110_230814/b/HK11/trustzone_images/core/securemsm/trustzone/qsapps/libs/applib/common_applib/build/sampleapp/A53_64/IADAANAA/tzapp_entrylib.lib(gpPersistObjCrypto.o)
                                        0x17b (size before relaxing)
 .rodata.str1.1
                0x00000000000442a2       0x9a /local/mnt/workspace/CRMBuilds/TZ.BF.4.0.3.c1-00005-M8996AAAAANAZT-1_20170110_230814/b/HK11/trustzone_images/core/securemsm/trustzone/qsapps/libs/applib/common_applib/build/sampleapp/A53_64/IADAANAA/tzapp_entrylib.lib(gpPersistObjFileIO.o)
                                         0xb2 (size before relaxing)
 .rodata.str1.1
                0x000000000004433c       0x31 /local/mnt/workspace/CRMBuilds/TZ.BF.4.0.3.c1-00005-M8996AAAAANAZT-1_20170110_230814/b/HK11/trustzone_images/core/securemsm/trustzone/qsapps/libs/applib/common_applib/build/sampleapp/A53_64/IADAANAA/tzapp_entrylib.lib(gpFileService.o)
                                         0x49 (size before relaxing)
 .rodata.str1.1
                0x000000000004436d      0x189 /local/mnt/workspace/CRMBuilds/TZ.BF.4.0.3.c1-00005-M8996AAAAANAZT-1_20170110_230814/b/HK11/trustzone_images/core/securemsm/sse/SecureTouch/controller/build/sampleapp/A53_64/IADAANAA/drts_controller_msm8996.lib(atmel_mxt_ts.o)
 .rodata.str1.1
                0x00000000000444f6      0x2a6 /local/mnt/workspace/CRMBuilds/TZ.BF.4.0.3.c1-00005-M8996AAAAANAZT-1_20170110_230814/b/HK11/trustzone_images/core/securemsm/sse/SecureTouch/controller/build/sampleapp/A53_64/IADAANAA/drts_controller_msm8996.lib(synaptics_ts.o)
                                        0x303 (size before relaxing)
 .rodata.str1.1
                0x000000000004479c        0x6 /local/mnt/workspace/CRMBuilds/TZ.BF.4.0.3.c1-00005-M8996AAAAANAZT-1_20170110_230814/b/HK11/trustzone_images/core/securemsm/sse/log/build/sampleapp/A53_64/IADAANAA/sselog.lib(sselog.o)
 .rodata.str1.1
                0x00000000000447a2       0x5a /local/mnt/workspace/CRMBuilds/TZ.BF.4.0.3.c1-00005-M8996AAAAANAZT-1_20170110_230814/b/HK11/trustzone_images/core/securemsm/sse/qsee/SecureTouch/drTs/controller/build/sampleapp/A53_64/IADAANAA/touch_controller_i2c_msm8996.lib(atmel_mxt_ts_i2c.o)
 .rodata.str1.1
                0x00000000000447fc       0x45 /local/mnt/workspace/CRMBuilds/TZ.BF.4.0.3.c1-00005-M8996AAAAANAZT-1_20170110_230814/b/HK11/trustzone_images/core/securemsm/sse/qsee/SecureTouch/drTs/controller/build/sampleapp/A53_64/IADAANAA/touch_controller_i2c_msm8996.lib(synaptics_ts_i2c.o)
                                         0x87 (size before relaxing)
 *metadata.o(SORT(.rodata.str1.1))
 .rodata.str1.1
                0x0000000000044841        0xc /local/mnt/workspace/CRMBuilds/TZ.BF.4.0.3.c1-00005-M8996AAAAANAZT-1_20170110_230814/b/HK11/trustzone_images/core/securemsm/trustzone/qsapps/smplap64/build/sampleapp/A53_64/IADAANAA/metadata.o

.plt            0x0000000000044850        0x0
 .plt           0x0000000000000000        0x0 /local/mnt/workspace/CRMBuilds/TZ.BF.4.0.3.c1-00005-M8996AAAAANAZT-1_20170110_230814/b/HK11/trustzone_images/core/securemsm/trustzone/qsapps/libs/applib/qsee64/build/sampleapp/A53_64/IADAANAA/qsee64/src/tzapp_entry.o

.sentinel       0x000000000004484d       0x30
 *(SORT(.rodata.sentinel))
 .rodata.sentinel
                0x000000000004484d       0x30 /local/mnt/workspace/CRMBuilds/TZ.BF.4.0.3.c1-00005-M8996AAAAANAZT-1_20170110_230814/b/HK11/trustzone_images/core/securemsm/trustzone/qsapps/smplap64/build/sampleapp/A53_64/IADAANAA/metadata.o
                0x000000000004484d                TA_METADATA
                0x0000000000000001                ASSERT ((SIZEOF (.sentinel) != 0x0), No sentinel section defined.)

.gnu.version_d  0x0000000000044880        0x0
 .gnu.version_d
                0x0000000000000000        0x0 /local/mnt/workspace/CRMBuilds/TZ.BF.4.0.3.c1-00005-M8996AAAAANAZT-1_20170110_230814/b/HK11/trustzone_images/core/securemsm/trustzone/qsapps/libs/applib/qsee64/build/sampleapp/A53_64/IADAANAA/qsee64/src/tzapp_entry.o

.gnu.version    0x000000000004487e        0x0
 .gnu.version   0x0000000000000000        0x0 /local/mnt/workspace/CRMBuilds/TZ.BF.4.0.3.c1-00005-M8996AAAAANAZT-1_20170110_230814/b/HK11/trustzone_images/core/securemsm/trustzone/qsapps/libs/applib/qsee64/build/sampleapp/A53_64/IADAANAA/qsee64/src/tzapp_entry.o

.gnu.version_r  0x0000000000044880        0x0
 .gnu.version_r
                0x0000000000000000        0x0 /local/mnt/workspace/CRMBuilds/TZ.BF.4.0.3.c1-00005-M8996AAAAANAZT-1_20170110_230814/b/HK11/trustzone_images/core/securemsm/trustzone/qsapps/libs/applib/qsee64/build/sampleapp/A53_64/IADAANAA/qsee64/src/tzapp_entry.o

.metadata_check
                0x000000000004487d        0x0
 *metadata.o(SORT(.rodata.*))
                0x0000000000000001                ASSERT ((SIZEOF (.metadata_check) == 0x0), New metadata not accounted for here)

.data           0x0000000000045000    0x31660
 *(SORT(.data) SORT(TZAPPENTRYSTACK) SORT(.bss) SORT(COMMON))
 .data          0x0000000000045000     0x5690 /local/mnt/workspace/CRMBuilds/TZ.BF.4.0.3.c1-00005-M8996AAAAANAZT-1_20170110_230814/b/HK11/trustzone_images/core/securemsm/trustzone/qsapps/smplap64/build/sampleapp/A53_64/IADAANAA/app_crypto.o
 *fill*         0x000000000004a690       0x70 
 .bss           0x000000000004a700      0x220 /local/mnt/workspace/CRMBuilds/TZ.BF.4.0.3.c1-00005-M8996AAAAANAZT-1_20170110_230814/b/HK11/trustzone_images/core/securemsm/trustzone/qsapps/smplap64/build/sampleapp/A53_64/IADAANAA/app_crypto.o
 *fill*         0x000000000004a920       0x60 
 COMMON         0x000000000004a980    0x21000 /local/mnt/workspace/CRMBuilds/TZ.BF.4.0.3.c1-00005-M8996AAAAANAZT-1_20170110_230814/b/HK11/trustzone_images/core/securemsm/trustzone/qsapps/smplap64/build/sampleapp/A53_64/IADAANAA/app_crypto.o
                0x000000000004a980                aes_large_plain_text2
                0x0000000000052980                aes_large_cipher_text2
                0x000000000005ad80                aes_large_plain_text_1
                0x000000000005b180                aes_performance
                0x0000000000063180                aes_large_cipher_text3
                0x000000000006b580                aes_large_cipher_text_1
 .bss           0x000000000006b980      0x600 /local/mnt/workspace/CRMBuilds/TZ.BF.4.0.3.c1-00005-M8996AAAAANAZT-1_20170110_230814/b/HK11/trustzone_images/core/securemsm/trustzone/qsapps/smplap64/build/sampleapp/A53_64/IADAANAA/qsee_api_tests.o
 TZAPPENTRYSTACK
                0x000000000006bf80       0x80 /local/mnt/workspace/CRMBuilds/TZ.BF.4.0.3.c1-00005-M8996AAAAANAZT-1_20170110_230814/b/HK11/trustzone_images/core/securemsm/trustzone/qsapps/libs/applib/qsee64/build/sampleapp/A53_64/IADAANAA/qsee64/src/tzapp_entry.o
                0x000000000006c000                app_entry_stack_start
 .bss           0x000000000006c000       0x10 /local/mnt/workspace/CRMBuilds/TZ.BF.4.0.3.c1-00005-M8996AAAAANAZT-1_20170110_230814/b/HK11/trustzone_images/core/securemsm/trustzone/qsapps/libs/applib/qsee64/build/sampleapp/A53_64/IADAANAA/tzapp_entrylib.lib(qsee_tlmm.o)
 .bss           0x000000000006c010       0x20 /local/mnt/workspace/CRMBuilds/TZ.BF.4.0.3.c1-00005-M8996AAAAANAZT-1_20170110_230814/b/HK11/trustzone_images/core/securemsm/trustzone/qsapps/smplap64/build/sampleapp/A53_64/IADAANAA/app_main.o
                0x000000000006c010                b4
                0x000000000006c018                after
                0x000000000006c020                time_diff
                0x000000000006c028                average_time_diff
 .bss           0x000000000006c030     0x1810 /local/mnt/workspace/CRMBuilds/TZ.BF.4.0.3.c1-00005-M8996AAAAANAZT-1_20170110_230814/b/HK11/trustzone_images/core/securemsm/trustzone/qsapps/smplap64/build/sampleapp/A53_64/IADAANAA/app_stor.o
                0x000000000006c030                gDevHandle
                0x000000000006c038                gClientHandle
                0x000000000006c040                gBackupBuff
                0x000000000006d040                gBuff
                0x000000000006d440                gBuff2
 .bss           0x000000000006d840      0xcd0 /local/mnt/workspace/CRMBuilds/TZ.BF.4.0.3.c1-00005-M8996AAAAANAZT-1_20170110_230814/b/HK11/trustzone_images/core/securemsm/trustzone/qsapps/smplap64/build/sampleapp/A53_64/IADAANAA/app_secure_ui.o
                0x000000000006d840                dispH
                0x000000000006d844                dispW
                0x000000000006d848                dispS
                0x000000000006d84c                pixelW
                0x000000000006d850                rotation
                0x000000000006d858                g_screen
                0x000000000006d860                g_screen_last
 .data          0x000000000006e510       0xa0 /local/mnt/workspace/CRMBuilds/TZ.BF.4.0.3.c1-00005-M8996AAAAANAZT-1_20170110_230814/b/HK11/trustzone_images/core/securemsm/trustzone/qsapps/smplap64/build/sampleapp/A53_64/IADAANAA/app_bio_lib.o
 .data          0x000000000006e5b0       0x90 /local/mnt/workspace/CRMBuilds/TZ.BF.4.0.3.c1-00005-M8996AAAAANAZT-1_20170110_230814/b/HK11/trustzone_images/core/securemsm/sse/qsee/SecureUI/build/sampleapp/A53_64/IADAANAA/secure_ui.lib(SecureUI.o)
 .bss           0x000000000006e640       0x28 /local/mnt/workspace/CRMBuilds/TZ.BF.4.0.3.c1-00005-M8996AAAAANAZT-1_20170110_230814/b/HK11/trustzone_images/core/securemsm/sse/qsee/SecureUI/build/sampleapp/A53_64/IADAANAA/secure_ui.lib(SecureUI.o)
 .bss           0x000000000006e668        0x8 /local/mnt/workspace/CRMBuilds/TZ.BF.4.0.3.c1-00005-M8996AAAAANAZT-1_20170110_230814/b/HK11/trustzone_images/core/securemsm/sse/qsee/SecureUILib/lib/build/sampleapp/A53_64/IADAANAA/secure_ui_lib.lib(SecureUILib.o)
                0x000000000006e668                g_touch_callback
 .data          0x000000000006e670      0x290 /local/mnt/workspace/CRMBuilds/TZ.BF.4.0.3.c1-00005-M8996AAAAANAZT-1_20170110_230814/b/HK11/trustzone_images/core/securemsm/trustzone/qsapps/libs/applib/common_applib/build/sampleapp/A53_64/IADAANAA/tzapp_entrylib.lib(common_applib.o)
                0x000000000006e670                magic_num
                0x000000000006e684                magic_num_index_array
                0x000000000006e690                mem_magic_number
                0x000000000006e6a8                __stack_chk_guard
 .bss           0x000000000006e900       0x84 /local/mnt/workspace/CRMBuilds/TZ.BF.4.0.3.c1-00005-M8996AAAAANAZT-1_20170110_230814/b/HK11/trustzone_images/core/securemsm/trustzone/qsapps/libs/applib/common_applib/build/sampleapp/A53_64/IADAANAA/tzapp_entrylib.lib(common_applib.o)
                0x000000000006e900                pgCmnlib
 *fill*         0x000000000006e984        0x4 
 COMMON         0x000000000006e988       0x28 /local/mnt/workspace/CRMBuilds/TZ.BF.4.0.3.c1-00005-M8996AAAAANAZT-1_20170110_230814/b/HK11/trustzone_images/core/securemsm/trustzone/qsapps/libs/applib/common_applib/build/sampleapp/A53_64/IADAANAA/tzapp_entrylib.lib(common_applib.o)
                0x000000000006e988                apps_request_resp
 .bss           0x000000000006e9b0      0x1e0 /local/mnt/workspace/CRMBuilds/TZ.BF.4.0.3.c1-00005-M8996AAAAANAZT-1_20170110_230814/b/HK11/trustzone_images/core/securemsm/trustzone/qsapps/libs/applib/qsee64/build/sampleapp/A53_64/IADAANAA/tzapp_entrylib.lib(qsee_env.o)
 .data          0x000000000006eb90       0x18 /local/mnt/workspace/CRMBuilds/TZ.BF.4.0.3.c1-00005-M8996AAAAANAZT-1_20170110_230814/b/HK11/trustzone_images/core/securemsm/trustzone/qsapps/libs/biometric/build/sampleapp/A53_64/IADAANAA/biometric_lib.lib(biometric.o)
 .bss           0x000000000006eba8       0xc0 /local/mnt/workspace/CRMBuilds/TZ.BF.4.0.3.c1-00005-M8996AAAAANAZT-1_20170110_230814/b/HK11/trustzone_images/core/securemsm/trustzone/qsapps/libs/biometric/build/sampleapp/A53_64/IADAANAA/biometric_lib.lib(biometric_serializer.o)
 .bss           0x000000000006ec68       0x10 /afs/localcell/cm/gv2.6/sysname/pkg.@sys/qct/software/llvm/release/arm/3.5.2.4/tools/lib64/lib/libc.a(libc.o)
                0x000000000006ec68                __progname
                0x000000000006ec68                program_invocation_short_name
                0x000000000006ec70                program_invocation_name
                0x000000000006ec70                __progname_full
 COMMON         0x000000000006ec78       0x48 /afs/localcell/cm/gv2.6/sysname/pkg.@sys/qct/software/llvm/release/arm/3.5.2.4/tools/lib64/lib/libc.a(libc.o)
                0x000000000006ec78                __hwcap
                0x000000000006ec80                __libc
                0x000000000006ecb8                __sysinfo
 .bss           0x000000000006ecc0       0x18 /local/mnt/workspace/CRMBuilds/TZ.BF.4.0.3.c1-00005-M8996AAAAANAZT-1_20170110_230814/b/HK11/trustzone_images/core/securemsm/sse/qsee/SecureTouch/drTs/lib/build/sampleapp/A53_64/IADAANAA/touch_lib.lib(01_open.o)
                0x000000000006ecc0                g_ts_dr_func
 .bss           0x000000000006ecd8        0x8 /local/mnt/workspace/CRMBuilds/TZ.BF.4.0.3.c1-00005-M8996AAAAANAZT-1_20170110_230814/b/HK11/trustzone_images/core/securemsm/sse/qsee/SecureTouch/drTs/lib/build/sampleapp/A53_64/IADAANAA/touch_lib.lib(03_getData.o)
                0x000000000006ecd8                g_fingers_ptr
 .bss           0x000000000006ece0     0x1048 /local/mnt/workspace/CRMBuilds/TZ.BF.4.0.3.c1-00005-M8996AAAAANAZT-1_20170110_230814/b/HK11/trustzone_images/core/securemsm/trustzone/qsapps/libs/applib/common_applib/build/sampleapp/A53_64/IADAANAA/tzapp_entrylib.lib(gpPersistObjData.o)
 .data          0x000000000006fd28     0x1380 /local/mnt/workspace/CRMBuilds/TZ.BF.4.0.3.c1-00005-M8996AAAAANAZT-1_20170110_230814/b/HK11/trustzone_images/core/securemsm/trustzone/qsapps/libs/applib/common_applib/build/sampleapp/A53_64/IADAANAA/tzapp_entrylib.lib(gpPersistObjHandler.o)
 .bss           0x00000000000710a8      0x480 /local/mnt/workspace/CRMBuilds/TZ.BF.4.0.3.c1-00005-M8996AAAAANAZT-1_20170110_230814/b/HK11/trustzone_images/core/securemsm/trustzone/qsapps/libs/applib/common_applib/build/sampleapp/A53_64/IADAANAA/tzapp_entrylib.lib(gpPersistObjVersion.o)
 .data          0x0000000000071528       0x12 /local/mnt/workspace/CRMBuilds/TZ.BF.4.0.3.c1-00005-M8996AAAAANAZT-1_20170110_230814/b/HK11/trustzone_images/core/securemsm/trustzone/qsapps/smplap64/build/sampleapp/A53_64/IADAANAA/app_smplserv_test.o
 *fill*         0x000000000007153a        0x2 
 .data          0x000000000007153c       0x10 /local/mnt/workspace/CRMBuilds/TZ.BF.4.0.3.c1-00005-M8996AAAAANAZT-1_20170110_230814/b/HK11/trustzone_images/core/securemsm/trustzone/qsapps/smplap64/build/sampleapp/A53_64/IADAANAA/app_smplcert_test.o
 .data          0x000000000007154c      0xcc7 /local/mnt/workspace/CRMBuilds/TZ.BF.4.0.3.c1-00005-M8996AAAAANAZT-1_20170110_230814/b/HK11/trustzone_images/core/securemsm/trustzone/qsapps/smplap64/build/sampleapp/A53_64/IADAANAA/app_rsa.o
                0x000000000007154c                oaep_msg_1
                0x0000000000071568                oaep_seed_1
                0x000000000007157c                oaep_enc_1
                0x00000000000715fc                oaep_msg_2
                0x0000000000071629                oaep_seed_2
                0x000000000007163d                oaep_enc_2
                0x000000000007173d                oaep_msg_3
                0x0000000000071774                oaep_seed_3
                0x00000000000717ba                oaep_enc_3
                0x000000000007183a                oaep_msg_4
                0x000000000007184d                oaep_seed_4
                0x0000000000071937                oaep_enc_4
                0x0000000000071a37                pss_msg_1
                0x0000000000071b10                pss_salt_1
                0x0000000000071b24                pss_sig_1
                0x0000000000071ba4                pss_msg_2
                0x0000000000071bc1                pss_salt_2
                0x0000000000071bd5                pss_sig_2
                0x0000000000071cd5                pss_msg_3
                0x0000000000071dae                pss_sig_3
                0x0000000000071e2e                pss_msg_4
                0x0000000000071f13                pss_sig_4
                0x0000000000072013                pss_msg_5
                0x0000000000072093                pss_sig_5
 *fill*         0x0000000000072213        0x1 
 .bss           0x0000000000072214      0x103 /local/mnt/workspace/CRMBuilds/TZ.BF.4.0.3.c1-00005-M8996AAAAANAZT-1_20170110_230814/b/HK11/trustzone_images/core/securemsm/trustzone/qsapps/smplap64/build/sampleapp/A53_64/IADAANAA/app_rsa.o
                0x0000000000072214                pss_salt_3
                0x0000000000072215                pss_salt_4
                0x0000000000072216                pss_salt_5
 *fill*         0x0000000000072317        0x1 
 .data          0x0000000000072318      0x515 /local/mnt/workspace/CRMBuilds/TZ.BF.4.0.3.c1-00005-M8996AAAAANAZT-1_20170110_230814/b/HK11/trustzone_images/core/securemsm/trustzone/qsapps/smplap64/build/sampleapp/A53_64/IADAANAA/app_cmnlib.o
 *fill*         0x000000000007282d        0x3 
 .data          0x0000000000072830        0xc /local/mnt/workspace/CRMBuilds/TZ.BF.4.0.3.c1-00005-M8996AAAAANAZT-1_20170110_230814/b/HK11/trustzone_images/core/securemsm/trustzone/qsapps/smplap64/build/sampleapp/A53_64/IADAANAA/app_stor.o
                0x0000000000072830                rpmb_device_id
                0x0000000000072834                gpt_device_id
                0x0000000000072838                gDeviceID
 COMMON         0x000000000007283c       0x1c /local/mnt/workspace/CRMBuilds/TZ.BF.4.0.3.c1-00005-M8996AAAAANAZT-1_20170110_230814/b/HK11/trustzone_images/core/securemsm/trustzone/qsapps/smplap64/build/sampleapp/A53_64/IADAANAA/app_stor.o
                0x000000000007283c                gClientInfo
 .bss           0x0000000000072858       0xa0 /local/mnt/workspace/CRMBuilds/TZ.BF.4.0.3.c1-00005-M8996AAAAANAZT-1_20170110_230814/b/HK11/trustzone_images/core/securemsm/trustzone/qsapps/smplap64/build/sampleapp/A53_64/IADAANAA/app_bio_lib.o
 .bss           0x00000000000728f8      0x121 /local/mnt/workspace/CRMBuilds/TZ.BF.4.0.3.c1-00005-M8996AAAAANAZT-1_20170110_230814/b/HK11/trustzone_images/core/securemsm/trustzone/qsapps/smplap64/build/sampleapp/A53_64/IADAANAA/app_bulletin_board.o
 *fill*         0x0000000000072a19        0x3 
 .bss           0x0000000000072a1c     0x1000 /local/mnt/workspace/CRMBuilds/TZ.BF.4.0.3.c1-00005-M8996AAAAANAZT-1_20170110_230814/b/HK11/trustzone_images/core/securemsm/trustzone/qsapps/smplap64/build/sampleapp/A53_64/IADAANAA/metadata.o
                0x0000000000072a1c                ta_acceptBuf
 .data          0x0000000000073a1c        0xc /local/mnt/workspace/CRMBuilds/TZ.BF.4.0.3.c1-00005-M8996AAAAANAZT-1_20170110_230814/b/HK11/trustzone_images/core/securemsm/sse/qsee/SecureUILib/lib/build/sampleapp/A53_64/IADAANAA/secure_ui_lib.lib(SecureUILib.o)
                0x0000000000073a1c                g_sid
                0x0000000000073a20                g_width
                0x0000000000073a24                g_height
 .data          0x0000000000073a28        0x4 /local/mnt/workspace/CRMBuilds/TZ.BF.4.0.3.c1-00005-M8996AAAAANAZT-1_20170110_230814/b/HK11/trustzone_images/core/securemsm/trustzone/qsapps/libs/applib/qsee64/build/sampleapp/A53_64/IADAANAA/tzapp_entrylib.lib(stor_gpt.o)
 .bss           0x0000000000073a2c      0x79c /local/mnt/workspace/CRMBuilds/TZ.BF.4.0.3.c1-00005-M8996AAAAANAZT-1_20170110_230814/b/HK11/trustzone_images/core/securemsm/trustzone/qsapps/libs/applib/qsee64/build/sampleapp/A53_64/IADAANAA/tzapp_entrylib.lib(stor_gpt.o)
 .bss           0x00000000000741c8        0x4 /local/mnt/workspace/CRMBuilds/TZ.BF.4.0.3.c1-00005-M8996AAAAANAZT-1_20170110_230814/b/HK11/trustzone_images/core/securemsm/trustzone/qsapps/libs/applib/qsee64/build/sampleapp/A53_64/IADAANAA/tzapp_entrylib.lib(sfs_api.o)
 .bss           0x00000000000741cc      0x121 /local/mnt/workspace/CRMBuilds/TZ.BF.4.0.3.c1-00005-M8996AAAAANAZT-1_20170110_230814/b/HK11/trustzone_images/core/securemsm/trustzone/qsapps/libs/biometric/build/sampleapp/A53_64/IADAANAA/biometric_lib.lib(biometric.o)
 *fill*         0x00000000000742ed        0x3 
 .bss           0x00000000000742f0        0x4 /afs/localcell/cm/gv2.6/sysname/pkg.@sys/qct/software/llvm/release/arm/3.5.2.4/tools/lib64/lib/libc.a(__errno_location.o)
 .data          0x00000000000742f4        0x4 /local/mnt/workspace/CRMBuilds/TZ.BF.4.0.3.c1-00005-M8996AAAAANAZT-1_20170110_230814/b/HK11/trustzone_images/core/securemsm/sse/qsee/SecureTouch/drTs/lib/build/sampleapp/A53_64/IADAANAA/touch_lib.lib(01_open.o)
                0x00000000000742f4                g_drTs_sid
 .bss           0x00000000000742f8       0x81 /local/mnt/workspace/CRMBuilds/TZ.BF.4.0.3.c1-00005-M8996AAAAANAZT-1_20170110_230814/b/HK11/trustzone_images/core/securemsm/trustzone/qsapps/libs/applib/common_applib/build/sampleapp/A53_64/IADAANAA/tzapp_entrylib.lib(gpPersistObjCommon.o)
 *fill*         0x0000000000074379        0x3 
 .bss           0x000000000007437c        0x4 /local/mnt/workspace/CRMBuilds/TZ.BF.4.0.3.c1-00005-M8996AAAAANAZT-1_20170110_230814/b/HK11/trustzone_images/core/securemsm/trustzone/qsapps/libs/applib/common_applib/build/sampleapp/A53_64/IADAANAA/tzapp_entrylib.lib(gpPersistObjHandler.o)
 .bss           0x0000000000074380     0x2024 /local/mnt/workspace/CRMBuilds/TZ.BF.4.0.3.c1-00005-M8996AAAAANAZT-1_20170110_230814/b/HK11/trustzone_images/core/securemsm/trustzone/qsapps/libs/applib/common_applib/build/sampleapp/A53_64/IADAANAA/tzapp_entrylib.lib(gpPersistObjIndex.o)
 .data          0x00000000000763a4        0x1 /local/mnt/workspace/CRMBuilds/TZ.BF.4.0.3.c1-00005-M8996AAAAANAZT-1_20170110_230814/b/HK11/trustzone_images/core/securemsm/trustzone/qsapps/libs/applib/common_applib/build/sampleapp/A53_64/IADAANAA/tzapp_entrylib.lib(gpPersistObjVersion.o)
 *fill*         0x00000000000763a5        0x3 
 .bss           0x00000000000763a8       0x41 /local/mnt/workspace/CRMBuilds/TZ.BF.4.0.3.c1-00005-M8996AAAAANAZT-1_20170110_230814/b/HK11/trustzone_images/core/securemsm/trustzone/qsapps/libs/applib/common_applib/build/sampleapp/A53_64/IADAANAA/tzapp_entrylib.lib(gpPersistObjCrypto.o)
 *fill*         0x00000000000763e9        0x3 
 .data          0x00000000000763ec       0x6c /local/mnt/workspace/CRMBuilds/TZ.BF.4.0.3.c1-00005-M8996AAAAANAZT-1_20170110_230814/b/HK11/trustzone_images/core/securemsm/sse/SecureTouch/controller/build/sampleapp/A53_64/IADAANAA/drts_controller_msm8996.lib(atmel_mxt_ts.o)
 .bss           0x0000000000076458       0xb1 /local/mnt/workspace/CRMBuilds/TZ.BF.4.0.3.c1-00005-M8996AAAAANAZT-1_20170110_230814/b/HK11/trustzone_images/core/securemsm/sse/SecureTouch/controller/build/sampleapp/A53_64/IADAANAA/drts_controller_msm8996.lib(atmel_mxt_ts.o)
 *fill*         0x0000000000076509        0x3 
 .bss           0x000000000007650c       0x84 /local/mnt/workspace/CRMBuilds/TZ.BF.4.0.3.c1-00005-M8996AAAAANAZT-1_20170110_230814/b/HK11/trustzone_images/core/securemsm/sse/SecureTouch/controller/build/sampleapp/A53_64/IADAANAA/drts_controller_msm8996.lib(synaptics_ts.o)
 .data          0x0000000000076590       0x24 /local/mnt/workspace/CRMBuilds/TZ.BF.4.0.3.c1-00005-M8996AAAAANAZT-1_20170110_230814/b/HK11/trustzone_images/core/securemsm/sse/qsee/SecureTouch/drTs/controller/build/sampleapp/A53_64/IADAANAA/touch_controller_i2c_msm8996.lib(atmel_mxt_ts_i2c.o)
 .data          0x00000000000765b4       0x24 /local/mnt/workspace/CRMBuilds/TZ.BF.4.0.3.c1-00005-M8996AAAAANAZT-1_20170110_230814/b/HK11/trustzone_images/core/securemsm/sse/qsee/SecureTouch/drTs/controller/build/sampleapp/A53_64/IADAANAA/touch_controller_i2c_msm8996.lib(synaptics_ts_i2c.o)
 COMMON         0x00000000000765d8       0x10 /local/mnt/workspace/CRMBuilds/TZ.BF.4.0.3.c1-00005-M8996AAAAANAZT-1_20170110_230814/b/HK11/trustzone_images/core/securemsm/trustzone/qsapps/smplap64/build/sampleapp/A53_64/IADAANAA/app_cmnlib.o
                0x00000000000765d8                cipher_key
 COMMON         0x00000000000765e8       0x78 /local/mnt/workspace/CRMBuilds/TZ.BF.4.0.3.c1-00005-M8996AAAAANAZT-1_20170110_230814/b/HK11/trustzone_images/core/securemsm/trustzone/qsapps/smplap64/build/sampleapp/A53_64/IADAANAA/app_secure_ui.o
                0x00000000000765e8                red_dot
                0x0000000000076610                green_dot
                0x0000000000076638                image_dot

.rel.text
 *(SORT(.rel.text))

.rel.rodata
 *(SORT(.rel.rodata))

.data.rel.ro.local
                0x0000000000076660      0x760
 *(SORT(.data.rel.ro.local))
 .data.rel.ro.local
                0x0000000000076660       0x20 /local/mnt/workspace/CRMBuilds/TZ.BF.4.0.3.c1-00005-M8996AAAAANAZT-1_20170110_230814/b/HK11/trustzone_images/core/securemsm/trustzone/qsapps/smplap64/build/sampleapp/A53_64/IADAANAA/app_bio_lib.o
 .data.rel.ro.local
                0x0000000000076680       0x10 /local/mnt/workspace/CRMBuilds/TZ.BF.4.0.3.c1-00005-M8996AAAAANAZT-1_20170110_230814/b/HK11/trustzone_images/core/securemsm/trustzone/qsapps/libs/biometric/build/sampleapp/A53_64/IADAANAA/biometric_lib.lib(biometric.o)
 .data.rel.ro.local
                0x0000000000076690      0x730 /local/mnt/workspace/CRMBuilds/TZ.BF.4.0.3.c1-00005-M8996AAAAANAZT-1_20170110_230814/b/HK11/trustzone_images/core/securemsm/trustzone/qsapps/smplap64/build/sampleapp/A53_64/IADAANAA/app_crypto.o

.data.rel.ro    0x0000000000076dc0      0x12c
 *(SORT(.data.rel.ro))
 .data.rel.ro   0x0000000000076dc0       0x30 /local/mnt/workspace/CRMBuilds/TZ.BF.4.0.3.c1-00005-M8996AAAAANAZT-1_20170110_230814/b/HK11/trustzone_images/core/securemsm/sse/qsee/SecureUILib/lib/build/sampleapp/A53_64/IADAANAA/secure_ui_lib.lib(SecureUILib.o)
 .data.rel.ro   0x0000000000076df0       0xfc /local/mnt/workspace/CRMBuilds/TZ.BF.4.0.3.c1-00005-M8996AAAAANAZT-1_20170110_230814/b/HK11/trustzone_images/core/securemsm/trustzone/qsapps/smplap64/build/sampleapp/A53_64/IADAANAA/app_crypto.o

.rel.data
 *(SORT(.rel.data))

.rel.plt
 *(SORT(.rel.plt))

.data.rel       0x0000000000076ef0      0x3c0
 *(SORT(.data.rel))
 .data.rel      0x0000000000076ef0      0x240 /local/mnt/workspace/CRMBuilds/TZ.BF.4.0.3.c1-00005-M8996AAAAANAZT-1_20170110_230814/b/HK11/trustzone_images/core/securemsm/trustzone/qsapps/smplap64/build/sampleapp/A53_64/IADAANAA/app_rsa.o
                0x0000000000076ef0                oaep_key_list
                0x0000000000076f10                oaep_test_vectors
                0x0000000000076ff0                pss_key_list
                0x0000000000077018                pss_test_vectors
 .data.rel      0x0000000000077130      0x180 /local/mnt/workspace/CRMBuilds/TZ.BF.4.0.3.c1-00005-M8996AAAAANAZT-1_20170110_230814/b/HK11/trustzone_images/core/securemsm/trustzone/qsapps/smplap64/build/sampleapp/A53_64/IADAANAA/app_crypto.o
                0x0000000000077130                aes_ccm_test_vectors_1
                0x0000000000077184                hash_aes_test_vectors

.data.rel.local
                0x00000000000772b0      0x4a8
 *(SORT(.data.rel.local))
 .data.rel.local
                0x00000000000772b0      0x1f8 /local/mnt/workspace/CRMBuilds/TZ.BF.4.0.3.c1-00005-M8996AAAAANAZT-1_20170110_230814/b/HK11/trustzone_images/core/securemsm/trustzone/qsapps/smplap64/build/sampleapp/A53_64/IADAANAA/app_rsa.o
                0x00000000000772b0                pad_version_string
                0x00000000000772c0                hash_id
                0x00000000000772d8                OAEP_string
                0x00000000000772e8                PSS_string
                0x00000000000772f8                rsa_lab_opae_key_1
                0x0000000000077328                rsa_lab_opae_key_2
                0x0000000000077358                rsa_lab_opae_key_3
                0x0000000000077388                rsa_lab_opae_key_4
                0x00000000000773b8                rsa_lab_pss_key_1
                0x00000000000773e8                rsa_lab_pss_key_2
                0x0000000000077418                rsa_lab_pss_key_3
                0x0000000000077448                rsa_lab_pss_key_4
                0x0000000000077478                rsa_lab_pss_key_5
 .data.rel.local
                0x00000000000774a8       0x30 /local/mnt/workspace/CRMBuilds/TZ.BF.4.0.3.c1-00005-M8996AAAAANAZT-1_20170110_230814/b/HK11/trustzone_images/core/securemsm/trustzone/qsapps/smplap64/build/sampleapp/A53_64/IADAANAA/app_bio_lib.o
 .data.rel.local
                0x00000000000774d8       0x18 /local/mnt/workspace/CRMBuilds/TZ.BF.4.0.3.c1-00005-M8996AAAAANAZT-1_20170110_230814/b/HK11/trustzone_images/core/securemsm/trustzone/qsapps/smplap64/build/sampleapp/A53_64/IADAANAA/app_bulletin_board.o
 .data.rel.local
                0x00000000000774f0        0x8 /local/mnt/workspace/CRMBuilds/TZ.BF.4.0.3.c1-00005-M8996AAAAANAZT-1_20170110_230814/b/HK11/trustzone_images/core/securemsm/trustzone/qsapps/smplap64/build/sampleapp/A53_64/IADAANAA/metadata.o
                0x00000000000774f0                TA_APP_NAME
 .data.rel.local
                0x00000000000774f8        0x8 /local/mnt/workspace/CRMBuilds/TZ.BF.4.0.3.c1-00005-M8996AAAAANAZT-1_20170110_230814/b/HK11/trustzone_images/core/securemsm/trustzone/qsapps/libs/applib/common_applib/build/sampleapp/A53_64/IADAANAA/tzapp_entrylib.lib(common_applib.o)
                0x00000000000774f8                dummy_str
 .data.rel.local
                0x0000000000077500       0x10 /local/mnt/workspace/CRMBuilds/TZ.BF.4.0.3.c1-00005-M8996AAAAANAZT-1_20170110_230814/b/HK11/trustzone_images/core/securemsm/trustzone/qsapps/libs/biometric/build/sampleapp/A53_64/IADAANAA/biometric_lib.lib(biometric.o)
 .data.rel.local
                0x0000000000077510       0x30 /local/mnt/workspace/CRMBuilds/TZ.BF.4.0.3.c1-00005-M8996AAAAANAZT-1_20170110_230814/b/HK11/trustzone_images/core/securemsm/sse/SecureTouch/controller/build/sampleapp/A53_64/IADAANAA/drts_controller_msm8996.lib(atmel_mxt_ts.o)
 .data.rel.local
                0x0000000000077540       0x10 /local/mnt/workspace/CRMBuilds/TZ.BF.4.0.3.c1-00005-M8996AAAAANAZT-1_20170110_230814/b/HK11/trustzone_images/core/securemsm/sse/qsee/SecureTouch/drTs/controller/build/sampleapp/A53_64/IADAANAA/touch_controller_i2c_msm8996.lib(atmel_mxt_ts_i2c.o)
 .data.rel.local
                0x0000000000077550       0x10 /local/mnt/workspace/CRMBuilds/TZ.BF.4.0.3.c1-00005-M8996AAAAANAZT-1_20170110_230814/b/HK11/trustzone_images/core/securemsm/sse/qsee/SecureTouch/drTs/controller/build/sampleapp/A53_64/IADAANAA/touch_controller_i2c_msm8996.lib(synaptics_ts_i2c.o)
 .data.rel.local
                0x0000000000077560      0x1f8 /local/mnt/workspace/CRMBuilds/TZ.BF.4.0.3.c1-00005-M8996AAAAANAZT-1_20170110_230814/b/HK11/trustzone_images/core/securemsm/trustzone/qsapps/smplap64/build/sampleapp/A53_64/IADAANAA/app_crypto.o
                0x0000000000077560                aes_ccm_test_vectors_uf

TZ_APP_STACK    0x0000000000077758     0x8000
                0x0000000000077758                Image$$TZ_APP_STACK$$ZI$$Base = .
                0x000000000007f758                . = (. + 0x8000)
 *fill*         0x0000000000077758     0x8000 
                0x000000000007f758                Image$$TZ_APP_STACK$$ZI$$Limit = .

TZ_APP_HEAP     0x000000000007f758     0x8000
                0x000000000007f758                Image$$TZ_APP_HEAP$$ZI$$Base = .
                0x0000000000087758                . = (. + 0x8000)
 *fill*         0x000000000007f758     0x8000 
                0x0000000000087758                Image$$TZ_APP_HEAP$$ZI$$Limit = .

.got            0x0000000000088000      0x258
 *(SORT(.got.plt))
 .got.plt       0x0000000000088000       0x18 /local/mnt/workspace/CRMBuilds/TZ.BF.4.0.3.c1-00005-M8996AAAAANAZT-1_20170110_230814/b/HK11/trustzone_images/core/securemsm/trustzone/qsapps/libs/applib/qsee64/build/sampleapp/A53_64/IADAANAA/qsee64/src/tzapp_entry.o
 *(SORT(.igot.plt))
 *(SORT(.got))
 .got           0x0000000000088018      0x240 /local/mnt/workspace/CRMBuilds/TZ.BF.4.0.3.c1-00005-M8996AAAAANAZT-1_20170110_230814/b/HK11/trustzone_images/core/securemsm/trustzone/qsapps/libs/applib/qsee64/build/sampleapp/A53_64/IADAANAA/qsee64/src/tzapp_entry.o
                0x0000000000088018                _GLOBAL_OFFSET_TABLE_
 *(SORT(.igot))

.dynamic        0x0000000000089000       0xb0
 *(SORT(.dynamic))
 .dynamic       0x0000000000089000       0xb0 /local/mnt/workspace/CRMBuilds/TZ.BF.4.0.3.c1-00005-M8996AAAAANAZT-1_20170110_230814/b/HK11/trustzone_images/core/securemsm/trustzone/qsapps/libs/applib/qsee64/build/sampleapp/A53_64/IADAANAA/qsee64/src/tzapp_entry.o
                0x0000000000089000                _DYNAMIC

.rela.dyn       0x000000000008a000     0x3168
 *(SORT(.rela.dyn))
 .rela.got      0x000000000008a000      0x6a8 /local/mnt/workspace/CRMBuilds/TZ.BF.4.0.3.c1-00005-M8996AAAAANAZT-1_20170110_230814/b/HK11/trustzone_images/core/securemsm/trustzone/qsapps/libs/applib/qsee64/build/sampleapp/A53_64/IADAANAA/qsee64/src/tzapp_entry.o
 .rela.plt      0x0000000000000000        0x0 /local/mnt/workspace/CRMBuilds/TZ.BF.4.0.3.c1-00005-M8996AAAAANAZT-1_20170110_230814/b/HK11/trustzone_images/core/securemsm/trustzone/qsapps/libs/applib/qsee64/build/sampleapp/A53_64/IADAANAA/qsee64/src/tzapp_entry.o
 .rela.ifunc    0x0000000000000000        0x0 /local/mnt/workspace/CRMBuilds/TZ.BF.4.0.3.c1-00005-M8996AAAAANAZT-1_20170110_230814/b/HK11/trustzone_images/core/securemsm/trustzone/qsapps/libs/applib/qsee64/build/sampleapp/A53_64/IADAANAA/qsee64/src/tzapp_entry.o
 .relaTZAPPENTRYCODE
                0x000000000008a6a8       0x18 /local/mnt/workspace/CRMBuilds/TZ.BF.4.0.3.c1-00005-M8996AAAAANAZT-1_20170110_230814/b/HK11/trustzone_images/core/securemsm/trustzone/qsapps/libs/applib/qsee64/build/sampleapp/A53_64/IADAANAA/qsee64/src/tzapp_entry.o
 .rela.data.rel
                0x000000000008a6c0      0x648 /local/mnt/workspace/CRMBuilds/TZ.BF.4.0.3.c1-00005-M8996AAAAANAZT-1_20170110_230814/b/HK11/trustzone_images/core/securemsm/trustzone/qsapps/libs/applib/qsee64/build/sampleapp/A53_64/IADAANAA/qsee64/src/tzapp_entry.o
 .rela.data.rel.local
                0x000000000008ad08      0xb40 /local/mnt/workspace/CRMBuilds/TZ.BF.4.0.3.c1-00005-M8996AAAAANAZT-1_20170110_230814/b/HK11/trustzone_images/core/securemsm/trustzone/qsapps/libs/applib/qsee64/build/sampleapp/A53_64/IADAANAA/qsee64/src/tzapp_entry.o
 .rela.data.rel.ro.local
                0x000000000008b848      0xe88 /local/mnt/workspace/CRMBuilds/TZ.BF.4.0.3.c1-00005-M8996AAAAANAZT-1_20170110_230814/b/HK11/trustzone_images/core/securemsm/trustzone/qsapps/libs/applib/qsee64/build/sampleapp/A53_64/IADAANAA/qsee64/src/tzapp_entry.o
 .rela.data.rel.ro
                0x000000000008c6d0      0x1f8 /local/mnt/workspace/CRMBuilds/TZ.BF.4.0.3.c1-00005-M8996AAAAANAZT-1_20170110_230814/b/HK11/trustzone_images/core/securemsm/trustzone/qsapps/libs/applib/qsee64/build/sampleapp/A53_64/IADAANAA/qsee64/src/tzapp_entry.o
 .rela.rodata   0x000000000008c8c8      0x8a0 /local/mnt/workspace/CRMBuilds/TZ.BF.4.0.3.c1-00005-M8996AAAAANAZT-1_20170110_230814/b/HK11/trustzone_images/core/securemsm/trustzone/qsapps/libs/applib/qsee64/build/sampleapp/A53_64/IADAANAA/qsee64/src/tzapp_entry.o

.dynbss         0x000000000008d168        0x0
 .dynbss        0x0000000000000000        0x0 /local/mnt/workspace/CRMBuilds/TZ.BF.4.0.3.c1-00005-M8996AAAAANAZT-1_20170110_230814/b/HK11/trustzone_images/core/securemsm/trustzone/qsapps/libs/applib/qsee64/build/sampleapp/A53_64/IADAANAA/qsee64/src/tzapp_entry.o

.gnu.attributes
 *(SORT(.gnu.attributes))

.note.gnu.arm.ident
 *(SORT(.note.gnu.arm.ident))

/DISCARD/
 *(SORT(.hash))
 *(SORT(.dynsym))
 *(SORT(.dynstr))
 *(SORT(.ARM.exidx*))
 *(SORT(.note.GNU-stack))
 *(SORT(.gnu_debuglink))
 *(SORT(.gnu.lto_*))
 *(SORT(.init))
 *(SORT(.fini))
START GROUP
LOAD /local/mnt/workspace/CRMBuilds/TZ.BF.4.0.3.c1-00005-M8996AAAAANAZT-1_20170110_230814/b/HK11/trustzone_images/core/kernel/libstd/build/sampleapp/A53_64/IADAANAA/libstd.lib
LOAD /local/mnt/workspace/CRMBuilds/TZ.BF.4.0.3.c1-00005-M8996AAAAANAZT-1_20170110_230814/b/HK11/trustzone_images/core/securemsm/sse/SecureTouch/controller/build/sampleapp/A53_64/IADAANAA/drts_controller_msm8996.lib
LOAD /local/mnt/workspace/CRMBuilds/TZ.BF.4.0.3.c1-00005-M8996AAAAANAZT-1_20170110_230814/b/HK11/trustzone_images/core/securemsm/sse/log/build/sampleapp/A53_64/IADAANAA/sselog.lib
LOAD /local/mnt/workspace/CRMBuilds/TZ.BF.4.0.3.c1-00005-M8996AAAAANAZT-1_20170110_230814/b/HK11/trustzone_images/core/securemsm/sse/qsee/SecureTouch/drTs/controller/build/sampleapp/A53_64/IADAANAA/touch_controller_i2c_msm8996.lib
LOAD /local/mnt/workspace/CRMBuilds/TZ.BF.4.0.3.c1-00005-M8996AAAAANAZT-1_20170110_230814/b/HK11/trustzone_images/core/securemsm/sse/qsee/SecureTouch/drTs/lib/build/sampleapp/A53_64/IADAANAA/touch_lib.lib
LOAD /local/mnt/workspace/CRMBuilds/TZ.BF.4.0.3.c1-00005-M8996AAAAANAZT-1_20170110_230814/b/HK11/trustzone_images/core/securemsm/sse/qsee/SecureUI/build/sampleapp/A53_64/IADAANAA/secure_ui.lib
LOAD /local/mnt/workspace/CRMBuilds/TZ.BF.4.0.3.c1-00005-M8996AAAAANAZT-1_20170110_230814/b/HK11/trustzone_images/core/securemsm/sse/qsee/SecureUILib/lib/build/sampleapp/A53_64/IADAANAA/secure_ui_lib.lib
LOAD /local/mnt/workspace/CRMBuilds/TZ.BF.4.0.3.c1-00005-M8996AAAAANAZT-1_20170110_230814/b/HK11/trustzone_images/core/securemsm/trustzone/qsapps/libs/applib/common_applib/build/sampleapp/A53_64/IADAANAA/tzapp_entrylib.lib
LOAD /local/mnt/workspace/CRMBuilds/TZ.BF.4.0.3.c1-00005-M8996AAAAANAZT-1_20170110_230814/b/HK11/trustzone_images/core/securemsm/trustzone/qsapps/libs/applib/proxy/build/sampleapp/A53_64/IADAANAA/tzlib_proxy.lib
LOAD /local/mnt/workspace/CRMBuilds/TZ.BF.4.0.3.c1-00005-M8996AAAAANAZT-1_20170110_230814/b/HK11/trustzone_images/core/securemsm/trustzone/qsapps/libs/applib/qsee64/build/sampleapp/A53_64/IADAANAA/tzapp_entrylib.lib
LOAD /local/mnt/workspace/CRMBuilds/TZ.BF.4.0.3.c1-00005-M8996AAAAANAZT-1_20170110_230814/b/HK11/trustzone_images/core/securemsm/trustzone/qsapps/libs/biometric/build/sampleapp/A53_64/IADAANAA/biometric_lib.lib
LOAD /afs/localcell/cm/gv2.6/sysname/pkg.@sys/qct/software/llvm/release/arm/3.5.2.4/tools/lib64/lib/libc.a
LOAD /afs/localcell/cm/gv2.6/sysname/pkg.@sys/qct/software/llvm/release/arm/3.5.2.4/lib/clang/3.5.2/lib/linux/libclang_rt.builtins-arm.a
LOAD /local/mnt/workspace/CRMBuilds/TZ.BF.4.0.3.c1-00005-M8996AAAAANAZT-1_20170110_230814/b/HK11/trustzone_images/core/securemsm/trustzone/qsapps/libs/applib/qsee64/build/sampleapp/A53_64/IADAANAA/qsee64/src/tzapp_entry.o
LOAD /local/mnt/workspace/CRMBuilds/TZ.BF.4.0.3.c1-00005-M8996AAAAANAZT-1_20170110_230814/b/HK11/trustzone_images/core/securemsm/trustzone/qsapps/smplap64/build/sampleapp/A53_64/IADAANAA/app_main.o
LOAD /local/mnt/workspace/CRMBuilds/TZ.BF.4.0.3.c1-00005-M8996AAAAANAZT-1_20170110_230814/b/HK11/trustzone_images/core/securemsm/trustzone/qsapps/smplap64/build/sampleapp/A53_64/IADAANAA/app_smplserv_test.o
LOAD /local/mnt/workspace/CRMBuilds/TZ.BF.4.0.3.c1-00005-M8996AAAAANAZT-1_20170110_230814/b/HK11/trustzone_images/core/securemsm/trustzone/qsapps/smplap64/build/sampleapp/A53_64/IADAANAA/app_smplcert_test.o
LOAD /local/mnt/workspace/CRMBuilds/TZ.BF.4.0.3.c1-00005-M8996AAAAANAZT-1_20170110_230814/b/HK11/trustzone_images/core/securemsm/trustzone/qsapps/smplap64/build/sampleapp/A53_64/IADAANAA/app_crypto.o
LOAD /local/mnt/workspace/CRMBuilds/TZ.BF.4.0.3.c1-00005-M8996AAAAANAZT-1_20170110_230814/b/HK11/trustzone_images/core/securemsm/trustzone/qsapps/smplap64/build/sampleapp/A53_64/IADAANAA/app_sfs.o
LOAD /local/mnt/workspace/CRMBuilds/TZ.BF.4.0.3.c1-00005-M8996AAAAANAZT-1_20170110_230814/b/HK11/trustzone_images/core/securemsm/trustzone/qsapps/smplap64/build/sampleapp/A53_64/IADAANAA/app_rsa.o
LOAD /local/mnt/workspace/CRMBuilds/TZ.BF.4.0.3.c1-00005-M8996AAAAANAZT-1_20170110_230814/b/HK11/trustzone_images/core/securemsm/trustzone/qsapps/smplap64/build/sampleapp/A53_64/IADAANAA/qsee_api_tests.o
LOAD /local/mnt/workspace/CRMBuilds/TZ.BF.4.0.3.c1-00005-M8996AAAAANAZT-1_20170110_230814/b/HK11/trustzone_images/core/securemsm/trustzone/qsapps/smplap64/build/sampleapp/A53_64/IADAANAA/app_cmnlib.o
LOAD /local/mnt/workspace/CRMBuilds/TZ.BF.4.0.3.c1-00005-M8996AAAAANAZT-1_20170110_230814/b/HK11/trustzone_images/core/securemsm/trustzone/qsapps/smplap64/build/sampleapp/A53_64/IADAANAA/app_message_passing.o
LOAD /local/mnt/workspace/CRMBuilds/TZ.BF.4.0.3.c1-00005-M8996AAAAANAZT-1_20170110_230814/b/HK11/trustzone_images/core/securemsm/trustzone/qsapps/smplap64/build/sampleapp/A53_64/IADAANAA/app_fuses.o
LOAD /local/mnt/workspace/CRMBuilds/TZ.BF.4.0.3.c1-00005-M8996AAAAANAZT-1_20170110_230814/b/HK11/trustzone_images/core/securemsm/trustzone/qsapps/smplap64/build/sampleapp/A53_64/IADAANAA/app_stor.o
LOAD /local/mnt/workspace/CRMBuilds/TZ.BF.4.0.3.c1-00005-M8996AAAAANAZT-1_20170110_230814/b/HK11/trustzone_images/core/securemsm/trustzone/qsapps/smplap64/build/sampleapp/A53_64/IADAANAA/app_content_protection.o
LOAD /local/mnt/workspace/CRMBuilds/TZ.BF.4.0.3.c1-00005-M8996AAAAANAZT-1_20170110_230814/b/HK11/trustzone_images/core/securemsm/trustzone/qsapps/smplap64/build/sampleapp/A53_64/IADAANAA/app_secure_ui.o
LOAD /local/mnt/workspace/CRMBuilds/TZ.BF.4.0.3.c1-00005-M8996AAAAANAZT-1_20170110_230814/b/HK11/trustzone_images/core/securemsm/trustzone/qsapps/smplap64/build/sampleapp/A53_64/IADAANAA/app_bio_lib.o
LOAD /local/mnt/workspace/CRMBuilds/TZ.BF.4.0.3.c1-00005-M8996AAAAANAZT-1_20170110_230814/b/HK11/trustzone_images/core/securemsm/trustzone/qsapps/smplap64/build/sampleapp/A53_64/IADAANAA/app_bulletin_board.o
LOAD /local/mnt/workspace/CRMBuilds/TZ.BF.4.0.3.c1-00005-M8996AAAAANAZT-1_20170110_230814/b/HK11/trustzone_images/core/securemsm/trustzone/qsapps/smplap64/build/sampleapp/A53_64/IADAANAA/metadata.o
END GROUP
OUTPUT(/local/mnt/workspace/CRMBuilds/TZ.BF.4.0.3.c1-00005-M8996AAAAANAZT-1_20170110_230814/b/HK11/trustzone_images/core/bsp/trustzone/qsapps/smplap64/build/IADAANAA/smplap64.elf elf64-littleaarch64)

.debug_info     0x0000000000000000    0x3767e
 .debug_info    0x0000000000000000      0x568 /local/mnt/workspace/CRMBuilds/TZ.BF.4.0.3.c1-00005-M8996AAAAANAZT-1_20170110_230814/b/HK11/trustzone_images/core/securemsm/trustzone/qsapps/smplap64/build/sampleapp/A53_64/IADAANAA/app_main.o
 .debug_info    0x0000000000000568      0x42a /local/mnt/workspace/CRMBuilds/TZ.BF.4.0.3.c1-00005-M8996AAAAANAZT-1_20170110_230814/b/HK11/trustzone_images/core/securemsm/trustzone/qsapps/smplap64/build/sampleapp/A53_64/IADAANAA/app_smplserv_test.o
 .debug_info    0x0000000000000992      0x2f2 /local/mnt/workspace/CRMBuilds/TZ.BF.4.0.3.c1-00005-M8996AAAAANAZT-1_20170110_230814/b/HK11/trustzone_images/core/securemsm/trustzone/qsapps/smplap64/build/sampleapp/A53_64/IADAANAA/app_smplcert_test.o
 .debug_info    0x0000000000000c84     0x4ebd /local/mnt/workspace/CRMBuilds/TZ.BF.4.0.3.c1-00005-M8996AAAAANAZT-1_20170110_230814/b/HK11/trustzone_images/core/securemsm/trustzone/qsapps/smplap64/build/sampleapp/A53_64/IADAANAA/app_crypto.o
 .debug_info    0x0000000000005b41      0xb94 /local/mnt/workspace/CRMBuilds/TZ.BF.4.0.3.c1-00005-M8996AAAAANAZT-1_20170110_230814/b/HK11/trustzone_images/core/securemsm/trustzone/qsapps/smplap64/build/sampleapp/A53_64/IADAANAA/app_sfs.o
 .debug_info    0x00000000000066d5     0x1221 /local/mnt/workspace/CRMBuilds/TZ.BF.4.0.3.c1-00005-M8996AAAAANAZT-1_20170110_230814/b/HK11/trustzone_images/core/securemsm/trustzone/qsapps/smplap64/build/sampleapp/A53_64/IADAANAA/app_rsa.o
 .debug_info    0x00000000000078f6      0xace /local/mnt/workspace/CRMBuilds/TZ.BF.4.0.3.c1-00005-M8996AAAAANAZT-1_20170110_230814/b/HK11/trustzone_images/core/securemsm/trustzone/qsapps/smplap64/build/sampleapp/A53_64/IADAANAA/qsee_api_tests.o
 .debug_info    0x00000000000083c4      0x89f /local/mnt/workspace/CRMBuilds/TZ.BF.4.0.3.c1-00005-M8996AAAAANAZT-1_20170110_230814/b/HK11/trustzone_images/core/securemsm/trustzone/qsapps/smplap64/build/sampleapp/A53_64/IADAANAA/app_cmnlib.o
 .debug_info    0x0000000000008c63      0x10d /local/mnt/workspace/CRMBuilds/TZ.BF.4.0.3.c1-00005-M8996AAAAANAZT-1_20170110_230814/b/HK11/trustzone_images/core/securemsm/trustzone/qsapps/smplap64/build/sampleapp/A53_64/IADAANAA/app_message_passing.o
 .debug_info    0x0000000000008d70       0xd9 /local/mnt/workspace/CRMBuilds/TZ.BF.4.0.3.c1-00005-M8996AAAAANAZT-1_20170110_230814/b/HK11/trustzone_images/core/securemsm/trustzone/qsapps/smplap64/build/sampleapp/A53_64/IADAANAA/app_fuses.o
 .debug_info    0x0000000000008e49      0xb1d /local/mnt/workspace/CRMBuilds/TZ.BF.4.0.3.c1-00005-M8996AAAAANAZT-1_20170110_230814/b/HK11/trustzone_images/core/securemsm/trustzone/qsapps/smplap64/build/sampleapp/A53_64/IADAANAA/app_stor.o
 .debug_info    0x0000000000009966      0x2d4 /local/mnt/workspace/CRMBuilds/TZ.BF.4.0.3.c1-00005-M8996AAAAANAZT-1_20170110_230814/b/HK11/trustzone_images/core/securemsm/trustzone/qsapps/smplap64/build/sampleapp/A53_64/IADAANAA/app_content_protection.o
 .debug_info    0x0000000000009c3a      0x612 /local/mnt/workspace/CRMBuilds/TZ.BF.4.0.3.c1-00005-M8996AAAAANAZT-1_20170110_230814/b/HK11/trustzone_images/core/securemsm/trustzone/qsapps/smplap64/build/sampleapp/A53_64/IADAANAA/app_secure_ui.o
 .debug_info    0x000000000000a24c      0x6d4 /local/mnt/workspace/CRMBuilds/TZ.BF.4.0.3.c1-00005-M8996AAAAANAZT-1_20170110_230814/b/HK11/trustzone_images/core/securemsm/trustzone/qsapps/smplap64/build/sampleapp/A53_64/IADAANAA/app_bio_lib.o
 .debug_info    0x000000000000a920      0x812 /local/mnt/workspace/CRMBuilds/TZ.BF.4.0.3.c1-00005-M8996AAAAANAZT-1_20170110_230814/b/HK11/trustzone_images/core/securemsm/trustzone/qsapps/smplap64/build/sampleapp/A53_64/IADAANAA/app_bulletin_board.o
 .debug_info    0x000000000000b132       0xb5 /local/mnt/workspace/CRMBuilds/TZ.BF.4.0.3.c1-00005-M8996AAAAANAZT-1_20170110_230814/b/HK11/trustzone_images/core/securemsm/trustzone/qsapps/smplap64/build/sampleapp/A53_64/IADAANAA/metadata.o
 .debug_info    0x000000000000b1e7       0xa8 /local/mnt/workspace/CRMBuilds/TZ.BF.4.0.3.c1-00005-M8996AAAAANAZT-1_20170110_230814/b/HK11/trustzone_images/core/kernel/libstd/build/sampleapp/A53_64/IADAANAA/libstd.lib(memscpy.o)
 .debug_info    0x000000000000b28f       0xc6 /local/mnt/workspace/CRMBuilds/TZ.BF.4.0.3.c1-00005-M8996AAAAANAZT-1_20170110_230814/b/HK11/trustzone_images/core/kernel/libstd/build/sampleapp/A53_64/IADAANAA/libstd.lib(strlcpy.o)
 .debug_info    0x000000000000b355       0xbe /local/mnt/workspace/CRMBuilds/TZ.BF.4.0.3.c1-00005-M8996AAAAANAZT-1_20170110_230814/b/HK11/trustzone_images/core/kernel/libstd/build/sampleapp/A53_64/IADAANAA/libstd.lib(secure_memset.o)
 .debug_info    0x000000000000b413       0xd5 /local/mnt/workspace/CRMBuilds/TZ.BF.4.0.3.c1-00005-M8996AAAAANAZT-1_20170110_230814/b/HK11/trustzone_images/core/kernel/libstd/build/sampleapp/A53_64/IADAANAA/libstd.lib(timesafe_memcmp.o)
 .debug_info    0x000000000000b4e8      0x109 /local/mnt/workspace/CRMBuilds/TZ.BF.4.0.3.c1-00005-M8996AAAAANAZT-1_20170110_230814/b/HK11/trustzone_images/core/kernel/libstd/build/sampleapp/A53_64/IADAANAA/libstd.lib(timesafe_strncmp.o)
 .debug_info    0x000000000000b5f1     0x19e2 /local/mnt/workspace/CRMBuilds/TZ.BF.4.0.3.c1-00005-M8996AAAAANAZT-1_20170110_230814/b/HK11/trustzone_images/core/securemsm/sse/qsee/SecureUI/build/sampleapp/A53_64/IADAANAA/secure_ui.lib(SecureUI.o)
 .debug_info    0x000000000000cfd3      0x9a1 /local/mnt/workspace/CRMBuilds/TZ.BF.4.0.3.c1-00005-M8996AAAAANAZT-1_20170110_230814/b/HK11/trustzone_images/core/securemsm/sse/qsee/SecureUILib/lib/build/sampleapp/A53_64/IADAANAA/secure_ui_lib.lib(SecureUILib.o)
 .debug_info    0x000000000000d974      0x353 /local/mnt/workspace/CRMBuilds/TZ.BF.4.0.3.c1-00005-M8996AAAAANAZT-1_20170110_230814/b/HK11/trustzone_images/core/securemsm/sse/qsee/SecureUILib/lib/build/sampleapp/A53_64/IADAANAA/secure_ui_lib.lib(01_startTouch.o)
 .debug_info    0x000000000000dcc7      0x43f /local/mnt/workspace/CRMBuilds/TZ.BF.4.0.3.c1-00005-M8996AAAAANAZT-1_20170110_230814/b/HK11/trustzone_images/core/securemsm/sse/qsee/SecureUILib/lib/build/sampleapp/A53_64/IADAANAA/secure_ui_lib.lib(02_processTouch.o)
 .debug_info    0x000000000000e106      0x39e /local/mnt/workspace/CRMBuilds/TZ.BF.4.0.3.c1-00005-M8996AAAAANAZT-1_20170110_230814/b/HK11/trustzone_images/core/securemsm/sse/qsee/SecureUILib/lib/build/sampleapp/A53_64/IADAANAA/secure_ui_lib.lib(03_stopTouch.o)
 .debug_info    0x000000000000e4a4     0x14d3 /local/mnt/workspace/CRMBuilds/TZ.BF.4.0.3.c1-00005-M8996AAAAANAZT-1_20170110_230814/b/HK11/trustzone_images/core/securemsm/trustzone/qsapps/libs/applib/common_applib/build/sampleapp/A53_64/IADAANAA/tzapp_entrylib.lib(common_applib.o)
 .debug_info    0x000000000000f977     0x2d55 /local/mnt/workspace/CRMBuilds/TZ.BF.4.0.3.c1-00005-M8996AAAAANAZT-1_20170110_230814/b/HK11/trustzone_images/core/securemsm/trustzone/qsapps/libs/applib/proxy/build/sampleapp/A53_64/IADAANAA/tzlib_proxy.lib(prxy_services.o)
 .debug_info    0x00000000000126cc     0x17a9 /local/mnt/workspace/CRMBuilds/TZ.BF.4.0.3.c1-00005-M8996AAAAANAZT-1_20170110_230814/b/HK11/trustzone_images/core/securemsm/trustzone/qsapps/libs/applib/proxy/build/sampleapp/A53_64/IADAANAA/tzlib_proxy.lib(prxy_qsee_shim.o)
 .debug_info    0x0000000000013e75     0x26eb /local/mnt/workspace/CRMBuilds/TZ.BF.4.0.3.c1-00005-M8996AAAAANAZT-1_20170110_230814/b/HK11/trustzone_images/core/securemsm/trustzone/qsapps/libs/applib/proxy/build/sampleapp/A53_64/IADAANAA/tzlib_proxy.lib(prxy_ufaes.o)
 .debug_info    0x0000000000016560     0x2564 /local/mnt/workspace/CRMBuilds/TZ.BF.4.0.3.c1-00005-M8996AAAAANAZT-1_20170110_230814/b/HK11/trustzone_images/core/securemsm/trustzone/qsapps/libs/applib/proxy/build/sampleapp/A53_64/IADAANAA/tzlib_proxy.lib(prxy_ufdes.o)
 .debug_info    0x0000000000018ac4     0x25a4 /local/mnt/workspace/CRMBuilds/TZ.BF.4.0.3.c1-00005-M8996AAAAANAZT-1_20170110_230814/b/HK11/trustzone_images/core/securemsm/trustzone/qsapps/libs/applib/proxy/build/sampleapp/A53_64/IADAANAA/tzlib_proxy.lib(prxy_ufsha.o)
 .debug_info    0x000000000001b068     0x24e2 /local/mnt/workspace/CRMBuilds/TZ.BF.4.0.3.c1-00005-M8996AAAAANAZT-1_20170110_230814/b/HK11/trustzone_images/core/securemsm/trustzone/qsapps/libs/applib/proxy/build/sampleapp/A53_64/IADAANAA/tzlib_proxy.lib(prxy_secmath.o)
 .debug_info    0x000000000001d54a     0x287b /local/mnt/workspace/CRMBuilds/TZ.BF.4.0.3.c1-00005-M8996AAAAANAZT-1_20170110_230814/b/HK11/trustzone_images/core/securemsm/trustzone/qsapps/libs/applib/proxy/build/sampleapp/A53_64/IADAANAA/tzlib_proxy.lib(prxy_secrsa.o)
 .debug_info    0x000000000001fdc5     0x29fd /local/mnt/workspace/CRMBuilds/TZ.BF.4.0.3.c1-00005-M8996AAAAANAZT-1_20170110_230814/b/HK11/trustzone_images/core/securemsm/trustzone/qsapps/libs/applib/proxy/build/sampleapp/A53_64/IADAANAA/tzlib_proxy.lib(prxy_ecc.o)
 .debug_info    0x00000000000227c2      0x5c8 /local/mnt/workspace/CRMBuilds/TZ.BF.4.0.3.c1-00005-M8996AAAAANAZT-1_20170110_230814/b/HK11/trustzone_images/core/securemsm/trustzone/qsapps/libs/applib/qsee64/build/sampleapp/A53_64/IADAANAA/tzapp_entrylib.lib(mink_shared_code.o)
 .debug_info    0x0000000000022d8a      0x67e /local/mnt/workspace/CRMBuilds/TZ.BF.4.0.3.c1-00005-M8996AAAAANAZT-1_20170110_230814/b/HK11/trustzone_images/core/securemsm/trustzone/qsapps/libs/applib/qsee64/build/sampleapp/A53_64/IADAANAA/tzapp_entrylib.lib(qsee_env.o)
 .debug_info    0x0000000000023408      0x6f3 /local/mnt/workspace/CRMBuilds/TZ.BF.4.0.3.c1-00005-M8996AAAAANAZT-1_20170110_230814/b/HK11/trustzone_images/core/securemsm/trustzone/qsapps/libs/applib/qsee64/build/sampleapp/A53_64/IADAANAA/tzapp_entrylib.lib(qsee_core_shim.o)
 .debug_info    0x0000000000023afb      0x45f /local/mnt/workspace/CRMBuilds/TZ.BF.4.0.3.c1-00005-M8996AAAAANAZT-1_20170110_230814/b/HK11/trustzone_images/core/securemsm/trustzone/qsapps/libs/applib/qsee64/build/sampleapp/A53_64/IADAANAA/tzapp_entrylib.lib(qsee_deviceid.o)
 .debug_info    0x0000000000023f5a      0x2c4 /local/mnt/workspace/CRMBuilds/TZ.BF.4.0.3.c1-00005-M8996AAAAANAZT-1_20170110_230814/b/HK11/trustzone_images/core/securemsm/trustzone/qsapps/libs/applib/qsee64/build/sampleapp/A53_64/IADAANAA/tzapp_entrylib.lib(qsee_prng.o)
 .debug_info    0x000000000002421e      0x37e /local/mnt/workspace/CRMBuilds/TZ.BF.4.0.3.c1-00005-M8996AAAAANAZT-1_20170110_230814/b/HK11/trustzone_images/core/securemsm/trustzone/qsapps/libs/applib/qsee64/build/sampleapp/A53_64/IADAANAA/tzapp_entrylib.lib(qsee_secdisp.o)
 .debug_info    0x000000000002459c      0x640 /local/mnt/workspace/CRMBuilds/TZ.BF.4.0.3.c1-00005-M8996AAAAANAZT-1_20170110_230814/b/HK11/trustzone_images/core/securemsm/trustzone/qsapps/libs/applib/qsee64/build/sampleapp/A53_64/IADAANAA/tzapp_entrylib.lib(qsee_nsmem.o)
 .debug_info    0x0000000000024bdc      0x40b /local/mnt/workspace/CRMBuilds/TZ.BF.4.0.3.c1-00005-M8996AAAAANAZT-1_20170110_230814/b/HK11/trustzone_images/core/securemsm/trustzone/qsapps/libs/applib/qsee64/build/sampleapp/A53_64/IADAANAA/tzapp_entrylib.lib(qsee_cmac.o)
 .debug_info    0x0000000000024fe7       0xd2 /local/mnt/workspace/CRMBuilds/TZ.BF.4.0.3.c1-00005-M8996AAAAANAZT-1_20170110_230814/b/HK11/trustzone_images/core/securemsm/trustzone/qsapps/libs/applib/qsee64/build/sampleapp/A53_64/IADAANAA/tzapp_entrylib.lib(qsee_crypto_shim.o)
 .debug_info    0x00000000000250b9       0x78 /local/mnt/workspace/CRMBuilds/TZ.BF.4.0.3.c1-00005-M8996AAAAANAZT-1_20170110_230814/b/HK11/trustzone_images/core/securemsm/trustzone/qsapps/libs/applib/qsee64/build/sampleapp/A53_64/IADAANAA/tzapp_entrylib.lib(qsee_timer_shim.o)
 .debug_info    0x0000000000025131      0x4ba /local/mnt/workspace/CRMBuilds/TZ.BF.4.0.3.c1-00005-M8996AAAAANAZT-1_20170110_230814/b/HK11/trustzone_images/core/securemsm/trustzone/qsapps/libs/applib/qsee64/build/sampleapp/A53_64/IADAANAA/tzapp_entrylib.lib(qsee_comstr.o)
 .debug_info    0x00000000000255eb      0x5e1 /local/mnt/workspace/CRMBuilds/TZ.BF.4.0.3.c1-00005-M8996AAAAANAZT-1_20170110_230814/b/HK11/trustzone_images/core/securemsm/trustzone/qsapps/libs/applib/qsee64/build/sampleapp/A53_64/IADAANAA/tzapp_entrylib.lib(stor.o)
 .debug_info    0x0000000000025bcc      0xe2a /local/mnt/workspace/CRMBuilds/TZ.BF.4.0.3.c1-00005-M8996AAAAANAZT-1_20170110_230814/b/HK11/trustzone_images/core/securemsm/trustzone/qsapps/libs/applib/qsee64/build/sampleapp/A53_64/IADAANAA/tzapp_entrylib.lib(stor_gpt.o)
 .debug_info    0x00000000000269f6      0x4c0 /local/mnt/workspace/CRMBuilds/TZ.BF.4.0.3.c1-00005-M8996AAAAANAZT-1_20170110_230814/b/HK11/trustzone_images/core/securemsm/trustzone/qsapps/libs/applib/qsee64/build/sampleapp/A53_64/IADAANAA/tzapp_entrylib.lib(stor_rpmbw.o)
 .debug_info    0x0000000000026eb6      0x1c5 /local/mnt/workspace/CRMBuilds/TZ.BF.4.0.3.c1-00005-M8996AAAAANAZT-1_20170110_230814/b/HK11/trustzone_images/core/securemsm/trustzone/qsapps/libs/applib/qsee64/build/sampleapp/A53_64/IADAANAA/tzapp_entrylib.lib(qsee_counter_shim.o)
 .debug_info    0x000000000002707b      0xcce /local/mnt/workspace/CRMBuilds/TZ.BF.4.0.3.c1-00005-M8996AAAAANAZT-1_20170110_230814/b/HK11/trustzone_images/core/securemsm/trustzone/qsapps/libs/applib/qsee64/build/sampleapp/A53_64/IADAANAA/tzapp_entrylib.lib(qsee_cipher.o)
 .debug_info    0x0000000000027d49      0xe95 /local/mnt/workspace/CRMBuilds/TZ.BF.4.0.3.c1-00005-M8996AAAAANAZT-1_20170110_230814/b/HK11/trustzone_images/core/securemsm/trustzone/qsapps/libs/applib/qsee64/build/sampleapp/A53_64/IADAANAA/tzapp_entrylib.lib(qsee_hash.o)
 .debug_info    0x0000000000028bde      0x864 /local/mnt/workspace/CRMBuilds/TZ.BF.4.0.3.c1-00005-M8996AAAAANAZT-1_20170110_230814/b/HK11/trustzone_images/core/securemsm/trustzone/qsapps/libs/applib/qsee64/build/sampleapp/A53_64/IADAANAA/tzapp_entrylib.lib(qsee_hmac.o)
 .debug_info    0x0000000000029442      0xcb7 /local/mnt/workspace/CRMBuilds/TZ.BF.4.0.3.c1-00005-M8996AAAAANAZT-1_20170110_230814/b/HK11/trustzone_images/core/securemsm/trustzone/qsapps/libs/applib/qsee64/build/sampleapp/A53_64/IADAANAA/tzapp_entrylib.lib(qsee_i2c.o)
 .debug_info    0x000000000002a0f9      0xbdc /local/mnt/workspace/CRMBuilds/TZ.BF.4.0.3.c1-00005-M8996AAAAANAZT-1_20170110_230814/b/HK11/trustzone_images/core/securemsm/trustzone/qsapps/libs/applib/qsee64/build/sampleapp/A53_64/IADAANAA/tzapp_entrylib.lib(qsee_spi.o)
 .debug_info    0x000000000002acd5      0xa46 /local/mnt/workspace/CRMBuilds/TZ.BF.4.0.3.c1-00005-M8996AAAAANAZT-1_20170110_230814/b/HK11/trustzone_images/core/securemsm/trustzone/qsapps/libs/applib/qsee64/build/sampleapp/A53_64/IADAANAA/tzapp_entrylib.lib(qsee_tlmm.o)
 .debug_info    0x000000000002b71b      0x170 /local/mnt/workspace/CRMBuilds/TZ.BF.4.0.3.c1-00005-M8996AAAAANAZT-1_20170110_230814/b/HK11/trustzone_images/core/securemsm/trustzone/qsapps/libs/applib/qsee64/build/sampleapp/A53_64/IADAANAA/tzapp_entrylib.lib(qsee_bulletin_board_shim.o)
 .debug_info    0x000000000002b88b      0x409 /local/mnt/workspace/CRMBuilds/TZ.BF.4.0.3.c1-00005-M8996AAAAANAZT-1_20170110_230814/b/HK11/trustzone_images/core/securemsm/trustzone/qsapps/libs/applib/qsee64/build/sampleapp/A53_64/IADAANAA/tzapp_entrylib.lib(qsee_dcache.o)
 .debug_info    0x000000000002bc94      0x3ee /local/mnt/workspace/CRMBuilds/TZ.BF.4.0.3.c1-00005-M8996AAAAANAZT-1_20170110_230814/b/HK11/trustzone_images/core/securemsm/trustzone/qsapps/libs/applib/qsee64/build/sampleapp/A53_64/IADAANAA/tzapp_entrylib.lib(qsee_shared_buffer.o)
 .debug_info    0x000000000002c082      0x2b4 /local/mnt/workspace/CRMBuilds/TZ.BF.4.0.3.c1-00005-M8996AAAAANAZT-1_20170110_230814/b/HK11/trustzone_images/core/securemsm/trustzone/qsapps/libs/applib/qsee64/build/sampleapp/A53_64/IADAANAA/tzapp_entrylib.lib(qsee_sync.o)
 .debug_info    0x000000000002c336      0x523 /local/mnt/workspace/CRMBuilds/TZ.BF.4.0.3.c1-00005-M8996AAAAANAZT-1_20170110_230814/b/HK11/trustzone_images/core/securemsm/trustzone/qsapps/libs/applib/qsee64/build/sampleapp/A53_64/IADAANAA/tzapp_entrylib.lib(qsee_oem_buffer.o)
 .debug_info    0x000000000002c859      0x522 /local/mnt/workspace/CRMBuilds/TZ.BF.4.0.3.c1-00005-M8996AAAAANAZT-1_20170110_230814/b/HK11/trustzone_images/core/securemsm/trustzone/qsapps/libs/applib/qsee64/build/sampleapp/A53_64/IADAANAA/tzapp_entrylib.lib(qsee_intmask.o)
 .debug_info    0x000000000002cd7b      0x3d9 /local/mnt/workspace/CRMBuilds/TZ.BF.4.0.3.c1-00005-M8996AAAAANAZT-1_20170110_230814/b/HK11/trustzone_images/core/securemsm/trustzone/qsapps/libs/applib/qsee64/build/sampleapp/A53_64/IADAANAA/tzapp_entrylib.lib(qsee_trans_ns_addr.o)
 .debug_info    0x000000000002d154      0x565 /local/mnt/workspace/CRMBuilds/TZ.BF.4.0.3.c1-00005-M8996AAAAANAZT-1_20170110_230814/b/HK11/trustzone_images/core/securemsm/trustzone/qsapps/libs/applib/qsee64/build/sampleapp/A53_64/IADAANAA/tzapp_entrylib.lib(qsee_appmessage.o)
 .debug_info    0x000000000002d6b9      0xa46 /local/mnt/workspace/CRMBuilds/TZ.BF.4.0.3.c1-00005-M8996AAAAANAZT-1_20170110_230814/b/HK11/trustzone_images/core/securemsm/trustzone/qsapps/libs/applib/qsee64/build/sampleapp/A53_64/IADAANAA/tzapp_entrylib.lib(sfs_api.o)
 .debug_info    0x000000000002e0ff      0x3c4 /local/mnt/workspace/CRMBuilds/TZ.BF.4.0.3.c1-00005-M8996AAAAANAZT-1_20170110_230814/b/HK11/trustzone_images/core/securemsm/trustzone/qsapps/libs/applib/qsee64/build/sampleapp/A53_64/IADAANAA/tzapp_entrylib.lib(tzapp_lib_main.o)
 .debug_info    0x000000000002e4c3      0x8fb /local/mnt/workspace/CRMBuilds/TZ.BF.4.0.3.c1-00005-M8996AAAAANAZT-1_20170110_230814/b/HK11/trustzone_images/core/securemsm/trustzone/qsapps/libs/biometric/build/sampleapp/A53_64/IADAANAA/biometric_lib.lib(biometric.o)
 .debug_info    0x000000000002edbe      0x8ac /local/mnt/workspace/CRMBuilds/TZ.BF.4.0.3.c1-00005-M8996AAAAANAZT-1_20170110_230814/b/HK11/trustzone_images/core/securemsm/trustzone/qsapps/libs/biometric/build/sampleapp/A53_64/IADAANAA/biometric_lib.lib(biometric_serializer.o)
 .debug_info    0x000000000002f66a      0x140 /local/mnt/workspace/CRMBuilds/TZ.BF.4.0.3.c1-00005-M8996AAAAANAZT-1_20170110_230814/b/HK11/trustzone_images/core/securemsm/sse/qsee/SecureTouch/drTs/lib/build/sampleapp/A53_64/IADAANAA/touch_lib.lib(01_open.o)
 .debug_info    0x000000000002f7aa       0xa1 /local/mnt/workspace/CRMBuilds/TZ.BF.4.0.3.c1-00005-M8996AAAAANAZT-1_20170110_230814/b/HK11/trustzone_images/core/securemsm/sse/qsee/SecureTouch/drTs/lib/build/sampleapp/A53_64/IADAANAA/touch_lib.lib(02_close.o)
 .debug_info    0x000000000002f84b      0x1f5 /local/mnt/workspace/CRMBuilds/TZ.BF.4.0.3.c1-00005-M8996AAAAANAZT-1_20170110_230814/b/HK11/trustzone_images/core/securemsm/sse/qsee/SecureTouch/drTs/lib/build/sampleapp/A53_64/IADAANAA/touch_lib.lib(03_getData.o)
 .debug_info    0x000000000002fa40      0x630 /local/mnt/workspace/CRMBuilds/TZ.BF.4.0.3.c1-00005-M8996AAAAANAZT-1_20170110_230814/b/HK11/trustzone_images/core/securemsm/trustzone/qsapps/libs/applib/common_applib/build/sampleapp/A53_64/IADAANAA/tzapp_entrylib.lib(gpPersistObjCommon.o)
 .debug_info    0x0000000000030070      0x87e /local/mnt/workspace/CRMBuilds/TZ.BF.4.0.3.c1-00005-M8996AAAAANAZT-1_20170110_230814/b/HK11/trustzone_images/core/securemsm/trustzone/qsapps/libs/applib/common_applib/build/sampleapp/A53_64/IADAANAA/tzapp_entrylib.lib(gpPersistentObjects.o)
 .debug_info    0x00000000000308ee     0x14a6 /local/mnt/workspace/CRMBuilds/TZ.BF.4.0.3.c1-00005-M8996AAAAANAZT-1_20170110_230814/b/HK11/trustzone_images/core/securemsm/trustzone/qsapps/libs/applib/common_applib/build/sampleapp/A53_64/IADAANAA/tzapp_entrylib.lib(gpPersistObjData.o)
 .debug_info    0x0000000000031d94      0x6b9 /local/mnt/workspace/CRMBuilds/TZ.BF.4.0.3.c1-00005-M8996AAAAANAZT-1_20170110_230814/b/HK11/trustzone_images/core/securemsm/trustzone/qsapps/libs/applib/common_applib/build/sampleapp/A53_64/IADAANAA/tzapp_entrylib.lib(gpPersistObjHandler.o)
 .debug_info    0x000000000003244d      0xd79 /local/mnt/workspace/CRMBuilds/TZ.BF.4.0.3.c1-00005-M8996AAAAANAZT-1_20170110_230814/b/HK11/trustzone_images/core/securemsm/trustzone/qsapps/libs/applib/common_applib/build/sampleapp/A53_64/IADAANAA/tzapp_entrylib.lib(gpPersistObjIndex.o)
 .debug_info    0x00000000000331c6      0xa23 /local/mnt/workspace/CRMBuilds/TZ.BF.4.0.3.c1-00005-M8996AAAAANAZT-1_20170110_230814/b/HK11/trustzone_images/core/securemsm/trustzone/qsapps/libs/applib/common_applib/build/sampleapp/A53_64/IADAANAA/tzapp_entrylib.lib(gpPersistObjVersion.o)
 .debug_info    0x0000000000033be9      0x938 /local/mnt/workspace/CRMBuilds/TZ.BF.4.0.3.c1-00005-M8996AAAAANAZT-1_20170110_230814/b/HK11/trustzone_images/core/securemsm/trustzone/qsapps/libs/applib/common_applib/build/sampleapp/A53_64/IADAANAA/tzapp_entrylib.lib(gpPersistObjCrypto.o)
 .debug_info    0x0000000000034521      0x4b3 /local/mnt/workspace/CRMBuilds/TZ.BF.4.0.3.c1-00005-M8996AAAAANAZT-1_20170110_230814/b/HK11/trustzone_images/core/securemsm/trustzone/qsapps/libs/applib/common_applib/build/sampleapp/A53_64/IADAANAA/tzapp_entrylib.lib(gpPersistObjFileIO.o)
 .debug_info    0x00000000000349d4      0x51e /local/mnt/workspace/CRMBuilds/TZ.BF.4.0.3.c1-00005-M8996AAAAANAZT-1_20170110_230814/b/HK11/trustzone_images/core/securemsm/trustzone/qsapps/libs/applib/common_applib/build/sampleapp/A53_64/IADAANAA/tzapp_entrylib.lib(gpFileService.o)
 .debug_info    0x0000000000034ef2      0x170 /local/mnt/workspace/CRMBuilds/TZ.BF.4.0.3.c1-00005-M8996AAAAANAZT-1_20170110_230814/b/HK11/trustzone_images/core/securemsm/trustzone/qsapps/libs/applib/qsee64/build/sampleapp/A53_64/IADAANAA/tzapp_entrylib.lib(qsee_cfg_prop_shim.o)
 .debug_info    0x0000000000035062       0x96 /local/mnt/workspace/CRMBuilds/TZ.BF.4.0.3.c1-00005-M8996AAAAANAZT-1_20170110_230814/b/HK11/trustzone_images/core/securemsm/trustzone/qsapps/libs/applib/qsee64/build/sampleapp/A53_64/IADAANAA/tzapp_entrylib.lib(gpPersistObjPanic.o)
 .debug_info    0x00000000000350f8      0xa85 /local/mnt/workspace/CRMBuilds/TZ.BF.4.0.3.c1-00005-M8996AAAAANAZT-1_20170110_230814/b/HK11/trustzone_images/core/securemsm/sse/SecureTouch/controller/build/sampleapp/A53_64/IADAANAA/drts_controller_msm8996.lib(atmel_mxt_ts.o)
 .debug_info    0x0000000000035b7d      0xcfe /local/mnt/workspace/CRMBuilds/TZ.BF.4.0.3.c1-00005-M8996AAAAANAZT-1_20170110_230814/b/HK11/trustzone_images/core/securemsm/sse/SecureTouch/controller/build/sampleapp/A53_64/IADAANAA/drts_controller_msm8996.lib(synaptics_ts.o)
 .debug_info    0x000000000003687b       0xec /local/mnt/workspace/CRMBuilds/TZ.BF.4.0.3.c1-00005-M8996AAAAANAZT-1_20170110_230814/b/HK11/trustzone_images/core/securemsm/sse/log/build/sampleapp/A53_64/IADAANAA/sselog.lib(sselog.o)
 .debug_info    0x0000000000036967      0x671 /local/mnt/workspace/CRMBuilds/TZ.BF.4.0.3.c1-00005-M8996AAAAANAZT-1_20170110_230814/b/HK11/trustzone_images/core/securemsm/sse/qsee/SecureTouch/drTs/controller/build/sampleapp/A53_64/IADAANAA/touch_controller_i2c_msm8996.lib(atmel_mxt_ts_i2c.o)
 .debug_info    0x0000000000036fd8      0x6a6 /local/mnt/workspace/CRMBuilds/TZ.BF.4.0.3.c1-00005-M8996AAAAANAZT-1_20170110_230814/b/HK11/trustzone_images/core/securemsm/sse/qsee/SecureTouch/drTs/controller/build/sampleapp/A53_64/IADAANAA/touch_controller_i2c_msm8996.lib(synaptics_ts_i2c.o)

.debug_abbrev   0x0000000000000000     0x764c
 .debug_abbrev  0x0000000000000000      0x192 /local/mnt/workspace/CRMBuilds/TZ.BF.4.0.3.c1-00005-M8996AAAAANAZT-1_20170110_230814/b/HK11/trustzone_images/core/securemsm/trustzone/qsapps/smplap64/build/sampleapp/A53_64/IADAANAA/app_main.o
 .debug_abbrev  0x0000000000000192      0x154 /local/mnt/workspace/CRMBuilds/TZ.BF.4.0.3.c1-00005-M8996AAAAANAZT-1_20170110_230814/b/HK11/trustzone_images/core/securemsm/trustzone/qsapps/smplap64/build/sampleapp/A53_64/IADAANAA/app_smplserv_test.o
 .debug_abbrev  0x00000000000002e6      0x12a /local/mnt/workspace/CRMBuilds/TZ.BF.4.0.3.c1-00005-M8996AAAAANAZT-1_20170110_230814/b/HK11/trustzone_images/core/securemsm/trustzone/qsapps/smplap64/build/sampleapp/A53_64/IADAANAA/app_smplcert_test.o
 .debug_abbrev  0x0000000000000410      0x1d4 /local/mnt/workspace/CRMBuilds/TZ.BF.4.0.3.c1-00005-M8996AAAAANAZT-1_20170110_230814/b/HK11/trustzone_images/core/securemsm/trustzone/qsapps/smplap64/build/sampleapp/A53_64/IADAANAA/app_crypto.o
 .debug_abbrev  0x00000000000005e4      0x186 /local/mnt/workspace/CRMBuilds/TZ.BF.4.0.3.c1-00005-M8996AAAAANAZT-1_20170110_230814/b/HK11/trustzone_images/core/securemsm/trustzone/qsapps/smplap64/build/sampleapp/A53_64/IADAANAA/app_sfs.o
 .debug_abbrev  0x000000000000076a      0x1db /local/mnt/workspace/CRMBuilds/TZ.BF.4.0.3.c1-00005-M8996AAAAANAZT-1_20170110_230814/b/HK11/trustzone_images/core/securemsm/trustzone/qsapps/smplap64/build/sampleapp/A53_64/IADAANAA/app_rsa.o
 .debug_abbrev  0x0000000000000945      0x212 /local/mnt/workspace/CRMBuilds/TZ.BF.4.0.3.c1-00005-M8996AAAAANAZT-1_20170110_230814/b/HK11/trustzone_images/core/securemsm/trustzone/qsapps/smplap64/build/sampleapp/A53_64/IADAANAA/qsee_api_tests.o
 .debug_abbrev  0x0000000000000b57      0x1bc /local/mnt/workspace/CRMBuilds/TZ.BF.4.0.3.c1-00005-M8996AAAAANAZT-1_20170110_230814/b/HK11/trustzone_images/core/securemsm/trustzone/qsapps/smplap64/build/sampleapp/A53_64/IADAANAA/app_cmnlib.o
 .debug_abbrev  0x0000000000000d13       0xbc /local/mnt/workspace/CRMBuilds/TZ.BF.4.0.3.c1-00005-M8996AAAAANAZT-1_20170110_230814/b/HK11/trustzone_images/core/securemsm/trustzone/qsapps/smplap64/build/sampleapp/A53_64/IADAANAA/app_message_passing.o
 .debug_abbrev  0x0000000000000dcf       0x73 /local/mnt/workspace/CRMBuilds/TZ.BF.4.0.3.c1-00005-M8996AAAAANAZT-1_20170110_230814/b/HK11/trustzone_images/core/securemsm/trustzone/qsapps/smplap64/build/sampleapp/A53_64/IADAANAA/app_fuses.o
 .debug_abbrev  0x0000000000000e42      0x220 /local/mnt/workspace/CRMBuilds/TZ.BF.4.0.3.c1-00005-M8996AAAAANAZT-1_20170110_230814/b/HK11/trustzone_images/core/securemsm/trustzone/qsapps/smplap64/build/sampleapp/A53_64/IADAANAA/app_stor.o
 .debug_abbrev  0x0000000000001062       0xff /local/mnt/workspace/CRMBuilds/TZ.BF.4.0.3.c1-00005-M8996AAAAANAZT-1_20170110_230814/b/HK11/trustzone_images/core/securemsm/trustzone/qsapps/smplap64/build/sampleapp/A53_64/IADAANAA/app_content_protection.o
 .debug_abbrev  0x0000000000001161      0x1eb /local/mnt/workspace/CRMBuilds/TZ.BF.4.0.3.c1-00005-M8996AAAAANAZT-1_20170110_230814/b/HK11/trustzone_images/core/securemsm/trustzone/qsapps/smplap64/build/sampleapp/A53_64/IADAANAA/app_secure_ui.o
 .debug_abbrev  0x000000000000134c      0x1a0 /local/mnt/workspace/CRMBuilds/TZ.BF.4.0.3.c1-00005-M8996AAAAANAZT-1_20170110_230814/b/HK11/trustzone_images/core/securemsm/trustzone/qsapps/smplap64/build/sampleapp/A53_64/IADAANAA/app_bio_lib.o
 .debug_abbrev  0x00000000000014ec      0x1a8 /local/mnt/workspace/CRMBuilds/TZ.BF.4.0.3.c1-00005-M8996AAAAANAZT-1_20170110_230814/b/HK11/trustzone_images/core/securemsm/trustzone/qsapps/smplap64/build/sampleapp/A53_64/IADAANAA/app_bulletin_board.o
 .debug_abbrev  0x0000000000001694       0x63 /local/mnt/workspace/CRMBuilds/TZ.BF.4.0.3.c1-00005-M8996AAAAANAZT-1_20170110_230814/b/HK11/trustzone_images/core/securemsm/trustzone/qsapps/smplap64/build/sampleapp/A53_64/IADAANAA/metadata.o
 .debug_abbrev  0x00000000000016f7       0x8a /local/mnt/workspace/CRMBuilds/TZ.BF.4.0.3.c1-00005-M8996AAAAANAZT-1_20170110_230814/b/HK11/trustzone_images/core/kernel/libstd/build/sampleapp/A53_64/IADAANAA/libstd.lib(memscpy.o)
 .debug_abbrev  0x0000000000001781       0x94 /local/mnt/workspace/CRMBuilds/TZ.BF.4.0.3.c1-00005-M8996AAAAANAZT-1_20170110_230814/b/HK11/trustzone_images/core/kernel/libstd/build/sampleapp/A53_64/IADAANAA/libstd.lib(strlcpy.o)
 .debug_abbrev  0x0000000000001815       0x92 /local/mnt/workspace/CRMBuilds/TZ.BF.4.0.3.c1-00005-M8996AAAAANAZT-1_20170110_230814/b/HK11/trustzone_images/core/kernel/libstd/build/sampleapp/A53_64/IADAANAA/libstd.lib(secure_memset.o)
 .debug_abbrev  0x00000000000018a7       0x83 /local/mnt/workspace/CRMBuilds/TZ.BF.4.0.3.c1-00005-M8996AAAAANAZT-1_20170110_230814/b/HK11/trustzone_images/core/kernel/libstd/build/sampleapp/A53_64/IADAANAA/libstd.lib(timesafe_memcmp.o)
 .debug_abbrev  0x000000000000192a       0xad /local/mnt/workspace/CRMBuilds/TZ.BF.4.0.3.c1-00005-M8996AAAAANAZT-1_20170110_230814/b/HK11/trustzone_images/core/kernel/libstd/build/sampleapp/A53_64/IADAANAA/libstd.lib(timesafe_strncmp.o)
 .debug_abbrev  0x00000000000019d7      0x260 /local/mnt/workspace/CRMBuilds/TZ.BF.4.0.3.c1-00005-M8996AAAAANAZT-1_20170110_230814/b/HK11/trustzone_images/core/securemsm/sse/qsee/SecureUI/build/sampleapp/A53_64/IADAANAA/secure_ui.lib(SecureUI.o)
 .debug_abbrev  0x0000000000001c37      0x1e3 /local/mnt/workspace/CRMBuilds/TZ.BF.4.0.3.c1-00005-M8996AAAAANAZT-1_20170110_230814/b/HK11/trustzone_images/core/securemsm/sse/qsee/SecureUILib/lib/build/sampleapp/A53_64/IADAANAA/secure_ui_lib.lib(SecureUILib.o)
 .debug_abbrev  0x0000000000001e1a      0x130 /local/mnt/workspace/CRMBuilds/TZ.BF.4.0.3.c1-00005-M8996AAAAANAZT-1_20170110_230814/b/HK11/trustzone_images/core/securemsm/sse/qsee/SecureUILib/lib/build/sampleapp/A53_64/IADAANAA/secure_ui_lib.lib(01_startTouch.o)
 .debug_abbrev  0x0000000000001f4a      0x151 /local/mnt/workspace/CRMBuilds/TZ.BF.4.0.3.c1-00005-M8996AAAAANAZT-1_20170110_230814/b/HK11/trustzone_images/core/securemsm/sse/qsee/SecureUILib/lib/build/sampleapp/A53_64/IADAANAA/secure_ui_lib.lib(02_processTouch.o)
 .debug_abbrev  0x000000000000209b      0x130 /local/mnt/workspace/CRMBuilds/TZ.BF.4.0.3.c1-00005-M8996AAAAANAZT-1_20170110_230814/b/HK11/trustzone_images/core/securemsm/sse/qsee/SecureUILib/lib/build/sampleapp/A53_64/IADAANAA/secure_ui_lib.lib(03_stopTouch.o)
 .debug_abbrev  0x00000000000021cb      0x2f4 /local/mnt/workspace/CRMBuilds/TZ.BF.4.0.3.c1-00005-M8996AAAAANAZT-1_20170110_230814/b/HK11/trustzone_images/core/securemsm/trustzone/qsapps/libs/applib/common_applib/build/sampleapp/A53_64/IADAANAA/tzapp_entrylib.lib(common_applib.o)
 .debug_abbrev  0x00000000000024bf      0x232 /local/mnt/workspace/CRMBuilds/TZ.BF.4.0.3.c1-00005-M8996AAAAANAZT-1_20170110_230814/b/HK11/trustzone_images/core/securemsm/trustzone/qsapps/libs/applib/proxy/build/sampleapp/A53_64/IADAANAA/tzlib_proxy.lib(prxy_services.o)
 .debug_abbrev  0x00000000000026f1      0x1b6 /local/mnt/workspace/CRMBuilds/TZ.BF.4.0.3.c1-00005-M8996AAAAANAZT-1_20170110_230814/b/HK11/trustzone_images/core/securemsm/trustzone/qsapps/libs/applib/proxy/build/sampleapp/A53_64/IADAANAA/tzlib_proxy.lib(prxy_qsee_shim.o)
 .debug_abbrev  0x00000000000028a7      0x1af /local/mnt/workspace/CRMBuilds/TZ.BF.4.0.3.c1-00005-M8996AAAAANAZT-1_20170110_230814/b/HK11/trustzone_images/core/securemsm/trustzone/qsapps/libs/applib/proxy/build/sampleapp/A53_64/IADAANAA/tzlib_proxy.lib(prxy_ufaes.o)
 .debug_abbrev  0x0000000000002a56      0x1af /local/mnt/workspace/CRMBuilds/TZ.BF.4.0.3.c1-00005-M8996AAAAANAZT-1_20170110_230814/b/HK11/trustzone_images/core/securemsm/trustzone/qsapps/libs/applib/proxy/build/sampleapp/A53_64/IADAANAA/tzlib_proxy.lib(prxy_ufdes.o)
 .debug_abbrev  0x0000000000002c05      0x1af /local/mnt/workspace/CRMBuilds/TZ.BF.4.0.3.c1-00005-M8996AAAAANAZT-1_20170110_230814/b/HK11/trustzone_images/core/securemsm/trustzone/qsapps/libs/applib/proxy/build/sampleapp/A53_64/IADAANAA/tzlib_proxy.lib(prxy_ufsha.o)
 .debug_abbrev  0x0000000000002db4      0x1a2 /local/mnt/workspace/CRMBuilds/TZ.BF.4.0.3.c1-00005-M8996AAAAANAZT-1_20170110_230814/b/HK11/trustzone_images/core/securemsm/trustzone/qsapps/libs/applib/proxy/build/sampleapp/A53_64/IADAANAA/tzlib_proxy.lib(prxy_secmath.o)
 .debug_abbrev  0x0000000000002f56      0x1b9 /local/mnt/workspace/CRMBuilds/TZ.BF.4.0.3.c1-00005-M8996AAAAANAZT-1_20170110_230814/b/HK11/trustzone_images/core/securemsm/trustzone/qsapps/libs/applib/proxy/build/sampleapp/A53_64/IADAANAA/tzlib_proxy.lib(prxy_secrsa.o)
 .debug_abbrev  0x000000000000310f      0x1b9 /local/mnt/workspace/CRMBuilds/TZ.BF.4.0.3.c1-00005-M8996AAAAANAZT-1_20170110_230814/b/HK11/trustzone_images/core/securemsm/trustzone/qsapps/libs/applib/proxy/build/sampleapp/A53_64/IADAANAA/tzlib_proxy.lib(prxy_ecc.o)
 .debug_abbrev  0x00000000000032c8      0x16b /local/mnt/workspace/CRMBuilds/TZ.BF.4.0.3.c1-00005-M8996AAAAANAZT-1_20170110_230814/b/HK11/trustzone_images/core/securemsm/trustzone/qsapps/libs/applib/qsee64/build/sampleapp/A53_64/IADAANAA/tzapp_entrylib.lib(mink_shared_code.o)
 .debug_abbrev  0x0000000000003433      0x18c /local/mnt/workspace/CRMBuilds/TZ.BF.4.0.3.c1-00005-M8996AAAAANAZT-1_20170110_230814/b/HK11/trustzone_images/core/securemsm/trustzone/qsapps/libs/applib/qsee64/build/sampleapp/A53_64/IADAANAA/tzapp_entrylib.lib(qsee_env.o)
 .debug_abbrev  0x00000000000035bf       0xea /local/mnt/workspace/CRMBuilds/TZ.BF.4.0.3.c1-00005-M8996AAAAANAZT-1_20170110_230814/b/HK11/trustzone_images/core/securemsm/trustzone/qsapps/libs/applib/qsee64/build/sampleapp/A53_64/IADAANAA/tzapp_entrylib.lib(qsee_core_shim.o)
 .debug_abbrev  0x00000000000036a9      0x145 /local/mnt/workspace/CRMBuilds/TZ.BF.4.0.3.c1-00005-M8996AAAAANAZT-1_20170110_230814/b/HK11/trustzone_images/core/securemsm/trustzone/qsapps/libs/applib/qsee64/build/sampleapp/A53_64/IADAANAA/tzapp_entrylib.lib(qsee_deviceid.o)
 .debug_abbrev  0x00000000000037ee      0x124 /local/mnt/workspace/CRMBuilds/TZ.BF.4.0.3.c1-00005-M8996AAAAANAZT-1_20170110_230814/b/HK11/trustzone_images/core/securemsm/trustzone/qsapps/libs/applib/qsee64/build/sampleapp/A53_64/IADAANAA/tzapp_entrylib.lib(qsee_prng.o)
 .debug_abbrev  0x0000000000003912      0x126 /local/mnt/workspace/CRMBuilds/TZ.BF.4.0.3.c1-00005-M8996AAAAANAZT-1_20170110_230814/b/HK11/trustzone_images/core/securemsm/trustzone/qsapps/libs/applib/qsee64/build/sampleapp/A53_64/IADAANAA/tzapp_entrylib.lib(qsee_secdisp.o)
 .debug_abbrev  0x0000000000003a38      0x14e /local/mnt/workspace/CRMBuilds/TZ.BF.4.0.3.c1-00005-M8996AAAAANAZT-1_20170110_230814/b/HK11/trustzone_images/core/securemsm/trustzone/qsapps/libs/applib/qsee64/build/sampleapp/A53_64/IADAANAA/tzapp_entrylib.lib(qsee_nsmem.o)
 .debug_abbrev  0x0000000000003b86      0x14a /local/mnt/workspace/CRMBuilds/TZ.BF.4.0.3.c1-00005-M8996AAAAANAZT-1_20170110_230814/b/HK11/trustzone_images/core/securemsm/trustzone/qsapps/libs/applib/qsee64/build/sampleapp/A53_64/IADAANAA/tzapp_entrylib.lib(qsee_cmac.o)
 .debug_abbrev  0x0000000000003cd0       0x6b /local/mnt/workspace/CRMBuilds/TZ.BF.4.0.3.c1-00005-M8996AAAAANAZT-1_20170110_230814/b/HK11/trustzone_images/core/securemsm/trustzone/qsapps/libs/applib/qsee64/build/sampleapp/A53_64/IADAANAA/tzapp_entrylib.lib(qsee_crypto_shim.o)
 .debug_abbrev  0x0000000000003d3b       0x52 /local/mnt/workspace/CRMBuilds/TZ.BF.4.0.3.c1-00005-M8996AAAAANAZT-1_20170110_230814/b/HK11/trustzone_images/core/securemsm/trustzone/qsapps/libs/applib/qsee64/build/sampleapp/A53_64/IADAANAA/tzapp_entrylib.lib(qsee_timer_shim.o)
 .debug_abbrev  0x0000000000003d8d      0x10a /local/mnt/workspace/CRMBuilds/TZ.BF.4.0.3.c1-00005-M8996AAAAANAZT-1_20170110_230814/b/HK11/trustzone_images/core/securemsm/trustzone/qsapps/libs/applib/qsee64/build/sampleapp/A53_64/IADAANAA/tzapp_entrylib.lib(qsee_comstr.o)
 .debug_abbrev  0x0000000000003e97      0x169 /local/mnt/workspace/CRMBuilds/TZ.BF.4.0.3.c1-00005-M8996AAAAANAZT-1_20170110_230814/b/HK11/trustzone_images/core/securemsm/trustzone/qsapps/libs/applib/qsee64/build/sampleapp/A53_64/IADAANAA/tzapp_entrylib.lib(stor.o)
 .debug_abbrev  0x0000000000004000      0x1aa /local/mnt/workspace/CRMBuilds/TZ.BF.4.0.3.c1-00005-M8996AAAAANAZT-1_20170110_230814/b/HK11/trustzone_images/core/securemsm/trustzone/qsapps/libs/applib/qsee64/build/sampleapp/A53_64/IADAANAA/tzapp_entrylib.lib(stor_gpt.o)
 .debug_abbrev  0x00000000000041aa       0xef /local/mnt/workspace/CRMBuilds/TZ.BF.4.0.3.c1-00005-M8996AAAAANAZT-1_20170110_230814/b/HK11/trustzone_images/core/securemsm/trustzone/qsapps/libs/applib/qsee64/build/sampleapp/A53_64/IADAANAA/tzapp_entrylib.lib(stor_rpmbw.o)
 .debug_abbrev  0x0000000000004299       0x67 /local/mnt/workspace/CRMBuilds/TZ.BF.4.0.3.c1-00005-M8996AAAAANAZT-1_20170110_230814/b/HK11/trustzone_images/core/securemsm/trustzone/qsapps/libs/applib/qsee64/build/sampleapp/A53_64/IADAANAA/tzapp_entrylib.lib(qsee_counter_shim.o)
 .debug_abbrev  0x0000000000004300      0x1db /local/mnt/workspace/CRMBuilds/TZ.BF.4.0.3.c1-00005-M8996AAAAANAZT-1_20170110_230814/b/HK11/trustzone_images/core/securemsm/trustzone/qsapps/libs/applib/qsee64/build/sampleapp/A53_64/IADAANAA/tzapp_entrylib.lib(qsee_cipher.o)
 .debug_abbrev  0x00000000000044db      0x197 /local/mnt/workspace/CRMBuilds/TZ.BF.4.0.3.c1-00005-M8996AAAAANAZT-1_20170110_230814/b/HK11/trustzone_images/core/securemsm/trustzone/qsapps/libs/applib/qsee64/build/sampleapp/A53_64/IADAANAA/tzapp_entrylib.lib(qsee_hash.o)
 .debug_abbrev  0x0000000000004672      0x19c /local/mnt/workspace/CRMBuilds/TZ.BF.4.0.3.c1-00005-M8996AAAAANAZT-1_20170110_230814/b/HK11/trustzone_images/core/securemsm/trustzone/qsapps/libs/applib/qsee64/build/sampleapp/A53_64/IADAANAA/tzapp_entrylib.lib(qsee_hmac.o)
 .debug_abbrev  0x000000000000480e      0x1bf /local/mnt/workspace/CRMBuilds/TZ.BF.4.0.3.c1-00005-M8996AAAAANAZT-1_20170110_230814/b/HK11/trustzone_images/core/securemsm/trustzone/qsapps/libs/applib/qsee64/build/sampleapp/A53_64/IADAANAA/tzapp_entrylib.lib(qsee_i2c.o)
 .debug_abbrev  0x00000000000049cd      0x1fb /local/mnt/workspace/CRMBuilds/TZ.BF.4.0.3.c1-00005-M8996AAAAANAZT-1_20170110_230814/b/HK11/trustzone_images/core/securemsm/trustzone/qsapps/libs/applib/qsee64/build/sampleapp/A53_64/IADAANAA/tzapp_entrylib.lib(qsee_spi.o)
 .debug_abbrev  0x0000000000004bc8      0x1af /local/mnt/workspace/CRMBuilds/TZ.BF.4.0.3.c1-00005-M8996AAAAANAZT-1_20170110_230814/b/HK11/trustzone_images/core/securemsm/trustzone/qsapps/libs/applib/qsee64/build/sampleapp/A53_64/IADAANAA/tzapp_entrylib.lib(qsee_tlmm.o)
 .debug_abbrev  0x0000000000004d77       0xaf /local/mnt/workspace/CRMBuilds/TZ.BF.4.0.3.c1-00005-M8996AAAAANAZT-1_20170110_230814/b/HK11/trustzone_images/core/securemsm/trustzone/qsapps/libs/applib/qsee64/build/sampleapp/A53_64/IADAANAA/tzapp_entrylib.lib(qsee_bulletin_board_shim.o)
 .debug_abbrev  0x0000000000004e26      0x121 /local/mnt/workspace/CRMBuilds/TZ.BF.4.0.3.c1-00005-M8996AAAAANAZT-1_20170110_230814/b/HK11/trustzone_images/core/securemsm/trustzone/qsapps/libs/applib/qsee64/build/sampleapp/A53_64/IADAANAA/tzapp_entrylib.lib(qsee_dcache.o)
 .debug_abbrev  0x0000000000004f47      0x14e /local/mnt/workspace/CRMBuilds/TZ.BF.4.0.3.c1-00005-M8996AAAAANAZT-1_20170110_230814/b/HK11/trustzone_images/core/securemsm/trustzone/qsapps/libs/applib/qsee64/build/sampleapp/A53_64/IADAANAA/tzapp_entrylib.lib(qsee_shared_buffer.o)
 .debug_abbrev  0x0000000000005095      0x135 /local/mnt/workspace/CRMBuilds/TZ.BF.4.0.3.c1-00005-M8996AAAAANAZT-1_20170110_230814/b/HK11/trustzone_images/core/securemsm/trustzone/qsapps/libs/applib/qsee64/build/sampleapp/A53_64/IADAANAA/tzapp_entrylib.lib(qsee_sync.o)
 .debug_abbrev  0x00000000000051ca      0x15e /local/mnt/workspace/CRMBuilds/TZ.BF.4.0.3.c1-00005-M8996AAAAANAZT-1_20170110_230814/b/HK11/trustzone_images/core/securemsm/trustzone/qsapps/libs/applib/qsee64/build/sampleapp/A53_64/IADAANAA/tzapp_entrylib.lib(qsee_oem_buffer.o)
 .debug_abbrev  0x0000000000005328      0x143 /local/mnt/workspace/CRMBuilds/TZ.BF.4.0.3.c1-00005-M8996AAAAANAZT-1_20170110_230814/b/HK11/trustzone_images/core/securemsm/trustzone/qsapps/libs/applib/qsee64/build/sampleapp/A53_64/IADAANAA/tzapp_entrylib.lib(qsee_intmask.o)
 .debug_abbrev  0x000000000000546b      0x155 /local/mnt/workspace/CRMBuilds/TZ.BF.4.0.3.c1-00005-M8996AAAAANAZT-1_20170110_230814/b/HK11/trustzone_images/core/securemsm/trustzone/qsapps/libs/applib/qsee64/build/sampleapp/A53_64/IADAANAA/tzapp_entrylib.lib(qsee_trans_ns_addr.o)
 .debug_abbrev  0x00000000000055c0      0x17c /local/mnt/workspace/CRMBuilds/TZ.BF.4.0.3.c1-00005-M8996AAAAANAZT-1_20170110_230814/b/HK11/trustzone_images/core/securemsm/trustzone/qsapps/libs/applib/qsee64/build/sampleapp/A53_64/IADAANAA/tzapp_entrylib.lib(qsee_appmessage.o)
 .debug_abbrev  0x000000000000573c      0x19f /local/mnt/workspace/CRMBuilds/TZ.BF.4.0.3.c1-00005-M8996AAAAANAZT-1_20170110_230814/b/HK11/trustzone_images/core/securemsm/trustzone/qsapps/libs/applib/qsee64/build/sampleapp/A53_64/IADAANAA/tzapp_entrylib.lib(sfs_api.o)
 .debug_abbrev  0x00000000000058db      0x11a /local/mnt/workspace/CRMBuilds/TZ.BF.4.0.3.c1-00005-M8996AAAAANAZT-1_20170110_230814/b/HK11/trustzone_images/core/securemsm/trustzone/qsapps/libs/applib/qsee64/build/sampleapp/A53_64/IADAANAA/tzapp_entrylib.lib(tzapp_lib_main.o)
 .debug_abbrev  0x00000000000059f5      0x1e4 /local/mnt/workspace/CRMBuilds/TZ.BF.4.0.3.c1-00005-M8996AAAAANAZT-1_20170110_230814/b/HK11/trustzone_images/core/securemsm/trustzone/qsapps/libs/biometric/build/sampleapp/A53_64/IADAANAA/biometric_lib.lib(biometric.o)
 .debug_abbrev  0x0000000000005bd9      0x245 /local/mnt/workspace/CRMBuilds/TZ.BF.4.0.3.c1-00005-M8996AAAAANAZT-1_20170110_230814/b/HK11/trustzone_images/core/securemsm/trustzone/qsapps/libs/biometric/build/sampleapp/A53_64/IADAANAA/biometric_lib.lib(biometric_serializer.o)
 .debug_abbrev  0x0000000000005e1e       0xec /local/mnt/workspace/CRMBuilds/TZ.BF.4.0.3.c1-00005-M8996AAAAANAZT-1_20170110_230814/b/HK11/trustzone_images/core/securemsm/sse/qsee/SecureTouch/drTs/lib/build/sampleapp/A53_64/IADAANAA/touch_lib.lib(01_open.o)
 .debug_abbrev  0x0000000000005f0a       0x8c /local/mnt/workspace/CRMBuilds/TZ.BF.4.0.3.c1-00005-M8996AAAAANAZT-1_20170110_230814/b/HK11/trustzone_images/core/securemsm/sse/qsee/SecureTouch/drTs/lib/build/sampleapp/A53_64/IADAANAA/touch_lib.lib(02_close.o)
 .debug_abbrev  0x0000000000005f96       0xec /local/mnt/workspace/CRMBuilds/TZ.BF.4.0.3.c1-00005-M8996AAAAANAZT-1_20170110_230814/b/HK11/trustzone_images/core/securemsm/sse/qsee/SecureTouch/drTs/lib/build/sampleapp/A53_64/IADAANAA/touch_lib.lib(03_getData.o)
 .debug_abbrev  0x0000000000006082      0x191 /local/mnt/workspace/CRMBuilds/TZ.BF.4.0.3.c1-00005-M8996AAAAANAZT-1_20170110_230814/b/HK11/trustzone_images/core/securemsm/trustzone/qsapps/libs/applib/common_applib/build/sampleapp/A53_64/IADAANAA/tzapp_entrylib.lib(gpPersistObjCommon.o)
 .debug_abbrev  0x0000000000006213      0x143 /local/mnt/workspace/CRMBuilds/TZ.BF.4.0.3.c1-00005-M8996AAAAANAZT-1_20170110_230814/b/HK11/trustzone_images/core/securemsm/trustzone/qsapps/libs/applib/common_applib/build/sampleapp/A53_64/IADAANAA/tzapp_entrylib.lib(gpPersistentObjects.o)
 .debug_abbrev  0x0000000000006356      0x1f4 /local/mnt/workspace/CRMBuilds/TZ.BF.4.0.3.c1-00005-M8996AAAAANAZT-1_20170110_230814/b/HK11/trustzone_images/core/securemsm/trustzone/qsapps/libs/applib/common_applib/build/sampleapp/A53_64/IADAANAA/tzapp_entrylib.lib(gpPersistObjData.o)
 .debug_abbrev  0x000000000000654a      0x18d /local/mnt/workspace/CRMBuilds/TZ.BF.4.0.3.c1-00005-M8996AAAAANAZT-1_20170110_230814/b/HK11/trustzone_images/core/securemsm/trustzone/qsapps/libs/applib/common_applib/build/sampleapp/A53_64/IADAANAA/tzapp_entrylib.lib(gpPersistObjHandler.o)
 .debug_abbrev  0x00000000000066d7      0x214 /local/mnt/workspace/CRMBuilds/TZ.BF.4.0.3.c1-00005-M8996AAAAANAZT-1_20170110_230814/b/HK11/trustzone_images/core/securemsm/trustzone/qsapps/libs/applib/common_applib/build/sampleapp/A53_64/IADAANAA/tzapp_entrylib.lib(gpPersistObjIndex.o)
 .debug_abbrev  0x00000000000068eb      0x21e /local/mnt/workspace/CRMBuilds/TZ.BF.4.0.3.c1-00005-M8996AAAAANAZT-1_20170110_230814/b/HK11/trustzone_images/core/securemsm/trustzone/qsapps/libs/applib/common_applib/build/sampleapp/A53_64/IADAANAA/tzapp_entrylib.lib(gpPersistObjVersion.o)
 .debug_abbrev  0x0000000000006b09      0x1d6 /local/mnt/workspace/CRMBuilds/TZ.BF.4.0.3.c1-00005-M8996AAAAANAZT-1_20170110_230814/b/HK11/trustzone_images/core/securemsm/trustzone/qsapps/libs/applib/common_applib/build/sampleapp/A53_64/IADAANAA/tzapp_entrylib.lib(gpPersistObjCrypto.o)
 .debug_abbrev  0x0000000000006cdf       0xd0 /local/mnt/workspace/CRMBuilds/TZ.BF.4.0.3.c1-00005-M8996AAAAANAZT-1_20170110_230814/b/HK11/trustzone_images/core/securemsm/trustzone/qsapps/libs/applib/common_applib/build/sampleapp/A53_64/IADAANAA/tzapp_entrylib.lib(gpPersistObjFileIO.o)
 .debug_abbrev  0x0000000000006daf      0x11a /local/mnt/workspace/CRMBuilds/TZ.BF.4.0.3.c1-00005-M8996AAAAANAZT-1_20170110_230814/b/HK11/trustzone_images/core/securemsm/trustzone/qsapps/libs/applib/common_applib/build/sampleapp/A53_64/IADAANAA/tzapp_entrylib.lib(gpFileService.o)
 .debug_abbrev  0x0000000000006ec9       0xb2 /local/mnt/workspace/CRMBuilds/TZ.BF.4.0.3.c1-00005-M8996AAAAANAZT-1_20170110_230814/b/HK11/trustzone_images/core/securemsm/trustzone/qsapps/libs/applib/qsee64/build/sampleapp/A53_64/IADAANAA/tzapp_entrylib.lib(qsee_cfg_prop_shim.o)
 .debug_abbrev  0x0000000000006f7b       0x75 /local/mnt/workspace/CRMBuilds/TZ.BF.4.0.3.c1-00005-M8996AAAAANAZT-1_20170110_230814/b/HK11/trustzone_images/core/securemsm/trustzone/qsapps/libs/applib/qsee64/build/sampleapp/A53_64/IADAANAA/tzapp_entrylib.lib(gpPersistObjPanic.o)
 .debug_abbrev  0x0000000000006ff0      0x207 /local/mnt/workspace/CRMBuilds/TZ.BF.4.0.3.c1-00005-M8996AAAAANAZT-1_20170110_230814/b/HK11/trustzone_images/core/securemsm/sse/SecureTouch/controller/build/sampleapp/A53_64/IADAANAA/drts_controller_msm8996.lib(atmel_mxt_ts.o)
 .debug_abbrev  0x00000000000071f7      0x21c /local/mnt/workspace/CRMBuilds/TZ.BF.4.0.3.c1-00005-M8996AAAAANAZT-1_20170110_230814/b/HK11/trustzone_images/core/securemsm/sse/SecureTouch/controller/build/sampleapp/A53_64/IADAANAA/drts_controller_msm8996.lib(synaptics_ts.o)
 .debug_abbrev  0x0000000000007413       0xa7 /local/mnt/workspace/CRMBuilds/TZ.BF.4.0.3.c1-00005-M8996AAAAANAZT-1_20170110_230814/b/HK11/trustzone_images/core/securemsm/sse/log/build/sampleapp/A53_64/IADAANAA/sselog.lib(sselog.o)
 .debug_abbrev  0x00000000000074ba       0xc9 /local/mnt/workspace/CRMBuilds/TZ.BF.4.0.3.c1-00005-M8996AAAAANAZT-1_20170110_230814/b/HK11/trustzone_images/core/securemsm/sse/qsee/SecureTouch/drTs/controller/build/sampleapp/A53_64/IADAANAA/touch_controller_i2c_msm8996.lib(atmel_mxt_ts_i2c.o)
 .debug_abbrev  0x0000000000007583       0xc9 /local/mnt/workspace/CRMBuilds/TZ.BF.4.0.3.c1-00005-M8996AAAAANAZT-1_20170110_230814/b/HK11/trustzone_images/core/securemsm/sse/qsee/SecureTouch/drTs/controller/build/sampleapp/A53_64/IADAANAA/touch_controller_i2c_msm8996.lib(synaptics_ts_i2c.o)

.debug_line     0x0000000000000000    0x19325
 .debug_line    0x0000000000000000      0x5a1 /local/mnt/workspace/CRMBuilds/TZ.BF.4.0.3.c1-00005-M8996AAAAANAZT-1_20170110_230814/b/HK11/trustzone_images/core/securemsm/trustzone/qsapps/smplap64/build/sampleapp/A53_64/IADAANAA/app_main.o
 .debug_line    0x00000000000005a1      0x338 /local/mnt/workspace/CRMBuilds/TZ.BF.4.0.3.c1-00005-M8996AAAAANAZT-1_20170110_230814/b/HK11/trustzone_images/core/securemsm/trustzone/qsapps/smplap64/build/sampleapp/A53_64/IADAANAA/app_smplserv_test.o
 .debug_line    0x00000000000008d9      0x2d3 /local/mnt/workspace/CRMBuilds/TZ.BF.4.0.3.c1-00005-M8996AAAAANAZT-1_20170110_230814/b/HK11/trustzone_images/core/securemsm/trustzone/qsapps/smplap64/build/sampleapp/A53_64/IADAANAA/app_smplcert_test.o
 .debug_line    0x0000000000000bac     0x1a9b /local/mnt/workspace/CRMBuilds/TZ.BF.4.0.3.c1-00005-M8996AAAAANAZT-1_20170110_230814/b/HK11/trustzone_images/core/securemsm/trustzone/qsapps/smplap64/build/sampleapp/A53_64/IADAANAA/app_crypto.o
 .debug_line    0x0000000000002647      0xc48 /local/mnt/workspace/CRMBuilds/TZ.BF.4.0.3.c1-00005-M8996AAAAANAZT-1_20170110_230814/b/HK11/trustzone_images/core/securemsm/trustzone/qsapps/smplap64/build/sampleapp/A53_64/IADAANAA/app_sfs.o
 .debug_line    0x000000000000328f      0x55a /local/mnt/workspace/CRMBuilds/TZ.BF.4.0.3.c1-00005-M8996AAAAANAZT-1_20170110_230814/b/HK11/trustzone_images/core/securemsm/trustzone/qsapps/smplap64/build/sampleapp/A53_64/IADAANAA/app_rsa.o
 .debug_line    0x00000000000037e9      0x61f /local/mnt/workspace/CRMBuilds/TZ.BF.4.0.3.c1-00005-M8996AAAAANAZT-1_20170110_230814/b/HK11/trustzone_images/core/securemsm/trustzone/qsapps/smplap64/build/sampleapp/A53_64/IADAANAA/qsee_api_tests.o
 .debug_line    0x0000000000003e08      0x303 /local/mnt/workspace/CRMBuilds/TZ.BF.4.0.3.c1-00005-M8996AAAAANAZT-1_20170110_230814/b/HK11/trustzone_images/core/securemsm/trustzone/qsapps/smplap64/build/sampleapp/A53_64/IADAANAA/app_cmnlib.o
 .debug_line    0x000000000000410b      0x168 /local/mnt/workspace/CRMBuilds/TZ.BF.4.0.3.c1-00005-M8996AAAAANAZT-1_20170110_230814/b/HK11/trustzone_images/core/securemsm/trustzone/qsapps/smplap64/build/sampleapp/A53_64/IADAANAA/app_message_passing.o
 .debug_line    0x0000000000004273      0x19d /local/mnt/workspace/CRMBuilds/TZ.BF.4.0.3.c1-00005-M8996AAAAANAZT-1_20170110_230814/b/HK11/trustzone_images/core/securemsm/trustzone/qsapps/smplap64/build/sampleapp/A53_64/IADAANAA/app_fuses.o
 .debug_line    0x0000000000004410      0x661 /local/mnt/workspace/CRMBuilds/TZ.BF.4.0.3.c1-00005-M8996AAAAANAZT-1_20170110_230814/b/HK11/trustzone_images/core/securemsm/trustzone/qsapps/smplap64/build/sampleapp/A53_64/IADAANAA/app_stor.o
 .debug_line    0x0000000000004a71      0x3ae /local/mnt/workspace/CRMBuilds/TZ.BF.4.0.3.c1-00005-M8996AAAAANAZT-1_20170110_230814/b/HK11/trustzone_images/core/securemsm/trustzone/qsapps/smplap64/build/sampleapp/A53_64/IADAANAA/app_content_protection.o
 .debug_line    0x0000000000004e1f      0x5a6 /local/mnt/workspace/CRMBuilds/TZ.BF.4.0.3.c1-00005-M8996AAAAANAZT-1_20170110_230814/b/HK11/trustzone_images/core/securemsm/trustzone/qsapps/smplap64/build/sampleapp/A53_64/IADAANAA/app_secure_ui.o
 .debug_line    0x00000000000053c5      0x7a8 /local/mnt/workspace/CRMBuilds/TZ.BF.4.0.3.c1-00005-M8996AAAAANAZT-1_20170110_230814/b/HK11/trustzone_images/core/securemsm/trustzone/qsapps/smplap64/build/sampleapp/A53_64/IADAANAA/app_bio_lib.o
 .debug_line    0x0000000000005b6d      0x5cf /local/mnt/workspace/CRMBuilds/TZ.BF.4.0.3.c1-00005-M8996AAAAANAZT-1_20170110_230814/b/HK11/trustzone_images/core/securemsm/trustzone/qsapps/smplap64/build/sampleapp/A53_64/IADAANAA/app_bulletin_board.o
 .debug_line    0x000000000000613c       0xe1 /local/mnt/workspace/CRMBuilds/TZ.BF.4.0.3.c1-00005-M8996AAAAANAZT-1_20170110_230814/b/HK11/trustzone_images/core/securemsm/trustzone/qsapps/smplap64/build/sampleapp/A53_64/IADAANAA/metadata.o
 .debug_line    0x000000000000621d      0x113 /local/mnt/workspace/CRMBuilds/TZ.BF.4.0.3.c1-00005-M8996AAAAANAZT-1_20170110_230814/b/HK11/trustzone_images/core/kernel/libstd/build/sampleapp/A53_64/IADAANAA/libstd.lib(memscpy.o)
 .debug_line    0x0000000000006330      0x124 /local/mnt/workspace/CRMBuilds/TZ.BF.4.0.3.c1-00005-M8996AAAAANAZT-1_20170110_230814/b/HK11/trustzone_images/core/kernel/libstd/build/sampleapp/A53_64/IADAANAA/libstd.lib(strlcpy.o)
 .debug_line    0x0000000000006454      0x11b /local/mnt/workspace/CRMBuilds/TZ.BF.4.0.3.c1-00005-M8996AAAAANAZT-1_20170110_230814/b/HK11/trustzone_images/core/kernel/libstd/build/sampleapp/A53_64/IADAANAA/libstd.lib(secure_memset.o)
 .debug_line    0x000000000000656f      0x121 /local/mnt/workspace/CRMBuilds/TZ.BF.4.0.3.c1-00005-M8996AAAAANAZT-1_20170110_230814/b/HK11/trustzone_images/core/kernel/libstd/build/sampleapp/A53_64/IADAANAA/libstd.lib(timesafe_memcmp.o)
 .debug_line    0x0000000000006690      0x137 /local/mnt/workspace/CRMBuilds/TZ.BF.4.0.3.c1-00005-M8996AAAAANAZT-1_20170110_230814/b/HK11/trustzone_images/core/kernel/libstd/build/sampleapp/A53_64/IADAANAA/libstd.lib(timesafe_strncmp.o)
 .debug_line    0x00000000000067c7      0xb2e /local/mnt/workspace/CRMBuilds/TZ.BF.4.0.3.c1-00005-M8996AAAAANAZT-1_20170110_230814/b/HK11/trustzone_images/core/securemsm/sse/qsee/SecureUI/build/sampleapp/A53_64/IADAANAA/secure_ui.lib(SecureUI.o)
 .debug_line    0x00000000000072f5      0x4cf /local/mnt/workspace/CRMBuilds/TZ.BF.4.0.3.c1-00005-M8996AAAAANAZT-1_20170110_230814/b/HK11/trustzone_images/core/securemsm/sse/qsee/SecureUILib/lib/build/sampleapp/A53_64/IADAANAA/secure_ui_lib.lib(SecureUILib.o)
 .debug_line    0x00000000000077c4      0x3e1 /local/mnt/workspace/CRMBuilds/TZ.BF.4.0.3.c1-00005-M8996AAAAANAZT-1_20170110_230814/b/HK11/trustzone_images/core/securemsm/sse/qsee/SecureUILib/lib/build/sampleapp/A53_64/IADAANAA/secure_ui_lib.lib(01_startTouch.o)
 .debug_line    0x0000000000007ba5      0x4b2 /local/mnt/workspace/CRMBuilds/TZ.BF.4.0.3.c1-00005-M8996AAAAANAZT-1_20170110_230814/b/HK11/trustzone_images/core/securemsm/sse/qsee/SecureUILib/lib/build/sampleapp/A53_64/IADAANAA/secure_ui_lib.lib(02_processTouch.o)
 .debug_line    0x0000000000008057      0x3f1 /local/mnt/workspace/CRMBuilds/TZ.BF.4.0.3.c1-00005-M8996AAAAANAZT-1_20170110_230814/b/HK11/trustzone_images/core/securemsm/sse/qsee/SecureUILib/lib/build/sampleapp/A53_64/IADAANAA/secure_ui_lib.lib(03_stopTouch.o)
 .debug_line    0x0000000000008448      0x7d4 /local/mnt/workspace/CRMBuilds/TZ.BF.4.0.3.c1-00005-M8996AAAAANAZT-1_20170110_230814/b/HK11/trustzone_images/core/securemsm/trustzone/qsapps/libs/applib/common_applib/build/sampleapp/A53_64/IADAANAA/tzapp_entrylib.lib(common_applib.o)
 .debug_line    0x0000000000008c1c      0xc27 /local/mnt/workspace/CRMBuilds/TZ.BF.4.0.3.c1-00005-M8996AAAAANAZT-1_20170110_230814/b/HK11/trustzone_images/core/securemsm/trustzone/qsapps/libs/applib/proxy/build/sampleapp/A53_64/IADAANAA/tzlib_proxy.lib(prxy_services.o)
 .debug_line    0x0000000000009843      0x620 /local/mnt/workspace/CRMBuilds/TZ.BF.4.0.3.c1-00005-M8996AAAAANAZT-1_20170110_230814/b/HK11/trustzone_images/core/securemsm/trustzone/qsapps/libs/applib/proxy/build/sampleapp/A53_64/IADAANAA/tzlib_proxy.lib(prxy_qsee_shim.o)
 .debug_line    0x0000000000009e63      0xa59 /local/mnt/workspace/CRMBuilds/TZ.BF.4.0.3.c1-00005-M8996AAAAANAZT-1_20170110_230814/b/HK11/trustzone_images/core/securemsm/trustzone/qsapps/libs/applib/proxy/build/sampleapp/A53_64/IADAANAA/tzlib_proxy.lib(prxy_ufaes.o)
 .debug_line    0x000000000000a8bc      0x9fa /local/mnt/workspace/CRMBuilds/TZ.BF.4.0.3.c1-00005-M8996AAAAANAZT-1_20170110_230814/b/HK11/trustzone_images/core/securemsm/trustzone/qsapps/libs/applib/proxy/build/sampleapp/A53_64/IADAANAA/tzlib_proxy.lib(prxy_ufdes.o)
 .debug_line    0x000000000000b2b6      0xa0d /local/mnt/workspace/CRMBuilds/TZ.BF.4.0.3.c1-00005-M8996AAAAANAZT-1_20170110_230814/b/HK11/trustzone_images/core/securemsm/trustzone/qsapps/libs/applib/proxy/build/sampleapp/A53_64/IADAANAA/tzlib_proxy.lib(prxy_ufsha.o)
 .debug_line    0x000000000000bcc3      0x9d6 /local/mnt/workspace/CRMBuilds/TZ.BF.4.0.3.c1-00005-M8996AAAAANAZT-1_20170110_230814/b/HK11/trustzone_images/core/securemsm/trustzone/qsapps/libs/applib/proxy/build/sampleapp/A53_64/IADAANAA/tzlib_proxy.lib(prxy_secmath.o)
 .debug_line    0x000000000000c699      0xa89 /local/mnt/workspace/CRMBuilds/TZ.BF.4.0.3.c1-00005-M8996AAAAANAZT-1_20170110_230814/b/HK11/trustzone_images/core/securemsm/trustzone/qsapps/libs/applib/proxy/build/sampleapp/A53_64/IADAANAA/tzlib_proxy.lib(prxy_secrsa.o)
 .debug_line    0x000000000000d122      0xaef /local/mnt/workspace/CRMBuilds/TZ.BF.4.0.3.c1-00005-M8996AAAAANAZT-1_20170110_230814/b/HK11/trustzone_images/core/securemsm/trustzone/qsapps/libs/applib/proxy/build/sampleapp/A53_64/IADAANAA/tzlib_proxy.lib(prxy_ecc.o)
 .debug_line    0x000000000000dc11      0x3a5 /local/mnt/workspace/CRMBuilds/TZ.BF.4.0.3.c1-00005-M8996AAAAANAZT-1_20170110_230814/b/HK11/trustzone_images/core/securemsm/trustzone/qsapps/libs/applib/qsee64/build/sampleapp/A53_64/IADAANAA/tzapp_entrylib.lib(mink_shared_code.o)
 .debug_line    0x000000000000dfb6      0x317 /local/mnt/workspace/CRMBuilds/TZ.BF.4.0.3.c1-00005-M8996AAAAANAZT-1_20170110_230814/b/HK11/trustzone_images/core/securemsm/trustzone/qsapps/libs/applib/qsee64/build/sampleapp/A53_64/IADAANAA/tzapp_entrylib.lib(qsee_env.o)
 .debug_line    0x000000000000e2cd      0x2df /local/mnt/workspace/CRMBuilds/TZ.BF.4.0.3.c1-00005-M8996AAAAANAZT-1_20170110_230814/b/HK11/trustzone_images/core/securemsm/trustzone/qsapps/libs/applib/qsee64/build/sampleapp/A53_64/IADAANAA/tzapp_entrylib.lib(qsee_core_shim.o)
 .debug_line    0x000000000000e5ac      0x2c9 /local/mnt/workspace/CRMBuilds/TZ.BF.4.0.3.c1-00005-M8996AAAAANAZT-1_20170110_230814/b/HK11/trustzone_images/core/securemsm/trustzone/qsapps/libs/applib/qsee64/build/sampleapp/A53_64/IADAANAA/tzapp_entrylib.lib(qsee_deviceid.o)
 .debug_line    0x000000000000e875      0x29b /local/mnt/workspace/CRMBuilds/TZ.BF.4.0.3.c1-00005-M8996AAAAANAZT-1_20170110_230814/b/HK11/trustzone_images/core/securemsm/trustzone/qsapps/libs/applib/qsee64/build/sampleapp/A53_64/IADAANAA/tzapp_entrylib.lib(qsee_prng.o)
 .debug_line    0x000000000000eb10      0x2e0 /local/mnt/workspace/CRMBuilds/TZ.BF.4.0.3.c1-00005-M8996AAAAANAZT-1_20170110_230814/b/HK11/trustzone_images/core/securemsm/trustzone/qsapps/libs/applib/qsee64/build/sampleapp/A53_64/IADAANAA/tzapp_entrylib.lib(qsee_secdisp.o)
 .debug_line    0x000000000000edf0      0x327 /local/mnt/workspace/CRMBuilds/TZ.BF.4.0.3.c1-00005-M8996AAAAANAZT-1_20170110_230814/b/HK11/trustzone_images/core/securemsm/trustzone/qsapps/libs/applib/qsee64/build/sampleapp/A53_64/IADAANAA/tzapp_entrylib.lib(qsee_nsmem.o)
 .debug_line    0x000000000000f117      0x344 /local/mnt/workspace/CRMBuilds/TZ.BF.4.0.3.c1-00005-M8996AAAAANAZT-1_20170110_230814/b/HK11/trustzone_images/core/securemsm/trustzone/qsapps/libs/applib/qsee64/build/sampleapp/A53_64/IADAANAA/tzapp_entrylib.lib(qsee_cmac.o)
 .debug_line    0x000000000000f45b      0x13e /local/mnt/workspace/CRMBuilds/TZ.BF.4.0.3.c1-00005-M8996AAAAANAZT-1_20170110_230814/b/HK11/trustzone_images/core/securemsm/trustzone/qsapps/libs/applib/qsee64/build/sampleapp/A53_64/IADAANAA/tzapp_entrylib.lib(qsee_crypto_shim.o)
 .debug_line    0x000000000000f599       0xed /local/mnt/workspace/CRMBuilds/TZ.BF.4.0.3.c1-00005-M8996AAAAANAZT-1_20170110_230814/b/HK11/trustzone_images/core/securemsm/trustzone/qsapps/libs/applib/qsee64/build/sampleapp/A53_64/IADAANAA/tzapp_entrylib.lib(qsee_timer_shim.o)
 .debug_line    0x000000000000f686      0x2ce /local/mnt/workspace/CRMBuilds/TZ.BF.4.0.3.c1-00005-M8996AAAAANAZT-1_20170110_230814/b/HK11/trustzone_images/core/securemsm/trustzone/qsapps/libs/applib/qsee64/build/sampleapp/A53_64/IADAANAA/tzapp_entrylib.lib(qsee_comstr.o)
 .debug_line    0x000000000000f954      0x30a /local/mnt/workspace/CRMBuilds/TZ.BF.4.0.3.c1-00005-M8996AAAAANAZT-1_20170110_230814/b/HK11/trustzone_images/core/securemsm/trustzone/qsapps/libs/applib/qsee64/build/sampleapp/A53_64/IADAANAA/tzapp_entrylib.lib(stor.o)
 .debug_line    0x000000000000fc5e      0x6cf /local/mnt/workspace/CRMBuilds/TZ.BF.4.0.3.c1-00005-M8996AAAAANAZT-1_20170110_230814/b/HK11/trustzone_images/core/securemsm/trustzone/qsapps/libs/applib/qsee64/build/sampleapp/A53_64/IADAANAA/tzapp_entrylib.lib(stor_gpt.o)
 .debug_line    0x000000000001032d      0x2a1 /local/mnt/workspace/CRMBuilds/TZ.BF.4.0.3.c1-00005-M8996AAAAANAZT-1_20170110_230814/b/HK11/trustzone_images/core/securemsm/trustzone/qsapps/libs/applib/qsee64/build/sampleapp/A53_64/IADAANAA/tzapp_entrylib.lib(stor_rpmbw.o)
 .debug_line    0x00000000000105ce      0x155 /local/mnt/workspace/CRMBuilds/TZ.BF.4.0.3.c1-00005-M8996AAAAANAZT-1_20170110_230814/b/HK11/trustzone_images/core/securemsm/trustzone/qsapps/libs/applib/qsee64/build/sampleapp/A53_64/IADAANAA/tzapp_entrylib.lib(qsee_counter_shim.o)
 .debug_line    0x0000000000010723      0x563 /local/mnt/workspace/CRMBuilds/TZ.BF.4.0.3.c1-00005-M8996AAAAANAZT-1_20170110_230814/b/HK11/trustzone_images/core/securemsm/trustzone/qsapps/libs/applib/qsee64/build/sampleapp/A53_64/IADAANAA/tzapp_entrylib.lib(qsee_cipher.o)
 .debug_line    0x0000000000010c86      0x526 /local/mnt/workspace/CRMBuilds/TZ.BF.4.0.3.c1-00005-M8996AAAAANAZT-1_20170110_230814/b/HK11/trustzone_images/core/securemsm/trustzone/qsapps/libs/applib/qsee64/build/sampleapp/A53_64/IADAANAA/tzapp_entrylib.lib(qsee_hash.o)
 .debug_line    0x00000000000111ac      0x43a /local/mnt/workspace/CRMBuilds/TZ.BF.4.0.3.c1-00005-M8996AAAAANAZT-1_20170110_230814/b/HK11/trustzone_images/core/securemsm/trustzone/qsapps/libs/applib/qsee64/build/sampleapp/A53_64/IADAANAA/tzapp_entrylib.lib(qsee_hmac.o)
 .debug_line    0x00000000000115e6      0x473 /local/mnt/workspace/CRMBuilds/TZ.BF.4.0.3.c1-00005-M8996AAAAANAZT-1_20170110_230814/b/HK11/trustzone_images/core/securemsm/trustzone/qsapps/libs/applib/qsee64/build/sampleapp/A53_64/IADAANAA/tzapp_entrylib.lib(qsee_i2c.o)
 .debug_line    0x0000000000011a59      0x510 /local/mnt/workspace/CRMBuilds/TZ.BF.4.0.3.c1-00005-M8996AAAAANAZT-1_20170110_230814/b/HK11/trustzone_images/core/securemsm/trustzone/qsapps/libs/applib/qsee64/build/sampleapp/A53_64/IADAANAA/tzapp_entrylib.lib(qsee_spi.o)
 .debug_line    0x0000000000011f69      0x4b4 /local/mnt/workspace/CRMBuilds/TZ.BF.4.0.3.c1-00005-M8996AAAAANAZT-1_20170110_230814/b/HK11/trustzone_images/core/securemsm/trustzone/qsapps/libs/applib/qsee64/build/sampleapp/A53_64/IADAANAA/tzapp_entrylib.lib(qsee_tlmm.o)
 .debug_line    0x000000000001241d      0x207 /local/mnt/workspace/CRMBuilds/TZ.BF.4.0.3.c1-00005-M8996AAAAANAZT-1_20170110_230814/b/HK11/trustzone_images/core/securemsm/trustzone/qsapps/libs/applib/qsee64/build/sampleapp/A53_64/IADAANAA/tzapp_entrylib.lib(qsee_bulletin_board_shim.o)
 .debug_line    0x0000000000012624      0x2f9 /local/mnt/workspace/CRMBuilds/TZ.BF.4.0.3.c1-00005-M8996AAAAANAZT-1_20170110_230814/b/HK11/trustzone_images/core/securemsm/trustzone/qsapps/libs/applib/qsee64/build/sampleapp/A53_64/IADAANAA/tzapp_entrylib.lib(qsee_dcache.o)
 .debug_line    0x000000000001291d      0x2da /local/mnt/workspace/CRMBuilds/TZ.BF.4.0.3.c1-00005-M8996AAAAANAZT-1_20170110_230814/b/HK11/trustzone_images/core/securemsm/trustzone/qsapps/libs/applib/qsee64/build/sampleapp/A53_64/IADAANAA/tzapp_entrylib.lib(qsee_shared_buffer.o)
 .debug_line    0x0000000000012bf7      0x2a0 /local/mnt/workspace/CRMBuilds/TZ.BF.4.0.3.c1-00005-M8996AAAAANAZT-1_20170110_230814/b/HK11/trustzone_images/core/securemsm/trustzone/qsapps/libs/applib/qsee64/build/sampleapp/A53_64/IADAANAA/tzapp_entrylib.lib(qsee_sync.o)
 .debug_line    0x0000000000012e97      0x30e /local/mnt/workspace/CRMBuilds/TZ.BF.4.0.3.c1-00005-M8996AAAAANAZT-1_20170110_230814/b/HK11/trustzone_images/core/securemsm/trustzone/qsapps/libs/applib/qsee64/build/sampleapp/A53_64/IADAANAA/tzapp_entrylib.lib(qsee_oem_buffer.o)
 .debug_line    0x00000000000131a5      0x3a4 /local/mnt/workspace/CRMBuilds/TZ.BF.4.0.3.c1-00005-M8996AAAAANAZT-1_20170110_230814/b/HK11/trustzone_images/core/securemsm/trustzone/qsapps/libs/applib/qsee64/build/sampleapp/A53_64/IADAANAA/tzapp_entrylib.lib(qsee_intmask.o)
 .debug_line    0x0000000000013549      0x36c /local/mnt/workspace/CRMBuilds/TZ.BF.4.0.3.c1-00005-M8996AAAAANAZT-1_20170110_230814/b/HK11/trustzone_images/core/securemsm/trustzone/qsapps/libs/applib/qsee64/build/sampleapp/A53_64/IADAANAA/tzapp_entrylib.lib(qsee_trans_ns_addr.o)
 .debug_line    0x00000000000138b5      0x300 /local/mnt/workspace/CRMBuilds/TZ.BF.4.0.3.c1-00005-M8996AAAAANAZT-1_20170110_230814/b/HK11/trustzone_images/core/securemsm/trustzone/qsapps/libs/applib/qsee64/build/sampleapp/A53_64/IADAANAA/tzapp_entrylib.lib(qsee_appmessage.o)
 .debug_line    0x0000000000013bb5      0x521 /local/mnt/workspace/CRMBuilds/TZ.BF.4.0.3.c1-00005-M8996AAAAANAZT-1_20170110_230814/b/HK11/trustzone_images/core/securemsm/trustzone/qsapps/libs/applib/qsee64/build/sampleapp/A53_64/IADAANAA/tzapp_entrylib.lib(sfs_api.o)
 .debug_line    0x00000000000140d6      0x226 /local/mnt/workspace/CRMBuilds/TZ.BF.4.0.3.c1-00005-M8996AAAAANAZT-1_20170110_230814/b/HK11/trustzone_images/core/securemsm/trustzone/qsapps/libs/applib/qsee64/build/sampleapp/A53_64/IADAANAA/tzapp_entrylib.lib(tzapp_lib_main.o)
 .debug_line    0x00000000000142fc      0x405 /local/mnt/workspace/CRMBuilds/TZ.BF.4.0.3.c1-00005-M8996AAAAANAZT-1_20170110_230814/b/HK11/trustzone_images/core/securemsm/trustzone/qsapps/libs/biometric/build/sampleapp/A53_64/IADAANAA/biometric_lib.lib(biometric.o)
 .debug_line    0x0000000000014701      0x3a3 /local/mnt/workspace/CRMBuilds/TZ.BF.4.0.3.c1-00005-M8996AAAAANAZT-1_20170110_230814/b/HK11/trustzone_images/core/securemsm/trustzone/qsapps/libs/biometric/build/sampleapp/A53_64/IADAANAA/biometric_lib.lib(biometric_serializer.o)
 .debug_line    0x0000000000014aa4      0x20d /local/mnt/workspace/CRMBuilds/TZ.BF.4.0.3.c1-00005-M8996AAAAANAZT-1_20170110_230814/b/HK11/trustzone_images/core/securemsm/sse/qsee/SecureTouch/drTs/lib/build/sampleapp/A53_64/IADAANAA/touch_lib.lib(01_open.o)
 .debug_line    0x0000000000014cb1      0x149 /local/mnt/workspace/CRMBuilds/TZ.BF.4.0.3.c1-00005-M8996AAAAANAZT-1_20170110_230814/b/HK11/trustzone_images/core/securemsm/sse/qsee/SecureTouch/drTs/lib/build/sampleapp/A53_64/IADAANAA/touch_lib.lib(02_close.o)
 .debug_line    0x0000000000014dfa      0x219 /local/mnt/workspace/CRMBuilds/TZ.BF.4.0.3.c1-00005-M8996AAAAANAZT-1_20170110_230814/b/HK11/trustzone_images/core/securemsm/sse/qsee/SecureTouch/drTs/lib/build/sampleapp/A53_64/IADAANAA/touch_lib.lib(03_getData.o)
 .debug_line    0x0000000000015013      0x47e /local/mnt/workspace/CRMBuilds/TZ.BF.4.0.3.c1-00005-M8996AAAAANAZT-1_20170110_230814/b/HK11/trustzone_images/core/securemsm/trustzone/qsapps/libs/applib/common_applib/build/sampleapp/A53_64/IADAANAA/tzapp_entrylib.lib(gpPersistObjCommon.o)
 .debug_line    0x0000000000015491      0x524 /local/mnt/workspace/CRMBuilds/TZ.BF.4.0.3.c1-00005-M8996AAAAANAZT-1_20170110_230814/b/HK11/trustzone_images/core/securemsm/trustzone/qsapps/libs/applib/common_applib/build/sampleapp/A53_64/IADAANAA/tzapp_entrylib.lib(gpPersistentObjects.o)
 .debug_line    0x00000000000159b5      0xa39 /local/mnt/workspace/CRMBuilds/TZ.BF.4.0.3.c1-00005-M8996AAAAANAZT-1_20170110_230814/b/HK11/trustzone_images/core/securemsm/trustzone/qsapps/libs/applib/common_applib/build/sampleapp/A53_64/IADAANAA/tzapp_entrylib.lib(gpPersistObjData.o)
 .debug_line    0x00000000000163ee      0x45b /local/mnt/workspace/CRMBuilds/TZ.BF.4.0.3.c1-00005-M8996AAAAANAZT-1_20170110_230814/b/HK11/trustzone_images/core/securemsm/trustzone/qsapps/libs/applib/common_applib/build/sampleapp/A53_64/IADAANAA/tzapp_entrylib.lib(gpPersistObjHandler.o)
 .debug_line    0x0000000000016849      0x70a /local/mnt/workspace/CRMBuilds/TZ.BF.4.0.3.c1-00005-M8996AAAAANAZT-1_20170110_230814/b/HK11/trustzone_images/core/securemsm/trustzone/qsapps/libs/applib/common_applib/build/sampleapp/A53_64/IADAANAA/tzapp_entrylib.lib(gpPersistObjIndex.o)
 .debug_line    0x0000000000016f53      0x61b /local/mnt/workspace/CRMBuilds/TZ.BF.4.0.3.c1-00005-M8996AAAAANAZT-1_20170110_230814/b/HK11/trustzone_images/core/securemsm/trustzone/qsapps/libs/applib/common_applib/build/sampleapp/A53_64/IADAANAA/tzapp_entrylib.lib(gpPersistObjVersion.o)
 .debug_line    0x000000000001756e      0x4f3 /local/mnt/workspace/CRMBuilds/TZ.BF.4.0.3.c1-00005-M8996AAAAANAZT-1_20170110_230814/b/HK11/trustzone_images/core/securemsm/trustzone/qsapps/libs/applib/common_applib/build/sampleapp/A53_64/IADAANAA/tzapp_entrylib.lib(gpPersistObjCrypto.o)
 .debug_line    0x0000000000017a61      0x321 /local/mnt/workspace/CRMBuilds/TZ.BF.4.0.3.c1-00005-M8996AAAAANAZT-1_20170110_230814/b/HK11/trustzone_images/core/securemsm/trustzone/qsapps/libs/applib/common_applib/build/sampleapp/A53_64/IADAANAA/tzapp_entrylib.lib(gpPersistObjFileIO.o)
 .debug_line    0x0000000000017d82      0x3c5 /local/mnt/workspace/CRMBuilds/TZ.BF.4.0.3.c1-00005-M8996AAAAANAZT-1_20170110_230814/b/HK11/trustzone_images/core/securemsm/trustzone/qsapps/libs/applib/common_applib/build/sampleapp/A53_64/IADAANAA/tzapp_entrylib.lib(gpFileService.o)
 .debug_line    0x0000000000018147      0x1d8 /local/mnt/workspace/CRMBuilds/TZ.BF.4.0.3.c1-00005-M8996AAAAANAZT-1_20170110_230814/b/HK11/trustzone_images/core/securemsm/trustzone/qsapps/libs/applib/qsee64/build/sampleapp/A53_64/IADAANAA/tzapp_entrylib.lib(qsee_cfg_prop_shim.o)
 .debug_line    0x000000000001831f      0x1d0 /local/mnt/workspace/CRMBuilds/TZ.BF.4.0.3.c1-00005-M8996AAAAANAZT-1_20170110_230814/b/HK11/trustzone_images/core/securemsm/trustzone/qsapps/libs/applib/qsee64/build/sampleapp/A53_64/IADAANAA/tzapp_entrylib.lib(gpPersistObjPanic.o)
 .debug_line    0x00000000000184ef      0x3a0 /local/mnt/workspace/CRMBuilds/TZ.BF.4.0.3.c1-00005-M8996AAAAANAZT-1_20170110_230814/b/HK11/trustzone_images/core/securemsm/sse/SecureTouch/controller/build/sampleapp/A53_64/IADAANAA/drts_controller_msm8996.lib(atmel_mxt_ts.o)
 .debug_line    0x000000000001888f      0x407 /local/mnt/workspace/CRMBuilds/TZ.BF.4.0.3.c1-00005-M8996AAAAANAZT-1_20170110_230814/b/HK11/trustzone_images/core/securemsm/sse/SecureTouch/controller/build/sampleapp/A53_64/IADAANAA/drts_controller_msm8996.lib(synaptics_ts.o)
 .debug_line    0x0000000000018c96      0x132 /local/mnt/workspace/CRMBuilds/TZ.BF.4.0.3.c1-00005-M8996AAAAANAZT-1_20170110_230814/b/HK11/trustzone_images/core/securemsm/sse/log/build/sampleapp/A53_64/IADAANAA/sselog.lib(sselog.o)
 .debug_line    0x0000000000018dc8      0x2b5 /local/mnt/workspace/CRMBuilds/TZ.BF.4.0.3.c1-00005-M8996AAAAANAZT-1_20170110_230814/b/HK11/trustzone_images/core/securemsm/sse/qsee/SecureTouch/drTs/controller/build/sampleapp/A53_64/IADAANAA/touch_controller_i2c_msm8996.lib(atmel_mxt_ts_i2c.o)
 .debug_line    0x000000000001907d      0x2a8 /local/mnt/workspace/CRMBuilds/TZ.BF.4.0.3.c1-00005-M8996AAAAANAZT-1_20170110_230814/b/HK11/trustzone_images/core/securemsm/sse/qsee/SecureTouch/drTs/controller/build/sampleapp/A53_64/IADAANAA/touch_controller_i2c_msm8996.lib(synaptics_ts_i2c.o)

.debug_pubnames
                0x0000000000000000     0x763e
 .debug_pubnames
                0x0000000000000000       0xa1 /local/mnt/workspace/CRMBuilds/TZ.BF.4.0.3.c1-00005-M8996AAAAANAZT-1_20170110_230814/b/HK11/trustzone_images/core/securemsm/trustzone/qsapps/smplap64/build/sampleapp/A53_64/IADAANAA/app_main.o
 .debug_pubnames
                0x00000000000000a1       0x9c /local/mnt/workspace/CRMBuilds/TZ.BF.4.0.3.c1-00005-M8996AAAAANAZT-1_20170110_230814/b/HK11/trustzone_images/core/securemsm/trustzone/qsapps/smplap64/build/sampleapp/A53_64/IADAANAA/app_smplserv_test.o
 .debug_pubnames
                0x000000000000013d       0x71 /local/mnt/workspace/CRMBuilds/TZ.BF.4.0.3.c1-00005-M8996AAAAANAZT-1_20170110_230814/b/HK11/trustzone_images/core/securemsm/trustzone/qsapps/smplap64/build/sampleapp/A53_64/IADAANAA/app_smplcert_test.o
 .debug_pubnames
                0x00000000000001ae     0x1790 /local/mnt/workspace/CRMBuilds/TZ.BF.4.0.3.c1-00005-M8996AAAAANAZT-1_20170110_230814/b/HK11/trustzone_images/core/securemsm/trustzone/qsapps/smplap64/build/sampleapp/A53_64/IADAANAA/app_crypto.o
 .debug_pubnames
                0x000000000000193e      0x13c /local/mnt/workspace/CRMBuilds/TZ.BF.4.0.3.c1-00005-M8996AAAAANAZT-1_20170110_230814/b/HK11/trustzone_images/core/securemsm/trustzone/qsapps/smplap64/build/sampleapp/A53_64/IADAANAA/app_sfs.o
 .debug_pubnames
                0x0000000000001a7a      0x40e /local/mnt/workspace/CRMBuilds/TZ.BF.4.0.3.c1-00005-M8996AAAAANAZT-1_20170110_230814/b/HK11/trustzone_images/core/securemsm/trustzone/qsapps/smplap64/build/sampleapp/A53_64/IADAANAA/app_rsa.o
 .debug_pubnames
                0x0000000000001e88      0x27c /local/mnt/workspace/CRMBuilds/TZ.BF.4.0.3.c1-00005-M8996AAAAANAZT-1_20170110_230814/b/HK11/trustzone_images/core/securemsm/trustzone/qsapps/smplap64/build/sampleapp/A53_64/IADAANAA/qsee_api_tests.o
 .debug_pubnames
                0x0000000000002104       0xa6 /local/mnt/workspace/CRMBuilds/TZ.BF.4.0.3.c1-00005-M8996AAAAANAZT-1_20170110_230814/b/HK11/trustzone_images/core/securemsm/trustzone/qsapps/smplap64/build/sampleapp/A53_64/IADAANAA/app_cmnlib.o
 .debug_pubnames
                0x00000000000021aa       0x2f /local/mnt/workspace/CRMBuilds/TZ.BF.4.0.3.c1-00005-M8996AAAAANAZT-1_20170110_230814/b/HK11/trustzone_images/core/securemsm/trustzone/qsapps/smplap64/build/sampleapp/A53_64/IADAANAA/app_message_passing.o
 .debug_pubnames
                0x00000000000021d9       0x39 /local/mnt/workspace/CRMBuilds/TZ.BF.4.0.3.c1-00005-M8996AAAAANAZT-1_20170110_230814/b/HK11/trustzone_images/core/securemsm/trustzone/qsapps/smplap64/build/sampleapp/A53_64/IADAANAA/app_fuses.o
 .debug_pubnames
                0x0000000000002212      0x20f /local/mnt/workspace/CRMBuilds/TZ.BF.4.0.3.c1-00005-M8996AAAAANAZT-1_20170110_230814/b/HK11/trustzone_images/core/securemsm/trustzone/qsapps/smplap64/build/sampleapp/A53_64/IADAANAA/app_stor.o
 .debug_pubnames
                0x0000000000002421       0x51 /local/mnt/workspace/CRMBuilds/TZ.BF.4.0.3.c1-00005-M8996AAAAANAZT-1_20170110_230814/b/HK11/trustzone_images/core/securemsm/trustzone/qsapps/smplap64/build/sampleapp/A53_64/IADAANAA/app_content_protection.o
 .debug_pubnames
                0x0000000000002472      0x12d /local/mnt/workspace/CRMBuilds/TZ.BF.4.0.3.c1-00005-M8996AAAAANAZT-1_20170110_230814/b/HK11/trustzone_images/core/securemsm/trustzone/qsapps/smplap64/build/sampleapp/A53_64/IADAANAA/app_secure_ui.o
 .debug_pubnames
                0x000000000000259f      0x35c /local/mnt/workspace/CRMBuilds/TZ.BF.4.0.3.c1-00005-M8996AAAAANAZT-1_20170110_230814/b/HK11/trustzone_images/core/securemsm/trustzone/qsapps/smplap64/build/sampleapp/A53_64/IADAANAA/app_bio_lib.o
 .debug_pubnames
                0x00000000000028fb      0x261 /local/mnt/workspace/CRMBuilds/TZ.BF.4.0.3.c1-00005-M8996AAAAANAZT-1_20170110_230814/b/HK11/trustzone_images/core/securemsm/trustzone/qsapps/smplap64/build/sampleapp/A53_64/IADAANAA/app_bulletin_board.o
 .debug_pubnames
                0x0000000000002b5c       0x5a /local/mnt/workspace/CRMBuilds/TZ.BF.4.0.3.c1-00005-M8996AAAAANAZT-1_20170110_230814/b/HK11/trustzone_images/core/securemsm/trustzone/qsapps/smplap64/build/sampleapp/A53_64/IADAANAA/metadata.o
 .debug_pubnames
                0x0000000000002bb6       0x1e /local/mnt/workspace/CRMBuilds/TZ.BF.4.0.3.c1-00005-M8996AAAAANAZT-1_20170110_230814/b/HK11/trustzone_images/core/kernel/libstd/build/sampleapp/A53_64/IADAANAA/libstd.lib(memscpy.o)
 .debug_pubnames
                0x0000000000002bd4       0x1e /local/mnt/workspace/CRMBuilds/TZ.BF.4.0.3.c1-00005-M8996AAAAANAZT-1_20170110_230814/b/HK11/trustzone_images/core/kernel/libstd/build/sampleapp/A53_64/IADAANAA/libstd.lib(strlcpy.o)
 .debug_pubnames
                0x0000000000002bf2       0x24 /local/mnt/workspace/CRMBuilds/TZ.BF.4.0.3.c1-00005-M8996AAAAANAZT-1_20170110_230814/b/HK11/trustzone_images/core/kernel/libstd/build/sampleapp/A53_64/IADAANAA/libstd.lib(secure_memset.o)
 .debug_pubnames
                0x0000000000002c16       0x26 /local/mnt/workspace/CRMBuilds/TZ.BF.4.0.3.c1-00005-M8996AAAAANAZT-1_20170110_230814/b/HK11/trustzone_images/core/kernel/libstd/build/sampleapp/A53_64/IADAANAA/libstd.lib(timesafe_memcmp.o)
 .debug_pubnames
                0x0000000000002c3c       0x27 /local/mnt/workspace/CRMBuilds/TZ.BF.4.0.3.c1-00005-M8996AAAAANAZT-1_20170110_230814/b/HK11/trustzone_images/core/kernel/libstd/build/sampleapp/A53_64/IADAANAA/libstd.lib(timesafe_strncmp.o)
 .debug_pubnames
                0x0000000000002c63      0x3a3 /local/mnt/workspace/CRMBuilds/TZ.BF.4.0.3.c1-00005-M8996AAAAANAZT-1_20170110_230814/b/HK11/trustzone_images/core/securemsm/sse/qsee/SecureUI/build/sampleapp/A53_64/IADAANAA/secure_ui.lib(SecureUI.o)
 .debug_pubnames
                0x0000000000003006       0xd4 /local/mnt/workspace/CRMBuilds/TZ.BF.4.0.3.c1-00005-M8996AAAAANAZT-1_20170110_230814/b/HK11/trustzone_images/core/securemsm/sse/qsee/SecureUILib/lib/build/sampleapp/A53_64/IADAANAA/secure_ui_lib.lib(SecureUILib.o)
 .debug_pubnames
                0x00000000000030da       0x2b /local/mnt/workspace/CRMBuilds/TZ.BF.4.0.3.c1-00005-M8996AAAAANAZT-1_20170110_230814/b/HK11/trustzone_images/core/securemsm/sse/qsee/SecureUILib/lib/build/sampleapp/A53_64/IADAANAA/secure_ui_lib.lib(01_startTouch.o)
 .debug_pubnames
                0x0000000000003105       0x2d /local/mnt/workspace/CRMBuilds/TZ.BF.4.0.3.c1-00005-M8996AAAAANAZT-1_20170110_230814/b/HK11/trustzone_images/core/securemsm/sse/qsee/SecureUILib/lib/build/sampleapp/A53_64/IADAANAA/secure_ui_lib.lib(02_processTouch.o)
 .debug_pubnames
                0x0000000000003132       0x3d /local/mnt/workspace/CRMBuilds/TZ.BF.4.0.3.c1-00005-M8996AAAAANAZT-1_20170110_230814/b/HK11/trustzone_images/core/securemsm/sse/qsee/SecureUILib/lib/build/sampleapp/A53_64/IADAANAA/secure_ui_lib.lib(03_stopTouch.o)
 .debug_pubnames
                0x000000000000316f      0x4ee /local/mnt/workspace/CRMBuilds/TZ.BF.4.0.3.c1-00005-M8996AAAAANAZT-1_20170110_230814/b/HK11/trustzone_images/core/securemsm/trustzone/qsapps/libs/applib/common_applib/build/sampleapp/A53_64/IADAANAA/tzapp_entrylib.lib(common_applib.o)
 .debug_pubnames
                0x000000000000365d      0x1cd /local/mnt/workspace/CRMBuilds/TZ.BF.4.0.3.c1-00005-M8996AAAAANAZT-1_20170110_230814/b/HK11/trustzone_images/core/securemsm/trustzone/qsapps/libs/applib/proxy/build/sampleapp/A53_64/IADAANAA/tzlib_proxy.lib(prxy_services.o)
 .debug_pubnames
                0x000000000000382a      0x3e8 /local/mnt/workspace/CRMBuilds/TZ.BF.4.0.3.c1-00005-M8996AAAAANAZT-1_20170110_230814/b/HK11/trustzone_images/core/securemsm/trustzone/qsapps/libs/applib/proxy/build/sampleapp/A53_64/IADAANAA/tzlib_proxy.lib(prxy_qsee_shim.o)
 .debug_pubnames
                0x0000000000003c12       0xf8 /local/mnt/workspace/CRMBuilds/TZ.BF.4.0.3.c1-00005-M8996AAAAANAZT-1_20170110_230814/b/HK11/trustzone_images/core/securemsm/trustzone/qsapps/libs/applib/proxy/build/sampleapp/A53_64/IADAANAA/tzlib_proxy.lib(prxy_ufaes.o)
 .debug_pubnames
                0x0000000000003d0a       0x72 /local/mnt/workspace/CRMBuilds/TZ.BF.4.0.3.c1-00005-M8996AAAAANAZT-1_20170110_230814/b/HK11/trustzone_images/core/securemsm/trustzone/qsapps/libs/applib/proxy/build/sampleapp/A53_64/IADAANAA/tzlib_proxy.lib(prxy_ufdes.o)
 .debug_pubnames
                0x0000000000003d7c       0x7f /local/mnt/workspace/CRMBuilds/TZ.BF.4.0.3.c1-00005-M8996AAAAANAZT-1_20170110_230814/b/HK11/trustzone_images/core/securemsm/trustzone/qsapps/libs/applib/proxy/build/sampleapp/A53_64/IADAANAA/tzlib_proxy.lib(prxy_ufsha.o)
 .debug_pubnames
                0x0000000000003dfb       0x55 /local/mnt/workspace/CRMBuilds/TZ.BF.4.0.3.c1-00005-M8996AAAAANAZT-1_20170110_230814/b/HK11/trustzone_images/core/securemsm/trustzone/qsapps/libs/applib/proxy/build/sampleapp/A53_64/IADAANAA/tzlib_proxy.lib(prxy_secmath.o)
 .debug_pubnames
                0x0000000000003e50       0xee /local/mnt/workspace/CRMBuilds/TZ.BF.4.0.3.c1-00005-M8996AAAAANAZT-1_20170110_230814/b/HK11/trustzone_images/core/securemsm/trustzone/qsapps/libs/applib/proxy/build/sampleapp/A53_64/IADAANAA/tzlib_proxy.lib(prxy_secrsa.o)
 .debug_pubnames
                0x0000000000003f3e      0x1ef /local/mnt/workspace/CRMBuilds/TZ.BF.4.0.3.c1-00005-M8996AAAAANAZT-1_20170110_230814/b/HK11/trustzone_images/core/securemsm/trustzone/qsapps/libs/applib/proxy/build/sampleapp/A53_64/IADAANAA/tzlib_proxy.lib(prxy_ecc.o)
 .debug_pubnames
                0x000000000000412d       0x9c /local/mnt/workspace/CRMBuilds/TZ.BF.4.0.3.c1-00005-M8996AAAAANAZT-1_20170110_230814/b/HK11/trustzone_images/core/securemsm/trustzone/qsapps/libs/applib/qsee64/build/sampleapp/A53_64/IADAANAA/tzapp_entrylib.lib(mink_shared_code.o)
 .debug_pubnames
                0x00000000000041c9      0x1e5 /local/mnt/workspace/CRMBuilds/TZ.BF.4.0.3.c1-00005-M8996AAAAANAZT-1_20170110_230814/b/HK11/trustzone_images/core/securemsm/trustzone/qsapps/libs/applib/qsee64/build/sampleapp/A53_64/IADAANAA/tzapp_entrylib.lib(qsee_env.o)
 .debug_pubnames
                0x00000000000043ae      0x147 /local/mnt/workspace/CRMBuilds/TZ.BF.4.0.3.c1-00005-M8996AAAAANAZT-1_20170110_230814/b/HK11/trustzone_images/core/securemsm/trustzone/qsapps/libs/applib/qsee64/build/sampleapp/A53_64/IADAANAA/tzapp_entrylib.lib(qsee_core_shim.o)
 .debug_pubnames
                0x00000000000044f5       0xbd /local/mnt/workspace/CRMBuilds/TZ.BF.4.0.3.c1-00005-M8996AAAAANAZT-1_20170110_230814/b/HK11/trustzone_images/core/securemsm/trustzone/qsapps/libs/applib/qsee64/build/sampleapp/A53_64/IADAANAA/tzapp_entrylib.lib(qsee_deviceid.o)
 .debug_pubnames
                0x00000000000045b2       0x4b /local/mnt/workspace/CRMBuilds/TZ.BF.4.0.3.c1-00005-M8996AAAAANAZT-1_20170110_230814/b/HK11/trustzone_images/core/securemsm/trustzone/qsapps/libs/applib/qsee64/build/sampleapp/A53_64/IADAANAA/tzapp_entrylib.lib(qsee_prng.o)
 .debug_pubnames
                0x00000000000045fd       0xaa /local/mnt/workspace/CRMBuilds/TZ.BF.4.0.3.c1-00005-M8996AAAAANAZT-1_20170110_230814/b/HK11/trustzone_images/core/securemsm/trustzone/qsapps/libs/applib/qsee64/build/sampleapp/A53_64/IADAANAA/tzapp_entrylib.lib(qsee_secdisp.o)
 .debug_pubnames
                0x00000000000046a7       0xd6 /local/mnt/workspace/CRMBuilds/TZ.BF.4.0.3.c1-00005-M8996AAAAANAZT-1_20170110_230814/b/HK11/trustzone_images/core/securemsm/trustzone/qsapps/libs/applib/qsee64/build/sampleapp/A53_64/IADAANAA/tzapp_entrylib.lib(qsee_nsmem.o)
 .debug_pubnames
                0x000000000000477d       0x7a /local/mnt/workspace/CRMBuilds/TZ.BF.4.0.3.c1-00005-M8996AAAAANAZT-1_20170110_230814/b/HK11/trustzone_images/core/securemsm/trustzone/qsapps/libs/applib/qsee64/build/sampleapp/A53_64/IADAANAA/tzapp_entrylib.lib(qsee_cmac.o)
 .debug_pubnames
                0x00000000000047f7       0x45 /local/mnt/workspace/CRMBuilds/TZ.BF.4.0.3.c1-00005-M8996AAAAANAZT-1_20170110_230814/b/HK11/trustzone_images/core/securemsm/trustzone/qsapps/libs/applib/qsee64/build/sampleapp/A53_64/IADAANAA/tzapp_entrylib.lib(qsee_crypto_shim.o)
 .debug_pubnames
                0x000000000000483c       0x4b /local/mnt/workspace/CRMBuilds/TZ.BF.4.0.3.c1-00005-M8996AAAAANAZT-1_20170110_230814/b/HK11/trustzone_images/core/securemsm/trustzone/qsapps/libs/applib/qsee64/build/sampleapp/A53_64/IADAANAA/tzapp_entrylib.lib(qsee_timer_shim.o)
 .debug_pubnames
                0x0000000000004887       0xd2 /local/mnt/workspace/CRMBuilds/TZ.BF.4.0.3.c1-00005-M8996AAAAANAZT-1_20170110_230814/b/HK11/trustzone_images/core/securemsm/trustzone/qsapps/libs/applib/qsee64/build/sampleapp/A53_64/IADAANAA/tzapp_entrylib.lib(qsee_comstr.o)
 .debug_pubnames
                0x0000000000004959      0x145 /local/mnt/workspace/CRMBuilds/TZ.BF.4.0.3.c1-00005-M8996AAAAANAZT-1_20170110_230814/b/HK11/trustzone_images/core/securemsm/trustzone/qsapps/libs/applib/qsee64/build/sampleapp/A53_64/IADAANAA/tzapp_entrylib.lib(stor.o)
 .debug_pubnames
                0x0000000000004a9e      0x196 /local/mnt/workspace/CRMBuilds/TZ.BF.4.0.3.c1-00005-M8996AAAAANAZT-1_20170110_230814/b/HK11/trustzone_images/core/securemsm/trustzone/qsapps/libs/applib/qsee64/build/sampleapp/A53_64/IADAANAA/tzapp_entrylib.lib(stor_gpt.o)
 .debug_pubnames
                0x0000000000004c34      0x100 /local/mnt/workspace/CRMBuilds/TZ.BF.4.0.3.c1-00005-M8996AAAAANAZT-1_20170110_230814/b/HK11/trustzone_images/core/securemsm/trustzone/qsapps/libs/applib/qsee64/build/sampleapp/A53_64/IADAANAA/tzapp_entrylib.lib(stor_rpmbw.o)
 .debug_pubnames
                0x0000000000004d34       0xcb /local/mnt/workspace/CRMBuilds/TZ.BF.4.0.3.c1-00005-M8996AAAAANAZT-1_20170110_230814/b/HK11/trustzone_images/core/securemsm/trustzone/qsapps/libs/applib/qsee64/build/sampleapp/A53_64/IADAANAA/tzapp_entrylib.lib(qsee_counter_shim.o)
 .debug_pubnames
                0x0000000000004dff      0x233 /local/mnt/workspace/CRMBuilds/TZ.BF.4.0.3.c1-00005-M8996AAAAANAZT-1_20170110_230814/b/HK11/trustzone_images/core/securemsm/trustzone/qsapps/libs/applib/qsee64/build/sampleapp/A53_64/IADAANAA/tzapp_entrylib.lib(qsee_cipher.o)
 .debug_pubnames
                0x0000000000005032      0x1f7 /local/mnt/workspace/CRMBuilds/TZ.BF.4.0.3.c1-00005-M8996AAAAANAZT-1_20170110_230814/b/HK11/trustzone_images/core/securemsm/trustzone/qsapps/libs/applib/qsee64/build/sampleapp/A53_64/IADAANAA/tzapp_entrylib.lib(qsee_hash.o)
 .debug_pubnames
                0x0000000000005229      0x152 /local/mnt/workspace/CRMBuilds/TZ.BF.4.0.3.c1-00005-M8996AAAAANAZT-1_20170110_230814/b/HK11/trustzone_images/core/securemsm/trustzone/qsapps/libs/applib/qsee64/build/sampleapp/A53_64/IADAANAA/tzapp_entrylib.lib(qsee_hmac.o)
 .debug_pubnames
                0x000000000000537b      0x15d /local/mnt/workspace/CRMBuilds/TZ.BF.4.0.3.c1-00005-M8996AAAAANAZT-1_20170110_230814/b/HK11/trustzone_images/core/securemsm/trustzone/qsapps/libs/applib/qsee64/build/sampleapp/A53_64/IADAANAA/tzapp_entrylib.lib(qsee_i2c.o)
 .debug_pubnames
                0x00000000000054d8      0x15e /local/mnt/workspace/CRMBuilds/TZ.BF.4.0.3.c1-00005-M8996AAAAANAZT-1_20170110_230814/b/HK11/trustzone_images/core/securemsm/trustzone/qsapps/libs/applib/qsee64/build/sampleapp/A53_64/IADAANAA/tzapp_entrylib.lib(qsee_spi.o)
 .debug_pubnames
                0x0000000000005636      0x1e0 /local/mnt/workspace/CRMBuilds/TZ.BF.4.0.3.c1-00005-M8996AAAAANAZT-1_20170110_230814/b/HK11/trustzone_images/core/securemsm/trustzone/qsapps/libs/applib/qsee64/build/sampleapp/A53_64/IADAANAA/tzapp_entrylib.lib(qsee_tlmm.o)
 .debug_pubnames
                0x0000000000005816       0x4c /local/mnt/workspace/CRMBuilds/TZ.BF.4.0.3.c1-00005-M8996AAAAANAZT-1_20170110_230814/b/HK11/trustzone_images/core/securemsm/trustzone/qsapps/libs/applib/qsee64/build/sampleapp/A53_64/IADAANAA/tzapp_entrylib.lib(qsee_bulletin_board_shim.o)
 .debug_pubnames
                0x0000000000005862       0xde /local/mnt/workspace/CRMBuilds/TZ.BF.4.0.3.c1-00005-M8996AAAAANAZT-1_20170110_230814/b/HK11/trustzone_images/core/securemsm/trustzone/qsapps/libs/applib/qsee64/build/sampleapp/A53_64/IADAANAA/tzapp_entrylib.lib(qsee_dcache.o)
 .debug_pubnames
                0x0000000000005940       0xb6 /local/mnt/workspace/CRMBuilds/TZ.BF.4.0.3.c1-00005-M8996AAAAANAZT-1_20170110_230814/b/HK11/trustzone_images/core/securemsm/trustzone/qsapps/libs/applib/qsee64/build/sampleapp/A53_64/IADAANAA/tzapp_entrylib.lib(qsee_shared_buffer.o)
 .debug_pubnames
                0x00000000000059f6       0x52 /local/mnt/workspace/CRMBuilds/TZ.BF.4.0.3.c1-00005-M8996AAAAANAZT-1_20170110_230814/b/HK11/trustzone_images/core/securemsm/trustzone/qsapps/libs/applib/qsee64/build/sampleapp/A53_64/IADAANAA/tzapp_entrylib.lib(qsee_sync.o)
 .debug_pubnames
                0x0000000000005a48       0xd4 /local/mnt/workspace/CRMBuilds/TZ.BF.4.0.3.c1-00005-M8996AAAAANAZT-1_20170110_230814/b/HK11/trustzone_images/core/securemsm/trustzone/qsapps/libs/applib/qsee64/build/sampleapp/A53_64/IADAANAA/tzapp_entrylib.lib(qsee_oem_buffer.o)
 .debug_pubnames
                0x0000000000005b1c       0xe1 /local/mnt/workspace/CRMBuilds/TZ.BF.4.0.3.c1-00005-M8996AAAAANAZT-1_20170110_230814/b/HK11/trustzone_images/core/securemsm/trustzone/qsapps/libs/applib/qsee64/build/sampleapp/A53_64/IADAANAA/tzapp_entrylib.lib(qsee_intmask.o)
 .debug_pubnames
                0x0000000000005bfd       0x77 /local/mnt/workspace/CRMBuilds/TZ.BF.4.0.3.c1-00005-M8996AAAAANAZT-1_20170110_230814/b/HK11/trustzone_images/core/securemsm/trustzone/qsapps/libs/applib/qsee64/build/sampleapp/A53_64/IADAANAA/tzapp_entrylib.lib(qsee_trans_ns_addr.o)
 .debug_pubnames
                0x0000000000005c74       0xe2 /local/mnt/workspace/CRMBuilds/TZ.BF.4.0.3.c1-00005-M8996AAAAANAZT-1_20170110_230814/b/HK11/trustzone_images/core/securemsm/trustzone/qsapps/libs/applib/qsee64/build/sampleapp/A53_64/IADAANAA/tzapp_entrylib.lib(qsee_appmessage.o)
 .debug_pubnames
                0x0000000000005d56      0x149 /local/mnt/workspace/CRMBuilds/TZ.BF.4.0.3.c1-00005-M8996AAAAANAZT-1_20170110_230814/b/HK11/trustzone_images/core/securemsm/trustzone/qsapps/libs/applib/qsee64/build/sampleapp/A53_64/IADAANAA/tzapp_entrylib.lib(sfs_api.o)
 .debug_pubnames
                0x0000000000005e9f       0xbf /local/mnt/workspace/CRMBuilds/TZ.BF.4.0.3.c1-00005-M8996AAAAANAZT-1_20170110_230814/b/HK11/trustzone_images/core/securemsm/trustzone/qsapps/libs/applib/qsee64/build/sampleapp/A53_64/IADAANAA/tzapp_entrylib.lib(tzapp_lib_main.o)
 .debug_pubnames
                0x0000000000005f5e      0x151 /local/mnt/workspace/CRMBuilds/TZ.BF.4.0.3.c1-00005-M8996AAAAANAZT-1_20170110_230814/b/HK11/trustzone_images/core/securemsm/trustzone/qsapps/libs/biometric/build/sampleapp/A53_64/IADAANAA/biometric_lib.lib(biometric.o)
 .debug_pubnames
                0x00000000000060af      0x1f6 /local/mnt/workspace/CRMBuilds/TZ.BF.4.0.3.c1-00005-M8996AAAAANAZT-1_20170110_230814/b/HK11/trustzone_images/core/securemsm/trustzone/qsapps/libs/biometric/build/sampleapp/A53_64/IADAANAA/biometric_lib.lib(biometric_serializer.o)
 .debug_pubnames
                0x00000000000062a5       0x40 /local/mnt/workspace/CRMBuilds/TZ.BF.4.0.3.c1-00005-M8996AAAAANAZT-1_20170110_230814/b/HK11/trustzone_images/core/securemsm/sse/qsee/SecureTouch/drTs/lib/build/sampleapp/A53_64/IADAANAA/touch_lib.lib(01_open.o)
 .debug_pubnames
                0x00000000000062e5       0x21 /local/mnt/workspace/CRMBuilds/TZ.BF.4.0.3.c1-00005-M8996AAAAANAZT-1_20170110_230814/b/HK11/trustzone_images/core/securemsm/sse/qsee/SecureTouch/drTs/lib/build/sampleapp/A53_64/IADAANAA/touch_lib.lib(02_close.o)
 .debug_pubnames
                0x0000000000006306       0x47 /local/mnt/workspace/CRMBuilds/TZ.BF.4.0.3.c1-00005-M8996AAAAANAZT-1_20170110_230814/b/HK11/trustzone_images/core/securemsm/sse/qsee/SecureTouch/drTs/lib/build/sampleapp/A53_64/IADAANAA/touch_lib.lib(03_getData.o)
 .debug_pubnames
                0x000000000000634d      0x113 /local/mnt/workspace/CRMBuilds/TZ.BF.4.0.3.c1-00005-M8996AAAAANAZT-1_20170110_230814/b/HK11/trustzone_images/core/securemsm/trustzone/qsapps/libs/applib/common_applib/build/sampleapp/A53_64/IADAANAA/tzapp_entrylib.lib(gpPersistObjCommon.o)
 .debug_pubnames
                0x0000000000006460      0x1df /local/mnt/workspace/CRMBuilds/TZ.BF.4.0.3.c1-00005-M8996AAAAANAZT-1_20170110_230814/b/HK11/trustzone_images/core/securemsm/trustzone/qsapps/libs/applib/common_applib/build/sampleapp/A53_64/IADAANAA/tzapp_entrylib.lib(gpPersistentObjects.o)
 .debug_pubnames
                0x000000000000663f      0x39d /local/mnt/workspace/CRMBuilds/TZ.BF.4.0.3.c1-00005-M8996AAAAANAZT-1_20170110_230814/b/HK11/trustzone_images/core/securemsm/trustzone/qsapps/libs/applib/common_applib/build/sampleapp/A53_64/IADAANAA/tzapp_entrylib.lib(gpPersistObjData.o)
 .debug_pubnames
                0x00000000000069dc      0x123 /local/mnt/workspace/CRMBuilds/TZ.BF.4.0.3.c1-00005-M8996AAAAANAZT-1_20170110_230814/b/HK11/trustzone_images/core/securemsm/trustzone/qsapps/libs/applib/common_applib/build/sampleapp/A53_64/IADAANAA/tzapp_entrylib.lib(gpPersistObjHandler.o)
 .debug_pubnames
                0x0000000000006aff      0x232 /local/mnt/workspace/CRMBuilds/TZ.BF.4.0.3.c1-00005-M8996AAAAANAZT-1_20170110_230814/b/HK11/trustzone_images/core/securemsm/trustzone/qsapps/libs/applib/common_applib/build/sampleapp/A53_64/IADAANAA/tzapp_entrylib.lib(gpPersistObjIndex.o)
 .debug_pubnames
                0x0000000000006d31      0x2b4 /local/mnt/workspace/CRMBuilds/TZ.BF.4.0.3.c1-00005-M8996AAAAANAZT-1_20170110_230814/b/HK11/trustzone_images/core/securemsm/trustzone/qsapps/libs/applib/common_applib/build/sampleapp/A53_64/IADAANAA/tzapp_entrylib.lib(gpPersistObjVersion.o)
 .debug_pubnames
                0x0000000000006fe5      0x13b /local/mnt/workspace/CRMBuilds/TZ.BF.4.0.3.c1-00005-M8996AAAAANAZT-1_20170110_230814/b/HK11/trustzone_images/core/securemsm/trustzone/qsapps/libs/applib/common_applib/build/sampleapp/A53_64/IADAANAA/tzapp_entrylib.lib(gpPersistObjCrypto.o)
 .debug_pubnames
                0x0000000000007120       0xcc /local/mnt/workspace/CRMBuilds/TZ.BF.4.0.3.c1-00005-M8996AAAAANAZT-1_20170110_230814/b/HK11/trustzone_images/core/securemsm/trustzone/qsapps/libs/applib/common_applib/build/sampleapp/A53_64/IADAANAA/tzapp_entrylib.lib(gpPersistObjFileIO.o)
 .debug_pubnames
                0x00000000000071ec       0x53 /local/mnt/workspace/CRMBuilds/TZ.BF.4.0.3.c1-00005-M8996AAAAANAZT-1_20170110_230814/b/HK11/trustzone_images/core/securemsm/trustzone/qsapps/libs/applib/common_applib/build/sampleapp/A53_64/IADAANAA/tzapp_entrylib.lib(gpFileService.o)
 .debug_pubnames
                0x000000000000723f       0x2a /local/mnt/workspace/CRMBuilds/TZ.BF.4.0.3.c1-00005-M8996AAAAANAZT-1_20170110_230814/b/HK11/trustzone_images/core/securemsm/trustzone/qsapps/libs/applib/qsee64/build/sampleapp/A53_64/IADAANAA/tzapp_entrylib.lib(qsee_cfg_prop_shim.o)
 .debug_pubnames
                0x0000000000007269       0x3e /local/mnt/workspace/CRMBuilds/TZ.BF.4.0.3.c1-00005-M8996AAAAANAZT-1_20170110_230814/b/HK11/trustzone_images/core/securemsm/trustzone/qsapps/libs/applib/qsee64/build/sampleapp/A53_64/IADAANAA/tzapp_entrylib.lib(gpPersistObjPanic.o)
 .debug_pubnames
                0x00000000000072a7      0x159 /local/mnt/workspace/CRMBuilds/TZ.BF.4.0.3.c1-00005-M8996AAAAANAZT-1_20170110_230814/b/HK11/trustzone_images/core/securemsm/sse/SecureTouch/controller/build/sampleapp/A53_64/IADAANAA/drts_controller_msm8996.lib(atmel_mxt_ts.o)
 .debug_pubnames
                0x0000000000007400       0xfa /local/mnt/workspace/CRMBuilds/TZ.BF.4.0.3.c1-00005-M8996AAAAANAZT-1_20170110_230814/b/HK11/trustzone_images/core/securemsm/sse/SecureTouch/controller/build/sampleapp/A53_64/IADAANAA/drts_controller_msm8996.lib(synaptics_ts.o)
 .debug_pubnames
                0x00000000000074fa       0x1e /local/mnt/workspace/CRMBuilds/TZ.BF.4.0.3.c1-00005-M8996AAAAANAZT-1_20170110_230814/b/HK11/trustzone_images/core/securemsm/sse/log/build/sampleapp/A53_64/IADAANAA/sselog.lib(sselog.o)
 .debug_pubnames
                0x0000000000007518       0x80 /local/mnt/workspace/CRMBuilds/TZ.BF.4.0.3.c1-00005-M8996AAAAANAZT-1_20170110_230814/b/HK11/trustzone_images/core/securemsm/sse/qsee/SecureTouch/drTs/controller/build/sampleapp/A53_64/IADAANAA/touch_controller_i2c_msm8996.lib(atmel_mxt_ts_i2c.o)
 .debug_pubnames
                0x0000000000007598       0xa6 /local/mnt/workspace/CRMBuilds/TZ.BF.4.0.3.c1-00005-M8996AAAAANAZT-1_20170110_230814/b/HK11/trustzone_images/core/securemsm/sse/qsee/SecureTouch/drTs/controller/build/sampleapp/A53_64/IADAANAA/touch_controller_i2c_msm8996.lib(synaptics_ts_i2c.o)

.debug_pubtypes
                0x0000000000000000     0xd80a
 .debug_pubtypes
                0x0000000000000000      0x10c /local/mnt/workspace/CRMBuilds/TZ.BF.4.0.3.c1-00005-M8996AAAAANAZT-1_20170110_230814/b/HK11/trustzone_images/core/securemsm/trustzone/qsapps/smplap64/build/sampleapp/A53_64/IADAANAA/app_main.o
 .debug_pubtypes
                0x000000000000010c       0xe2 /local/mnt/workspace/CRMBuilds/TZ.BF.4.0.3.c1-00005-M8996AAAAANAZT-1_20170110_230814/b/HK11/trustzone_images/core/securemsm/trustzone/qsapps/smplap64/build/sampleapp/A53_64/IADAANAA/app_smplserv_test.o
 .debug_pubtypes
                0x00000000000001ee       0xe2 /local/mnt/workspace/CRMBuilds/TZ.BF.4.0.3.c1-00005-M8996AAAAANAZT-1_20170110_230814/b/HK11/trustzone_images/core/securemsm/trustzone/qsapps/smplap64/build/sampleapp/A53_64/IADAANAA/app_smplcert_test.o
 .debug_pubtypes
                0x00000000000002d0      0x555 /local/mnt/workspace/CRMBuilds/TZ.BF.4.0.3.c1-00005-M8996AAAAANAZT-1_20170110_230814/b/HK11/trustzone_images/core/securemsm/trustzone/qsapps/smplap64/build/sampleapp/A53_64/IADAANAA/app_crypto.o
 .debug_pubtypes
                0x0000000000000825       0xdb /local/mnt/workspace/CRMBuilds/TZ.BF.4.0.3.c1-00005-M8996AAAAANAZT-1_20170110_230814/b/HK11/trustzone_images/core/securemsm/trustzone/qsapps/smplap64/build/sampleapp/A53_64/IADAANAA/app_sfs.o
 .debug_pubtypes
                0x0000000000000900      0x1bc /local/mnt/workspace/CRMBuilds/TZ.BF.4.0.3.c1-00005-M8996AAAAANAZT-1_20170110_230814/b/HK11/trustzone_images/core/securemsm/trustzone/qsapps/smplap64/build/sampleapp/A53_64/IADAANAA/app_rsa.o
 .debug_pubtypes
                0x0000000000000abc      0x233 /local/mnt/workspace/CRMBuilds/TZ.BF.4.0.3.c1-00005-M8996AAAAANAZT-1_20170110_230814/b/HK11/trustzone_images/core/securemsm/trustzone/qsapps/smplap64/build/sampleapp/A53_64/IADAANAA/qsee_api_tests.o
 .debug_pubtypes
                0x0000000000000cef      0x1d9 /local/mnt/workspace/CRMBuilds/TZ.BF.4.0.3.c1-00005-M8996AAAAANAZT-1_20170110_230814/b/HK11/trustzone_images/core/securemsm/trustzone/qsapps/smplap64/build/sampleapp/A53_64/IADAANAA/app_cmnlib.o
 .debug_pubtypes
                0x0000000000000ec8       0x41 /local/mnt/workspace/CRMBuilds/TZ.BF.4.0.3.c1-00005-M8996AAAAANAZT-1_20170110_230814/b/HK11/trustzone_images/core/securemsm/trustzone/qsapps/smplap64/build/sampleapp/A53_64/IADAANAA/app_message_passing.o
 .debug_pubtypes
                0x0000000000000f09       0x24 /local/mnt/workspace/CRMBuilds/TZ.BF.4.0.3.c1-00005-M8996AAAAANAZT-1_20170110_230814/b/HK11/trustzone_images/core/securemsm/trustzone/qsapps/smplap64/build/sampleapp/A53_64/IADAANAA/app_fuses.o
 .debug_pubtypes
                0x0000000000000f2d      0x13a /local/mnt/workspace/CRMBuilds/TZ.BF.4.0.3.c1-00005-M8996AAAAANAZT-1_20170110_230814/b/HK11/trustzone_images/core/securemsm/trustzone/qsapps/smplap64/build/sampleapp/A53_64/IADAANAA/app_stor.o
 .debug_pubtypes
                0x0000000000001067       0xfe /local/mnt/workspace/CRMBuilds/TZ.BF.4.0.3.c1-00005-M8996AAAAANAZT-1_20170110_230814/b/HK11/trustzone_images/core/securemsm/trustzone/qsapps/smplap64/build/sampleapp/A53_64/IADAANAA/app_content_protection.o
 .debug_pubtypes
                0x0000000000001165      0x103 /local/mnt/workspace/CRMBuilds/TZ.BF.4.0.3.c1-00005-M8996AAAAANAZT-1_20170110_230814/b/HK11/trustzone_images/core/securemsm/trustzone/qsapps/smplap64/build/sampleapp/A53_64/IADAANAA/app_secure_ui.o
 .debug_pubtypes
                0x0000000000001268      0x1b4 /local/mnt/workspace/CRMBuilds/TZ.BF.4.0.3.c1-00005-M8996AAAAANAZT-1_20170110_230814/b/HK11/trustzone_images/core/securemsm/trustzone/qsapps/smplap64/build/sampleapp/A53_64/IADAANAA/app_bio_lib.o
 .debug_pubtypes
                0x000000000000141c      0x10b /local/mnt/workspace/CRMBuilds/TZ.BF.4.0.3.c1-00005-M8996AAAAANAZT-1_20170110_230814/b/HK11/trustzone_images/core/securemsm/trustzone/qsapps/smplap64/build/sampleapp/A53_64/IADAANAA/app_bulletin_board.o
 .debug_pubtypes
                0x0000000000001527       0x2c /local/mnt/workspace/CRMBuilds/TZ.BF.4.0.3.c1-00005-M8996AAAAANAZT-1_20170110_230814/b/HK11/trustzone_images/core/securemsm/trustzone/qsapps/smplap64/build/sampleapp/A53_64/IADAANAA/metadata.o
 .debug_pubtypes
                0x0000000000001553       0x33 /local/mnt/workspace/CRMBuilds/TZ.BF.4.0.3.c1-00005-M8996AAAAANAZT-1_20170110_230814/b/HK11/trustzone_images/core/kernel/libstd/build/sampleapp/A53_64/IADAANAA/libstd.lib(memscpy.o)
 .debug_pubtypes
                0x0000000000001586       0x3c /local/mnt/workspace/CRMBuilds/TZ.BF.4.0.3.c1-00005-M8996AAAAANAZT-1_20170110_230814/b/HK11/trustzone_images/core/kernel/libstd/build/sampleapp/A53_64/IADAANAA/libstd.lib(strlcpy.o)
 .debug_pubtypes
                0x00000000000015c2       0x59 /local/mnt/workspace/CRMBuilds/TZ.BF.4.0.3.c1-00005-M8996AAAAANAZT-1_20170110_230814/b/HK11/trustzone_images/core/kernel/libstd/build/sampleapp/A53_64/IADAANAA/libstd.lib(secure_memset.o)
 .debug_pubtypes
                0x000000000000161b       0x59 /local/mnt/workspace/CRMBuilds/TZ.BF.4.0.3.c1-00005-M8996AAAAANAZT-1_20170110_230814/b/HK11/trustzone_images/core/kernel/libstd/build/sampleapp/A53_64/IADAANAA/libstd.lib(timesafe_memcmp.o)
 .debug_pubtypes
                0x0000000000001674       0x62 /local/mnt/workspace/CRMBuilds/TZ.BF.4.0.3.c1-00005-M8996AAAAANAZT-1_20170110_230814/b/HK11/trustzone_images/core/kernel/libstd/build/sampleapp/A53_64/IADAANAA/libstd.lib(timesafe_strncmp.o)
 .debug_pubtypes
                0x00000000000016d6      0x23f /local/mnt/workspace/CRMBuilds/TZ.BF.4.0.3.c1-00005-M8996AAAAANAZT-1_20170110_230814/b/HK11/trustzone_images/core/securemsm/sse/qsee/SecureUI/build/sampleapp/A53_64/IADAANAA/secure_ui.lib(SecureUI.o)
 .debug_pubtypes
                0x0000000000001915      0x2ad /local/mnt/workspace/CRMBuilds/TZ.BF.4.0.3.c1-00005-M8996AAAAANAZT-1_20170110_230814/b/HK11/trustzone_images/core/securemsm/sse/qsee/SecureUILib/lib/build/sampleapp/A53_64/IADAANAA/secure_ui_lib.lib(SecureUILib.o)
 .debug_pubtypes
                0x0000000000001bc2      0x1b9 /local/mnt/workspace/CRMBuilds/TZ.BF.4.0.3.c1-00005-M8996AAAAANAZT-1_20170110_230814/b/HK11/trustzone_images/core/securemsm/sse/qsee/SecureUILib/lib/build/sampleapp/A53_64/IADAANAA/secure_ui_lib.lib(01_startTouch.o)
 .debug_pubtypes
                0x0000000000001d7b      0x208 /local/mnt/workspace/CRMBuilds/TZ.BF.4.0.3.c1-00005-M8996AAAAANAZT-1_20170110_230814/b/HK11/trustzone_images/core/securemsm/sse/qsee/SecureUILib/lib/build/sampleapp/A53_64/IADAANAA/secure_ui_lib.lib(02_processTouch.o)
 .debug_pubtypes
                0x0000000000001f83      0x1c3 /local/mnt/workspace/CRMBuilds/TZ.BF.4.0.3.c1-00005-M8996AAAAANAZT-1_20170110_230814/b/HK11/trustzone_images/core/securemsm/sse/qsee/SecureUILib/lib/build/sampleapp/A53_64/IADAANAA/secure_ui_lib.lib(03_stopTouch.o)
 .debug_pubtypes
                0x0000000000002146      0x48a /local/mnt/workspace/CRMBuilds/TZ.BF.4.0.3.c1-00005-M8996AAAAANAZT-1_20170110_230814/b/HK11/trustzone_images/core/securemsm/trustzone/qsapps/libs/applib/common_applib/build/sampleapp/A53_64/IADAANAA/tzapp_entrylib.lib(common_applib.o)
 .debug_pubtypes
                0x00000000000025d0     0x10d1 /local/mnt/workspace/CRMBuilds/TZ.BF.4.0.3.c1-00005-M8996AAAAANAZT-1_20170110_230814/b/HK11/trustzone_images/core/securemsm/trustzone/qsapps/libs/applib/proxy/build/sampleapp/A53_64/IADAANAA/tzlib_proxy.lib(prxy_services.o)
 .debug_pubtypes
                0x00000000000036a1      0x3af /local/mnt/workspace/CRMBuilds/TZ.BF.4.0.3.c1-00005-M8996AAAAANAZT-1_20170110_230814/b/HK11/trustzone_images/core/securemsm/trustzone/qsapps/libs/applib/proxy/build/sampleapp/A53_64/IADAANAA/tzlib_proxy.lib(prxy_qsee_shim.o)
 .debug_pubtypes
                0x0000000000003a50     0x10a1 /local/mnt/workspace/CRMBuilds/TZ.BF.4.0.3.c1-00005-M8996AAAAANAZT-1_20170110_230814/b/HK11/trustzone_images/core/securemsm/trustzone/qsapps/libs/applib/proxy/build/sampleapp/A53_64/IADAANAA/tzlib_proxy.lib(prxy_ufaes.o)
 .debug_pubtypes
                0x0000000000004af1     0x10a1 /local/mnt/workspace/CRMBuilds/TZ.BF.4.0.3.c1-00005-M8996AAAAANAZT-1_20170110_230814/b/HK11/trustzone_images/core/securemsm/trustzone/qsapps/libs/applib/proxy/build/sampleapp/A53_64/IADAANAA/tzlib_proxy.lib(prxy_ufdes.o)
 .debug_pubtypes
                0x0000000000005b92     0x10a1 /local/mnt/workspace/CRMBuilds/TZ.BF.4.0.3.c1-00005-M8996AAAAANAZT-1_20170110_230814/b/HK11/trustzone_images/core/securemsm/trustzone/qsapps/libs/applib/proxy/build/sampleapp/A53_64/IADAANAA/tzlib_proxy.lib(prxy_ufsha.o)
 .debug_pubtypes
                0x0000000000006c33     0x10a1 /local/mnt/workspace/CRMBuilds/TZ.BF.4.0.3.c1-00005-M8996AAAAANAZT-1_20170110_230814/b/HK11/trustzone_images/core/securemsm/trustzone/qsapps/libs/applib/proxy/build/sampleapp/A53_64/IADAANAA/tzlib_proxy.lib(prxy_secmath.o)
 .debug_pubtypes
                0x0000000000007cd4     0x10a1 /local/mnt/workspace/CRMBuilds/TZ.BF.4.0.3.c1-00005-M8996AAAAANAZT-1_20170110_230814/b/HK11/trustzone_images/core/securemsm/trustzone/qsapps/libs/applib/proxy/build/sampleapp/A53_64/IADAANAA/tzlib_proxy.lib(prxy_secrsa.o)
 .debug_pubtypes
                0x0000000000008d75     0x10a1 /local/mnt/workspace/CRMBuilds/TZ.BF.4.0.3.c1-00005-M8996AAAAANAZT-1_20170110_230814/b/HK11/trustzone_images/core/securemsm/trustzone/qsapps/libs/applib/proxy/build/sampleapp/A53_64/IADAANAA/tzlib_proxy.lib(prxy_ecc.o)
 .debug_pubtypes
                0x0000000000009e16      0x11b /local/mnt/workspace/CRMBuilds/TZ.BF.4.0.3.c1-00005-M8996AAAAANAZT-1_20170110_230814/b/HK11/trustzone_images/core/securemsm/trustzone/qsapps/libs/applib/qsee64/build/sampleapp/A53_64/IADAANAA/tzapp_entrylib.lib(mink_shared_code.o)
 .debug_pubtypes
                0x0000000000009f31      0x112 /local/mnt/workspace/CRMBuilds/TZ.BF.4.0.3.c1-00005-M8996AAAAANAZT-1_20170110_230814/b/HK11/trustzone_images/core/securemsm/trustzone/qsapps/libs/applib/qsee64/build/sampleapp/A53_64/IADAANAA/tzapp_entrylib.lib(qsee_env.o)
 .debug_pubtypes
                0x000000000000a043      0x13f /local/mnt/workspace/CRMBuilds/TZ.BF.4.0.3.c1-00005-M8996AAAAANAZT-1_20170110_230814/b/HK11/trustzone_images/core/securemsm/trustzone/qsapps/libs/applib/qsee64/build/sampleapp/A53_64/IADAANAA/tzapp_entrylib.lib(qsee_core_shim.o)
 .debug_pubtypes
                0x000000000000a182      0x104 /local/mnt/workspace/CRMBuilds/TZ.BF.4.0.3.c1-00005-M8996AAAAANAZT-1_20170110_230814/b/HK11/trustzone_images/core/securemsm/trustzone/qsapps/libs/applib/qsee64/build/sampleapp/A53_64/IADAANAA/tzapp_entrylib.lib(qsee_deviceid.o)
 .debug_pubtypes
                0x000000000000a286       0xf7 /local/mnt/workspace/CRMBuilds/TZ.BF.4.0.3.c1-00005-M8996AAAAANAZT-1_20170110_230814/b/HK11/trustzone_images/core/securemsm/trustzone/qsapps/libs/applib/qsee64/build/sampleapp/A53_64/IADAANAA/tzapp_entrylib.lib(qsee_prng.o)
 .debug_pubtypes
                0x000000000000a37d       0xe3 /local/mnt/workspace/CRMBuilds/TZ.BF.4.0.3.c1-00005-M8996AAAAANAZT-1_20170110_230814/b/HK11/trustzone_images/core/securemsm/trustzone/qsapps/libs/applib/qsee64/build/sampleapp/A53_64/IADAANAA/tzapp_entrylib.lib(qsee_secdisp.o)
 .debug_pubtypes
                0x000000000000a460       0xf0 /local/mnt/workspace/CRMBuilds/TZ.BF.4.0.3.c1-00005-M8996AAAAANAZT-1_20170110_230814/b/HK11/trustzone_images/core/securemsm/trustzone/qsapps/libs/applib/qsee64/build/sampleapp/A53_64/IADAANAA/tzapp_entrylib.lib(qsee_nsmem.o)
 .debug_pubtypes
                0x000000000000a550      0x10d /local/mnt/workspace/CRMBuilds/TZ.BF.4.0.3.c1-00005-M8996AAAAANAZT-1_20170110_230814/b/HK11/trustzone_images/core/securemsm/trustzone/qsapps/libs/applib/qsee64/build/sampleapp/A53_64/IADAANAA/tzapp_entrylib.lib(qsee_cmac.o)
 .debug_pubtypes
                0x000000000000a65d       0x3a /local/mnt/workspace/CRMBuilds/TZ.BF.4.0.3.c1-00005-M8996AAAAANAZT-1_20170110_230814/b/HK11/trustzone_images/core/securemsm/trustzone/qsapps/libs/applib/qsee64/build/sampleapp/A53_64/IADAANAA/tzapp_entrylib.lib(qsee_crypto_shim.o)
 .debug_pubtypes
                0x000000000000a697       0x2d /local/mnt/workspace/CRMBuilds/TZ.BF.4.0.3.c1-00005-M8996AAAAANAZT-1_20170110_230814/b/HK11/trustzone_images/core/securemsm/trustzone/qsapps/libs/applib/qsee64/build/sampleapp/A53_64/IADAANAA/tzapp_entrylib.lib(qsee_timer_shim.o)
 .debug_pubtypes
                0x000000000000a6c4       0x84 /local/mnt/workspace/CRMBuilds/TZ.BF.4.0.3.c1-00005-M8996AAAAANAZT-1_20170110_230814/b/HK11/trustzone_images/core/securemsm/trustzone/qsapps/libs/applib/qsee64/build/sampleapp/A53_64/IADAANAA/tzapp_entrylib.lib(qsee_comstr.o)
 .debug_pubtypes
                0x000000000000a748      0x19a /local/mnt/workspace/CRMBuilds/TZ.BF.4.0.3.c1-00005-M8996AAAAANAZT-1_20170110_230814/b/HK11/trustzone_images/core/securemsm/trustzone/qsapps/libs/applib/qsee64/build/sampleapp/A53_64/IADAANAA/tzapp_entrylib.lib(stor.o)
 .debug_pubtypes
                0x000000000000a8e2      0x32a /local/mnt/workspace/CRMBuilds/TZ.BF.4.0.3.c1-00005-M8996AAAAANAZT-1_20170110_230814/b/HK11/trustzone_images/core/securemsm/trustzone/qsapps/libs/applib/qsee64/build/sampleapp/A53_64/IADAANAA/tzapp_entrylib.lib(stor_gpt.o)
 .debug_pubtypes
                0x000000000000ac0c      0x18e /local/mnt/workspace/CRMBuilds/TZ.BF.4.0.3.c1-00005-M8996AAAAANAZT-1_20170110_230814/b/HK11/trustzone_images/core/securemsm/trustzone/qsapps/libs/applib/qsee64/build/sampleapp/A53_64/IADAANAA/tzapp_entrylib.lib(stor_rpmbw.o)
 .debug_pubtypes
                0x000000000000ad9a       0x6e /local/mnt/workspace/CRMBuilds/TZ.BF.4.0.3.c1-00005-M8996AAAAANAZT-1_20170110_230814/b/HK11/trustzone_images/core/securemsm/trustzone/qsapps/libs/applib/qsee64/build/sampleapp/A53_64/IADAANAA/tzapp_entrylib.lib(qsee_counter_shim.o)
 .debug_pubtypes
                0x000000000000ae08      0x162 /local/mnt/workspace/CRMBuilds/TZ.BF.4.0.3.c1-00005-M8996AAAAANAZT-1_20170110_230814/b/HK11/trustzone_images/core/securemsm/trustzone/qsapps/libs/applib/qsee64/build/sampleapp/A53_64/IADAANAA/tzapp_entrylib.lib(qsee_cipher.o)
 .debug_pubtypes
                0x000000000000af6a      0x187 /local/mnt/workspace/CRMBuilds/TZ.BF.4.0.3.c1-00005-M8996AAAAANAZT-1_20170110_230814/b/HK11/trustzone_images/core/securemsm/trustzone/qsapps/libs/applib/qsee64/build/sampleapp/A53_64/IADAANAA/tzapp_entrylib.lib(qsee_hash.o)
 .debug_pubtypes
                0x000000000000b0f1      0x16d /local/mnt/workspace/CRMBuilds/TZ.BF.4.0.3.c1-00005-M8996AAAAANAZT-1_20170110_230814/b/HK11/trustzone_images/core/securemsm/trustzone/qsapps/libs/applib/qsee64/build/sampleapp/A53_64/IADAANAA/tzapp_entrylib.lib(qsee_hmac.o)
 .debug_pubtypes
                0x000000000000b25e      0x236 /local/mnt/workspace/CRMBuilds/TZ.BF.4.0.3.c1-00005-M8996AAAAANAZT-1_20170110_230814/b/HK11/trustzone_images/core/securemsm/trustzone/qsapps/libs/applib/qsee64/build/sampleapp/A53_64/IADAANAA/tzapp_entrylib.lib(qsee_i2c.o)
 .debug_pubtypes
                0x000000000000b494      0x1f1 /local/mnt/workspace/CRMBuilds/TZ.BF.4.0.3.c1-00005-M8996AAAAANAZT-1_20170110_230814/b/HK11/trustzone_images/core/securemsm/trustzone/qsapps/libs/applib/qsee64/build/sampleapp/A53_64/IADAANAA/tzapp_entrylib.lib(qsee_spi.o)
 .debug_pubtypes
                0x000000000000b685      0x185 /local/mnt/workspace/CRMBuilds/TZ.BF.4.0.3.c1-00005-M8996AAAAANAZT-1_20170110_230814/b/HK11/trustzone_images/core/securemsm/trustzone/qsapps/libs/applib/qsee64/build/sampleapp/A53_64/IADAANAA/tzapp_entrylib.lib(qsee_tlmm.o)
 .debug_pubtypes
                0x000000000000b80a       0xbd /local/mnt/workspace/CRMBuilds/TZ.BF.4.0.3.c1-00005-M8996AAAAANAZT-1_20170110_230814/b/HK11/trustzone_images/core/securemsm/trustzone/qsapps/libs/applib/qsee64/build/sampleapp/A53_64/IADAANAA/tzapp_entrylib.lib(qsee_bulletin_board_shim.o)
 .debug_pubtypes
                0x000000000000b8c7       0xd9 /local/mnt/workspace/CRMBuilds/TZ.BF.4.0.3.c1-00005-M8996AAAAANAZT-1_20170110_230814/b/HK11/trustzone_images/core/securemsm/trustzone/qsapps/libs/applib/qsee64/build/sampleapp/A53_64/IADAANAA/tzapp_entrylib.lib(qsee_dcache.o)
 .debug_pubtypes
                0x000000000000b9a0       0xe6 /local/mnt/workspace/CRMBuilds/TZ.BF.4.0.3.c1-00005-M8996AAAAANAZT-1_20170110_230814/b/HK11/trustzone_images/core/securemsm/trustzone/qsapps/libs/applib/qsee64/build/sampleapp/A53_64/IADAANAA/tzapp_entrylib.lib(qsee_shared_buffer.o)
 .debug_pubtypes
                0x000000000000ba86       0xd9 /local/mnt/workspace/CRMBuilds/TZ.BF.4.0.3.c1-00005-M8996AAAAANAZT-1_20170110_230814/b/HK11/trustzone_images/core/securemsm/trustzone/qsapps/libs/applib/qsee64/build/sampleapp/A53_64/IADAANAA/tzapp_entrylib.lib(qsee_sync.o)
 .debug_pubtypes
                0x000000000000bb5f       0xe6 /local/mnt/workspace/CRMBuilds/TZ.BF.4.0.3.c1-00005-M8996AAAAANAZT-1_20170110_230814/b/HK11/trustzone_images/core/securemsm/trustzone/qsapps/libs/applib/qsee64/build/sampleapp/A53_64/IADAANAA/tzapp_entrylib.lib(qsee_oem_buffer.o)
 .debug_pubtypes
                0x000000000000bc45       0xeb /local/mnt/workspace/CRMBuilds/TZ.BF.4.0.3.c1-00005-M8996AAAAANAZT-1_20170110_230814/b/HK11/trustzone_images/core/securemsm/trustzone/qsapps/libs/applib/qsee64/build/sampleapp/A53_64/IADAANAA/tzapp_entrylib.lib(qsee_intmask.o)
 .debug_pubtypes
                0x000000000000bd30      0x11f /local/mnt/workspace/CRMBuilds/TZ.BF.4.0.3.c1-00005-M8996AAAAANAZT-1_20170110_230814/b/HK11/trustzone_images/core/securemsm/trustzone/qsapps/libs/applib/qsee64/build/sampleapp/A53_64/IADAANAA/tzapp_entrylib.lib(qsee_trans_ns_addr.o)
 .debug_pubtypes
                0x000000000000be4f      0x100 /local/mnt/workspace/CRMBuilds/TZ.BF.4.0.3.c1-00005-M8996AAAAANAZT-1_20170110_230814/b/HK11/trustzone_images/core/securemsm/trustzone/qsapps/libs/applib/qsee64/build/sampleapp/A53_64/IADAANAA/tzapp_entrylib.lib(qsee_appmessage.o)
 .debug_pubtypes
                0x000000000000bf4f      0x12e /local/mnt/workspace/CRMBuilds/TZ.BF.4.0.3.c1-00005-M8996AAAAANAZT-1_20170110_230814/b/HK11/trustzone_images/core/securemsm/trustzone/qsapps/libs/applib/qsee64/build/sampleapp/A53_64/IADAANAA/tzapp_entrylib.lib(sfs_api.o)
 .debug_pubtypes
                0x000000000000c07d       0xe6 /local/mnt/workspace/CRMBuilds/TZ.BF.4.0.3.c1-00005-M8996AAAAANAZT-1_20170110_230814/b/HK11/trustzone_images/core/securemsm/trustzone/qsapps/libs/applib/qsee64/build/sampleapp/A53_64/IADAANAA/tzapp_entrylib.lib(tzapp_lib_main.o)
 .debug_pubtypes
                0x000000000000c163      0x211 /local/mnt/workspace/CRMBuilds/TZ.BF.4.0.3.c1-00005-M8996AAAAANAZT-1_20170110_230814/b/HK11/trustzone_images/core/securemsm/trustzone/qsapps/libs/biometric/build/sampleapp/A53_64/IADAANAA/biometric_lib.lib(biometric.o)
 .debug_pubtypes
                0x000000000000c374      0x1a4 /local/mnt/workspace/CRMBuilds/TZ.BF.4.0.3.c1-00005-M8996AAAAANAZT-1_20170110_230814/b/HK11/trustzone_images/core/securemsm/trustzone/qsapps/libs/biometric/build/sampleapp/A53_64/IADAANAA/biometric_lib.lib(biometric_serializer.o)
 .debug_pubtypes
                0x000000000000c518       0x58 /local/mnt/workspace/CRMBuilds/TZ.BF.4.0.3.c1-00005-M8996AAAAANAZT-1_20170110_230814/b/HK11/trustzone_images/core/securemsm/sse/qsee/SecureTouch/drTs/lib/build/sampleapp/A53_64/IADAANAA/touch_lib.lib(01_open.o)
 .debug_pubtypes
                0x000000000000c570       0x4b /local/mnt/workspace/CRMBuilds/TZ.BF.4.0.3.c1-00005-M8996AAAAANAZT-1_20170110_230814/b/HK11/trustzone_images/core/securemsm/sse/qsee/SecureTouch/drTs/lib/build/sampleapp/A53_64/IADAANAA/touch_lib.lib(02_close.o)
 .debug_pubtypes
                0x000000000000c5bb       0xad /local/mnt/workspace/CRMBuilds/TZ.BF.4.0.3.c1-00005-M8996AAAAANAZT-1_20170110_230814/b/HK11/trustzone_images/core/securemsm/sse/qsee/SecureTouch/drTs/lib/build/sampleapp/A53_64/IADAANAA/touch_lib.lib(03_getData.o)
 .debug_pubtypes
                0x000000000000c668      0x117 /local/mnt/workspace/CRMBuilds/TZ.BF.4.0.3.c1-00005-M8996AAAAANAZT-1_20170110_230814/b/HK11/trustzone_images/core/securemsm/trustzone/qsapps/libs/applib/common_applib/build/sampleapp/A53_64/IADAANAA/tzapp_entrylib.lib(gpPersistObjCommon.o)
 .debug_pubtypes
                0x000000000000c77f      0x153 /local/mnt/workspace/CRMBuilds/TZ.BF.4.0.3.c1-00005-M8996AAAAANAZT-1_20170110_230814/b/HK11/trustzone_images/core/securemsm/trustzone/qsapps/libs/applib/common_applib/build/sampleapp/A53_64/IADAANAA/tzapp_entrylib.lib(gpPersistentObjects.o)
 .debug_pubtypes
                0x000000000000c8d2      0x156 /local/mnt/workspace/CRMBuilds/TZ.BF.4.0.3.c1-00005-M8996AAAAANAZT-1_20170110_230814/b/HK11/trustzone_images/core/securemsm/trustzone/qsapps/libs/applib/common_applib/build/sampleapp/A53_64/IADAANAA/tzapp_entrylib.lib(gpPersistObjData.o)
 .debug_pubtypes
                0x000000000000ca28      0x114 /local/mnt/workspace/CRMBuilds/TZ.BF.4.0.3.c1-00005-M8996AAAAANAZT-1_20170110_230814/b/HK11/trustzone_images/core/securemsm/trustzone/qsapps/libs/applib/common_applib/build/sampleapp/A53_64/IADAANAA/tzapp_entrylib.lib(gpPersistObjHandler.o)
 .debug_pubtypes
                0x000000000000cb3c      0x151 /local/mnt/workspace/CRMBuilds/TZ.BF.4.0.3.c1-00005-M8996AAAAANAZT-1_20170110_230814/b/HK11/trustzone_images/core/securemsm/trustzone/qsapps/libs/applib/common_applib/build/sampleapp/A53_64/IADAANAA/tzapp_entrylib.lib(gpPersistObjIndex.o)
 .debug_pubtypes
                0x000000000000cc8d      0x139 /local/mnt/workspace/CRMBuilds/TZ.BF.4.0.3.c1-00005-M8996AAAAANAZT-1_20170110_230814/b/HK11/trustzone_images/core/securemsm/trustzone/qsapps/libs/applib/common_applib/build/sampleapp/A53_64/IADAANAA/tzapp_entrylib.lib(gpPersistObjVersion.o)
 .debug_pubtypes
                0x000000000000cdc6       0xc7 /local/mnt/workspace/CRMBuilds/TZ.BF.4.0.3.c1-00005-M8996AAAAANAZT-1_20170110_230814/b/HK11/trustzone_images/core/securemsm/trustzone/qsapps/libs/applib/common_applib/build/sampleapp/A53_64/IADAANAA/tzapp_entrylib.lib(gpPersistObjCrypto.o)
 .debug_pubtypes
                0x000000000000ce8d       0xb3 /local/mnt/workspace/CRMBuilds/TZ.BF.4.0.3.c1-00005-M8996AAAAANAZT-1_20170110_230814/b/HK11/trustzone_images/core/securemsm/trustzone/qsapps/libs/applib/common_applib/build/sampleapp/A53_64/IADAANAA/tzapp_entrylib.lib(gpPersistObjFileIO.o)
 .debug_pubtypes
                0x000000000000cf40      0x249 /local/mnt/workspace/CRMBuilds/TZ.BF.4.0.3.c1-00005-M8996AAAAANAZT-1_20170110_230814/b/HK11/trustzone_images/core/securemsm/trustzone/qsapps/libs/applib/common_applib/build/sampleapp/A53_64/IADAANAA/tzapp_entrylib.lib(gpFileService.o)
 .debug_pubtypes
                0x000000000000d189       0x81 /local/mnt/workspace/CRMBuilds/TZ.BF.4.0.3.c1-00005-M8996AAAAANAZT-1_20170110_230814/b/HK11/trustzone_images/core/securemsm/trustzone/qsapps/libs/applib/qsee64/build/sampleapp/A53_64/IADAANAA/tzapp_entrylib.lib(qsee_cfg_prop_shim.o)
 .debug_pubtypes
                0x000000000000d20a       0x3f /local/mnt/workspace/CRMBuilds/TZ.BF.4.0.3.c1-00005-M8996AAAAANAZT-1_20170110_230814/b/HK11/trustzone_images/core/securemsm/trustzone/qsapps/libs/applib/qsee64/build/sampleapp/A53_64/IADAANAA/tzapp_entrylib.lib(gpPersistObjPanic.o)
 .debug_pubtypes
                0x000000000000d249      0x14e /local/mnt/workspace/CRMBuilds/TZ.BF.4.0.3.c1-00005-M8996AAAAANAZT-1_20170110_230814/b/HK11/trustzone_images/core/securemsm/sse/SecureTouch/controller/build/sampleapp/A53_64/IADAANAA/drts_controller_msm8996.lib(atmel_mxt_ts.o)
 .debug_pubtypes
                0x000000000000d397      0x173 /local/mnt/workspace/CRMBuilds/TZ.BF.4.0.3.c1-00005-M8996AAAAANAZT-1_20170110_230814/b/HK11/trustzone_images/core/securemsm/sse/SecureTouch/controller/build/sampleapp/A53_64/IADAANAA/drts_controller_msm8996.lib(synaptics_ts.o)
 .debug_pubtypes
                0x000000000000d50a       0x4a /local/mnt/workspace/CRMBuilds/TZ.BF.4.0.3.c1-00005-M8996AAAAANAZT-1_20170110_230814/b/HK11/trustzone_images/core/securemsm/sse/log/build/sampleapp/A53_64/IADAANAA/sselog.lib(sselog.o)
 .debug_pubtypes
                0x000000000000d554      0x15b /local/mnt/workspace/CRMBuilds/TZ.BF.4.0.3.c1-00005-M8996AAAAANAZT-1_20170110_230814/b/HK11/trustzone_images/core/securemsm/sse/qsee/SecureTouch/drTs/controller/build/sampleapp/A53_64/IADAANAA/touch_controller_i2c_msm8996.lib(atmel_mxt_ts_i2c.o)
 .debug_pubtypes
                0x000000000000d6af      0x15b /local/mnt/workspace/CRMBuilds/TZ.BF.4.0.3.c1-00005-M8996AAAAANAZT-1_20170110_230814/b/HK11/trustzone_images/core/securemsm/sse/qsee/SecureTouch/drTs/controller/build/sampleapp/A53_64/IADAANAA/touch_controller_i2c_msm8996.lib(synaptics_ts_i2c.o)

.debug_str      0x0000000000000000    0x11b07
 .debug_str     0x0000000000000000      0x5c7 /local/mnt/workspace/CRMBuilds/TZ.BF.4.0.3.c1-00005-M8996AAAAANAZT-1_20170110_230814/b/HK11/trustzone_images/core/securemsm/trustzone/qsapps/smplap64/build/sampleapp/A53_64/IADAANAA/app_main.o
                                        0x64a (size before relaxing)
 .debug_str     0x00000000000005c7      0x1b2 /local/mnt/workspace/CRMBuilds/TZ.BF.4.0.3.c1-00005-M8996AAAAANAZT-1_20170110_230814/b/HK11/trustzone_images/core/securemsm/trustzone/qsapps/smplap64/build/sampleapp/A53_64/IADAANAA/app_smplserv_test.o
                                        0x2e1 (size before relaxing)
 .debug_str     0x0000000000000779       0xfe /local/mnt/workspace/CRMBuilds/TZ.BF.4.0.3.c1-00005-M8996AAAAANAZT-1_20170110_230814/b/HK11/trustzone_images/core/securemsm/trustzone/qsapps/smplap64/build/sampleapp/A53_64/IADAANAA/app_smplcert_test.o
                                        0x276 (size before relaxing)
 .debug_str     0x0000000000000877     0x24f0 /local/mnt/workspace/CRMBuilds/TZ.BF.4.0.3.c1-00005-M8996AAAAANAZT-1_20170110_230814/b/HK11/trustzone_images/core/securemsm/trustzone/qsapps/smplap64/build/sampleapp/A53_64/IADAANAA/app_crypto.o
                                       0x2d9c (size before relaxing)
 .debug_str     0x0000000000002d67      0x3bf /local/mnt/workspace/CRMBuilds/TZ.BF.4.0.3.c1-00005-M8996AAAAANAZT-1_20170110_230814/b/HK11/trustzone_images/core/securemsm/trustzone/qsapps/smplap64/build/sampleapp/A53_64/IADAANAA/app_sfs.o
                                        0xae9 (size before relaxing)
 .debug_str     0x0000000000003126      0x971 /local/mnt/workspace/CRMBuilds/TZ.BF.4.0.3.c1-00005-M8996AAAAANAZT-1_20170110_230814/b/HK11/trustzone_images/core/securemsm/trustzone/qsapps/smplap64/build/sampleapp/A53_64/IADAANAA/app_rsa.o
                                       0x10a3 (size before relaxing)
 .debug_str     0x0000000000003a97      0x8f5 /local/mnt/workspace/CRMBuilds/TZ.BF.4.0.3.c1-00005-M8996AAAAANAZT-1_20170110_230814/b/HK11/trustzone_images/core/securemsm/trustzone/qsapps/smplap64/build/sampleapp/A53_64/IADAANAA/qsee_api_tests.o
                                        0xaa2 (size before relaxing)
 .debug_str     0x000000000000438c      0x330 /local/mnt/workspace/CRMBuilds/TZ.BF.4.0.3.c1-00005-M8996AAAAANAZT-1_20170110_230814/b/HK11/trustzone_images/core/securemsm/trustzone/qsapps/smplap64/build/sampleapp/A53_64/IADAANAA/app_cmnlib.o
                                        0xabc (size before relaxing)
 .debug_str     0x00000000000046bc      0x12b /local/mnt/workspace/CRMBuilds/TZ.BF.4.0.3.c1-00005-M8996AAAAANAZT-1_20170110_230814/b/HK11/trustzone_images/core/securemsm/trustzone/qsapps/smplap64/build/sampleapp/A53_64/IADAANAA/app_message_passing.o
                                        0x1fb (size before relaxing)
 .debug_str     0x00000000000047e7      0x1b2 /local/mnt/workspace/CRMBuilds/TZ.BF.4.0.3.c1-00005-M8996AAAAANAZT-1_20170110_230814/b/HK11/trustzone_images/core/securemsm/trustzone/qsapps/smplap64/build/sampleapp/A53_64/IADAANAA/app_fuses.o
                                        0x259 (size before relaxing)
 .debug_str     0x0000000000004999      0x45f /local/mnt/workspace/CRMBuilds/TZ.BF.4.0.3.c1-00005-M8996AAAAANAZT-1_20170110_230814/b/HK11/trustzone_images/core/securemsm/trustzone/qsapps/smplap64/build/sampleapp/A53_64/IADAANAA/app_stor.o
                                        0x5a0 (size before relaxing)
 .debug_str     0x0000000000004df8      0x41a /local/mnt/workspace/CRMBuilds/TZ.BF.4.0.3.c1-00005-M8996AAAAANAZT-1_20170110_230814/b/HK11/trustzone_images/core/securemsm/trustzone/qsapps/smplap64/build/sampleapp/A53_64/IADAANAA/app_content_protection.o
                                        0x541 (size before relaxing)
 .debug_str     0x0000000000005212      0x47c /local/mnt/workspace/CRMBuilds/TZ.BF.4.0.3.c1-00005-M8996AAAAANAZT-1_20170110_230814/b/HK11/trustzone_images/core/securemsm/trustzone/qsapps/smplap64/build/sampleapp/A53_64/IADAANAA/app_secure_ui.o
                                        0x5f1 (size before relaxing)
 .debug_str     0x000000000000568e      0x590 /local/mnt/workspace/CRMBuilds/TZ.BF.4.0.3.c1-00005-M8996AAAAANAZT-1_20170110_230814/b/HK11/trustzone_images/core/securemsm/trustzone/qsapps/smplap64/build/sampleapp/A53_64/IADAANAA/app_bio_lib.o
                                        0x6f8 (size before relaxing)
 .debug_str     0x0000000000005c1e      0x30d /local/mnt/workspace/CRMBuilds/TZ.BF.4.0.3.c1-00005-M8996AAAAANAZT-1_20170110_230814/b/HK11/trustzone_images/core/securemsm/trustzone/qsapps/smplap64/build/sampleapp/A53_64/IADAANAA/app_bulletin_board.o
                                        0xa58 (size before relaxing)
 .debug_str     0x0000000000005f2b       0xf9 /local/mnt/workspace/CRMBuilds/TZ.BF.4.0.3.c1-00005-M8996AAAAANAZT-1_20170110_230814/b/HK11/trustzone_images/core/securemsm/trustzone/qsapps/smplap64/build/sampleapp/A53_64/IADAANAA/metadata.o
                                        0x1ad (size before relaxing)
 .debug_str     0x0000000000006024      0x11e /local/mnt/workspace/CRMBuilds/TZ.BF.4.0.3.c1-00005-M8996AAAAANAZT-1_20170110_230814/b/HK11/trustzone_images/core/kernel/libstd/build/sampleapp/A53_64/IADAANAA/libstd.lib(memscpy.o)
                                        0x162 (size before relaxing)
 .debug_str     0x0000000000006142       0x8d /local/mnt/workspace/CRMBuilds/TZ.BF.4.0.3.c1-00005-M8996AAAAANAZT-1_20170110_230814/b/HK11/trustzone_images/core/kernel/libstd/build/sampleapp/A53_64/IADAANAA/libstd.lib(strlcpy.o)
                                        0x155 (size before relaxing)
 .debug_str     0x00000000000061cf       0xa9 /local/mnt/workspace/CRMBuilds/TZ.BF.4.0.3.c1-00005-M8996AAAAANAZT-1_20170110_230814/b/HK11/trustzone_images/core/kernel/libstd/build/sampleapp/A53_64/IADAANAA/libstd.lib(secure_memset.o)
                                        0x17e (size before relaxing)
 .debug_str     0x0000000000006278       0xb1 /local/mnt/workspace/CRMBuilds/TZ.BF.4.0.3.c1-00005-M8996AAAAANAZT-1_20170110_230814/b/HK11/trustzone_images/core/kernel/libstd/build/sampleapp/A53_64/IADAANAA/libstd.lib(timesafe_memcmp.o)
                                        0x17f (size before relaxing)
 .debug_str     0x0000000000006329       0xa3 /local/mnt/workspace/CRMBuilds/TZ.BF.4.0.3.c1-00005-M8996AAAAANAZT-1_20170110_230814/b/HK11/trustzone_images/core/kernel/libstd/build/sampleapp/A53_64/IADAANAA/libstd.lib(timesafe_strncmp.o)
                                        0x199 (size before relaxing)
 .debug_str     0x00000000000063cc      0xc0c /local/mnt/workspace/CRMBuilds/TZ.BF.4.0.3.c1-00005-M8996AAAAANAZT-1_20170110_230814/b/HK11/trustzone_images/core/securemsm/sse/qsee/SecureUI/build/sampleapp/A53_64/IADAANAA/secure_ui.lib(SecureUI.o)
                                       0x1115 (size before relaxing)
 .debug_str     0x0000000000006fd8      0x358 /local/mnt/workspace/CRMBuilds/TZ.BF.4.0.3.c1-00005-M8996AAAAANAZT-1_20170110_230814/b/HK11/trustzone_images/core/securemsm/sse/qsee/SecureUILib/lib/build/sampleapp/A53_64/IADAANAA/secure_ui_lib.lib(SecureUILib.o)
                                        0xbf0 (size before relaxing)
 .debug_str     0x0000000000007330       0xcb /local/mnt/workspace/CRMBuilds/TZ.BF.4.0.3.c1-00005-M8996AAAAANAZT-1_20170110_230814/b/HK11/trustzone_images/core/securemsm/sse/qsee/SecureUILib/lib/build/sampleapp/A53_64/IADAANAA/secure_ui_lib.lib(01_startTouch.o)
                                        0x48f (size before relaxing)
 .debug_str     0x00000000000073fb       0xd9 /local/mnt/workspace/CRMBuilds/TZ.BF.4.0.3.c1-00005-M8996AAAAANAZT-1_20170110_230814/b/HK11/trustzone_images/core/securemsm/sse/qsee/SecureUILib/lib/build/sampleapp/A53_64/IADAANAA/secure_ui_lib.lib(02_processTouch.o)
                                        0x50b (size before relaxing)
 .debug_str     0x00000000000074d4       0xd0 /local/mnt/workspace/CRMBuilds/TZ.BF.4.0.3.c1-00005-M8996AAAAANAZT-1_20170110_230814/b/HK11/trustzone_images/core/securemsm/sse/qsee/SecureUILib/lib/build/sampleapp/A53_64/IADAANAA/secure_ui_lib.lib(03_stopTouch.o)
                                        0x4a6 (size before relaxing)
 .debug_str     0x00000000000075a4      0xba3 /local/mnt/workspace/CRMBuilds/TZ.BF.4.0.3.c1-00005-M8996AAAAANAZT-1_20170110_230814/b/HK11/trustzone_images/core/securemsm/trustzone/qsapps/libs/applib/common_applib/build/sampleapp/A53_64/IADAANAA/tzapp_entrylib.lib(common_applib.o)
                                        0xf9a (size before relaxing)
 .debug_str     0x0000000000008147     0x1b53 /local/mnt/workspace/CRMBuilds/TZ.BF.4.0.3.c1-00005-M8996AAAAANAZT-1_20170110_230814/b/HK11/trustzone_images/core/securemsm/trustzone/qsapps/libs/applib/proxy/build/sampleapp/A53_64/IADAANAA/tzlib_proxy.lib(prxy_services.o)
                                       0x2d42 (size before relaxing)
 .debug_str     0x0000000000009c9a      0x49e /local/mnt/workspace/CRMBuilds/TZ.BF.4.0.3.c1-00005-M8996AAAAANAZT-1_20170110_230814/b/HK11/trustzone_images/core/securemsm/trustzone/qsapps/libs/applib/proxy/build/sampleapp/A53_64/IADAANAA/tzlib_proxy.lib(prxy_qsee_shim.o)
                                       0x15e6 (size before relaxing)
 .debug_str     0x000000000000a138      0x178 /local/mnt/workspace/CRMBuilds/TZ.BF.4.0.3.c1-00005-M8996AAAAANAZT-1_20170110_230814/b/HK11/trustzone_images/core/securemsm/trustzone/qsapps/libs/applib/proxy/build/sampleapp/A53_64/IADAANAA/tzlib_proxy.lib(prxy_ufaes.o)
                                       0x2b90 (size before relaxing)
 .debug_str     0x000000000000a2b0       0xab /local/mnt/workspace/CRMBuilds/TZ.BF.4.0.3.c1-00005-M8996AAAAANAZT-1_20170110_230814/b/HK11/trustzone_images/core/securemsm/trustzone/qsapps/libs/applib/proxy/build/sampleapp/A53_64/IADAANAA/tzlib_proxy.lib(prxy_ufdes.o)
                                       0x2b13 (size before relaxing)
 .debug_str     0x000000000000a35b      0x115 /local/mnt/workspace/CRMBuilds/TZ.BF.4.0.3.c1-00005-M8996AAAAANAZT-1_20170110_230814/b/HK11/trustzone_images/core/securemsm/trustzone/qsapps/libs/applib/proxy/build/sampleapp/A53_64/IADAANAA/tzlib_proxy.lib(prxy_ufsha.o)
                                       0x2b1d (size before relaxing)
 .debug_str     0x000000000000a470       0xad /local/mnt/workspace/CRMBuilds/TZ.BF.4.0.3.c1-00005-M8996AAAAANAZT-1_20170110_230814/b/HK11/trustzone_images/core/securemsm/trustzone/qsapps/libs/applib/proxy/build/sampleapp/A53_64/IADAANAA/tzlib_proxy.lib(prxy_secmath.o)
                                       0x2add (size before relaxing)
 .debug_str     0x000000000000a51d       0xac /local/mnt/workspace/CRMBuilds/TZ.BF.4.0.3.c1-00005-M8996AAAAANAZT-1_20170110_230814/b/HK11/trustzone_images/core/securemsm/trustzone/qsapps/libs/applib/proxy/build/sampleapp/A53_64/IADAANAA/tzlib_proxy.lib(prxy_secrsa.o)
                                       0x2cfa (size before relaxing)
 .debug_str     0x000000000000a5c9       0xa9 /local/mnt/workspace/CRMBuilds/TZ.BF.4.0.3.c1-00005-M8996AAAAANAZT-1_20170110_230814/b/HK11/trustzone_images/core/securemsm/trustzone/qsapps/libs/applib/proxy/build/sampleapp/A53_64/IADAANAA/tzlib_proxy.lib(prxy_ecc.o)
                                       0x2c99 (size before relaxing)
 .debug_str     0x000000000000a672      0x169 /local/mnt/workspace/CRMBuilds/TZ.BF.4.0.3.c1-00005-M8996AAAAANAZT-1_20170110_230814/b/HK11/trustzone_images/core/securemsm/trustzone/qsapps/libs/applib/qsee64/build/sampleapp/A53_64/IADAANAA/tzapp_entrylib.lib(mink_shared_code.o)
                                        0x30c (size before relaxing)
 .debug_str     0x000000000000a7db      0x1f6 /local/mnt/workspace/CRMBuilds/TZ.BF.4.0.3.c1-00005-M8996AAAAANAZT-1_20170110_230814/b/HK11/trustzone_images/core/securemsm/trustzone/qsapps/libs/applib/qsee64/build/sampleapp/A53_64/IADAANAA/tzapp_entrylib.lib(qsee_env.o)
                                        0x3f0 (size before relaxing)
 .debug_str     0x000000000000a9d1      0x651 /local/mnt/workspace/CRMBuilds/TZ.BF.4.0.3.c1-00005-M8996AAAAANAZT-1_20170110_230814/b/HK11/trustzone_images/core/securemsm/trustzone/qsapps/libs/applib/qsee64/build/sampleapp/A53_64/IADAANAA/tzapp_entrylib.lib(qsee_core_shim.o)
                                        0x87a (size before relaxing)
 .debug_str     0x000000000000b022      0x180 /local/mnt/workspace/CRMBuilds/TZ.BF.4.0.3.c1-00005-M8996AAAAANAZT-1_20170110_230814/b/HK11/trustzone_images/core/securemsm/trustzone/qsapps/libs/applib/qsee64/build/sampleapp/A53_64/IADAANAA/tzapp_entrylib.lib(qsee_deviceid.o)
                                        0x322 (size before relaxing)
 .debug_str     0x000000000000b1a2       0xdf /local/mnt/workspace/CRMBuilds/TZ.BF.4.0.3.c1-00005-M8996AAAAANAZT-1_20170110_230814/b/HK11/trustzone_images/core/securemsm/trustzone/qsapps/libs/applib/qsee64/build/sampleapp/A53_64/IADAANAA/tzapp_entrylib.lib(qsee_prng.o)
                                        0x28b (size before relaxing)
 .debug_str     0x000000000000b281      0x154 /local/mnt/workspace/CRMBuilds/TZ.BF.4.0.3.c1-00005-M8996AAAAANAZT-1_20170110_230814/b/HK11/trustzone_images/core/securemsm/trustzone/qsapps/libs/applib/qsee64/build/sampleapp/A53_64/IADAANAA/tzapp_entrylib.lib(qsee_secdisp.o)
                                        0x2c7 (size before relaxing)
 .debug_str     0x000000000000b3d5      0x184 /local/mnt/workspace/CRMBuilds/TZ.BF.4.0.3.c1-00005-M8996AAAAANAZT-1_20170110_230814/b/HK11/trustzone_images/core/securemsm/trustzone/qsapps/libs/applib/qsee64/build/sampleapp/A53_64/IADAANAA/tzapp_entrylib.lib(qsee_nsmem.o)
                                        0x32b (size before relaxing)
 .debug_str     0x000000000000b559      0x124 /local/mnt/workspace/CRMBuilds/TZ.BF.4.0.3.c1-00005-M8996AAAAANAZT-1_20170110_230814/b/HK11/trustzone_images/core/securemsm/trustzone/qsapps/libs/applib/qsee64/build/sampleapp/A53_64/IADAANAA/tzapp_entrylib.lib(qsee_cmac.o)
                                        0x33a (size before relaxing)
 .debug_str     0x000000000000b67d       0xfa /local/mnt/workspace/CRMBuilds/TZ.BF.4.0.3.c1-00005-M8996AAAAANAZT-1_20170110_230814/b/HK11/trustzone_images/core/securemsm/trustzone/qsapps/libs/applib/qsee64/build/sampleapp/A53_64/IADAANAA/tzapp_entrylib.lib(qsee_crypto_shim.o)
                                        0x1bb (size before relaxing)
 .debug_str     0x000000000000b777       0xdc /local/mnt/workspace/CRMBuilds/TZ.BF.4.0.3.c1-00005-M8996AAAAANAZT-1_20170110_230814/b/HK11/trustzone_images/core/securemsm/trustzone/qsapps/libs/applib/qsee64/build/sampleapp/A53_64/IADAANAA/tzapp_entrylib.lib(qsee_timer_shim.o)
                                        0x187 (size before relaxing)
 .debug_str     0x000000000000b853      0x1a1 /local/mnt/workspace/CRMBuilds/TZ.BF.4.0.3.c1-00005-M8996AAAAANAZT-1_20170110_230814/b/HK11/trustzone_images/core/securemsm/trustzone/qsapps/libs/applib/qsee64/build/sampleapp/A53_64/IADAANAA/tzapp_entrylib.lib(qsee_comstr.o)
                                        0x2b5 (size before relaxing)
 .debug_str     0x000000000000b9f4      0x29d /local/mnt/workspace/CRMBuilds/TZ.BF.4.0.3.c1-00005-M8996AAAAANAZT-1_20170110_230814/b/HK11/trustzone_images/core/securemsm/trustzone/qsapps/libs/applib/qsee64/build/sampleapp/A53_64/IADAANAA/tzapp_entrylib.lib(stor.o)
                                        0x5aa (size before relaxing)
 .debug_str     0x000000000000bc91      0x4ca /local/mnt/workspace/CRMBuilds/TZ.BF.4.0.3.c1-00005-M8996AAAAANAZT-1_20170110_230814/b/HK11/trustzone_images/core/securemsm/trustzone/qsapps/libs/applib/qsee64/build/sampleapp/A53_64/IADAANAA/tzapp_entrylib.lib(stor_gpt.o)
                                        0x86b (size before relaxing)
 .debug_str     0x000000000000c15b      0x170 /local/mnt/workspace/CRMBuilds/TZ.BF.4.0.3.c1-00005-M8996AAAAANAZT-1_20170110_230814/b/HK11/trustzone_images/core/securemsm/trustzone/qsapps/libs/applib/qsee64/build/sampleapp/A53_64/IADAANAA/tzapp_entrylib.lib(stor_rpmbw.o)
                                        0x4fa (size before relaxing)
 .debug_str     0x000000000000c2cb      0x175 /local/mnt/workspace/CRMBuilds/TZ.BF.4.0.3.c1-00005-M8996AAAAANAZT-1_20170110_230814/b/HK11/trustzone_images/core/securemsm/trustzone/qsapps/libs/applib/qsee64/build/sampleapp/A53_64/IADAANAA/tzapp_entrylib.lib(qsee_counter_shim.o)
                                        0x257 (size before relaxing)
 .debug_str     0x000000000000c440      0x366 /local/mnt/workspace/CRMBuilds/TZ.BF.4.0.3.c1-00005-M8996AAAAANAZT-1_20170110_230814/b/HK11/trustzone_images/core/securemsm/trustzone/qsapps/libs/applib/qsee64/build/sampleapp/A53_64/IADAANAA/tzapp_entrylib.lib(qsee_cipher.o)
                                        0x6f4 (size before relaxing)
 .debug_str     0x000000000000c7a6      0x254 /local/mnt/workspace/CRMBuilds/TZ.BF.4.0.3.c1-00005-M8996AAAAANAZT-1_20170110_230814/b/HK11/trustzone_images/core/securemsm/trustzone/qsapps/libs/applib/qsee64/build/sampleapp/A53_64/IADAANAA/tzapp_entrylib.lib(qsee_hash.o)
                                        0x62e (size before relaxing)
 .debug_str     0x000000000000c9fa      0x218 /local/mnt/workspace/CRMBuilds/TZ.BF.4.0.3.c1-00005-M8996AAAAANAZT-1_20170110_230814/b/HK11/trustzone_images/core/securemsm/trustzone/qsapps/libs/applib/qsee64/build/sampleapp/A53_64/IADAANAA/tzapp_entrylib.lib(qsee_hmac.o)
                                        0x4b8 (size before relaxing)
 .debug_str     0x000000000000cc12      0x71f /local/mnt/workspace/CRMBuilds/TZ.BF.4.0.3.c1-00005-M8996AAAAANAZT-1_20170110_230814/b/HK11/trustzone_images/core/securemsm/trustzone/qsapps/libs/applib/qsee64/build/sampleapp/A53_64/IADAANAA/tzapp_entrylib.lib(qsee_i2c.o)
                                        0xa41 (size before relaxing)
 .debug_str     0x000000000000d331      0x385 /local/mnt/workspace/CRMBuilds/TZ.BF.4.0.3.c1-00005-M8996AAAAANAZT-1_20170110_230814/b/HK11/trustzone_images/core/securemsm/trustzone/qsapps/libs/applib/qsee64/build/sampleapp/A53_64/IADAANAA/tzapp_entrylib.lib(qsee_spi.o)
                                        0x807 (size before relaxing)
 .debug_str     0x000000000000d6b6      0x355 /local/mnt/workspace/CRMBuilds/TZ.BF.4.0.3.c1-00005-M8996AAAAANAZT-1_20170110_230814/b/HK11/trustzone_images/core/securemsm/trustzone/qsapps/libs/applib/qsee64/build/sampleapp/A53_64/IADAANAA/tzapp_entrylib.lib(qsee_tlmm.o)
                                        0x690 (size before relaxing)
 .debug_str     0x000000000000da0b       0xf2 /local/mnt/workspace/CRMBuilds/TZ.BF.4.0.3.c1-00005-M8996AAAAANAZT-1_20170110_230814/b/HK11/trustzone_images/core/securemsm/trustzone/qsapps/libs/applib/qsee64/build/sampleapp/A53_64/IADAANAA/tzapp_entrylib.lib(qsee_bulletin_board_shim.o)
                                        0x23b (size before relaxing)
 .debug_str     0x000000000000dafd      0x181 /local/mnt/workspace/CRMBuilds/TZ.BF.4.0.3.c1-00005-M8996AAAAANAZT-1_20170110_230814/b/HK11/trustzone_images/core/securemsm/trustzone/qsapps/libs/applib/qsee64/build/sampleapp/A53_64/IADAANAA/tzapp_entrylib.lib(qsee_dcache.o)
                                        0x2fe (size before relaxing)
 .debug_str     0x000000000000dc7e      0x156 /local/mnt/workspace/CRMBuilds/TZ.BF.4.0.3.c1-00005-M8996AAAAANAZT-1_20170110_230814/b/HK11/trustzone_images/core/securemsm/trustzone/qsapps/libs/applib/qsee64/build/sampleapp/A53_64/IADAANAA/tzapp_entrylib.lib(qsee_shared_buffer.o)
                                        0x302 (size before relaxing)
 .debug_str     0x000000000000ddd4       0xd7 /local/mnt/workspace/CRMBuilds/TZ.BF.4.0.3.c1-00005-M8996AAAAANAZT-1_20170110_230814/b/HK11/trustzone_images/core/securemsm/trustzone/qsapps/libs/applib/qsee64/build/sampleapp/A53_64/IADAANAA/tzapp_entrylib.lib(qsee_sync.o)
                                        0x256 (size before relaxing)
 .debug_str     0x000000000000deab      0x155 /local/mnt/workspace/CRMBuilds/TZ.BF.4.0.3.c1-00005-M8996AAAAANAZT-1_20170110_230814/b/HK11/trustzone_images/core/securemsm/trustzone/qsapps/libs/applib/qsee64/build/sampleapp/A53_64/IADAANAA/tzapp_entrylib.lib(qsee_oem_buffer.o)
                                        0x319 (size before relaxing)
 .debug_str     0x000000000000e000      0x181 /local/mnt/workspace/CRMBuilds/TZ.BF.4.0.3.c1-00005-M8996AAAAANAZT-1_20170110_230814/b/HK11/trustzone_images/core/securemsm/trustzone/qsapps/libs/applib/qsee64/build/sampleapp/A53_64/IADAANAA/tzapp_entrylib.lib(qsee_intmask.o)
                                        0x34e (size before relaxing)
 .debug_str     0x000000000000e181      0x141 /local/mnt/workspace/CRMBuilds/TZ.BF.4.0.3.c1-00005-M8996AAAAANAZT-1_20170110_230814/b/HK11/trustzone_images/core/securemsm/trustzone/qsapps/libs/applib/qsee64/build/sampleapp/A53_64/IADAANAA/tzapp_entrylib.lib(qsee_trans_ns_addr.o)
                                        0x34a (size before relaxing)
 .debug_str     0x000000000000e2c2      0x2f8 /local/mnt/workspace/CRMBuilds/TZ.BF.4.0.3.c1-00005-M8996AAAAANAZT-1_20170110_230814/b/HK11/trustzone_images/core/securemsm/trustzone/qsapps/libs/applib/qsee64/build/sampleapp/A53_64/IADAANAA/tzapp_entrylib.lib(qsee_appmessage.o)
                                        0x4a3 (size before relaxing)
 .debug_str     0x000000000000e5ba      0x322 /local/mnt/workspace/CRMBuilds/TZ.BF.4.0.3.c1-00005-M8996AAAAANAZT-1_20170110_230814/b/HK11/trustzone_images/core/securemsm/trustzone/qsapps/libs/applib/qsee64/build/sampleapp/A53_64/IADAANAA/tzapp_entrylib.lib(sfs_api.o)
                                        0xb8f (size before relaxing)
 .debug_str     0x000000000000e8dc      0x306 /local/mnt/workspace/CRMBuilds/TZ.BF.4.0.3.c1-00005-M8996AAAAANAZT-1_20170110_230814/b/HK11/trustzone_images/core/securemsm/trustzone/qsapps/libs/applib/qsee64/build/sampleapp/A53_64/IADAANAA/tzapp_entrylib.lib(tzapp_lib_main.o)
                                        0x46d (size before relaxing)
 .debug_str     0x000000000000ebe2      0x259 /local/mnt/workspace/CRMBuilds/TZ.BF.4.0.3.c1-00005-M8996AAAAANAZT-1_20170110_230814/b/HK11/trustzone_images/core/securemsm/trustzone/qsapps/libs/biometric/build/sampleapp/A53_64/IADAANAA/biometric_lib.lib(biometric.o)
                                        0xbc0 (size before relaxing)
 .debug_str     0x000000000000ee3b      0x467 /local/mnt/workspace/CRMBuilds/TZ.BF.4.0.3.c1-00005-M8996AAAAANAZT-1_20170110_230814/b/HK11/trustzone_images/core/securemsm/trustzone/qsapps/libs/biometric/build/sampleapp/A53_64/IADAANAA/biometric_lib.lib(biometric_serializer.o)
                                        0x783 (size before relaxing)
 .debug_str     0x000000000000f2a2       0xd3 /local/mnt/workspace/CRMBuilds/TZ.BF.4.0.3.c1-00005-M8996AAAAANAZT-1_20170110_230814/b/HK11/trustzone_images/core/securemsm/sse/qsee/SecureTouch/drTs/lib/build/sampleapp/A53_64/IADAANAA/touch_lib.lib(01_open.o)
                                        0x1d8 (size before relaxing)
 .debug_str     0x000000000000f375       0xb4 /local/mnt/workspace/CRMBuilds/TZ.BF.4.0.3.c1-00005-M8996AAAAANAZT-1_20170110_230814/b/HK11/trustzone_images/core/securemsm/sse/qsee/SecureTouch/drTs/lib/build/sampleapp/A53_64/IADAANAA/touch_lib.lib(02_close.o)
                                        0x187 (size before relaxing)
 .debug_str     0x000000000000f429       0xd9 /local/mnt/workspace/CRMBuilds/TZ.BF.4.0.3.c1-00005-M8996AAAAANAZT-1_20170110_230814/b/HK11/trustzone_images/core/securemsm/sse/qsee/SecureTouch/drTs/lib/build/sampleapp/A53_64/IADAANAA/touch_lib.lib(03_getData.o)
                                        0x22a (size before relaxing)
 .debug_str     0x000000000000f502      0x2f7 /local/mnt/workspace/CRMBuilds/TZ.BF.4.0.3.c1-00005-M8996AAAAANAZT-1_20170110_230814/b/HK11/trustzone_images/core/securemsm/trustzone/qsapps/libs/applib/common_applib/build/sampleapp/A53_64/IADAANAA/tzapp_entrylib.lib(gpPersistObjCommon.o)
                                        0x534 (size before relaxing)
 .debug_str     0x000000000000f7f9      0x298 /local/mnt/workspace/CRMBuilds/TZ.BF.4.0.3.c1-00005-M8996AAAAANAZT-1_20170110_230814/b/HK11/trustzone_images/core/securemsm/trustzone/qsapps/libs/applib/common_applib/build/sampleapp/A53_64/IADAANAA/tzapp_entrylib.lib(gpPersistentObjects.o)
                                        0x5e5 (size before relaxing)
 .debug_str     0x000000000000fa91      0x424 /local/mnt/workspace/CRMBuilds/TZ.BF.4.0.3.c1-00005-M8996AAAAANAZT-1_20170110_230814/b/HK11/trustzone_images/core/securemsm/trustzone/qsapps/libs/applib/common_applib/build/sampleapp/A53_64/IADAANAA/tzapp_entrylib.lib(gpPersistObjData.o)
                                        0x73f (size before relaxing)
 .debug_str     0x000000000000feb5      0x206 /local/mnt/workspace/CRMBuilds/TZ.BF.4.0.3.c1-00005-M8996AAAAANAZT-1_20170110_230814/b/HK11/trustzone_images/core/securemsm/trustzone/qsapps/libs/applib/common_applib/build/sampleapp/A53_64/IADAANAA/tzapp_entrylib.lib(gpPersistObjHandler.o)
                                        0x4ac (size before relaxing)
 .debug_str     0x00000000000100bb      0x2c3 /local/mnt/workspace/CRMBuilds/TZ.BF.4.0.3.c1-00005-M8996AAAAANAZT-1_20170110_230814/b/HK11/trustzone_images/core/securemsm/trustzone/qsapps/libs/applib/common_applib/build/sampleapp/A53_64/IADAANAA/tzapp_entrylib.lib(gpPersistObjIndex.o)
                                        0x5fd (size before relaxing)
 .debug_str     0x000000000001037e      0x34f /local/mnt/workspace/CRMBuilds/TZ.BF.4.0.3.c1-00005-M8996AAAAANAZT-1_20170110_230814/b/HK11/trustzone_images/core/securemsm/trustzone/qsapps/libs/applib/common_applib/build/sampleapp/A53_64/IADAANAA/tzapp_entrylib.lib(gpPersistObjVersion.o)
                                        0x6df (size before relaxing)
 .debug_str     0x00000000000106cd      0x1f9 /local/mnt/workspace/CRMBuilds/TZ.BF.4.0.3.c1-00005-M8996AAAAANAZT-1_20170110_230814/b/HK11/trustzone_images/core/securemsm/trustzone/qsapps/libs/applib/common_applib/build/sampleapp/A53_64/IADAANAA/tzapp_entrylib.lib(gpPersistObjCrypto.o)
                                        0x639 (size before relaxing)
 .debug_str     0x00000000000108c6      0x15a /local/mnt/workspace/CRMBuilds/TZ.BF.4.0.3.c1-00005-M8996AAAAANAZT-1_20170110_230814/b/HK11/trustzone_images/core/securemsm/trustzone/qsapps/libs/applib/common_applib/build/sampleapp/A53_64/IADAANAA/tzapp_entrylib.lib(gpPersistObjFileIO.o)
                                        0x2fa (size before relaxing)
 .debug_str     0x0000000000010a20      0x314 /local/mnt/workspace/CRMBuilds/TZ.BF.4.0.3.c1-00005-M8996AAAAANAZT-1_20170110_230814/b/HK11/trustzone_images/core/securemsm/trustzone/qsapps/libs/applib/common_applib/build/sampleapp/A53_64/IADAANAA/tzapp_entrylib.lib(gpFileService.o)
                                        0x458 (size before relaxing)
 .debug_str     0x0000000000010d34      0x11c /local/mnt/workspace/CRMBuilds/TZ.BF.4.0.3.c1-00005-M8996AAAAANAZT-1_20170110_230814/b/HK11/trustzone_images/core/securemsm/trustzone/qsapps/libs/applib/qsee64/build/sampleapp/A53_64/IADAANAA/tzapp_entrylib.lib(qsee_cfg_prop_shim.o)
                                        0x2c7 (size before relaxing)
 .debug_str     0x0000000000010e50       0xdf /local/mnt/workspace/CRMBuilds/TZ.BF.4.0.3.c1-00005-M8996AAAAANAZT-1_20170110_230814/b/HK11/trustzone_images/core/securemsm/trustzone/qsapps/libs/applib/qsee64/build/sampleapp/A53_64/IADAANAA/tzapp_entrylib.lib(gpPersistObjPanic.o)
                                        0x19b (size before relaxing)
 .debug_str     0x0000000000010f2f      0x342 /local/mnt/workspace/CRMBuilds/TZ.BF.4.0.3.c1-00005-M8996AAAAANAZT-1_20170110_230814/b/HK11/trustzone_images/core/securemsm/sse/SecureTouch/controller/build/sampleapp/A53_64/IADAANAA/drts_controller_msm8996.lib(atmel_mxt_ts.o)
                                        0x587 (size before relaxing)
 .debug_str     0x0000000000011271      0x5d9 /local/mnt/workspace/CRMBuilds/TZ.BF.4.0.3.c1-00005-M8996AAAAANAZT-1_20170110_230814/b/HK11/trustzone_images/core/securemsm/sse/SecureTouch/controller/build/sampleapp/A53_64/IADAANAA/drts_controller_msm8996.lib(synaptics_ts.o)
                                        0x7ab (size before relaxing)
 .debug_str     0x000000000001184a       0x94 /local/mnt/workspace/CRMBuilds/TZ.BF.4.0.3.c1-00005-M8996AAAAANAZT-1_20170110_230814/b/HK11/trustzone_images/core/securemsm/sse/log/build/sampleapp/A53_64/IADAANAA/sselog.lib(sselog.o)
                                        0x173 (size before relaxing)
 .debug_str     0x00000000000118de      0x117 /local/mnt/workspace/CRMBuilds/TZ.BF.4.0.3.c1-00005-M8996AAAAANAZT-1_20170110_230814/b/HK11/trustzone_images/core/securemsm/sse/qsee/SecureTouch/drTs/controller/build/sampleapp/A53_64/IADAANAA/touch_controller_i2c_msm8996.lib(atmel_mxt_ts_i2c.o)
                                        0xcac (size before relaxing)
 .debug_str     0x00000000000119f5      0x112 /local/mnt/workspace/CRMBuilds/TZ.BF.4.0.3.c1-00005-M8996AAAAANAZT-1_20170110_230814/b/HK11/trustzone_images/core/securemsm/sse/qsee/SecureTouch/drTs/controller/build/sampleapp/A53_64/IADAANAA/touch_controller_i2c_msm8996.lib(synaptics_ts_i2c.o)
                                        0xcd8 (size before relaxing)

.debug_loc      0x0000000000000000    0x2d2ff
 .debug_loc     0x0000000000000000     0x10d3 /local/mnt/workspace/CRMBuilds/TZ.BF.4.0.3.c1-00005-M8996AAAAANAZT-1_20170110_230814/b/HK11/trustzone_images/core/securemsm/trustzone/qsapps/smplap64/build/sampleapp/A53_64/IADAANAA/app_main.o
 .debug_loc     0x00000000000010d3      0x19d /local/mnt/workspace/CRMBuilds/TZ.BF.4.0.3.c1-00005-M8996AAAAANAZT-1_20170110_230814/b/HK11/trustzone_images/core/securemsm/trustzone/qsapps/smplap64/build/sampleapp/A53_64/IADAANAA/app_smplserv_test.o
 .debug_loc     0x0000000000001270       0x5a /local/mnt/workspace/CRMBuilds/TZ.BF.4.0.3.c1-00005-M8996AAAAANAZT-1_20170110_230814/b/HK11/trustzone_images/core/securemsm/trustzone/qsapps/smplap64/build/sampleapp/A53_64/IADAANAA/app_smplcert_test.o
 .debug_loc     0x00000000000012ca     0xafa1 /local/mnt/workspace/CRMBuilds/TZ.BF.4.0.3.c1-00005-M8996AAAAANAZT-1_20170110_230814/b/HK11/trustzone_images/core/securemsm/trustzone/qsapps/smplap64/build/sampleapp/A53_64/IADAANAA/app_crypto.o
 .debug_loc     0x000000000000c26b     0x3789 /local/mnt/workspace/CRMBuilds/TZ.BF.4.0.3.c1-00005-M8996AAAAANAZT-1_20170110_230814/b/HK11/trustzone_images/core/securemsm/trustzone/qsapps/smplap64/build/sampleapp/A53_64/IADAANAA/app_sfs.o
 .debug_loc     0x000000000000f9f4      0xe8c /local/mnt/workspace/CRMBuilds/TZ.BF.4.0.3.c1-00005-M8996AAAAANAZT-1_20170110_230814/b/HK11/trustzone_images/core/securemsm/trustzone/qsapps/smplap64/build/sampleapp/A53_64/IADAANAA/app_rsa.o
 .debug_loc     0x0000000000010880      0xb36 /local/mnt/workspace/CRMBuilds/TZ.BF.4.0.3.c1-00005-M8996AAAAANAZT-1_20170110_230814/b/HK11/trustzone_images/core/securemsm/trustzone/qsapps/smplap64/build/sampleapp/A53_64/IADAANAA/qsee_api_tests.o
 .debug_loc     0x00000000000113b6      0x20f /local/mnt/workspace/CRMBuilds/TZ.BF.4.0.3.c1-00005-M8996AAAAANAZT-1_20170110_230814/b/HK11/trustzone_images/core/securemsm/trustzone/qsapps/smplap64/build/sampleapp/A53_64/IADAANAA/app_cmnlib.o
 .debug_loc     0x00000000000115c5      0x174 /local/mnt/workspace/CRMBuilds/TZ.BF.4.0.3.c1-00005-M8996AAAAANAZT-1_20170110_230814/b/HK11/trustzone_images/core/securemsm/trustzone/qsapps/smplap64/build/sampleapp/A53_64/IADAANAA/app_message_passing.o
 .debug_loc     0x0000000000011739       0x81 /local/mnt/workspace/CRMBuilds/TZ.BF.4.0.3.c1-00005-M8996AAAAANAZT-1_20170110_230814/b/HK11/trustzone_images/core/securemsm/trustzone/qsapps/smplap64/build/sampleapp/A53_64/IADAANAA/app_fuses.o
 .debug_loc     0x00000000000117ba     0x101e /local/mnt/workspace/CRMBuilds/TZ.BF.4.0.3.c1-00005-M8996AAAAANAZT-1_20170110_230814/b/HK11/trustzone_images/core/securemsm/trustzone/qsapps/smplap64/build/sampleapp/A53_64/IADAANAA/app_stor.o
 .debug_loc     0x00000000000127d8      0x943 /local/mnt/workspace/CRMBuilds/TZ.BF.4.0.3.c1-00005-M8996AAAAANAZT-1_20170110_230814/b/HK11/trustzone_images/core/securemsm/trustzone/qsapps/smplap64/build/sampleapp/A53_64/IADAANAA/app_content_protection.o
 .debug_loc     0x000000000001311b      0x723 /local/mnt/workspace/CRMBuilds/TZ.BF.4.0.3.c1-00005-M8996AAAAANAZT-1_20170110_230814/b/HK11/trustzone_images/core/securemsm/trustzone/qsapps/smplap64/build/sampleapp/A53_64/IADAANAA/app_secure_ui.o
 .debug_loc     0x000000000001383e      0x799 /local/mnt/workspace/CRMBuilds/TZ.BF.4.0.3.c1-00005-M8996AAAAANAZT-1_20170110_230814/b/HK11/trustzone_images/core/securemsm/trustzone/qsapps/smplap64/build/sampleapp/A53_64/IADAANAA/app_bio_lib.o
 .debug_loc     0x0000000000013fd7      0x3fd /local/mnt/workspace/CRMBuilds/TZ.BF.4.0.3.c1-00005-M8996AAAAANAZT-1_20170110_230814/b/HK11/trustzone_images/core/securemsm/trustzone/qsapps/smplap64/build/sampleapp/A53_64/IADAANAA/app_bulletin_board.o
 .debug_loc     0x00000000000143d4        0x0 /local/mnt/workspace/CRMBuilds/TZ.BF.4.0.3.c1-00005-M8996AAAAANAZT-1_20170110_230814/b/HK11/trustzone_images/core/securemsm/trustzone/qsapps/smplap64/build/sampleapp/A53_64/IADAANAA/metadata.o
 .debug_loc     0x00000000000143d4       0x7c /local/mnt/workspace/CRMBuilds/TZ.BF.4.0.3.c1-00005-M8996AAAAANAZT-1_20170110_230814/b/HK11/trustzone_images/core/kernel/libstd/build/sampleapp/A53_64/IADAANAA/libstd.lib(memscpy.o)
 .debug_loc     0x0000000000014450       0x9f /local/mnt/workspace/CRMBuilds/TZ.BF.4.0.3.c1-00005-M8996AAAAANAZT-1_20170110_230814/b/HK11/trustzone_images/core/kernel/libstd/build/sampleapp/A53_64/IADAANAA/libstd.lib(strlcpy.o)
 .debug_loc     0x00000000000144ef       0x8f /local/mnt/workspace/CRMBuilds/TZ.BF.4.0.3.c1-00005-M8996AAAAANAZT-1_20170110_230814/b/HK11/trustzone_images/core/kernel/libstd/build/sampleapp/A53_64/IADAANAA/libstd.lib(secure_memset.o)
 .debug_loc     0x000000000001457e       0xc2 /local/mnt/workspace/CRMBuilds/TZ.BF.4.0.3.c1-00005-M8996AAAAANAZT-1_20170110_230814/b/HK11/trustzone_images/core/kernel/libstd/build/sampleapp/A53_64/IADAANAA/libstd.lib(timesafe_memcmp.o)
 .debug_loc     0x0000000000014640       0xc2 /local/mnt/workspace/CRMBuilds/TZ.BF.4.0.3.c1-00005-M8996AAAAANAZT-1_20170110_230814/b/HK11/trustzone_images/core/kernel/libstd/build/sampleapp/A53_64/IADAANAA/libstd.lib(timesafe_strncmp.o)
 .debug_loc     0x0000000000014702     0x23d4 /local/mnt/workspace/CRMBuilds/TZ.BF.4.0.3.c1-00005-M8996AAAAANAZT-1_20170110_230814/b/HK11/trustzone_images/core/securemsm/sse/qsee/SecureUI/build/sampleapp/A53_64/IADAANAA/secure_ui.lib(SecureUI.o)
 .debug_loc     0x0000000000016ad6      0x2c2 /local/mnt/workspace/CRMBuilds/TZ.BF.4.0.3.c1-00005-M8996AAAAANAZT-1_20170110_230814/b/HK11/trustzone_images/core/securemsm/sse/qsee/SecureUILib/lib/build/sampleapp/A53_64/IADAANAA/secure_ui_lib.lib(SecureUILib.o)
 .debug_loc     0x0000000000016d98      0x1c6 /local/mnt/workspace/CRMBuilds/TZ.BF.4.0.3.c1-00005-M8996AAAAANAZT-1_20170110_230814/b/HK11/trustzone_images/core/securemsm/sse/qsee/SecureUILib/lib/build/sampleapp/A53_64/IADAANAA/secure_ui_lib.lib(01_startTouch.o)
 .debug_loc     0x0000000000016f5e      0x292 /local/mnt/workspace/CRMBuilds/TZ.BF.4.0.3.c1-00005-M8996AAAAANAZT-1_20170110_230814/b/HK11/trustzone_images/core/securemsm/sse/qsee/SecureUILib/lib/build/sampleapp/A53_64/IADAANAA/secure_ui_lib.lib(02_processTouch.o)
 .debug_loc     0x00000000000171f0      0x14f /local/mnt/workspace/CRMBuilds/TZ.BF.4.0.3.c1-00005-M8996AAAAANAZT-1_20170110_230814/b/HK11/trustzone_images/core/securemsm/sse/qsee/SecureUILib/lib/build/sampleapp/A53_64/IADAANAA/secure_ui_lib.lib(03_stopTouch.o)
 .debug_loc     0x000000000001733f      0x964 /local/mnt/workspace/CRMBuilds/TZ.BF.4.0.3.c1-00005-M8996AAAAANAZT-1_20170110_230814/b/HK11/trustzone_images/core/securemsm/trustzone/qsapps/libs/applib/common_applib/build/sampleapp/A53_64/IADAANAA/tzapp_entrylib.lib(common_applib.o)
 .debug_loc     0x0000000000017ca3      0x40a /local/mnt/workspace/CRMBuilds/TZ.BF.4.0.3.c1-00005-M8996AAAAANAZT-1_20170110_230814/b/HK11/trustzone_images/core/securemsm/trustzone/qsapps/libs/applib/proxy/build/sampleapp/A53_64/IADAANAA/tzlib_proxy.lib(prxy_services.o)
 .debug_loc     0x00000000000180ad      0x65e /local/mnt/workspace/CRMBuilds/TZ.BF.4.0.3.c1-00005-M8996AAAAANAZT-1_20170110_230814/b/HK11/trustzone_images/core/securemsm/trustzone/qsapps/libs/applib/proxy/build/sampleapp/A53_64/IADAANAA/tzlib_proxy.lib(prxy_qsee_shim.o)
 .debug_loc     0x000000000001870b      0x13b /local/mnt/workspace/CRMBuilds/TZ.BF.4.0.3.c1-00005-M8996AAAAANAZT-1_20170110_230814/b/HK11/trustzone_images/core/securemsm/trustzone/qsapps/libs/applib/proxy/build/sampleapp/A53_64/IADAANAA/tzlib_proxy.lib(prxy_ufaes.o)
 .debug_loc     0x0000000000018846       0x8c /local/mnt/workspace/CRMBuilds/TZ.BF.4.0.3.c1-00005-M8996AAAAANAZT-1_20170110_230814/b/HK11/trustzone_images/core/securemsm/trustzone/qsapps/libs/applib/proxy/build/sampleapp/A53_64/IADAANAA/tzlib_proxy.lib(prxy_ufdes.o)
 .debug_loc     0x00000000000188d2       0xaf /local/mnt/workspace/CRMBuilds/TZ.BF.4.0.3.c1-00005-M8996AAAAANAZT-1_20170110_230814/b/HK11/trustzone_images/core/securemsm/trustzone/qsapps/libs/applib/proxy/build/sampleapp/A53_64/IADAANAA/tzlib_proxy.lib(prxy_ufsha.o)
 .debug_loc     0x0000000000018981       0x46 /local/mnt/workspace/CRMBuilds/TZ.BF.4.0.3.c1-00005-M8996AAAAANAZT-1_20170110_230814/b/HK11/trustzone_images/core/securemsm/trustzone/qsapps/libs/applib/proxy/build/sampleapp/A53_64/IADAANAA/tzlib_proxy.lib(prxy_secmath.o)
 .debug_loc     0x00000000000189c7      0x13b /local/mnt/workspace/CRMBuilds/TZ.BF.4.0.3.c1-00005-M8996AAAAANAZT-1_20170110_230814/b/HK11/trustzone_images/core/securemsm/trustzone/qsapps/libs/applib/proxy/build/sampleapp/A53_64/IADAANAA/tzlib_proxy.lib(prxy_secrsa.o)
 .debug_loc     0x0000000000018b02      0x20d /local/mnt/workspace/CRMBuilds/TZ.BF.4.0.3.c1-00005-M8996AAAAANAZT-1_20170110_230814/b/HK11/trustzone_images/core/securemsm/trustzone/qsapps/libs/applib/proxy/build/sampleapp/A53_64/IADAANAA/tzlib_proxy.lib(prxy_ecc.o)
 .debug_loc     0x0000000000018d0f      0x385 /local/mnt/workspace/CRMBuilds/TZ.BF.4.0.3.c1-00005-M8996AAAAANAZT-1_20170110_230814/b/HK11/trustzone_images/core/securemsm/trustzone/qsapps/libs/applib/qsee64/build/sampleapp/A53_64/IADAANAA/tzapp_entrylib.lib(mink_shared_code.o)
 .debug_loc     0x0000000000019094      0x36b /local/mnt/workspace/CRMBuilds/TZ.BF.4.0.3.c1-00005-M8996AAAAANAZT-1_20170110_230814/b/HK11/trustzone_images/core/securemsm/trustzone/qsapps/libs/applib/qsee64/build/sampleapp/A53_64/IADAANAA/tzapp_entrylib.lib(qsee_env.o)
 .debug_loc     0x00000000000193ff      0x590 /local/mnt/workspace/CRMBuilds/TZ.BF.4.0.3.c1-00005-M8996AAAAANAZT-1_20170110_230814/b/HK11/trustzone_images/core/securemsm/trustzone/qsapps/libs/applib/qsee64/build/sampleapp/A53_64/IADAANAA/tzapp_entrylib.lib(qsee_core_shim.o)
 .debug_loc     0x000000000001998f      0x224 /local/mnt/workspace/CRMBuilds/TZ.BF.4.0.3.c1-00005-M8996AAAAANAZT-1_20170110_230814/b/HK11/trustzone_images/core/securemsm/trustzone/qsapps/libs/applib/qsee64/build/sampleapp/A53_64/IADAANAA/tzapp_entrylib.lib(qsee_deviceid.o)
 .debug_loc     0x0000000000019bb3       0x6c /local/mnt/workspace/CRMBuilds/TZ.BF.4.0.3.c1-00005-M8996AAAAANAZT-1_20170110_230814/b/HK11/trustzone_images/core/securemsm/trustzone/qsapps/libs/applib/qsee64/build/sampleapp/A53_64/IADAANAA/tzapp_entrylib.lib(qsee_prng.o)
 .debug_loc     0x0000000000019c1f      0x108 /local/mnt/workspace/CRMBuilds/TZ.BF.4.0.3.c1-00005-M8996AAAAANAZT-1_20170110_230814/b/HK11/trustzone_images/core/securemsm/trustzone/qsapps/libs/applib/qsee64/build/sampleapp/A53_64/IADAANAA/tzapp_entrylib.lib(qsee_secdisp.o)
 .debug_loc     0x0000000000019d27      0x3d1 /local/mnt/workspace/CRMBuilds/TZ.BF.4.0.3.c1-00005-M8996AAAAANAZT-1_20170110_230814/b/HK11/trustzone_images/core/securemsm/trustzone/qsapps/libs/applib/qsee64/build/sampleapp/A53_64/IADAANAA/tzapp_entrylib.lib(qsee_nsmem.o)
 .debug_loc     0x000000000001a0f8      0x33a /local/mnt/workspace/CRMBuilds/TZ.BF.4.0.3.c1-00005-M8996AAAAANAZT-1_20170110_230814/b/HK11/trustzone_images/core/securemsm/trustzone/qsapps/libs/applib/qsee64/build/sampleapp/A53_64/IADAANAA/tzapp_entrylib.lib(qsee_cmac.o)
 .debug_loc     0x000000000001a432       0xd5 /local/mnt/workspace/CRMBuilds/TZ.BF.4.0.3.c1-00005-M8996AAAAANAZT-1_20170110_230814/b/HK11/trustzone_images/core/securemsm/trustzone/qsapps/libs/applib/qsee64/build/sampleapp/A53_64/IADAANAA/tzapp_entrylib.lib(qsee_crypto_shim.o)
 .debug_loc     0x000000000001a507        0x0 /local/mnt/workspace/CRMBuilds/TZ.BF.4.0.3.c1-00005-M8996AAAAANAZT-1_20170110_230814/b/HK11/trustzone_images/core/securemsm/trustzone/qsapps/libs/applib/qsee64/build/sampleapp/A53_64/IADAANAA/tzapp_entrylib.lib(qsee_timer_shim.o)
 .debug_loc     0x000000000001a507      0x615 /local/mnt/workspace/CRMBuilds/TZ.BF.4.0.3.c1-00005-M8996AAAAANAZT-1_20170110_230814/b/HK11/trustzone_images/core/securemsm/trustzone/qsapps/libs/applib/qsee64/build/sampleapp/A53_64/IADAANAA/tzapp_entrylib.lib(qsee_comstr.o)
 .debug_loc     0x000000000001ab1c      0x292 /local/mnt/workspace/CRMBuilds/TZ.BF.4.0.3.c1-00005-M8996AAAAANAZT-1_20170110_230814/b/HK11/trustzone_images/core/securemsm/trustzone/qsapps/libs/applib/qsee64/build/sampleapp/A53_64/IADAANAA/tzapp_entrylib.lib(stor.o)
 .debug_loc     0x000000000001adae     0x1551 /local/mnt/workspace/CRMBuilds/TZ.BF.4.0.3.c1-00005-M8996AAAAANAZT-1_20170110_230814/b/HK11/trustzone_images/core/securemsm/trustzone/qsapps/libs/applib/qsee64/build/sampleapp/A53_64/IADAANAA/tzapp_entrylib.lib(stor_gpt.o)
 .debug_loc     0x000000000001c2ff      0x2fb /local/mnt/workspace/CRMBuilds/TZ.BF.4.0.3.c1-00005-M8996AAAAANAZT-1_20170110_230814/b/HK11/trustzone_images/core/securemsm/trustzone/qsapps/libs/applib/qsee64/build/sampleapp/A53_64/IADAANAA/tzapp_entrylib.lib(stor_rpmbw.o)
 .debug_loc     0x000000000001c5fa      0x26b /local/mnt/workspace/CRMBuilds/TZ.BF.4.0.3.c1-00005-M8996AAAAANAZT-1_20170110_230814/b/HK11/trustzone_images/core/securemsm/trustzone/qsapps/libs/applib/qsee64/build/sampleapp/A53_64/IADAANAA/tzapp_entrylib.lib(qsee_counter_shim.o)
 .debug_loc     0x000000000001c865      0xb7b /local/mnt/workspace/CRMBuilds/TZ.BF.4.0.3.c1-00005-M8996AAAAANAZT-1_20170110_230814/b/HK11/trustzone_images/core/securemsm/trustzone/qsapps/libs/applib/qsee64/build/sampleapp/A53_64/IADAANAA/tzapp_entrylib.lib(qsee_cipher.o)
 .debug_loc     0x000000000001d3e0      0xe2c /local/mnt/workspace/CRMBuilds/TZ.BF.4.0.3.c1-00005-M8996AAAAANAZT-1_20170110_230814/b/HK11/trustzone_images/core/securemsm/trustzone/qsapps/libs/applib/qsee64/build/sampleapp/A53_64/IADAANAA/tzapp_entrylib.lib(qsee_hash.o)
 .debug_loc     0x000000000001e20c      0x6aa /local/mnt/workspace/CRMBuilds/TZ.BF.4.0.3.c1-00005-M8996AAAAANAZT-1_20170110_230814/b/HK11/trustzone_images/core/securemsm/trustzone/qsapps/libs/applib/qsee64/build/sampleapp/A53_64/IADAANAA/tzapp_entrylib.lib(qsee_hmac.o)
 .debug_loc     0x000000000001e8b6      0x7a4 /local/mnt/workspace/CRMBuilds/TZ.BF.4.0.3.c1-00005-M8996AAAAANAZT-1_20170110_230814/b/HK11/trustzone_images/core/securemsm/trustzone/qsapps/libs/applib/qsee64/build/sampleapp/A53_64/IADAANAA/tzapp_entrylib.lib(qsee_i2c.o)
 .debug_loc     0x000000000001f05a      0x8ef /local/mnt/workspace/CRMBuilds/TZ.BF.4.0.3.c1-00005-M8996AAAAANAZT-1_20170110_230814/b/HK11/trustzone_images/core/securemsm/trustzone/qsapps/libs/applib/qsee64/build/sampleapp/A53_64/IADAANAA/tzapp_entrylib.lib(qsee_spi.o)
 .debug_loc     0x000000000001f949      0x499 /local/mnt/workspace/CRMBuilds/TZ.BF.4.0.3.c1-00005-M8996AAAAANAZT-1_20170110_230814/b/HK11/trustzone_images/core/securemsm/trustzone/qsapps/libs/applib/qsee64/build/sampleapp/A53_64/IADAANAA/tzapp_entrylib.lib(qsee_tlmm.o)
 .debug_loc     0x000000000001fde2       0x7c /local/mnt/workspace/CRMBuilds/TZ.BF.4.0.3.c1-00005-M8996AAAAANAZT-1_20170110_230814/b/HK11/trustzone_images/core/securemsm/trustzone/qsapps/libs/applib/qsee64/build/sampleapp/A53_64/IADAANAA/tzapp_entrylib.lib(qsee_bulletin_board_shim.o)
 .debug_loc     0x000000000001fe5e      0x144 /local/mnt/workspace/CRMBuilds/TZ.BF.4.0.3.c1-00005-M8996AAAAANAZT-1_20170110_230814/b/HK11/trustzone_images/core/securemsm/trustzone/qsapps/libs/applib/qsee64/build/sampleapp/A53_64/IADAANAA/tzapp_entrylib.lib(qsee_dcache.o)
 .debug_loc     0x000000000001ffa2      0x174 /local/mnt/workspace/CRMBuilds/TZ.BF.4.0.3.c1-00005-M8996AAAAANAZT-1_20170110_230814/b/HK11/trustzone_images/core/securemsm/trustzone/qsapps/libs/applib/qsee64/build/sampleapp/A53_64/IADAANAA/tzapp_entrylib.lib(qsee_shared_buffer.o)
 .debug_loc     0x0000000000020116       0x9f /local/mnt/workspace/CRMBuilds/TZ.BF.4.0.3.c1-00005-M8996AAAAANAZT-1_20170110_230814/b/HK11/trustzone_images/core/securemsm/trustzone/qsapps/libs/applib/qsee64/build/sampleapp/A53_64/IADAANAA/tzapp_entrylib.lib(qsee_sync.o)
 .debug_loc     0x00000000000201b5      0x343 /local/mnt/workspace/CRMBuilds/TZ.BF.4.0.3.c1-00005-M8996AAAAANAZT-1_20170110_230814/b/HK11/trustzone_images/core/securemsm/trustzone/qsapps/libs/applib/qsee64/build/sampleapp/A53_64/IADAANAA/tzapp_entrylib.lib(qsee_oem_buffer.o)
 .debug_loc     0x00000000000204f8      0x246 /local/mnt/workspace/CRMBuilds/TZ.BF.4.0.3.c1-00005-M8996AAAAANAZT-1_20170110_230814/b/HK11/trustzone_images/core/securemsm/trustzone/qsapps/libs/applib/qsee64/build/sampleapp/A53_64/IADAANAA/tzapp_entrylib.lib(qsee_intmask.o)
 .debug_loc     0x000000000002073e      0x165 /local/mnt/workspace/CRMBuilds/TZ.BF.4.0.3.c1-00005-M8996AAAAANAZT-1_20170110_230814/b/HK11/trustzone_images/core/securemsm/trustzone/qsapps/libs/applib/qsee64/build/sampleapp/A53_64/IADAANAA/tzapp_entrylib.lib(qsee_trans_ns_addr.o)
 .debug_loc     0x00000000000208a3      0x4b1 /local/mnt/workspace/CRMBuilds/TZ.BF.4.0.3.c1-00005-M8996AAAAANAZT-1_20170110_230814/b/HK11/trustzone_images/core/securemsm/trustzone/qsapps/libs/applib/qsee64/build/sampleapp/A53_64/IADAANAA/tzapp_entrylib.lib(qsee_appmessage.o)
 .debug_loc     0x0000000000020d54      0x96b /local/mnt/workspace/CRMBuilds/TZ.BF.4.0.3.c1-00005-M8996AAAAANAZT-1_20170110_230814/b/HK11/trustzone_images/core/securemsm/trustzone/qsapps/libs/applib/qsee64/build/sampleapp/A53_64/IADAANAA/tzapp_entrylib.lib(sfs_api.o)
 .debug_loc     0x00000000000216bf      0x11e /local/mnt/workspace/CRMBuilds/TZ.BF.4.0.3.c1-00005-M8996AAAAANAZT-1_20170110_230814/b/HK11/trustzone_images/core/securemsm/trustzone/qsapps/libs/applib/qsee64/build/sampleapp/A53_64/IADAANAA/tzapp_entrylib.lib(tzapp_lib_main.o)
 .debug_loc     0x00000000000217dd      0x6c9 /local/mnt/workspace/CRMBuilds/TZ.BF.4.0.3.c1-00005-M8996AAAAANAZT-1_20170110_230814/b/HK11/trustzone_images/core/securemsm/trustzone/qsapps/libs/biometric/build/sampleapp/A53_64/IADAANAA/biometric_lib.lib(biometric.o)
 .debug_loc     0x0000000000021ea6      0x9ff /local/mnt/workspace/CRMBuilds/TZ.BF.4.0.3.c1-00005-M8996AAAAANAZT-1_20170110_230814/b/HK11/trustzone_images/core/securemsm/trustzone/qsapps/libs/biometric/build/sampleapp/A53_64/IADAANAA/biometric_lib.lib(biometric_serializer.o)
 .debug_loc     0x00000000000228a5      0x10a /local/mnt/workspace/CRMBuilds/TZ.BF.4.0.3.c1-00005-M8996AAAAANAZT-1_20170110_230814/b/HK11/trustzone_images/core/securemsm/sse/qsee/SecureTouch/drTs/lib/build/sampleapp/A53_64/IADAANAA/touch_lib.lib(01_open.o)
 .debug_loc     0x00000000000229af       0xad /local/mnt/workspace/CRMBuilds/TZ.BF.4.0.3.c1-00005-M8996AAAAANAZT-1_20170110_230814/b/HK11/trustzone_images/core/securemsm/sse/qsee/SecureTouch/drTs/lib/build/sampleapp/A53_64/IADAANAA/touch_lib.lib(02_close.o)
 .debug_loc     0x0000000000022a5c      0x20f /local/mnt/workspace/CRMBuilds/TZ.BF.4.0.3.c1-00005-M8996AAAAANAZT-1_20170110_230814/b/HK11/trustzone_images/core/securemsm/sse/qsee/SecureTouch/drTs/lib/build/sampleapp/A53_64/IADAANAA/touch_lib.lib(03_getData.o)
 .debug_loc     0x0000000000022c6b      0x6e3 /local/mnt/workspace/CRMBuilds/TZ.BF.4.0.3.c1-00005-M8996AAAAANAZT-1_20170110_230814/b/HK11/trustzone_images/core/securemsm/trustzone/qsapps/libs/applib/common_applib/build/sampleapp/A53_64/IADAANAA/tzapp_entrylib.lib(gpPersistObjCommon.o)
 .debug_loc     0x000000000002334e     0x126d /local/mnt/workspace/CRMBuilds/TZ.BF.4.0.3.c1-00005-M8996AAAAANAZT-1_20170110_230814/b/HK11/trustzone_images/core/securemsm/trustzone/qsapps/libs/applib/common_applib/build/sampleapp/A53_64/IADAANAA/tzapp_entrylib.lib(gpPersistentObjects.o)
 .debug_loc     0x00000000000245bb     0x2add /local/mnt/workspace/CRMBuilds/TZ.BF.4.0.3.c1-00005-M8996AAAAANAZT-1_20170110_230814/b/HK11/trustzone_images/core/securemsm/trustzone/qsapps/libs/applib/common_applib/build/sampleapp/A53_64/IADAANAA/tzapp_entrylib.lib(gpPersistObjData.o)
 .debug_loc     0x0000000000027098      0x735 /local/mnt/workspace/CRMBuilds/TZ.BF.4.0.3.c1-00005-M8996AAAAANAZT-1_20170110_230814/b/HK11/trustzone_images/core/securemsm/trustzone/qsapps/libs/applib/common_applib/build/sampleapp/A53_64/IADAANAA/tzapp_entrylib.lib(gpPersistObjHandler.o)
 .debug_loc     0x00000000000277cd     0x12cb /local/mnt/workspace/CRMBuilds/TZ.BF.4.0.3.c1-00005-M8996AAAAANAZT-1_20170110_230814/b/HK11/trustzone_images/core/securemsm/trustzone/qsapps/libs/applib/common_applib/build/sampleapp/A53_64/IADAANAA/tzapp_entrylib.lib(gpPersistObjIndex.o)
 .debug_loc     0x0000000000028a98      0xeec /local/mnt/workspace/CRMBuilds/TZ.BF.4.0.3.c1-00005-M8996AAAAANAZT-1_20170110_230814/b/HK11/trustzone_images/core/securemsm/trustzone/qsapps/libs/applib/common_applib/build/sampleapp/A53_64/IADAANAA/tzapp_entrylib.lib(gpPersistObjVersion.o)
 .debug_loc     0x0000000000029984     0x11b9 /local/mnt/workspace/CRMBuilds/TZ.BF.4.0.3.c1-00005-M8996AAAAANAZT-1_20170110_230814/b/HK11/trustzone_images/core/securemsm/trustzone/qsapps/libs/applib/common_applib/build/sampleapp/A53_64/IADAANAA/tzapp_entrylib.lib(gpPersistObjCrypto.o)
 .debug_loc     0x000000000002ab3d      0x99e /local/mnt/workspace/CRMBuilds/TZ.BF.4.0.3.c1-00005-M8996AAAAANAZT-1_20170110_230814/b/HK11/trustzone_images/core/securemsm/trustzone/qsapps/libs/applib/common_applib/build/sampleapp/A53_64/IADAANAA/tzapp_entrylib.lib(gpPersistObjFileIO.o)
 .debug_loc     0x000000000002b4db      0x693 /local/mnt/workspace/CRMBuilds/TZ.BF.4.0.3.c1-00005-M8996AAAAANAZT-1_20170110_230814/b/HK11/trustzone_images/core/securemsm/trustzone/qsapps/libs/applib/common_applib/build/sampleapp/A53_64/IADAANAA/tzapp_entrylib.lib(gpFileService.o)
 .debug_loc     0x000000000002bb6e      0x144 /local/mnt/workspace/CRMBuilds/TZ.BF.4.0.3.c1-00005-M8996AAAAANAZT-1_20170110_230814/b/HK11/trustzone_images/core/securemsm/trustzone/qsapps/libs/applib/qsee64/build/sampleapp/A53_64/IADAANAA/tzapp_entrylib.lib(qsee_cfg_prop_shim.o)
 .debug_loc     0x000000000002bcb2        0x0 /local/mnt/workspace/CRMBuilds/TZ.BF.4.0.3.c1-00005-M8996AAAAANAZT-1_20170110_230814/b/HK11/trustzone_images/core/securemsm/trustzone/qsapps/libs/applib/qsee64/build/sampleapp/A53_64/IADAANAA/tzapp_entrylib.lib(gpPersistObjPanic.o)
 .debug_loc     0x000000000002bcb2      0x97c /local/mnt/workspace/CRMBuilds/TZ.BF.4.0.3.c1-00005-M8996AAAAANAZT-1_20170110_230814/b/HK11/trustzone_images/core/securemsm/sse/SecureTouch/controller/build/sampleapp/A53_64/IADAANAA/drts_controller_msm8996.lib(atmel_mxt_ts.o)
 .debug_loc     0x000000000002c62e      0x84c /local/mnt/workspace/CRMBuilds/TZ.BF.4.0.3.c1-00005-M8996AAAAANAZT-1_20170110_230814/b/HK11/trustzone_images/core/securemsm/sse/SecureTouch/controller/build/sampleapp/A53_64/IADAANAA/drts_controller_msm8996.lib(synaptics_ts.o)
 .debug_loc     0x000000000002ce7a       0xb5 /local/mnt/workspace/CRMBuilds/TZ.BF.4.0.3.c1-00005-M8996AAAAANAZT-1_20170110_230814/b/HK11/trustzone_images/core/securemsm/sse/log/build/sampleapp/A53_64/IADAANAA/sselog.lib(sselog.o)
 .debug_loc     0x000000000002cf2f      0x20a /local/mnt/workspace/CRMBuilds/TZ.BF.4.0.3.c1-00005-M8996AAAAANAZT-1_20170110_230814/b/HK11/trustzone_images/core/securemsm/sse/qsee/SecureTouch/drTs/controller/build/sampleapp/A53_64/IADAANAA/touch_controller_i2c_msm8996.lib(atmel_mxt_ts_i2c.o)
 .debug_loc     0x000000000002d139      0x1c6 /local/mnt/workspace/CRMBuilds/TZ.BF.4.0.3.c1-00005-M8996AAAAANAZT-1_20170110_230814/b/HK11/trustzone_images/core/securemsm/sse/qsee/SecureTouch/drTs/controller/build/sampleapp/A53_64/IADAANAA/touch_controller_i2c_msm8996.lib(synaptics_ts_i2c.o)

.debug_ranges   0x0000000000000000     0x55a0
 .debug_ranges  0x0000000000000000       0xd0 /local/mnt/workspace/CRMBuilds/TZ.BF.4.0.3.c1-00005-M8996AAAAANAZT-1_20170110_230814/b/HK11/trustzone_images/core/securemsm/trustzone/qsapps/smplap64/build/sampleapp/A53_64/IADAANAA/app_main.o
 .debug_ranges  0x00000000000000d0       0xd0 /local/mnt/workspace/CRMBuilds/TZ.BF.4.0.3.c1-00005-M8996AAAAANAZT-1_20170110_230814/b/HK11/trustzone_images/core/securemsm/trustzone/qsapps/smplap64/build/sampleapp/A53_64/IADAANAA/app_smplserv_test.o
 .debug_ranges  0x00000000000001a0       0x60 /local/mnt/workspace/CRMBuilds/TZ.BF.4.0.3.c1-00005-M8996AAAAANAZT-1_20170110_230814/b/HK11/trustzone_images/core/securemsm/trustzone/qsapps/smplap64/build/sampleapp/A53_64/IADAANAA/app_smplcert_test.o
 .debug_ranges  0x0000000000000200       0xb0 /local/mnt/workspace/CRMBuilds/TZ.BF.4.0.3.c1-00005-M8996AAAAANAZT-1_20170110_230814/b/HK11/trustzone_images/core/securemsm/trustzone/qsapps/smplap64/build/sampleapp/A53_64/IADAANAA/app_crypto.o
 .debug_ranges  0x00000000000002b0       0xf0 /local/mnt/workspace/CRMBuilds/TZ.BF.4.0.3.c1-00005-M8996AAAAANAZT-1_20170110_230814/b/HK11/trustzone_images/core/securemsm/trustzone/qsapps/smplap64/build/sampleapp/A53_64/IADAANAA/app_sfs.o
 .debug_ranges  0x00000000000003a0        0x0 /local/mnt/workspace/CRMBuilds/TZ.BF.4.0.3.c1-00005-M8996AAAAANAZT-1_20170110_230814/b/HK11/trustzone_images/core/securemsm/trustzone/qsapps/smplap64/build/sampleapp/A53_64/IADAANAA/app_rsa.o
 .debug_ranges  0x00000000000003a0      0x1a0 /local/mnt/workspace/CRMBuilds/TZ.BF.4.0.3.c1-00005-M8996AAAAANAZT-1_20170110_230814/b/HK11/trustzone_images/core/securemsm/trustzone/qsapps/smplap64/build/sampleapp/A53_64/IADAANAA/qsee_api_tests.o
 .debug_ranges  0x0000000000000540        0x0 /local/mnt/workspace/CRMBuilds/TZ.BF.4.0.3.c1-00005-M8996AAAAANAZT-1_20170110_230814/b/HK11/trustzone_images/core/securemsm/trustzone/qsapps/smplap64/build/sampleapp/A53_64/IADAANAA/app_cmnlib.o
 .debug_ranges  0x0000000000000540        0x0 /local/mnt/workspace/CRMBuilds/TZ.BF.4.0.3.c1-00005-M8996AAAAANAZT-1_20170110_230814/b/HK11/trustzone_images/core/securemsm/trustzone/qsapps/smplap64/build/sampleapp/A53_64/IADAANAA/app_message_passing.o
 .debug_ranges  0x0000000000000540        0x0 /local/mnt/workspace/CRMBuilds/TZ.BF.4.0.3.c1-00005-M8996AAAAANAZT-1_20170110_230814/b/HK11/trustzone_images/core/securemsm/trustzone/qsapps/smplap64/build/sampleapp/A53_64/IADAANAA/app_fuses.o
 .debug_ranges  0x0000000000000540      0x320 /local/mnt/workspace/CRMBuilds/TZ.BF.4.0.3.c1-00005-M8996AAAAANAZT-1_20170110_230814/b/HK11/trustzone_images/core/securemsm/trustzone/qsapps/smplap64/build/sampleapp/A53_64/IADAANAA/app_stor.o
 .debug_ranges  0x0000000000000860        0x0 /local/mnt/workspace/CRMBuilds/TZ.BF.4.0.3.c1-00005-M8996AAAAANAZT-1_20170110_230814/b/HK11/trustzone_images/core/securemsm/trustzone/qsapps/smplap64/build/sampleapp/A53_64/IADAANAA/app_content_protection.o
 .debug_ranges  0x0000000000000860       0x70 /local/mnt/workspace/CRMBuilds/TZ.BF.4.0.3.c1-00005-M8996AAAAANAZT-1_20170110_230814/b/HK11/trustzone_images/core/securemsm/trustzone/qsapps/smplap64/build/sampleapp/A53_64/IADAANAA/app_secure_ui.o
 .debug_ranges  0x00000000000008d0        0x0 /local/mnt/workspace/CRMBuilds/TZ.BF.4.0.3.c1-00005-M8996AAAAANAZT-1_20170110_230814/b/HK11/trustzone_images/core/securemsm/trustzone/qsapps/smplap64/build/sampleapp/A53_64/IADAANAA/app_bio_lib.o
 .debug_ranges  0x00000000000008d0        0x0 /local/mnt/workspace/CRMBuilds/TZ.BF.4.0.3.c1-00005-M8996AAAAANAZT-1_20170110_230814/b/HK11/trustzone_images/core/securemsm/trustzone/qsapps/smplap64/build/sampleapp/A53_64/IADAANAA/app_bulletin_board.o
 .debug_ranges  0x00000000000008d0        0x0 /local/mnt/workspace/CRMBuilds/TZ.BF.4.0.3.c1-00005-M8996AAAAANAZT-1_20170110_230814/b/HK11/trustzone_images/core/securemsm/trustzone/qsapps/smplap64/build/sampleapp/A53_64/IADAANAA/metadata.o
 .debug_ranges  0x00000000000008d0        0x0 /local/mnt/workspace/CRMBuilds/TZ.BF.4.0.3.c1-00005-M8996AAAAANAZT-1_20170110_230814/b/HK11/trustzone_images/core/kernel/libstd/build/sampleapp/A53_64/IADAANAA/libstd.lib(memscpy.o)
 .debug_ranges  0x00000000000008d0        0x0 /local/mnt/workspace/CRMBuilds/TZ.BF.4.0.3.c1-00005-M8996AAAAANAZT-1_20170110_230814/b/HK11/trustzone_images/core/kernel/libstd/build/sampleapp/A53_64/IADAANAA/libstd.lib(strlcpy.o)
 .debug_ranges  0x00000000000008d0        0x0 /local/mnt/workspace/CRMBuilds/TZ.BF.4.0.3.c1-00005-M8996AAAAANAZT-1_20170110_230814/b/HK11/trustzone_images/core/kernel/libstd/build/sampleapp/A53_64/IADAANAA/libstd.lib(secure_memset.o)
 .debug_ranges  0x00000000000008d0        0x0 /local/mnt/workspace/CRMBuilds/TZ.BF.4.0.3.c1-00005-M8996AAAAANAZT-1_20170110_230814/b/HK11/trustzone_images/core/kernel/libstd/build/sampleapp/A53_64/IADAANAA/libstd.lib(timesafe_memcmp.o)
 .debug_ranges  0x00000000000008d0        0x0 /local/mnt/workspace/CRMBuilds/TZ.BF.4.0.3.c1-00005-M8996AAAAANAZT-1_20170110_230814/b/HK11/trustzone_images/core/kernel/libstd/build/sampleapp/A53_64/IADAANAA/libstd.lib(timesafe_strncmp.o)
 .debug_ranges  0x00000000000008d0      0xdd0 /local/mnt/workspace/CRMBuilds/TZ.BF.4.0.3.c1-00005-M8996AAAAANAZT-1_20170110_230814/b/HK11/trustzone_images/core/securemsm/sse/qsee/SecureUI/build/sampleapp/A53_64/IADAANAA/secure_ui.lib(SecureUI.o)
 .debug_ranges  0x00000000000016a0        0x0 /local/mnt/workspace/CRMBuilds/TZ.BF.4.0.3.c1-00005-M8996AAAAANAZT-1_20170110_230814/b/HK11/trustzone_images/core/securemsm/sse/qsee/SecureUILib/lib/build/sampleapp/A53_64/IADAANAA/secure_ui_lib.lib(SecureUILib.o)
 .debug_ranges  0x00000000000016a0        0x0 /local/mnt/workspace/CRMBuilds/TZ.BF.4.0.3.c1-00005-M8996AAAAANAZT-1_20170110_230814/b/HK11/trustzone_images/core/securemsm/sse/qsee/SecureUILib/lib/build/sampleapp/A53_64/IADAANAA/secure_ui_lib.lib(01_startTouch.o)
 .debug_ranges  0x00000000000016a0       0x70 /local/mnt/workspace/CRMBuilds/TZ.BF.4.0.3.c1-00005-M8996AAAAANAZT-1_20170110_230814/b/HK11/trustzone_images/core/securemsm/sse/qsee/SecureUILib/lib/build/sampleapp/A53_64/IADAANAA/secure_ui_lib.lib(02_processTouch.o)
 .debug_ranges  0x0000000000001710        0x0 /local/mnt/workspace/CRMBuilds/TZ.BF.4.0.3.c1-00005-M8996AAAAANAZT-1_20170110_230814/b/HK11/trustzone_images/core/securemsm/sse/qsee/SecureUILib/lib/build/sampleapp/A53_64/IADAANAA/secure_ui_lib.lib(03_stopTouch.o)
 .debug_ranges  0x0000000000001710      0x240 /local/mnt/workspace/CRMBuilds/TZ.BF.4.0.3.c1-00005-M8996AAAAANAZT-1_20170110_230814/b/HK11/trustzone_images/core/securemsm/trustzone/qsapps/libs/applib/common_applib/build/sampleapp/A53_64/IADAANAA/tzapp_entrylib.lib(common_applib.o)
 .debug_ranges  0x0000000000001950        0x0 /local/mnt/workspace/CRMBuilds/TZ.BF.4.0.3.c1-00005-M8996AAAAANAZT-1_20170110_230814/b/HK11/trustzone_images/core/securemsm/trustzone/qsapps/libs/applib/proxy/build/sampleapp/A53_64/IADAANAA/tzlib_proxy.lib(prxy_services.o)
 .debug_ranges  0x0000000000001950        0x0 /local/mnt/workspace/CRMBuilds/TZ.BF.4.0.3.c1-00005-M8996AAAAANAZT-1_20170110_230814/b/HK11/trustzone_images/core/securemsm/trustzone/qsapps/libs/applib/proxy/build/sampleapp/A53_64/IADAANAA/tzlib_proxy.lib(prxy_qsee_shim.o)
 .debug_ranges  0x0000000000001950        0x0 /local/mnt/workspace/CRMBuilds/TZ.BF.4.0.3.c1-00005-M8996AAAAANAZT-1_20170110_230814/b/HK11/trustzone_images/core/securemsm/trustzone/qsapps/libs/applib/proxy/build/sampleapp/A53_64/IADAANAA/tzlib_proxy.lib(prxy_ufaes.o)
 .debug_ranges  0x0000000000001950        0x0 /local/mnt/workspace/CRMBuilds/TZ.BF.4.0.3.c1-00005-M8996AAAAANAZT-1_20170110_230814/b/HK11/trustzone_images/core/securemsm/trustzone/qsapps/libs/applib/proxy/build/sampleapp/A53_64/IADAANAA/tzlib_proxy.lib(prxy_ufdes.o)
 .debug_ranges  0x0000000000001950        0x0 /local/mnt/workspace/CRMBuilds/TZ.BF.4.0.3.c1-00005-M8996AAAAANAZT-1_20170110_230814/b/HK11/trustzone_images/core/securemsm/trustzone/qsapps/libs/applib/proxy/build/sampleapp/A53_64/IADAANAA/tzlib_proxy.lib(prxy_ufsha.o)
 .debug_ranges  0x0000000000001950        0x0 /local/mnt/workspace/CRMBuilds/TZ.BF.4.0.3.c1-00005-M8996AAAAANAZT-1_20170110_230814/b/HK11/trustzone_images/core/securemsm/trustzone/qsapps/libs/applib/proxy/build/sampleapp/A53_64/IADAANAA/tzlib_proxy.lib(prxy_secmath.o)
 .debug_ranges  0x0000000000001950        0x0 /local/mnt/workspace/CRMBuilds/TZ.BF.4.0.3.c1-00005-M8996AAAAANAZT-1_20170110_230814/b/HK11/trustzone_images/core/securemsm/trustzone/qsapps/libs/applib/proxy/build/sampleapp/A53_64/IADAANAA/tzlib_proxy.lib(prxy_secrsa.o)
 .debug_ranges  0x0000000000001950        0x0 /local/mnt/workspace/CRMBuilds/TZ.BF.4.0.3.c1-00005-M8996AAAAANAZT-1_20170110_230814/b/HK11/trustzone_images/core/securemsm/trustzone/qsapps/libs/applib/proxy/build/sampleapp/A53_64/IADAANAA/tzlib_proxy.lib(prxy_ecc.o)
 .debug_ranges  0x0000000000001950      0x1e0 /local/mnt/workspace/CRMBuilds/TZ.BF.4.0.3.c1-00005-M8996AAAAANAZT-1_20170110_230814/b/HK11/trustzone_images/core/securemsm/trustzone/qsapps/libs/applib/qsee64/build/sampleapp/A53_64/IADAANAA/tzapp_entrylib.lib(mink_shared_code.o)
 .debug_ranges  0x0000000000001b30       0xa0 /local/mnt/workspace/CRMBuilds/TZ.BF.4.0.3.c1-00005-M8996AAAAANAZT-1_20170110_230814/b/HK11/trustzone_images/core/securemsm/trustzone/qsapps/libs/applib/qsee64/build/sampleapp/A53_64/IADAANAA/tzapp_entrylib.lib(qsee_env.o)
 .debug_ranges  0x0000000000001bd0        0x0 /local/mnt/workspace/CRMBuilds/TZ.BF.4.0.3.c1-00005-M8996AAAAANAZT-1_20170110_230814/b/HK11/trustzone_images/core/securemsm/trustzone/qsapps/libs/applib/qsee64/build/sampleapp/A53_64/IADAANAA/tzapp_entrylib.lib(qsee_core_shim.o)
 .debug_ranges  0x0000000000001bd0      0x150 /local/mnt/workspace/CRMBuilds/TZ.BF.4.0.3.c1-00005-M8996AAAAANAZT-1_20170110_230814/b/HK11/trustzone_images/core/securemsm/trustzone/qsapps/libs/applib/qsee64/build/sampleapp/A53_64/IADAANAA/tzapp_entrylib.lib(qsee_deviceid.o)
 .debug_ranges  0x0000000000001d20       0xc0 /local/mnt/workspace/CRMBuilds/TZ.BF.4.0.3.c1-00005-M8996AAAAANAZT-1_20170110_230814/b/HK11/trustzone_images/core/securemsm/trustzone/qsapps/libs/applib/qsee64/build/sampleapp/A53_64/IADAANAA/tzapp_entrylib.lib(qsee_prng.o)
 .debug_ranges  0x0000000000001de0       0x60 /local/mnt/workspace/CRMBuilds/TZ.BF.4.0.3.c1-00005-M8996AAAAANAZT-1_20170110_230814/b/HK11/trustzone_images/core/securemsm/trustzone/qsapps/libs/applib/qsee64/build/sampleapp/A53_64/IADAANAA/tzapp_entrylib.lib(qsee_secdisp.o)
 .debug_ranges  0x0000000000001e40      0x110 /local/mnt/workspace/CRMBuilds/TZ.BF.4.0.3.c1-00005-M8996AAAAANAZT-1_20170110_230814/b/HK11/trustzone_images/core/securemsm/trustzone/qsapps/libs/applib/qsee64/build/sampleapp/A53_64/IADAANAA/tzapp_entrylib.lib(qsee_nsmem.o)
 .debug_ranges  0x0000000000001f50       0x60 /local/mnt/workspace/CRMBuilds/TZ.BF.4.0.3.c1-00005-M8996AAAAANAZT-1_20170110_230814/b/HK11/trustzone_images/core/securemsm/trustzone/qsapps/libs/applib/qsee64/build/sampleapp/A53_64/IADAANAA/tzapp_entrylib.lib(qsee_cmac.o)
 .debug_ranges  0x0000000000001fb0        0x0 /local/mnt/workspace/CRMBuilds/TZ.BF.4.0.3.c1-00005-M8996AAAAANAZT-1_20170110_230814/b/HK11/trustzone_images/core/securemsm/trustzone/qsapps/libs/applib/qsee64/build/sampleapp/A53_64/IADAANAA/tzapp_entrylib.lib(qsee_crypto_shim.o)
 .debug_ranges  0x0000000000001fb0        0x0 /local/mnt/workspace/CRMBuilds/TZ.BF.4.0.3.c1-00005-M8996AAAAANAZT-1_20170110_230814/b/HK11/trustzone_images/core/securemsm/trustzone/qsapps/libs/applib/qsee64/build/sampleapp/A53_64/IADAANAA/tzapp_entrylib.lib(qsee_timer_shim.o)
 .debug_ranges  0x0000000000001fb0        0x0 /local/mnt/workspace/CRMBuilds/TZ.BF.4.0.3.c1-00005-M8996AAAAANAZT-1_20170110_230814/b/HK11/trustzone_images/core/securemsm/trustzone/qsapps/libs/applib/qsee64/build/sampleapp/A53_64/IADAANAA/tzapp_entrylib.lib(qsee_comstr.o)
 .debug_ranges  0x0000000000001fb0       0x90 /local/mnt/workspace/CRMBuilds/TZ.BF.4.0.3.c1-00005-M8996AAAAANAZT-1_20170110_230814/b/HK11/trustzone_images/core/securemsm/trustzone/qsapps/libs/applib/qsee64/build/sampleapp/A53_64/IADAANAA/tzapp_entrylib.lib(stor.o)
 .debug_ranges  0x0000000000002040        0x0 /local/mnt/workspace/CRMBuilds/TZ.BF.4.0.3.c1-00005-M8996AAAAANAZT-1_20170110_230814/b/HK11/trustzone_images/core/securemsm/trustzone/qsapps/libs/applib/qsee64/build/sampleapp/A53_64/IADAANAA/tzapp_entrylib.lib(stor_gpt.o)
 .debug_ranges  0x0000000000002040        0x0 /local/mnt/workspace/CRMBuilds/TZ.BF.4.0.3.c1-00005-M8996AAAAANAZT-1_20170110_230814/b/HK11/trustzone_images/core/securemsm/trustzone/qsapps/libs/applib/qsee64/build/sampleapp/A53_64/IADAANAA/tzapp_entrylib.lib(stor_rpmbw.o)
 .debug_ranges  0x0000000000002040        0x0 /local/mnt/workspace/CRMBuilds/TZ.BF.4.0.3.c1-00005-M8996AAAAANAZT-1_20170110_230814/b/HK11/trustzone_images/core/securemsm/trustzone/qsapps/libs/applib/qsee64/build/sampleapp/A53_64/IADAANAA/tzapp_entrylib.lib(qsee_counter_shim.o)
 .debug_ranges  0x0000000000002040      0x3e0 /local/mnt/workspace/CRMBuilds/TZ.BF.4.0.3.c1-00005-M8996AAAAANAZT-1_20170110_230814/b/HK11/trustzone_images/core/securemsm/trustzone/qsapps/libs/applib/qsee64/build/sampleapp/A53_64/IADAANAA/tzapp_entrylib.lib(qsee_cipher.o)
 .debug_ranges  0x0000000000002420      0x250 /local/mnt/workspace/CRMBuilds/TZ.BF.4.0.3.c1-00005-M8996AAAAANAZT-1_20170110_230814/b/HK11/trustzone_images/core/securemsm/trustzone/qsapps/libs/applib/qsee64/build/sampleapp/A53_64/IADAANAA/tzapp_entrylib.lib(qsee_hash.o)
 .debug_ranges  0x0000000000002670      0x130 /local/mnt/workspace/CRMBuilds/TZ.BF.4.0.3.c1-00005-M8996AAAAANAZT-1_20170110_230814/b/HK11/trustzone_images/core/securemsm/trustzone/qsapps/libs/applib/qsee64/build/sampleapp/A53_64/IADAANAA/tzapp_entrylib.lib(qsee_hmac.o)
 .debug_ranges  0x00000000000027a0      0x290 /local/mnt/workspace/CRMBuilds/TZ.BF.4.0.3.c1-00005-M8996AAAAANAZT-1_20170110_230814/b/HK11/trustzone_images/core/securemsm/trustzone/qsapps/libs/applib/qsee64/build/sampleapp/A53_64/IADAANAA/tzapp_entrylib.lib(qsee_i2c.o)
 .debug_ranges  0x0000000000002a30      0x160 /local/mnt/workspace/CRMBuilds/TZ.BF.4.0.3.c1-00005-M8996AAAAANAZT-1_20170110_230814/b/HK11/trustzone_images/core/securemsm/trustzone/qsapps/libs/applib/qsee64/build/sampleapp/A53_64/IADAANAA/tzapp_entrylib.lib(qsee_spi.o)
 .debug_ranges  0x0000000000002b90      0x330 /local/mnt/workspace/CRMBuilds/TZ.BF.4.0.3.c1-00005-M8996AAAAANAZT-1_20170110_230814/b/HK11/trustzone_images/core/securemsm/trustzone/qsapps/libs/applib/qsee64/build/sampleapp/A53_64/IADAANAA/tzapp_entrylib.lib(qsee_tlmm.o)
 .debug_ranges  0x0000000000002ec0        0x0 /local/mnt/workspace/CRMBuilds/TZ.BF.4.0.3.c1-00005-M8996AAAAANAZT-1_20170110_230814/b/HK11/trustzone_images/core/securemsm/trustzone/qsapps/libs/applib/qsee64/build/sampleapp/A53_64/IADAANAA/tzapp_entrylib.lib(qsee_bulletin_board_shim.o)
 .debug_ranges  0x0000000000002ec0       0x30 /local/mnt/workspace/CRMBuilds/TZ.BF.4.0.3.c1-00005-M8996AAAAANAZT-1_20170110_230814/b/HK11/trustzone_images/core/securemsm/trustzone/qsapps/libs/applib/qsee64/build/sampleapp/A53_64/IADAANAA/tzapp_entrylib.lib(qsee_dcache.o)
 .debug_ranges  0x0000000000002ef0      0x120 /local/mnt/workspace/CRMBuilds/TZ.BF.4.0.3.c1-00005-M8996AAAAANAZT-1_20170110_230814/b/HK11/trustzone_images/core/securemsm/trustzone/qsapps/libs/applib/qsee64/build/sampleapp/A53_64/IADAANAA/tzapp_entrylib.lib(qsee_shared_buffer.o)
 .debug_ranges  0x0000000000003010       0x30 /local/mnt/workspace/CRMBuilds/TZ.BF.4.0.3.c1-00005-M8996AAAAANAZT-1_20170110_230814/b/HK11/trustzone_images/core/securemsm/trustzone/qsapps/libs/applib/qsee64/build/sampleapp/A53_64/IADAANAA/tzapp_entrylib.lib(qsee_sync.o)
 .debug_ranges  0x0000000000003040       0x30 /local/mnt/workspace/CRMBuilds/TZ.BF.4.0.3.c1-00005-M8996AAAAANAZT-1_20170110_230814/b/HK11/trustzone_images/core/securemsm/trustzone/qsapps/libs/applib/qsee64/build/sampleapp/A53_64/IADAANAA/tzapp_entrylib.lib(qsee_oem_buffer.o)
 .debug_ranges  0x0000000000003070       0x30 /local/mnt/workspace/CRMBuilds/TZ.BF.4.0.3.c1-00005-M8996AAAAANAZT-1_20170110_230814/b/HK11/trustzone_images/core/securemsm/trustzone/qsapps/libs/applib/qsee64/build/sampleapp/A53_64/IADAANAA/tzapp_entrylib.lib(qsee_intmask.o)
 .debug_ranges  0x00000000000030a0       0x30 /local/mnt/workspace/CRMBuilds/TZ.BF.4.0.3.c1-00005-M8996AAAAANAZT-1_20170110_230814/b/HK11/trustzone_images/core/securemsm/trustzone/qsapps/libs/applib/qsee64/build/sampleapp/A53_64/IADAANAA/tzapp_entrylib.lib(qsee_trans_ns_addr.o)
 .debug_ranges  0x00000000000030d0       0xc0 /local/mnt/workspace/CRMBuilds/TZ.BF.4.0.3.c1-00005-M8996AAAAANAZT-1_20170110_230814/b/HK11/trustzone_images/core/securemsm/trustzone/qsapps/libs/applib/qsee64/build/sampleapp/A53_64/IADAANAA/tzapp_entrylib.lib(qsee_appmessage.o)
 .debug_ranges  0x0000000000003190        0x0 /local/mnt/workspace/CRMBuilds/TZ.BF.4.0.3.c1-00005-M8996AAAAANAZT-1_20170110_230814/b/HK11/trustzone_images/core/securemsm/trustzone/qsapps/libs/applib/qsee64/build/sampleapp/A53_64/IADAANAA/tzapp_entrylib.lib(sfs_api.o)
 .debug_ranges  0x0000000000003190        0x0 /local/mnt/workspace/CRMBuilds/TZ.BF.4.0.3.c1-00005-M8996AAAAANAZT-1_20170110_230814/b/HK11/trustzone_images/core/securemsm/trustzone/qsapps/libs/applib/qsee64/build/sampleapp/A53_64/IADAANAA/tzapp_entrylib.lib(tzapp_lib_main.o)
 .debug_ranges  0x0000000000003190      0x280 /local/mnt/workspace/CRMBuilds/TZ.BF.4.0.3.c1-00005-M8996AAAAANAZT-1_20170110_230814/b/HK11/trustzone_images/core/securemsm/trustzone/qsapps/libs/biometric/build/sampleapp/A53_64/IADAANAA/biometric_lib.lib(biometric.o)
 .debug_ranges  0x0000000000003410      0x6b0 /local/mnt/workspace/CRMBuilds/TZ.BF.4.0.3.c1-00005-M8996AAAAANAZT-1_20170110_230814/b/HK11/trustzone_images/core/securemsm/trustzone/qsapps/libs/biometric/build/sampleapp/A53_64/IADAANAA/biometric_lib.lib(biometric_serializer.o)
 .debug_ranges  0x0000000000003ac0        0x0 /local/mnt/workspace/CRMBuilds/TZ.BF.4.0.3.c1-00005-M8996AAAAANAZT-1_20170110_230814/b/HK11/trustzone_images/core/securemsm/sse/qsee/SecureTouch/drTs/lib/build/sampleapp/A53_64/IADAANAA/touch_lib.lib(01_open.o)
 .debug_ranges  0x0000000000003ac0        0x0 /local/mnt/workspace/CRMBuilds/TZ.BF.4.0.3.c1-00005-M8996AAAAANAZT-1_20170110_230814/b/HK11/trustzone_images/core/securemsm/sse/qsee/SecureTouch/drTs/lib/build/sampleapp/A53_64/IADAANAA/touch_lib.lib(02_close.o)
 .debug_ranges  0x0000000000003ac0        0x0 /local/mnt/workspace/CRMBuilds/TZ.BF.4.0.3.c1-00005-M8996AAAAANAZT-1_20170110_230814/b/HK11/trustzone_images/core/securemsm/sse/qsee/SecureTouch/drTs/lib/build/sampleapp/A53_64/IADAANAA/touch_lib.lib(03_getData.o)
 .debug_ranges  0x0000000000003ac0        0x0 /local/mnt/workspace/CRMBuilds/TZ.BF.4.0.3.c1-00005-M8996AAAAANAZT-1_20170110_230814/b/HK11/trustzone_images/core/securemsm/trustzone/qsapps/libs/applib/common_applib/build/sampleapp/A53_64/IADAANAA/tzapp_entrylib.lib(gpPersistObjCommon.o)
 .debug_ranges  0x0000000000003ac0        0x0 /local/mnt/workspace/CRMBuilds/TZ.BF.4.0.3.c1-00005-M8996AAAAANAZT-1_20170110_230814/b/HK11/trustzone_images/core/securemsm/trustzone/qsapps/libs/applib/common_applib/build/sampleapp/A53_64/IADAANAA/tzapp_entrylib.lib(gpPersistentObjects.o)
 .debug_ranges  0x0000000000003ac0      0x790 /local/mnt/workspace/CRMBuilds/TZ.BF.4.0.3.c1-00005-M8996AAAAANAZT-1_20170110_230814/b/HK11/trustzone_images/core/securemsm/trustzone/qsapps/libs/applib/common_applib/build/sampleapp/A53_64/IADAANAA/tzapp_entrylib.lib(gpPersistObjData.o)
 .debug_ranges  0x0000000000004250       0xa0 /local/mnt/workspace/CRMBuilds/TZ.BF.4.0.3.c1-00005-M8996AAAAANAZT-1_20170110_230814/b/HK11/trustzone_images/core/securemsm/trustzone/qsapps/libs/applib/common_applib/build/sampleapp/A53_64/IADAANAA/tzapp_entrylib.lib(gpPersistObjHandler.o)
 .debug_ranges  0x00000000000042f0      0x5c0 /local/mnt/workspace/CRMBuilds/TZ.BF.4.0.3.c1-00005-M8996AAAAANAZT-1_20170110_230814/b/HK11/trustzone_images/core/securemsm/trustzone/qsapps/libs/applib/common_applib/build/sampleapp/A53_64/IADAANAA/tzapp_entrylib.lib(gpPersistObjIndex.o)
 .debug_ranges  0x00000000000048b0      0x520 /local/mnt/workspace/CRMBuilds/TZ.BF.4.0.3.c1-00005-M8996AAAAANAZT-1_20170110_230814/b/HK11/trustzone_images/core/securemsm/trustzone/qsapps/libs/applib/common_applib/build/sampleapp/A53_64/IADAANAA/tzapp_entrylib.lib(gpPersistObjVersion.o)
 .debug_ranges  0x0000000000004dd0      0x140 /local/mnt/workspace/CRMBuilds/TZ.BF.4.0.3.c1-00005-M8996AAAAANAZT-1_20170110_230814/b/HK11/trustzone_images/core/securemsm/trustzone/qsapps/libs/applib/common_applib/build/sampleapp/A53_64/IADAANAA/tzapp_entrylib.lib(gpPersistObjCrypto.o)
 .debug_ranges  0x0000000000004f10        0x0 /local/mnt/workspace/CRMBuilds/TZ.BF.4.0.3.c1-00005-M8996AAAAANAZT-1_20170110_230814/b/HK11/trustzone_images/core/securemsm/trustzone/qsapps/libs/applib/common_applib/build/sampleapp/A53_64/IADAANAA/tzapp_entrylib.lib(gpPersistObjFileIO.o)
 .debug_ranges  0x0000000000004f10        0x0 /local/mnt/workspace/CRMBuilds/TZ.BF.4.0.3.c1-00005-M8996AAAAANAZT-1_20170110_230814/b/HK11/trustzone_images/core/securemsm/trustzone/qsapps/libs/applib/common_applib/build/sampleapp/A53_64/IADAANAA/tzapp_entrylib.lib(gpFileService.o)
 .debug_ranges  0x0000000000004f10        0x0 /local/mnt/workspace/CRMBuilds/TZ.BF.4.0.3.c1-00005-M8996AAAAANAZT-1_20170110_230814/b/HK11/trustzone_images/core/securemsm/trustzone/qsapps/libs/applib/qsee64/build/sampleapp/A53_64/IADAANAA/tzapp_entrylib.lib(qsee_cfg_prop_shim.o)
 .debug_ranges  0x0000000000004f10        0x0 /local/mnt/workspace/CRMBuilds/TZ.BF.4.0.3.c1-00005-M8996AAAAANAZT-1_20170110_230814/b/HK11/trustzone_images/core/securemsm/trustzone/qsapps/libs/applib/qsee64/build/sampleapp/A53_64/IADAANAA/tzapp_entrylib.lib(gpPersistObjPanic.o)
 .debug_ranges  0x0000000000004f10      0x260 /local/mnt/workspace/CRMBuilds/TZ.BF.4.0.3.c1-00005-M8996AAAAANAZT-1_20170110_230814/b/HK11/trustzone_images/core/securemsm/sse/SecureTouch/controller/build/sampleapp/A53_64/IADAANAA/drts_controller_msm8996.lib(atmel_mxt_ts.o)
 .debug_ranges  0x0000000000005170      0x430 /local/mnt/workspace/CRMBuilds/TZ.BF.4.0.3.c1-00005-M8996AAAAANAZT-1_20170110_230814/b/HK11/trustzone_images/core/securemsm/sse/SecureTouch/controller/build/sampleapp/A53_64/IADAANAA/drts_controller_msm8996.lib(synaptics_ts.o)
 .debug_ranges  0x00000000000055a0        0x0 /local/mnt/workspace/CRMBuilds/TZ.BF.4.0.3.c1-00005-M8996AAAAANAZT-1_20170110_230814/b/HK11/trustzone_images/core/securemsm/sse/log/build/sampleapp/A53_64/IADAANAA/sselog.lib(sselog.o)
 .debug_ranges  0x00000000000055a0        0x0 /local/mnt/workspace/CRMBuilds/TZ.BF.4.0.3.c1-00005-M8996AAAAANAZT-1_20170110_230814/b/HK11/trustzone_images/core/securemsm/sse/qsee/SecureTouch/drTs/controller/build/sampleapp/A53_64/IADAANAA/touch_controller_i2c_msm8996.lib(atmel_mxt_ts_i2c.o)
 .debug_ranges  0x00000000000055a0        0x0 /local/mnt/workspace/CRMBuilds/TZ.BF.4.0.3.c1-00005-M8996AAAAANAZT-1_20170110_230814/b/HK11/trustzone_images/core/securemsm/sse/qsee/SecureTouch/drTs/controller/build/sampleapp/A53_64/IADAANAA/touch_controller_i2c_msm8996.lib(synaptics_ts_i2c.o)

.comment        0x0000000000000000       0x44
 .comment       0x0000000000000000       0x23 /local/mnt/workspace/CRMBuilds/TZ.BF.4.0.3.c1-00005-M8996AAAAANAZT-1_20170110_230814/b/HK11/trustzone_images/core/securemsm/trustzone/qsapps/smplap64/build/sampleapp/A53_64/IADAANAA/app_main.o
                                         0x24 (size before relaxing)
 .comment       0x0000000000000000       0x24 /local/mnt/workspace/CRMBuilds/TZ.BF.4.0.3.c1-00005-M8996AAAAANAZT-1_20170110_230814/b/HK11/trustzone_images/core/securemsm/trustzone/qsapps/smplap64/build/sampleapp/A53_64/IADAANAA/app_smplserv_test.o
 .comment       0x0000000000000000       0x24 /local/mnt/workspace/CRMBuilds/TZ.BF.4.0.3.c1-00005-M8996AAAAANAZT-1_20170110_230814/b/HK11/trustzone_images/core/securemsm/trustzone/qsapps/smplap64/build/sampleapp/A53_64/IADAANAA/app_smplcert_test.o
 .comment       0x0000000000000000       0x24 /local/mnt/workspace/CRMBuilds/TZ.BF.4.0.3.c1-00005-M8996AAAAANAZT-1_20170110_230814/b/HK11/trustzone_images/core/securemsm/trustzone/qsapps/smplap64/build/sampleapp/A53_64/IADAANAA/app_crypto.o
 .comment       0x0000000000000000       0x24 /local/mnt/workspace/CRMBuilds/TZ.BF.4.0.3.c1-00005-M8996AAAAANAZT-1_20170110_230814/b/HK11/trustzone_images/core/securemsm/trustzone/qsapps/smplap64/build/sampleapp/A53_64/IADAANAA/app_sfs.o
 .comment       0x0000000000000000       0x24 /local/mnt/workspace/CRMBuilds/TZ.BF.4.0.3.c1-00005-M8996AAAAANAZT-1_20170110_230814/b/HK11/trustzone_images/core/securemsm/trustzone/qsapps/smplap64/build/sampleapp/A53_64/IADAANAA/app_rsa.o
 .comment       0x0000000000000000       0x24 /local/mnt/workspace/CRMBuilds/TZ.BF.4.0.3.c1-00005-M8996AAAAANAZT-1_20170110_230814/b/HK11/trustzone_images/core/securemsm/trustzone/qsapps/smplap64/build/sampleapp/A53_64/IADAANAA/qsee_api_tests.o
 .comment       0x0000000000000000       0x24 /local/mnt/workspace/CRMBuilds/TZ.BF.4.0.3.c1-00005-M8996AAAAANAZT-1_20170110_230814/b/HK11/trustzone_images/core/securemsm/trustzone/qsapps/smplap64/build/sampleapp/A53_64/IADAANAA/app_cmnlib.o
 .comment       0x0000000000000000       0x24 /local/mnt/workspace/CRMBuilds/TZ.BF.4.0.3.c1-00005-M8996AAAAANAZT-1_20170110_230814/b/HK11/trustzone_images/core/securemsm/trustzone/qsapps/smplap64/build/sampleapp/A53_64/IADAANAA/app_message_passing.o
 .comment       0x0000000000000000       0x24 /local/mnt/workspace/CRMBuilds/TZ.BF.4.0.3.c1-00005-M8996AAAAANAZT-1_20170110_230814/b/HK11/trustzone_images/core/securemsm/trustzone/qsapps/smplap64/build/sampleapp/A53_64/IADAANAA/app_fuses.o
 .comment       0x0000000000000000       0x24 /local/mnt/workspace/CRMBuilds/TZ.BF.4.0.3.c1-00005-M8996AAAAANAZT-1_20170110_230814/b/HK11/trustzone_images/core/securemsm/trustzone/qsapps/smplap64/build/sampleapp/A53_64/IADAANAA/app_stor.o
 .comment       0x0000000000000000       0x24 /local/mnt/workspace/CRMBuilds/TZ.BF.4.0.3.c1-00005-M8996AAAAANAZT-1_20170110_230814/b/HK11/trustzone_images/core/securemsm/trustzone/qsapps/smplap64/build/sampleapp/A53_64/IADAANAA/app_content_protection.o
 .comment       0x0000000000000000       0x24 /local/mnt/workspace/CRMBuilds/TZ.BF.4.0.3.c1-00005-M8996AAAAANAZT-1_20170110_230814/b/HK11/trustzone_images/core/securemsm/trustzone/qsapps/smplap64/build/sampleapp/A53_64/IADAANAA/app_secure_ui.o
 .comment       0x0000000000000000       0x24 /local/mnt/workspace/CRMBuilds/TZ.BF.4.0.3.c1-00005-M8996AAAAANAZT-1_20170110_230814/b/HK11/trustzone_images/core/securemsm/trustzone/qsapps/smplap64/build/sampleapp/A53_64/IADAANAA/app_bio_lib.o
 .comment       0x0000000000000000       0x24 /local/mnt/workspace/CRMBuilds/TZ.BF.4.0.3.c1-00005-M8996AAAAANAZT-1_20170110_230814/b/HK11/trustzone_images/core/securemsm/trustzone/qsapps/smplap64/build/sampleapp/A53_64/IADAANAA/app_bulletin_board.o
 .comment       0x0000000000000000       0x24 /local/mnt/workspace/CRMBuilds/TZ.BF.4.0.3.c1-00005-M8996AAAAANAZT-1_20170110_230814/b/HK11/trustzone_images/core/securemsm/trustzone/qsapps/smplap64/build/sampleapp/A53_64/IADAANAA/metadata.o
 .comment       0x0000000000000000       0x24 /local/mnt/workspace/CRMBuilds/TZ.BF.4.0.3.c1-00005-M8996AAAAANAZT-1_20170110_230814/b/HK11/trustzone_images/core/kernel/libstd/build/sampleapp/A53_64/IADAANAA/libstd.lib(memscpy.o)
 .comment       0x0000000000000000       0x24 /local/mnt/workspace/CRMBuilds/TZ.BF.4.0.3.c1-00005-M8996AAAAANAZT-1_20170110_230814/b/HK11/trustzone_images/core/kernel/libstd/build/sampleapp/A53_64/IADAANAA/libstd.lib(strlcpy.o)
 .comment       0x0000000000000000       0x24 /local/mnt/workspace/CRMBuilds/TZ.BF.4.0.3.c1-00005-M8996AAAAANAZT-1_20170110_230814/b/HK11/trustzone_images/core/kernel/libstd/build/sampleapp/A53_64/IADAANAA/libstd.lib(secure_memset.o)
 .comment       0x0000000000000000       0x24 /local/mnt/workspace/CRMBuilds/TZ.BF.4.0.3.c1-00005-M8996AAAAANAZT-1_20170110_230814/b/HK11/trustzone_images/core/kernel/libstd/build/sampleapp/A53_64/IADAANAA/libstd.lib(timesafe_memcmp.o)
 .comment       0x0000000000000000       0x24 /local/mnt/workspace/CRMBuilds/TZ.BF.4.0.3.c1-00005-M8996AAAAANAZT-1_20170110_230814/b/HK11/trustzone_images/core/kernel/libstd/build/sampleapp/A53_64/IADAANAA/libstd.lib(timesafe_strncmp.o)
 .comment       0x0000000000000000       0x24 /local/mnt/workspace/CRMBuilds/TZ.BF.4.0.3.c1-00005-M8996AAAAANAZT-1_20170110_230814/b/HK11/trustzone_images/core/securemsm/sse/qsee/SecureUI/build/sampleapp/A53_64/IADAANAA/secure_ui.lib(SecureUI.o)
 .comment       0x0000000000000000       0x24 /local/mnt/workspace/CRMBuilds/TZ.BF.4.0.3.c1-00005-M8996AAAAANAZT-1_20170110_230814/b/HK11/trustzone_images/core/securemsm/sse/qsee/SecureUILib/lib/build/sampleapp/A53_64/IADAANAA/secure_ui_lib.lib(SecureUILib.o)
 .comment       0x0000000000000000       0x24 /local/mnt/workspace/CRMBuilds/TZ.BF.4.0.3.c1-00005-M8996AAAAANAZT-1_20170110_230814/b/HK11/trustzone_images/core/securemsm/sse/qsee/SecureUILib/lib/build/sampleapp/A53_64/IADAANAA/secure_ui_lib.lib(01_startTouch.o)
 .comment       0x0000000000000000       0x24 /local/mnt/workspace/CRMBuilds/TZ.BF.4.0.3.c1-00005-M8996AAAAANAZT-1_20170110_230814/b/HK11/trustzone_images/core/securemsm/sse/qsee/SecureUILib/lib/build/sampleapp/A53_64/IADAANAA/secure_ui_lib.lib(02_processTouch.o)
 .comment       0x0000000000000000       0x24 /local/mnt/workspace/CRMBuilds/TZ.BF.4.0.3.c1-00005-M8996AAAAANAZT-1_20170110_230814/b/HK11/trustzone_images/core/securemsm/sse/qsee/SecureUILib/lib/build/sampleapp/A53_64/IADAANAA/secure_ui_lib.lib(03_stopTouch.o)
 .comment       0x0000000000000000       0x24 /local/mnt/workspace/CRMBuilds/TZ.BF.4.0.3.c1-00005-M8996AAAAANAZT-1_20170110_230814/b/HK11/trustzone_images/core/securemsm/trustzone/qsapps/libs/applib/common_applib/build/sampleapp/A53_64/IADAANAA/tzapp_entrylib.lib(common_applib.o)
 .comment       0x0000000000000000       0x24 /local/mnt/workspace/CRMBuilds/TZ.BF.4.0.3.c1-00005-M8996AAAAANAZT-1_20170110_230814/b/HK11/trustzone_images/core/securemsm/trustzone/qsapps/libs/applib/proxy/build/sampleapp/A53_64/IADAANAA/tzlib_proxy.lib(prxy_services.o)
 .comment       0x0000000000000000       0x24 /local/mnt/workspace/CRMBuilds/TZ.BF.4.0.3.c1-00005-M8996AAAAANAZT-1_20170110_230814/b/HK11/trustzone_images/core/securemsm/trustzone/qsapps/libs/applib/proxy/build/sampleapp/A53_64/IADAANAA/tzlib_proxy.lib(prxy_qsee_shim.o)
 .comment       0x0000000000000000       0x24 /local/mnt/workspace/CRMBuilds/TZ.BF.4.0.3.c1-00005-M8996AAAAANAZT-1_20170110_230814/b/HK11/trustzone_images/core/securemsm/trustzone/qsapps/libs/applib/proxy/build/sampleapp/A53_64/IADAANAA/tzlib_proxy.lib(prxy_ufaes.o)
 .comment       0x0000000000000000       0x24 /local/mnt/workspace/CRMBuilds/TZ.BF.4.0.3.c1-00005-M8996AAAAANAZT-1_20170110_230814/b/HK11/trustzone_images/core/securemsm/trustzone/qsapps/libs/applib/proxy/build/sampleapp/A53_64/IADAANAA/tzlib_proxy.lib(prxy_ufdes.o)
 .comment       0x0000000000000000       0x24 /local/mnt/workspace/CRMBuilds/TZ.BF.4.0.3.c1-00005-M8996AAAAANAZT-1_20170110_230814/b/HK11/trustzone_images/core/securemsm/trustzone/qsapps/libs/applib/proxy/build/sampleapp/A53_64/IADAANAA/tzlib_proxy.lib(prxy_ufsha.o)
 .comment       0x0000000000000000       0x24 /local/mnt/workspace/CRMBuilds/TZ.BF.4.0.3.c1-00005-M8996AAAAANAZT-1_20170110_230814/b/HK11/trustzone_images/core/securemsm/trustzone/qsapps/libs/applib/proxy/build/sampleapp/A53_64/IADAANAA/tzlib_proxy.lib(prxy_secmath.o)
 .comment       0x0000000000000000       0x24 /local/mnt/workspace/CRMBuilds/TZ.BF.4.0.3.c1-00005-M8996AAAAANAZT-1_20170110_230814/b/HK11/trustzone_images/core/securemsm/trustzone/qsapps/libs/applib/proxy/build/sampleapp/A53_64/IADAANAA/tzlib_proxy.lib(prxy_secrsa.o)
 .comment       0x0000000000000000       0x24 /local/mnt/workspace/CRMBuilds/TZ.BF.4.0.3.c1-00005-M8996AAAAANAZT-1_20170110_230814/b/HK11/trustzone_images/core/securemsm/trustzone/qsapps/libs/applib/proxy/build/sampleapp/A53_64/IADAANAA/tzlib_proxy.lib(prxy_ecc.o)
 .comment       0x0000000000000000       0x24 /local/mnt/workspace/CRMBuilds/TZ.BF.4.0.3.c1-00005-M8996AAAAANAZT-1_20170110_230814/b/HK11/trustzone_images/core/securemsm/trustzone/qsapps/libs/applib/qsee64/build/sampleapp/A53_64/IADAANAA/tzapp_entrylib.lib(mink_shared_code.o)
 .comment       0x0000000000000000       0x24 /local/mnt/workspace/CRMBuilds/TZ.BF.4.0.3.c1-00005-M8996AAAAANAZT-1_20170110_230814/b/HK11/trustzone_images/core/securemsm/trustzone/qsapps/libs/applib/qsee64/build/sampleapp/A53_64/IADAANAA/tzapp_entrylib.lib(qsee_env.o)
 .comment       0x0000000000000000       0x24 /local/mnt/workspace/CRMBuilds/TZ.BF.4.0.3.c1-00005-M8996AAAAANAZT-1_20170110_230814/b/HK11/trustzone_images/core/securemsm/trustzone/qsapps/libs/applib/qsee64/build/sampleapp/A53_64/IADAANAA/tzapp_entrylib.lib(qsee_core_shim.o)
 .comment       0x0000000000000000       0x24 /local/mnt/workspace/CRMBuilds/TZ.BF.4.0.3.c1-00005-M8996AAAAANAZT-1_20170110_230814/b/HK11/trustzone_images/core/securemsm/trustzone/qsapps/libs/applib/qsee64/build/sampleapp/A53_64/IADAANAA/tzapp_entrylib.lib(qsee_deviceid.o)
 .comment       0x0000000000000000       0x24 /local/mnt/workspace/CRMBuilds/TZ.BF.4.0.3.c1-00005-M8996AAAAANAZT-1_20170110_230814/b/HK11/trustzone_images/core/securemsm/trustzone/qsapps/libs/applib/qsee64/build/sampleapp/A53_64/IADAANAA/tzapp_entrylib.lib(qsee_prng.o)
 .comment       0x0000000000000000       0x24 /local/mnt/workspace/CRMBuilds/TZ.BF.4.0.3.c1-00005-M8996AAAAANAZT-1_20170110_230814/b/HK11/trustzone_images/core/securemsm/trustzone/qsapps/libs/applib/qsee64/build/sampleapp/A53_64/IADAANAA/tzapp_entrylib.lib(qsee_secdisp.o)
 .comment       0x0000000000000000       0x24 /local/mnt/workspace/CRMBuilds/TZ.BF.4.0.3.c1-00005-M8996AAAAANAZT-1_20170110_230814/b/HK11/trustzone_images/core/securemsm/trustzone/qsapps/libs/applib/qsee64/build/sampleapp/A53_64/IADAANAA/tzapp_entrylib.lib(qsee_nsmem.o)
 .comment       0x0000000000000000       0x24 /local/mnt/workspace/CRMBuilds/TZ.BF.4.0.3.c1-00005-M8996AAAAANAZT-1_20170110_230814/b/HK11/trustzone_images/core/securemsm/trustzone/qsapps/libs/applib/qsee64/build/sampleapp/A53_64/IADAANAA/tzapp_entrylib.lib(qsee_cmac.o)
 .comment       0x0000000000000000       0x24 /local/mnt/workspace/CRMBuilds/TZ.BF.4.0.3.c1-00005-M8996AAAAANAZT-1_20170110_230814/b/HK11/trustzone_images/core/securemsm/trustzone/qsapps/libs/applib/qsee64/build/sampleapp/A53_64/IADAANAA/tzapp_entrylib.lib(qsee_crypto_shim.o)
 .comment       0x0000000000000000       0x24 /local/mnt/workspace/CRMBuilds/TZ.BF.4.0.3.c1-00005-M8996AAAAANAZT-1_20170110_230814/b/HK11/trustzone_images/core/securemsm/trustzone/qsapps/libs/applib/qsee64/build/sampleapp/A53_64/IADAANAA/tzapp_entrylib.lib(qsee_timer_shim.o)
 .comment       0x0000000000000000       0x24 /local/mnt/workspace/CRMBuilds/TZ.BF.4.0.3.c1-00005-M8996AAAAANAZT-1_20170110_230814/b/HK11/trustzone_images/core/securemsm/trustzone/qsapps/libs/applib/qsee64/build/sampleapp/A53_64/IADAANAA/tzapp_entrylib.lib(qsee_comstr.o)
 .comment       0x0000000000000000       0x24 /local/mnt/workspace/CRMBuilds/TZ.BF.4.0.3.c1-00005-M8996AAAAANAZT-1_20170110_230814/b/HK11/trustzone_images/core/securemsm/trustzone/qsapps/libs/applib/qsee64/build/sampleapp/A53_64/IADAANAA/tzapp_entrylib.lib(stor.o)
 .comment       0x0000000000000000       0x24 /local/mnt/workspace/CRMBuilds/TZ.BF.4.0.3.c1-00005-M8996AAAAANAZT-1_20170110_230814/b/HK11/trustzone_images/core/securemsm/trustzone/qsapps/libs/applib/qsee64/build/sampleapp/A53_64/IADAANAA/tzapp_entrylib.lib(stor_gpt.o)
 .comment       0x0000000000000000       0x24 /local/mnt/workspace/CRMBuilds/TZ.BF.4.0.3.c1-00005-M8996AAAAANAZT-1_20170110_230814/b/HK11/trustzone_images/core/securemsm/trustzone/qsapps/libs/applib/qsee64/build/sampleapp/A53_64/IADAANAA/tzapp_entrylib.lib(stor_rpmbw.o)
 .comment       0x0000000000000000       0x24 /local/mnt/workspace/CRMBuilds/TZ.BF.4.0.3.c1-00005-M8996AAAAANAZT-1_20170110_230814/b/HK11/trustzone_images/core/securemsm/trustzone/qsapps/libs/applib/qsee64/build/sampleapp/A53_64/IADAANAA/tzapp_entrylib.lib(qsee_counter_shim.o)
 .comment       0x0000000000000000       0x24 /local/mnt/workspace/CRMBuilds/TZ.BF.4.0.3.c1-00005-M8996AAAAANAZT-1_20170110_230814/b/HK11/trustzone_images/core/securemsm/trustzone/qsapps/libs/applib/qsee64/build/sampleapp/A53_64/IADAANAA/tzapp_entrylib.lib(qsee_cipher.o)
 .comment       0x0000000000000000       0x24 /local/mnt/workspace/CRMBuilds/TZ.BF.4.0.3.c1-00005-M8996AAAAANAZT-1_20170110_230814/b/HK11/trustzone_images/core/securemsm/trustzone/qsapps/libs/applib/qsee64/build/sampleapp/A53_64/IADAANAA/tzapp_entrylib.lib(qsee_hash.o)
 .comment       0x0000000000000000       0x24 /local/mnt/workspace/CRMBuilds/TZ.BF.4.0.3.c1-00005-M8996AAAAANAZT-1_20170110_230814/b/HK11/trustzone_images/core/securemsm/trustzone/qsapps/libs/applib/qsee64/build/sampleapp/A53_64/IADAANAA/tzapp_entrylib.lib(qsee_hmac.o)
 .comment       0x0000000000000000       0x24 /local/mnt/workspace/CRMBuilds/TZ.BF.4.0.3.c1-00005-M8996AAAAANAZT-1_20170110_230814/b/HK11/trustzone_images/core/securemsm/trustzone/qsapps/libs/applib/qsee64/build/sampleapp/A53_64/IADAANAA/tzapp_entrylib.lib(qsee_i2c.o)
 .comment       0x0000000000000000       0x24 /local/mnt/workspace/CRMBuilds/TZ.BF.4.0.3.c1-00005-M8996AAAAANAZT-1_20170110_230814/b/HK11/trustzone_images/core/securemsm/trustzone/qsapps/libs/applib/qsee64/build/sampleapp/A53_64/IADAANAA/tzapp_entrylib.lib(qsee_spi.o)
 .comment       0x0000000000000000       0x24 /local/mnt/workspace/CRMBuilds/TZ.BF.4.0.3.c1-00005-M8996AAAAANAZT-1_20170110_230814/b/HK11/trustzone_images/core/securemsm/trustzone/qsapps/libs/applib/qsee64/build/sampleapp/A53_64/IADAANAA/tzapp_entrylib.lib(qsee_tlmm.o)
 .comment       0x0000000000000000       0x24 /local/mnt/workspace/CRMBuilds/TZ.BF.4.0.3.c1-00005-M8996AAAAANAZT-1_20170110_230814/b/HK11/trustzone_images/core/securemsm/trustzone/qsapps/libs/applib/qsee64/build/sampleapp/A53_64/IADAANAA/tzapp_entrylib.lib(qsee_bulletin_board_shim.o)
 .comment       0x0000000000000000       0x24 /local/mnt/workspace/CRMBuilds/TZ.BF.4.0.3.c1-00005-M8996AAAAANAZT-1_20170110_230814/b/HK11/trustzone_images/core/securemsm/trustzone/qsapps/libs/applib/qsee64/build/sampleapp/A53_64/IADAANAA/tzapp_entrylib.lib(qsee_dcache.o)
 .comment       0x0000000000000000       0x24 /local/mnt/workspace/CRMBuilds/TZ.BF.4.0.3.c1-00005-M8996AAAAANAZT-1_20170110_230814/b/HK11/trustzone_images/core/securemsm/trustzone/qsapps/libs/applib/qsee64/build/sampleapp/A53_64/IADAANAA/tzapp_entrylib.lib(qsee_shared_buffer.o)
 .comment       0x0000000000000000       0x24 /local/mnt/workspace/CRMBuilds/TZ.BF.4.0.3.c1-00005-M8996AAAAANAZT-1_20170110_230814/b/HK11/trustzone_images/core/securemsm/trustzone/qsapps/libs/applib/qsee64/build/sampleapp/A53_64/IADAANAA/tzapp_entrylib.lib(qsee_sync.o)
 .comment       0x0000000000000000       0x24 /local/mnt/workspace/CRMBuilds/TZ.BF.4.0.3.c1-00005-M8996AAAAANAZT-1_20170110_230814/b/HK11/trustzone_images/core/securemsm/trustzone/qsapps/libs/applib/qsee64/build/sampleapp/A53_64/IADAANAA/tzapp_entrylib.lib(qsee_oem_buffer.o)
 .comment       0x0000000000000000       0x24 /local/mnt/workspace/CRMBuilds/TZ.BF.4.0.3.c1-00005-M8996AAAAANAZT-1_20170110_230814/b/HK11/trustzone_images/core/securemsm/trustzone/qsapps/libs/applib/qsee64/build/sampleapp/A53_64/IADAANAA/tzapp_entrylib.lib(qsee_intmask.o)
 .comment       0x0000000000000000       0x24 /local/mnt/workspace/CRMBuilds/TZ.BF.4.0.3.c1-00005-M8996AAAAANAZT-1_20170110_230814/b/HK11/trustzone_images/core/securemsm/trustzone/qsapps/libs/applib/qsee64/build/sampleapp/A53_64/IADAANAA/tzapp_entrylib.lib(qsee_trans_ns_addr.o)
 .comment       0x0000000000000000       0x24 /local/mnt/workspace/CRMBuilds/TZ.BF.4.0.3.c1-00005-M8996AAAAANAZT-1_20170110_230814/b/HK11/trustzone_images/core/securemsm/trustzone/qsapps/libs/applib/qsee64/build/sampleapp/A53_64/IADAANAA/tzapp_entrylib.lib(qsee_appmessage.o)
 .comment       0x0000000000000000       0x24 /local/mnt/workspace/CRMBuilds/TZ.BF.4.0.3.c1-00005-M8996AAAAANAZT-1_20170110_230814/b/HK11/trustzone_images/core/securemsm/trustzone/qsapps/libs/applib/qsee64/build/sampleapp/A53_64/IADAANAA/tzapp_entrylib.lib(sfs_api.o)
 .comment       0x0000000000000000       0x24 /local/mnt/workspace/CRMBuilds/TZ.BF.4.0.3.c1-00005-M8996AAAAANAZT-1_20170110_230814/b/HK11/trustzone_images/core/securemsm/trustzone/qsapps/libs/applib/qsee64/build/sampleapp/A53_64/IADAANAA/tzapp_entrylib.lib(tzapp_lib_main.o)
 .comment       0x0000000000000000       0x24 /local/mnt/workspace/CRMBuilds/TZ.BF.4.0.3.c1-00005-M8996AAAAANAZT-1_20170110_230814/b/HK11/trustzone_images/core/securemsm/trustzone/qsapps/libs/biometric/build/sampleapp/A53_64/IADAANAA/biometric_lib.lib(biometric.o)
 .comment       0x0000000000000000       0x24 /local/mnt/workspace/CRMBuilds/TZ.BF.4.0.3.c1-00005-M8996AAAAANAZT-1_20170110_230814/b/HK11/trustzone_images/core/securemsm/trustzone/qsapps/libs/biometric/build/sampleapp/A53_64/IADAANAA/biometric_lib.lib(biometric_serializer.o)
 .comment       0x0000000000000023       0x21 /afs/localcell/cm/gv2.6/sysname/pkg.@sys/qct/software/llvm/release/arm/3.5.2.4/tools/lib64/lib/libc.a(vsnprintf.o)
                                         0x22 (size before relaxing)
 .comment       0x0000000000000000       0x22 /afs/localcell/cm/gv2.6/sysname/pkg.@sys/qct/software/llvm/release/arm/3.5.2.4/tools/lib64/lib/libc.a(memcmp.o)
 .comment       0x0000000000000000       0x22 /afs/localcell/cm/gv2.6/sysname/pkg.@sys/qct/software/llvm/release/arm/3.5.2.4/tools/lib64/lib/libc.a(memcpy.o)
 .comment       0x0000000000000000       0x22 /afs/localcell/cm/gv2.6/sysname/pkg.@sys/qct/software/llvm/release/arm/3.5.2.4/tools/lib64/lib/libc.a(memmove.o)
 .comment       0x0000000000000000       0x22 /afs/localcell/cm/gv2.6/sysname/pkg.@sys/qct/software/llvm/release/arm/3.5.2.4/tools/lib64/lib/libc.a(memset.o)
 .comment       0x0000000000000000       0x22 /afs/localcell/cm/gv2.6/sysname/pkg.@sys/qct/software/llvm/release/arm/3.5.2.4/tools/lib64/lib/libc.a(strcmp.o)
 .comment       0x0000000000000000       0x22 /afs/localcell/cm/gv2.6/sysname/pkg.@sys/qct/software/llvm/release/arm/3.5.2.4/tools/lib64/lib/libc.a(strlen.o)
 .comment       0x0000000000000000       0x22 /afs/localcell/cm/gv2.6/sysname/pkg.@sys/qct/software/llvm/release/arm/3.5.2.4/tools/lib64/lib/libc.a(strncmp.o)
 .comment       0x0000000000000000       0x22 /afs/localcell/cm/gv2.6/sysname/pkg.@sys/qct/software/llvm/release/arm/3.5.2.4/tools/lib64/lib/libc.a(strnlen.o)
 .comment       0x0000000000000000       0x22 /afs/localcell/cm/gv2.6/sysname/pkg.@sys/qct/software/llvm/release/arm/3.5.2.4/tools/lib64/lib/libc.a(__errno_location.o)
 .comment       0x0000000000000000       0x22 /afs/localcell/cm/gv2.6/sysname/pkg.@sys/qct/software/llvm/release/arm/3.5.2.4/tools/lib64/lib/libc.a(libc.o)
 .comment       0x0000000000000000       0x22 /afs/localcell/cm/gv2.6/sysname/pkg.@sys/qct/software/llvm/release/arm/3.5.2.4/tools/lib64/lib/libc.a(vfprintf.o)
 .comment       0x0000000000000000       0x22 /afs/localcell/cm/gv2.6/sysname/pkg.@sys/qct/software/llvm/release/arm/3.5.2.4/tools/lib64/lib/libc.a(memchr.o)
 .comment       0x0000000000000000       0x22 /afs/localcell/cm/gv2.6/sysname/pkg.@sys/qct/software/llvm/release/arm/3.5.2.4/tools/lib64/lib/libc.a(strerror.o)
 .comment       0x0000000000000000       0x22 /afs/localcell/cm/gv2.6/sysname/pkg.@sys/qct/software/llvm/release/arm/3.5.2.4/tools/lib64/lib/libc.a(wctomb.o)
 .comment       0x0000000000000000       0x22 /afs/localcell/cm/gv2.6/sysname/pkg.@sys/qct/software/llvm/release/arm/3.5.2.4/tools/lib64/lib/libc.a(__lockfile.o)
 .comment       0x0000000000000000       0x22 /afs/localcell/cm/gv2.6/sysname/pkg.@sys/qct/software/llvm/release/arm/3.5.2.4/tools/lib64/lib/libc.a(fwrite.o)
 .comment       0x0000000000000000       0x22 /afs/localcell/cm/gv2.6/sysname/pkg.@sys/qct/software/llvm/release/arm/3.5.2.4/tools/lib64/lib/libc.a(__wait.o)
 .comment       0x0000000000000000       0x22 /afs/localcell/cm/gv2.6/sysname/pkg.@sys/qct/software/llvm/release/arm/3.5.2.4/tools/lib64/lib/libc.a(wcrtomb.o)
 .comment       0x0000000000000000       0x22 /afs/localcell/cm/gv2.6/sysname/pkg.@sys/qct/software/llvm/release/arm/3.5.2.4/tools/lib64/lib/libc.a(__towrite.o)
 .comment       0x0000000000000000       0x22 /afs/localcell/cm/gv2.6/sysname/pkg.@sys/qct/software/llvm/release/arm/3.5.2.4/tools/lib64/lib/libc.a(__stdio_exit.o)
 .comment       0x0000000000000000       0x22 /afs/localcell/cm/gv2.6/sysname/pkg.@sys/qct/software/llvm/release/arm/3.5.2.4/tools/lib64/lib/libc.a(__lock.o)
 .comment       0x0000000000000000       0x24 /local/mnt/workspace/CRMBuilds/TZ.BF.4.0.3.c1-00005-M8996AAAAANAZT-1_20170110_230814/b/HK11/trustzone_images/core/securemsm/sse/qsee/SecureTouch/drTs/lib/build/sampleapp/A53_64/IADAANAA/touch_lib.lib(01_open.o)
 .comment       0x0000000000000000       0x24 /local/mnt/workspace/CRMBuilds/TZ.BF.4.0.3.c1-00005-M8996AAAAANAZT-1_20170110_230814/b/HK11/trustzone_images/core/securemsm/sse/qsee/SecureTouch/drTs/lib/build/sampleapp/A53_64/IADAANAA/touch_lib.lib(02_close.o)
 .comment       0x0000000000000000       0x24 /local/mnt/workspace/CRMBuilds/TZ.BF.4.0.3.c1-00005-M8996AAAAANAZT-1_20170110_230814/b/HK11/trustzone_images/core/securemsm/sse/qsee/SecureTouch/drTs/lib/build/sampleapp/A53_64/IADAANAA/touch_lib.lib(03_getData.o)
 .comment       0x0000000000000000       0x24 /local/mnt/workspace/CRMBuilds/TZ.BF.4.0.3.c1-00005-M8996AAAAANAZT-1_20170110_230814/b/HK11/trustzone_images/core/securemsm/trustzone/qsapps/libs/applib/common_applib/build/sampleapp/A53_64/IADAANAA/tzapp_entrylib.lib(gpPersistObjCommon.o)
 .comment       0x0000000000000000       0x24 /local/mnt/workspace/CRMBuilds/TZ.BF.4.0.3.c1-00005-M8996AAAAANAZT-1_20170110_230814/b/HK11/trustzone_images/core/securemsm/trustzone/qsapps/libs/applib/common_applib/build/sampleapp/A53_64/IADAANAA/tzapp_entrylib.lib(gpPersistentObjects.o)
 .comment       0x0000000000000000       0x24 /local/mnt/workspace/CRMBuilds/TZ.BF.4.0.3.c1-00005-M8996AAAAANAZT-1_20170110_230814/b/HK11/trustzone_images/core/securemsm/trustzone/qsapps/libs/applib/common_applib/build/sampleapp/A53_64/IADAANAA/tzapp_entrylib.lib(gpPersistObjData.o)
 .comment       0x0000000000000000       0x24 /local/mnt/workspace/CRMBuilds/TZ.BF.4.0.3.c1-00005-M8996AAAAANAZT-1_20170110_230814/b/HK11/trustzone_images/core/securemsm/trustzone/qsapps/libs/applib/common_applib/build/sampleapp/A53_64/IADAANAA/tzapp_entrylib.lib(gpPersistObjHandler.o)
 .comment       0x0000000000000000       0x24 /local/mnt/workspace/CRMBuilds/TZ.BF.4.0.3.c1-00005-M8996AAAAANAZT-1_20170110_230814/b/HK11/trustzone_images/core/securemsm/trustzone/qsapps/libs/applib/common_applib/build/sampleapp/A53_64/IADAANAA/tzapp_entrylib.lib(gpPersistObjIndex.o)
 .comment       0x0000000000000000       0x24 /local/mnt/workspace/CRMBuilds/TZ.BF.4.0.3.c1-00005-M8996AAAAANAZT-1_20170110_230814/b/HK11/trustzone_images/core/securemsm/trustzone/qsapps/libs/applib/common_applib/build/sampleapp/A53_64/IADAANAA/tzapp_entrylib.lib(gpPersistObjVersion.o)
 .comment       0x0000000000000000       0x24 /local/mnt/workspace/CRMBuilds/TZ.BF.4.0.3.c1-00005-M8996AAAAANAZT-1_20170110_230814/b/HK11/trustzone_images/core/securemsm/trustzone/qsapps/libs/applib/common_applib/build/sampleapp/A53_64/IADAANAA/tzapp_entrylib.lib(gpPersistObjCrypto.o)
 .comment       0x0000000000000000       0x24 /local/mnt/workspace/CRMBuilds/TZ.BF.4.0.3.c1-00005-M8996AAAAANAZT-1_20170110_230814/b/HK11/trustzone_images/core/securemsm/trustzone/qsapps/libs/applib/common_applib/build/sampleapp/A53_64/IADAANAA/tzapp_entrylib.lib(gpPersistObjFileIO.o)
 .comment       0x0000000000000000       0x24 /local/mnt/workspace/CRMBuilds/TZ.BF.4.0.3.c1-00005-M8996AAAAANAZT-1_20170110_230814/b/HK11/trustzone_images/core/securemsm/trustzone/qsapps/libs/applib/common_applib/build/sampleapp/A53_64/IADAANAA/tzapp_entrylib.lib(gpFileService.o)
 .comment       0x0000000000000000       0x24 /local/mnt/workspace/CRMBuilds/TZ.BF.4.0.3.c1-00005-M8996AAAAANAZT-1_20170110_230814/b/HK11/trustzone_images/core/securemsm/trustzone/qsapps/libs/applib/qsee64/build/sampleapp/A53_64/IADAANAA/tzapp_entrylib.lib(qsee_cfg_prop_shim.o)
 .comment       0x0000000000000000       0x24 /local/mnt/workspace/CRMBuilds/TZ.BF.4.0.3.c1-00005-M8996AAAAANAZT-1_20170110_230814/b/HK11/trustzone_images/core/securemsm/trustzone/qsapps/libs/applib/qsee64/build/sampleapp/A53_64/IADAANAA/tzapp_entrylib.lib(gpPersistObjPanic.o)
 .comment       0x0000000000000000       0x22 /afs/localcell/cm/gv2.6/sysname/pkg.@sys/qct/software/llvm/release/arm/3.5.2.4/tools/lib64/lib/libc.a(strlcat.o)
 .comment       0x0000000000000000       0x24 /local/mnt/workspace/CRMBuilds/TZ.BF.4.0.3.c1-00005-M8996AAAAANAZT-1_20170110_230814/b/HK11/trustzone_images/core/securemsm/sse/SecureTouch/controller/build/sampleapp/A53_64/IADAANAA/drts_controller_msm8996.lib(atmel_mxt_ts.o)
 .comment       0x0000000000000000       0x24 /local/mnt/workspace/CRMBuilds/TZ.BF.4.0.3.c1-00005-M8996AAAAANAZT-1_20170110_230814/b/HK11/trustzone_images/core/securemsm/sse/SecureTouch/controller/build/sampleapp/A53_64/IADAANAA/drts_controller_msm8996.lib(synaptics_ts.o)
 .comment       0x0000000000000000       0x24 /local/mnt/workspace/CRMBuilds/TZ.BF.4.0.3.c1-00005-M8996AAAAANAZT-1_20170110_230814/b/HK11/trustzone_images/core/securemsm/sse/log/build/sampleapp/A53_64/IADAANAA/sselog.lib(sselog.o)
 .comment       0x0000000000000000       0x24 /local/mnt/workspace/CRMBuilds/TZ.BF.4.0.3.c1-00005-M8996AAAAANAZT-1_20170110_230814/b/HK11/trustzone_images/core/securemsm/sse/qsee/SecureTouch/drTs/controller/build/sampleapp/A53_64/IADAANAA/touch_controller_i2c_msm8996.lib(atmel_mxt_ts_i2c.o)
 .comment       0x0000000000000000       0x24 /local/mnt/workspace/CRMBuilds/TZ.BF.4.0.3.c1-00005-M8996AAAAANAZT-1_20170110_230814/b/HK11/trustzone_images/core/securemsm/sse/qsee/SecureTouch/drTs/controller/build/sampleapp/A53_64/IADAANAA/touch_controller_i2c_msm8996.lib(synaptics_ts_i2c.o)
 .comment       0x0000000000000000       0x22 /afs/localcell/cm/gv2.6/sysname/pkg.@sys/qct/software/llvm/release/arm/3.5.2.4/tools/lib64/lib/libc.a(snprintf.o)

.debug_frame    0x0000000000000000     0x6418
 .debug_frame   0x0000000000000000       0x88 /local/mnt/workspace/CRMBuilds/TZ.BF.4.0.3.c1-00005-M8996AAAAANAZT-1_20170110_230814/b/HK11/trustzone_images/core/securemsm/trustzone/qsapps/smplap64/build/sampleapp/A53_64/IADAANAA/app_main.o
 .debug_frame   0x0000000000000088       0x60 /local/mnt/workspace/CRMBuilds/TZ.BF.4.0.3.c1-00005-M8996AAAAANAZT-1_20170110_230814/b/HK11/trustzone_images/core/securemsm/trustzone/qsapps/smplap64/build/sampleapp/A53_64/IADAANAA/app_smplserv_test.o
 .debug_frame   0x00000000000000e8       0x38 /local/mnt/workspace/CRMBuilds/TZ.BF.4.0.3.c1-00005-M8996AAAAANAZT-1_20170110_230814/b/HK11/trustzone_images/core/securemsm/trustzone/qsapps/smplap64/build/sampleapp/A53_64/IADAANAA/app_smplcert_test.o
 .debug_frame   0x0000000000000120      0xc28 /local/mnt/workspace/CRMBuilds/TZ.BF.4.0.3.c1-00005-M8996AAAAANAZT-1_20170110_230814/b/HK11/trustzone_images/core/securemsm/trustzone/qsapps/smplap64/build/sampleapp/A53_64/IADAANAA/app_crypto.o
 .debug_frame   0x0000000000000d48      0x240 /local/mnt/workspace/CRMBuilds/TZ.BF.4.0.3.c1-00005-M8996AAAAANAZT-1_20170110_230814/b/HK11/trustzone_images/core/securemsm/trustzone/qsapps/smplap64/build/sampleapp/A53_64/IADAANAA/app_sfs.o
 .debug_frame   0x0000000000000f88      0x1b8 /local/mnt/workspace/CRMBuilds/TZ.BF.4.0.3.c1-00005-M8996AAAAANAZT-1_20170110_230814/b/HK11/trustzone_images/core/securemsm/trustzone/qsapps/smplap64/build/sampleapp/A53_64/IADAANAA/app_rsa.o
 .debug_frame   0x0000000000001140      0x280 /local/mnt/workspace/CRMBuilds/TZ.BF.4.0.3.c1-00005-M8996AAAAANAZT-1_20170110_230814/b/HK11/trustzone_images/core/securemsm/trustzone/qsapps/smplap64/build/sampleapp/A53_64/IADAANAA/qsee_api_tests.o
 .debug_frame   0x00000000000013c0       0x80 /local/mnt/workspace/CRMBuilds/TZ.BF.4.0.3.c1-00005-M8996AAAAANAZT-1_20170110_230814/b/HK11/trustzone_images/core/securemsm/trustzone/qsapps/smplap64/build/sampleapp/A53_64/IADAANAA/app_cmnlib.o
 .debug_frame   0x0000000000001440       0x40 /local/mnt/workspace/CRMBuilds/TZ.BF.4.0.3.c1-00005-M8996AAAAANAZT-1_20170110_230814/b/HK11/trustzone_images/core/securemsm/trustzone/qsapps/smplap64/build/sampleapp/A53_64/IADAANAA/app_message_passing.o
 .debug_frame   0x0000000000001480       0x58 /local/mnt/workspace/CRMBuilds/TZ.BF.4.0.3.c1-00005-M8996AAAAANAZT-1_20170110_230814/b/HK11/trustzone_images/core/securemsm/trustzone/qsapps/smplap64/build/sampleapp/A53_64/IADAANAA/app_fuses.o
 .debug_frame   0x00000000000014d8      0x250 /local/mnt/workspace/CRMBuilds/TZ.BF.4.0.3.c1-00005-M8996AAAAANAZT-1_20170110_230814/b/HK11/trustzone_images/core/securemsm/trustzone/qsapps/smplap64/build/sampleapp/A53_64/IADAANAA/app_stor.o
 .debug_frame   0x0000000000001728       0x78 /local/mnt/workspace/CRMBuilds/TZ.BF.4.0.3.c1-00005-M8996AAAAANAZT-1_20170110_230814/b/HK11/trustzone_images/core/securemsm/trustzone/qsapps/smplap64/build/sampleapp/A53_64/IADAANAA/app_content_protection.o
 .debug_frame   0x00000000000017a0      0x178 /local/mnt/workspace/CRMBuilds/TZ.BF.4.0.3.c1-00005-M8996AAAAANAZT-1_20170110_230814/b/HK11/trustzone_images/core/securemsm/trustzone/qsapps/smplap64/build/sampleapp/A53_64/IADAANAA/app_secure_ui.o
 .debug_frame   0x0000000000001918      0x310 /local/mnt/workspace/CRMBuilds/TZ.BF.4.0.3.c1-00005-M8996AAAAANAZT-1_20170110_230814/b/HK11/trustzone_images/core/securemsm/trustzone/qsapps/smplap64/build/sampleapp/A53_64/IADAANAA/app_bio_lib.o
 .debug_frame   0x0000000000001c28      0x308 /local/mnt/workspace/CRMBuilds/TZ.BF.4.0.3.c1-00005-M8996AAAAANAZT-1_20170110_230814/b/HK11/trustzone_images/core/securemsm/trustzone/qsapps/smplap64/build/sampleapp/A53_64/IADAANAA/app_bulletin_board.o
 .debug_frame   0x0000000000001f30       0x38 /local/mnt/workspace/CRMBuilds/TZ.BF.4.0.3.c1-00005-M8996AAAAANAZT-1_20170110_230814/b/HK11/trustzone_images/core/kernel/libstd/build/sampleapp/A53_64/IADAANAA/libstd.lib(memscpy.o)
 .debug_frame   0x0000000000001f68       0x28 /local/mnt/workspace/CRMBuilds/TZ.BF.4.0.3.c1-00005-M8996AAAAANAZT-1_20170110_230814/b/HK11/trustzone_images/core/kernel/libstd/build/sampleapp/A53_64/IADAANAA/libstd.lib(strlcpy.o)
 .debug_frame   0x0000000000001f90       0x38 /local/mnt/workspace/CRMBuilds/TZ.BF.4.0.3.c1-00005-M8996AAAAANAZT-1_20170110_230814/b/HK11/trustzone_images/core/kernel/libstd/build/sampleapp/A53_64/IADAANAA/libstd.lib(secure_memset.o)
 .debug_frame   0x0000000000001fc8       0x28 /local/mnt/workspace/CRMBuilds/TZ.BF.4.0.3.c1-00005-M8996AAAAANAZT-1_20170110_230814/b/HK11/trustzone_images/core/kernel/libstd/build/sampleapp/A53_64/IADAANAA/libstd.lib(timesafe_memcmp.o)
 .debug_frame   0x0000000000001ff0       0x30 /local/mnt/workspace/CRMBuilds/TZ.BF.4.0.3.c1-00005-M8996AAAAANAZT-1_20170110_230814/b/HK11/trustzone_images/core/kernel/libstd/build/sampleapp/A53_64/IADAANAA/libstd.lib(timesafe_strncmp.o)
 .debug_frame   0x0000000000002020      0x320 /local/mnt/workspace/CRMBuilds/TZ.BF.4.0.3.c1-00005-M8996AAAAANAZT-1_20170110_230814/b/HK11/trustzone_images/core/securemsm/sse/qsee/SecureUI/build/sampleapp/A53_64/IADAANAA/secure_ui.lib(SecureUI.o)
 .debug_frame   0x0000000000002340       0xa0 /local/mnt/workspace/CRMBuilds/TZ.BF.4.0.3.c1-00005-M8996AAAAANAZT-1_20170110_230814/b/HK11/trustzone_images/core/securemsm/sse/qsee/SecureUILib/lib/build/sampleapp/A53_64/IADAANAA/secure_ui_lib.lib(SecureUILib.o)
 .debug_frame   0x00000000000023e0       0x38 /local/mnt/workspace/CRMBuilds/TZ.BF.4.0.3.c1-00005-M8996AAAAANAZT-1_20170110_230814/b/HK11/trustzone_images/core/securemsm/sse/qsee/SecureUILib/lib/build/sampleapp/A53_64/IADAANAA/secure_ui_lib.lib(01_startTouch.o)
 .debug_frame   0x0000000000002418       0x40 /local/mnt/workspace/CRMBuilds/TZ.BF.4.0.3.c1-00005-M8996AAAAANAZT-1_20170110_230814/b/HK11/trustzone_images/core/securemsm/sse/qsee/SecureUILib/lib/build/sampleapp/A53_64/IADAANAA/secure_ui_lib.lib(02_processTouch.o)
 .debug_frame   0x0000000000002458       0x60 /local/mnt/workspace/CRMBuilds/TZ.BF.4.0.3.c1-00005-M8996AAAAANAZT-1_20170110_230814/b/HK11/trustzone_images/core/securemsm/sse/qsee/SecureUILib/lib/build/sampleapp/A53_64/IADAANAA/secure_ui_lib.lib(03_stopTouch.o)
 .debug_frame   0x00000000000024b8      0x3b0 /local/mnt/workspace/CRMBuilds/TZ.BF.4.0.3.c1-00005-M8996AAAAANAZT-1_20170110_230814/b/HK11/trustzone_images/core/securemsm/trustzone/qsapps/libs/applib/common_applib/build/sampleapp/A53_64/IADAANAA/tzapp_entrylib.lib(common_applib.o)
 .debug_frame   0x0000000000002868      0x340 /local/mnt/workspace/CRMBuilds/TZ.BF.4.0.3.c1-00005-M8996AAAAANAZT-1_20170110_230814/b/HK11/trustzone_images/core/securemsm/trustzone/qsapps/libs/applib/proxy/build/sampleapp/A53_64/IADAANAA/tzlib_proxy.lib(prxy_services.o)
 .debug_frame   0x0000000000002ba8      0x3e8 /local/mnt/workspace/CRMBuilds/TZ.BF.4.0.3.c1-00005-M8996AAAAANAZT-1_20170110_230814/b/HK11/trustzone_images/core/securemsm/trustzone/qsapps/libs/applib/proxy/build/sampleapp/A53_64/IADAANAA/tzlib_proxy.lib(prxy_qsee_shim.o)
 .debug_frame   0x0000000000002f90       0xe8 /local/mnt/workspace/CRMBuilds/TZ.BF.4.0.3.c1-00005-M8996AAAAANAZT-1_20170110_230814/b/HK11/trustzone_images/core/securemsm/trustzone/qsapps/libs/applib/proxy/build/sampleapp/A53_64/IADAANAA/tzlib_proxy.lib(prxy_ufaes.o)
 .debug_frame   0x0000000000003078       0x70 /local/mnt/workspace/CRMBuilds/TZ.BF.4.0.3.c1-00005-M8996AAAAANAZT-1_20170110_230814/b/HK11/trustzone_images/core/securemsm/trustzone/qsapps/libs/applib/proxy/build/sampleapp/A53_64/IADAANAA/tzlib_proxy.lib(prxy_ufdes.o)
 .debug_frame   0x00000000000030e8       0x88 /local/mnt/workspace/CRMBuilds/TZ.BF.4.0.3.c1-00005-M8996AAAAANAZT-1_20170110_230814/b/HK11/trustzone_images/core/securemsm/trustzone/qsapps/libs/applib/proxy/build/sampleapp/A53_64/IADAANAA/tzlib_proxy.lib(prxy_ufsha.o)
 .debug_frame   0x0000000000003170       0x40 /local/mnt/workspace/CRMBuilds/TZ.BF.4.0.3.c1-00005-M8996AAAAANAZT-1_20170110_230814/b/HK11/trustzone_images/core/securemsm/trustzone/qsapps/libs/applib/proxy/build/sampleapp/A53_64/IADAANAA/tzlib_proxy.lib(prxy_secmath.o)
 .debug_frame   0x00000000000031b0      0x100 /local/mnt/workspace/CRMBuilds/TZ.BF.4.0.3.c1-00005-M8996AAAAANAZT-1_20170110_230814/b/HK11/trustzone_images/core/securemsm/trustzone/qsapps/libs/applib/proxy/build/sampleapp/A53_64/IADAANAA/tzlib_proxy.lib(prxy_secrsa.o)
 .debug_frame   0x00000000000032b0      0x1a8 /local/mnt/workspace/CRMBuilds/TZ.BF.4.0.3.c1-00005-M8996AAAAANAZT-1_20170110_230814/b/HK11/trustzone_images/core/securemsm/trustzone/qsapps/libs/applib/proxy/build/sampleapp/A53_64/IADAANAA/tzlib_proxy.lib(prxy_ecc.o)
 .debug_frame   0x0000000000003458       0xa8 /local/mnt/workspace/CRMBuilds/TZ.BF.4.0.3.c1-00005-M8996AAAAANAZT-1_20170110_230814/b/HK11/trustzone_images/core/securemsm/trustzone/qsapps/libs/applib/qsee64/build/sampleapp/A53_64/IADAANAA/tzapp_entrylib.lib(mink_shared_code.o)
 .debug_frame   0x0000000000003500       0xc8 /local/mnt/workspace/CRMBuilds/TZ.BF.4.0.3.c1-00005-M8996AAAAANAZT-1_20170110_230814/b/HK11/trustzone_images/core/securemsm/trustzone/qsapps/libs/applib/qsee64/build/sampleapp/A53_64/IADAANAA/tzapp_entrylib.lib(qsee_env.o)
 .debug_frame   0x00000000000035c8      0x150 /local/mnt/workspace/CRMBuilds/TZ.BF.4.0.3.c1-00005-M8996AAAAANAZT-1_20170110_230814/b/HK11/trustzone_images/core/securemsm/trustzone/qsapps/libs/applib/qsee64/build/sampleapp/A53_64/IADAANAA/tzapp_entrylib.lib(qsee_core_shim.o)
 .debug_frame   0x0000000000003718       0x88 /local/mnt/workspace/CRMBuilds/TZ.BF.4.0.3.c1-00005-M8996AAAAANAZT-1_20170110_230814/b/HK11/trustzone_images/core/securemsm/trustzone/qsapps/libs/applib/qsee64/build/sampleapp/A53_64/IADAANAA/tzapp_entrylib.lib(qsee_deviceid.o)
 .debug_frame   0x00000000000037a0       0x38 /local/mnt/workspace/CRMBuilds/TZ.BF.4.0.3.c1-00005-M8996AAAAANAZT-1_20170110_230814/b/HK11/trustzone_images/core/securemsm/trustzone/qsapps/libs/applib/qsee64/build/sampleapp/A53_64/IADAANAA/tzapp_entrylib.lib(qsee_prng.o)
 .debug_frame   0x00000000000037d8       0x60 /local/mnt/workspace/CRMBuilds/TZ.BF.4.0.3.c1-00005-M8996AAAAANAZT-1_20170110_230814/b/HK11/trustzone_images/core/securemsm/trustzone/qsapps/libs/applib/qsee64/build/sampleapp/A53_64/IADAANAA/tzapp_entrylib.lib(qsee_secdisp.o)
 .debug_frame   0x0000000000003838       0xb0 /local/mnt/workspace/CRMBuilds/TZ.BF.4.0.3.c1-00005-M8996AAAAANAZT-1_20170110_230814/b/HK11/trustzone_images/core/securemsm/trustzone/qsapps/libs/applib/qsee64/build/sampleapp/A53_64/IADAANAA/tzapp_entrylib.lib(qsee_nsmem.o)
 .debug_frame   0x00000000000038e8       0x40 /local/mnt/workspace/CRMBuilds/TZ.BF.4.0.3.c1-00005-M8996AAAAANAZT-1_20170110_230814/b/HK11/trustzone_images/core/securemsm/trustzone/qsapps/libs/applib/qsee64/build/sampleapp/A53_64/IADAANAA/tzapp_entrylib.lib(qsee_cmac.o)
 .debug_frame   0x0000000000003928       0x48 /local/mnt/workspace/CRMBuilds/TZ.BF.4.0.3.c1-00005-M8996AAAAANAZT-1_20170110_230814/b/HK11/trustzone_images/core/securemsm/trustzone/qsapps/libs/applib/qsee64/build/sampleapp/A53_64/IADAANAA/tzapp_entrylib.lib(qsee_crypto_shim.o)
 .debug_frame   0x0000000000003970       0x60 /local/mnt/workspace/CRMBuilds/TZ.BF.4.0.3.c1-00005-M8996AAAAANAZT-1_20170110_230814/b/HK11/trustzone_images/core/securemsm/trustzone/qsapps/libs/applib/qsee64/build/sampleapp/A53_64/IADAANAA/tzapp_entrylib.lib(qsee_timer_shim.o)
 .debug_frame   0x00000000000039d0      0x158 /local/mnt/workspace/CRMBuilds/TZ.BF.4.0.3.c1-00005-M8996AAAAANAZT-1_20170110_230814/b/HK11/trustzone_images/core/securemsm/trustzone/qsapps/libs/applib/qsee64/build/sampleapp/A53_64/IADAANAA/tzapp_entrylib.lib(qsee_comstr.o)
 .debug_frame   0x0000000000003b28      0x118 /local/mnt/workspace/CRMBuilds/TZ.BF.4.0.3.c1-00005-M8996AAAAANAZT-1_20170110_230814/b/HK11/trustzone_images/core/securemsm/trustzone/qsapps/libs/applib/qsee64/build/sampleapp/A53_64/IADAANAA/tzapp_entrylib.lib(stor.o)
 .debug_frame   0x0000000000003c40      0x258 /local/mnt/workspace/CRMBuilds/TZ.BF.4.0.3.c1-00005-M8996AAAAANAZT-1_20170110_230814/b/HK11/trustzone_images/core/securemsm/trustzone/qsapps/libs/applib/qsee64/build/sampleapp/A53_64/IADAANAA/tzapp_entrylib.lib(stor_gpt.o)
 .debug_frame   0x0000000000003e98      0x100 /local/mnt/workspace/CRMBuilds/TZ.BF.4.0.3.c1-00005-M8996AAAAANAZT-1_20170110_230814/b/HK11/trustzone_images/core/securemsm/trustzone/qsapps/libs/applib/qsee64/build/sampleapp/A53_64/IADAANAA/tzapp_entrylib.lib(stor_rpmbw.o)
 .debug_frame   0x0000000000003f98       0xc8 /local/mnt/workspace/CRMBuilds/TZ.BF.4.0.3.c1-00005-M8996AAAAANAZT-1_20170110_230814/b/HK11/trustzone_images/core/securemsm/trustzone/qsapps/libs/applib/qsee64/build/sampleapp/A53_64/IADAANAA/tzapp_entrylib.lib(qsee_counter_shim.o)
 .debug_frame   0x0000000000004060      0x148 /local/mnt/workspace/CRMBuilds/TZ.BF.4.0.3.c1-00005-M8996AAAAANAZT-1_20170110_230814/b/HK11/trustzone_images/core/securemsm/trustzone/qsapps/libs/applib/qsee64/build/sampleapp/A53_64/IADAANAA/tzapp_entrylib.lib(qsee_cipher.o)
 .debug_frame   0x00000000000041a8      0x188 /local/mnt/workspace/CRMBuilds/TZ.BF.4.0.3.c1-00005-M8996AAAAANAZT-1_20170110_230814/b/HK11/trustzone_images/core/securemsm/trustzone/qsapps/libs/applib/qsee64/build/sampleapp/A53_64/IADAANAA/tzapp_entrylib.lib(qsee_hash.o)
 .debug_frame   0x0000000000004330      0x130 /local/mnt/workspace/CRMBuilds/TZ.BF.4.0.3.c1-00005-M8996AAAAANAZT-1_20170110_230814/b/HK11/trustzone_images/core/securemsm/trustzone/qsapps/libs/applib/qsee64/build/sampleapp/A53_64/IADAANAA/tzapp_entrylib.lib(qsee_hmac.o)
 .debug_frame   0x0000000000004460       0xe8 /local/mnt/workspace/CRMBuilds/TZ.BF.4.0.3.c1-00005-M8996AAAAANAZT-1_20170110_230814/b/HK11/trustzone_images/core/securemsm/trustzone/qsapps/libs/applib/qsee64/build/sampleapp/A53_64/IADAANAA/tzapp_entrylib.lib(qsee_i2c.o)
 .debug_frame   0x0000000000004548      0x108 /local/mnt/workspace/CRMBuilds/TZ.BF.4.0.3.c1-00005-M8996AAAAANAZT-1_20170110_230814/b/HK11/trustzone_images/core/securemsm/trustzone/qsapps/libs/applib/qsee64/build/sampleapp/A53_64/IADAANAA/tzapp_entrylib.lib(qsee_spi.o)
 .debug_frame   0x0000000000004650      0x130 /local/mnt/workspace/CRMBuilds/TZ.BF.4.0.3.c1-00005-M8996AAAAANAZT-1_20170110_230814/b/HK11/trustzone_images/core/securemsm/trustzone/qsapps/libs/applib/qsee64/build/sampleapp/A53_64/IADAANAA/tzapp_entrylib.lib(qsee_tlmm.o)
 .debug_frame   0x0000000000004780       0x40 /local/mnt/workspace/CRMBuilds/TZ.BF.4.0.3.c1-00005-M8996AAAAANAZT-1_20170110_230814/b/HK11/trustzone_images/core/securemsm/trustzone/qsapps/libs/applib/qsee64/build/sampleapp/A53_64/IADAANAA/tzapp_entrylib.lib(qsee_bulletin_board_shim.o)
 .debug_frame   0x00000000000047c0       0x88 /local/mnt/workspace/CRMBuilds/TZ.BF.4.0.3.c1-00005-M8996AAAAANAZT-1_20170110_230814/b/HK11/trustzone_images/core/securemsm/trustzone/qsapps/libs/applib/qsee64/build/sampleapp/A53_64/IADAANAA/tzapp_entrylib.lib(qsee_dcache.o)
 .debug_frame   0x0000000000004848       0x60 /local/mnt/workspace/CRMBuilds/TZ.BF.4.0.3.c1-00005-M8996AAAAANAZT-1_20170110_230814/b/HK11/trustzone_images/core/securemsm/trustzone/qsapps/libs/applib/qsee64/build/sampleapp/A53_64/IADAANAA/tzapp_entrylib.lib(qsee_shared_buffer.o)
 .debug_frame   0x00000000000048a8       0x38 /local/mnt/workspace/CRMBuilds/TZ.BF.4.0.3.c1-00005-M8996AAAAANAZT-1_20170110_230814/b/HK11/trustzone_images/core/securemsm/trustzone/qsapps/libs/applib/qsee64/build/sampleapp/A53_64/IADAANAA/tzapp_entrylib.lib(qsee_sync.o)
 .debug_frame   0x00000000000048e0       0xa0 /local/mnt/workspace/CRMBuilds/TZ.BF.4.0.3.c1-00005-M8996AAAAANAZT-1_20170110_230814/b/HK11/trustzone_images/core/securemsm/trustzone/qsapps/libs/applib/qsee64/build/sampleapp/A53_64/IADAANAA/tzapp_entrylib.lib(qsee_oem_buffer.o)
 .debug_frame   0x0000000000004980       0x88 /local/mnt/workspace/CRMBuilds/TZ.BF.4.0.3.c1-00005-M8996AAAAANAZT-1_20170110_230814/b/HK11/trustzone_images/core/securemsm/trustzone/qsapps/libs/applib/qsee64/build/sampleapp/A53_64/IADAANAA/tzapp_entrylib.lib(qsee_intmask.o)
 .debug_frame   0x0000000000004a08       0x38 /local/mnt/workspace/CRMBuilds/TZ.BF.4.0.3.c1-00005-M8996AAAAANAZT-1_20170110_230814/b/HK11/trustzone_images/core/securemsm/trustzone/qsapps/libs/applib/qsee64/build/sampleapp/A53_64/IADAANAA/tzapp_entrylib.lib(qsee_trans_ns_addr.o)
 .debug_frame   0x0000000000004a40       0x88 /local/mnt/workspace/CRMBuilds/TZ.BF.4.0.3.c1-00005-M8996AAAAANAZT-1_20170110_230814/b/HK11/trustzone_images/core/securemsm/trustzone/qsapps/libs/applib/qsee64/build/sampleapp/A53_64/IADAANAA/tzapp_entrylib.lib(qsee_appmessage.o)
 .debug_frame   0x0000000000004ac8      0x1f8 /local/mnt/workspace/CRMBuilds/TZ.BF.4.0.3.c1-00005-M8996AAAAANAZT-1_20170110_230814/b/HK11/trustzone_images/core/securemsm/trustzone/qsapps/libs/applib/qsee64/build/sampleapp/A53_64/IADAANAA/tzapp_entrylib.lib(sfs_api.o)
 .debug_frame   0x0000000000004cc0       0xe8 /local/mnt/workspace/CRMBuilds/TZ.BF.4.0.3.c1-00005-M8996AAAAANAZT-1_20170110_230814/b/HK11/trustzone_images/core/securemsm/trustzone/qsapps/libs/applib/qsee64/build/sampleapp/A53_64/IADAANAA/tzapp_entrylib.lib(tzapp_lib_main.o)
 .debug_frame   0x0000000000004da8       0xd0 /local/mnt/workspace/CRMBuilds/TZ.BF.4.0.3.c1-00005-M8996AAAAANAZT-1_20170110_230814/b/HK11/trustzone_images/core/securemsm/trustzone/qsapps/libs/biometric/build/sampleapp/A53_64/IADAANAA/biometric_lib.lib(biometric.o)
 .debug_frame   0x0000000000004e78      0x128 /local/mnt/workspace/CRMBuilds/TZ.BF.4.0.3.c1-00005-M8996AAAAANAZT-1_20170110_230814/b/HK11/trustzone_images/core/securemsm/trustzone/qsapps/libs/biometric/build/sampleapp/A53_64/IADAANAA/biometric_lib.lib(biometric_serializer.o)
 .debug_frame   0x0000000000004fa0       0x38 /local/mnt/workspace/CRMBuilds/TZ.BF.4.0.3.c1-00005-M8996AAAAANAZT-1_20170110_230814/b/HK11/trustzone_images/core/securemsm/sse/qsee/SecureTouch/drTs/lib/build/sampleapp/A53_64/IADAANAA/touch_lib.lib(01_open.o)
 .debug_frame   0x0000000000004fd8       0x38 /local/mnt/workspace/CRMBuilds/TZ.BF.4.0.3.c1-00005-M8996AAAAANAZT-1_20170110_230814/b/HK11/trustzone_images/core/securemsm/sse/qsee/SecureTouch/drTs/lib/build/sampleapp/A53_64/IADAANAA/touch_lib.lib(02_close.o)
 .debug_frame   0x0000000000005010       0x60 /local/mnt/workspace/CRMBuilds/TZ.BF.4.0.3.c1-00005-M8996AAAAANAZT-1_20170110_230814/b/HK11/trustzone_images/core/securemsm/sse/qsee/SecureTouch/drTs/lib/build/sampleapp/A53_64/IADAANAA/touch_lib.lib(03_getData.o)
 .debug_frame   0x0000000000005070      0x168 /local/mnt/workspace/CRMBuilds/TZ.BF.4.0.3.c1-00005-M8996AAAAANAZT-1_20170110_230814/b/HK11/trustzone_images/core/securemsm/trustzone/qsapps/libs/applib/common_applib/build/sampleapp/A53_64/IADAANAA/tzapp_entrylib.lib(gpPersistObjCommon.o)
 .debug_frame   0x00000000000051d8      0x240 /local/mnt/workspace/CRMBuilds/TZ.BF.4.0.3.c1-00005-M8996AAAAANAZT-1_20170110_230814/b/HK11/trustzone_images/core/securemsm/trustzone/qsapps/libs/applib/common_applib/build/sampleapp/A53_64/IADAANAA/tzapp_entrylib.lib(gpPersistentObjects.o)
 .debug_frame   0x0000000000005418      0x340 /local/mnt/workspace/CRMBuilds/TZ.BF.4.0.3.c1-00005-M8996AAAAANAZT-1_20170110_230814/b/HK11/trustzone_images/core/securemsm/trustzone/qsapps/libs/applib/common_applib/build/sampleapp/A53_64/IADAANAA/tzapp_entrylib.lib(gpPersistObjData.o)
 .debug_frame   0x0000000000005758      0x140 /local/mnt/workspace/CRMBuilds/TZ.BF.4.0.3.c1-00005-M8996AAAAANAZT-1_20170110_230814/b/HK11/trustzone_images/core/securemsm/trustzone/qsapps/libs/applib/common_applib/build/sampleapp/A53_64/IADAANAA/tzapp_entrylib.lib(gpPersistObjHandler.o)
 .debug_frame   0x0000000000005898      0x240 /local/mnt/workspace/CRMBuilds/TZ.BF.4.0.3.c1-00005-M8996AAAAANAZT-1_20170110_230814/b/HK11/trustzone_images/core/securemsm/trustzone/qsapps/libs/applib/common_applib/build/sampleapp/A53_64/IADAANAA/tzapp_entrylib.lib(gpPersistObjIndex.o)
 .debug_frame   0x0000000000005ad8      0x1a8 /local/mnt/workspace/CRMBuilds/TZ.BF.4.0.3.c1-00005-M8996AAAAANAZT-1_20170110_230814/b/HK11/trustzone_images/core/securemsm/trustzone/qsapps/libs/applib/common_applib/build/sampleapp/A53_64/IADAANAA/tzapp_entrylib.lib(gpPersistObjVersion.o)
 .debug_frame   0x0000000000005c80      0x148 /local/mnt/workspace/CRMBuilds/TZ.BF.4.0.3.c1-00005-M8996AAAAANAZT-1_20170110_230814/b/HK11/trustzone_images/core/securemsm/trustzone/qsapps/libs/applib/common_applib/build/sampleapp/A53_64/IADAANAA/tzapp_entrylib.lib(gpPersistObjCrypto.o)
 .debug_frame   0x0000000000005dc8      0x160 /local/mnt/workspace/CRMBuilds/TZ.BF.4.0.3.c1-00005-M8996AAAAANAZT-1_20170110_230814/b/HK11/trustzone_images/core/securemsm/trustzone/qsapps/libs/applib/common_applib/build/sampleapp/A53_64/IADAANAA/tzapp_entrylib.lib(gpPersistObjFileIO.o)
 .debug_frame   0x0000000000005f28       0xd0 /local/mnt/workspace/CRMBuilds/TZ.BF.4.0.3.c1-00005-M8996AAAAANAZT-1_20170110_230814/b/HK11/trustzone_images/core/securemsm/trustzone/qsapps/libs/applib/common_applib/build/sampleapp/A53_64/IADAANAA/tzapp_entrylib.lib(gpFileService.o)
 .debug_frame   0x0000000000005ff8       0x28 /local/mnt/workspace/CRMBuilds/TZ.BF.4.0.3.c1-00005-M8996AAAAANAZT-1_20170110_230814/b/HK11/trustzone_images/core/securemsm/trustzone/qsapps/libs/applib/qsee64/build/sampleapp/A53_64/IADAANAA/tzapp_entrylib.lib(qsee_cfg_prop_shim.o)
 .debug_frame   0x0000000000006020       0x40 /local/mnt/workspace/CRMBuilds/TZ.BF.4.0.3.c1-00005-M8996AAAAANAZT-1_20170110_230814/b/HK11/trustzone_images/core/securemsm/trustzone/qsapps/libs/applib/qsee64/build/sampleapp/A53_64/IADAANAA/tzapp_entrylib.lib(gpPersistObjPanic.o)
 .debug_frame   0x0000000000006060      0x138 /local/mnt/workspace/CRMBuilds/TZ.BF.4.0.3.c1-00005-M8996AAAAANAZT-1_20170110_230814/b/HK11/trustzone_images/core/securemsm/sse/SecureTouch/controller/build/sampleapp/A53_64/IADAANAA/drts_controller_msm8996.lib(atmel_mxt_ts.o)
 .debug_frame   0x0000000000006198       0xf0 /local/mnt/workspace/CRMBuilds/TZ.BF.4.0.3.c1-00005-M8996AAAAANAZT-1_20170110_230814/b/HK11/trustzone_images/core/securemsm/sse/SecureTouch/controller/build/sampleapp/A53_64/IADAANAA/drts_controller_msm8996.lib(synaptics_ts.o)
 .debug_frame   0x0000000000006288       0x48 /local/mnt/workspace/CRMBuilds/TZ.BF.4.0.3.c1-00005-M8996AAAAANAZT-1_20170110_230814/b/HK11/trustzone_images/core/securemsm/sse/log/build/sampleapp/A53_64/IADAANAA/sselog.lib(sselog.o)
 .debug_frame   0x00000000000062d0       0x90 /local/mnt/workspace/CRMBuilds/TZ.BF.4.0.3.c1-00005-M8996AAAAANAZT-1_20170110_230814/b/HK11/trustzone_images/core/securemsm/sse/qsee/SecureTouch/drTs/controller/build/sampleapp/A53_64/IADAANAA/touch_controller_i2c_msm8996.lib(atmel_mxt_ts_i2c.o)
 .debug_frame   0x0000000000006360       0xb8 /local/mnt/workspace/CRMBuilds/TZ.BF.4.0.3.c1-00005-M8996AAAAANAZT-1_20170110_230814/b/HK11/trustzone_images/core/securemsm/sse/qsee/SecureTouch/drTs/controller/build/sampleapp/A53_64/IADAANAA/touch_controller_i2c_msm8996.lib(synaptics_ts_i2c.o)
