ARM Linker, 4.1 [Build 791] 

==============================================================================

Image Symbol Table

    Local Symbols

    Symbol Name                              Value     Ov Type        Size  Object(Section)

    ../../angel/rt.s                         0x00000000   Number         0  rt_raise.o ABSOLUTE
    ../../signal.c                           0x00000000   Number         0  defsig_other.o ABSOLUTE
    ../../signal.c                           0x00000000   Number         0  defsig_segv_inner.o ABSOLUTE
    ../../signal.c                           0x00000000   Number         0  defsig_cppl_inner.o ABSOLUTE
    ../../signal.c                           0x00000000   Number         0  defsig_pvfn_inner.o ABSOLUTE
    ../../signal.c                           0x00000000   Number         0  defsig_stak_inner.o ABSOLUTE
    ../../signal.c                           0x00000000   Number         0  defsig_rtred_inner.o ABSOLUTE
    ../../signal.c                           0x00000000   Number         0  defsig_fpe_inner.o ABSOLUTE
    ../../signal.c                           0x00000000   Number         0  __raise.o ABSOLUTE
    ../../signal.c                           0x00000000   Number         0  defsig_abrt_inner.o ABSOLUTE
    ../../signal.c                           0x00000000   Number         0  defsig_abrt_formal.o ABSOLUTE
    ../../signal.c                           0x00000000   Number         0  defsig_abrt_outer.o ABSOLUTE
    ../../signal.s                           0x00000000   Number         0  defsig.o ABSOLUTE
    ../../stdlib.c                           0x00000000   Number         0  abort.o ABSOLUTE
    /local/mnt/workspace/CRMBuilds/BTFM.RM.2.2-00163-QCABTFMSWPZ-1_20161115_235757/b/btfm_proc/bt_30/rampatch/bt/platform/dbg/build/wcss_ram_edl/cortex-m0/SCAQBAF/src/patch_PFAL_DBG.o.i.i 0x00000000   Number         0  patch_PFAL_DBG.o ABSOLUTE
    /local/mnt/workspace/CRMBuilds/BTFM.RM.2.2-00163-QCABTFMSWPZ-1_20161115_235757/b/btfm_proc/bt_30/rampatch/bt/platform/dbg/build/wcss_ram_edl/cortex-m0/SCAQBAF/src/patch_PFAL_DBG_hci_vendor.o.i.i 0x00000000   Number         0  patch_PFAL_DBG_hci_vendor.o ABSOLUTE
    /local/mnt/workspace/CRMBuilds/BTFM.RM.2.2-00163-QCABTFMSWPZ-1_20161115_235757/b/btfm_proc/bt_30/rampatch/bt/platform/pfal/aes/build/wcss_ram_edl/cortex-m0/SCAQBAF/src/patch_PFAL_AES.o.i.i 0x00000000   Number         0  patch_PFAL_AES.o ABSOLUTE
    /local/mnt/workspace/CRMBuilds/BTFM.RM.2.2-00163-QCABTFMSWPZ-1_20161115_235757/b/btfm_proc/bt_30/rampatch/bt/platform/pfal/eeprom/build/wcss_ram_edl/cortex-m0/SCAQBAF/src/patch_PFAL_EEPROM.o.i.i 0x00000000   Number         0  patch_PFAL_EEPROM.o ABSOLUTE
    /local/mnt/workspace/CRMBuilds/BTFM.RM.2.2-00163-QCABTFMSWPZ-1_20161115_235757/b/btfm_proc/bt_30/rampatch/bt/platform/pfal/gpio/build/wcss_ram_edl/cortex-m0/SCAQBAF/src/patch_PFAL_GPIO_MUX.o.i.i 0x00000000   Number         0  patch_PFAL_GPIO_MUX.o ABSOLUTE
    /local/mnt/workspace/CRMBuilds/BTFM.RM.2.2-00163-QCABTFMSWPZ-1_20161115_235757/b/btfm_proc/bt_30/rampatch/bt/platform/pfal/lc/build/wcss_ram_edl/cortex-m0/SCAQBAF/src/patch_PFAL_LC.o.i.i 0x00000000   Number         0  patch_PFAL_LC.o ABSOLUTE
    /local/mnt/workspace/CRMBuilds/BTFM.RM.2.2-00163-QCABTFMSWPZ-1_20161115_235757/b/btfm_proc/bt_30/rampatch/bt/platform/pfal/lc/build/wcss_ram_edl/cortex-m0/SCAQBAF/src/patch_PFAL_LC_State.o.i.i 0x00000000   Number         0  patch_PFAL_LC_State.o ABSOLUTE
    /local/mnt/workspace/CRMBuilds/BTFM.RM.2.2-00163-QCABTFMSWPZ-1_20161115_235757/b/btfm_proc/bt_30/rampatch/bt/platform/pfal/rm/build/wcss_ram_edl/cortex-m0/SCAQBAF/6174/src/patch_PFAL_RM_HW_EXT.o.i.i 0x00000000   Number         0  patch_PFAL_RM_HW_EXT.o ABSOLUTE
    /local/mnt/workspace/CRMBuilds/BTFM.RM.2.2-00163-QCABTFMSWPZ-1_20161115_235757/b/btfm_proc/bt_30/rampatch/bt/platform/pfal/rm/build/wcss_ram_edl/cortex-m0/SCAQBAF/common/src/patch_PFAL_RM_HW.o.i.i 0x00000000   Number         0  patch_PFAL_RM_HW.o ABSOLUTE
    /local/mnt/workspace/CRMBuilds/BTFM.RM.2.2-00163-QCABTFMSWPZ-1_20161115_235757/b/btfm_proc/bt_30/rampatch/bt/platform/pfal/sys/build/wcss_ram_edl/cortex-m0/SCAQBAF/6174/src/patch_PFAL_SYS_CLK_EXT.o.i.i 0x00000000   Number         0  patch_PFAL_SYS_CLK_EXT.o ABSOLUTE
    /local/mnt/workspace/CRMBuilds/BTFM.RM.2.2-00163-QCABTFMSWPZ-1_20161115_235757/b/btfm_proc/bt_30/rampatch/bt/platform/pfal/sys/build/wcss_ram_edl/cortex-m0/SCAQBAF/common/src/patch_PFAL_SYS.o.i.i 0x00000000   Number         0  patch_PFAL_SYS.o ABSOLUTE
    /local/mnt/workspace/CRMBuilds/BTFM.RM.2.2-00163-QCABTFMSWPZ-1_20161115_235757/b/btfm_proc/bt_30/rampatch/bt/platform/pfal/sys/build/wcss_ram_edl/cortex-m0/SCAQBAF/common/src/patch_PFAL_SYS_EDL.o.i.i 0x00000000   Number         0  patch_PFAL_SYS_EDL.o ABSOLUTE
    /local/mnt/workspace/CRMBuilds/BTFM.RM.2.2-00163-QCABTFMSWPZ-1_20161115_235757/b/btfm_proc/bt_30/rampatch/bt/platform/pfal/sys/build/wcss_ram_edl/cortex-m0/SCAQBAF/common/src/patch_PFAL_SYS_Init.o.i 0x00000000   Number         0  patch_PFAL_SYS_Init.o ABSOLUTE
    /local/mnt/workspace/CRMBuilds/BTFM.RM.2.2-00163-QCABTFMSWPZ-1_20161115_235757/b/btfm_proc/bt_30/rampatch/bt/services/llm/build/wcss_ram_edl/cortex-m0/SCAQBAF/patch_llm_eptm.o.i.i 0x00000000   Number         0  patch_llm_eptm.o ABSOLUTE
    /local/mnt/workspace/CRMBuilds/BTFM.RM.2.2-00163-QCABTFMSWPZ-1_20161115_235757/b/btfm_proc/bt_30/rampatch/build/wcss_ram_edl/cortex-m0/SCAQBAF/rampatch_main.o.i.i 0x00000000   Number         0  rampatch_main.o ABSOLUTE
    dc.s                                     0x00000000   Number         0  dc.o ABSOLUTE
    .data                                    0x0001deb0   Section       16  patch_PFAL_DBG_hci_vendor.o(.data)
    .data                                    0x0001dec0   Section        4  patch_PFAL_DBG.o(.data)
    .data                                    0x0001dec4   Section       12  patch_PFAL_RM_HW_EXT.o(.data)
    .data                                    0x0001ded0   Section        1  patch_PFAL_SYS_EDL.o(.data)
    ENTRY_POINT                              0x0001feb0   Section        0  rampatch_main.o(ENTRY_POINT)
    .text                                    0x0001fff8   Section        0  patch_PFAL_DBG_hci_vendor.o(.text)
    HCI_AllowProdVSC                         0x0002030d   Thumb Code    36  patch_PFAL_DBG_hci_vendor.o(.text)
    HCI_AllowDevVSC                          0x00020331   Thumb Code    62  patch_PFAL_DBG_hci_vendor.o(.text)
    .text                                    0x00020420   Section        0  patch_PFAL_RM_HW.o(.text)
    .text                                    0x000207d0   Section        0  patch_PFAL_RM_HW_EXT.o(.text)
    .text                                    0x00020abc   Section        0  patch_PFAL_SYS_EDL.o(.text)
    .text                                    0x00020df8   Section        0  patch_llm_eptm.o(.text)
    .text                                    0x00020e2c   Section        0  abort.o(.text)
    .text                                    0x00020e3c   Section        0  defsig_abrt_outer.o(.text)
    .text                                    0x00020e48   Section        0  defsig_abrt_inner.o(.text)
    .constdata                               0x00020f50   Section       53  rampatch_main.o(.constdata)
    __tagsym$$used                           0x00020f50   Number         0  rampatch_main.o(.constdata)
    __tagsym$$used                           0x00020f5c   Number         0  rampatch_main.o(.constdata)
    __tagsym$$used                           0x00020f65   Number         0  rampatch_main.o(.constdata)

    Global Symbols

    Symbol Name                              Value     Ov Type        Size  Object(Section)

    BuildAttributes$$THM_ISAv3M$S$PE$A:L22$X:L11$S22$IEEE1$IW$USESV6$~STKCKD$USESV7$~SHL$OTIME$ROPI$EBA8$STANDARDLIB$REQ8$PRES8$EABIv2 0x00000000   Number         0  anon$$obj.o ABSOLUTE
    Image$$PATCH_SSRAM$$ZI$$Length           0x00000000   Number         0  anon$$obj.o ABSOLUTE
    RAM_Vectors                              0x00000000   Data           0  QCA6174_SCAQBAFM.sym ABSOLUTE
    _printf_flags                            0x00000000   Number         0  QCA6174_SCAQBAFM.sym ABSOLUTE
    _printf_return_value                     0x00000000   Number         0  QCA6174_SCAQBAFM.sym ABSOLUTE
    _printf_sizespec                         0x00000000   Number         0  QCA6174_SCAQBAFM.sym ABSOLUTE
    _printf_widthprec                        0x00000000   Number         0  QCA6174_SCAQBAFM.sym ABSOLUTE
    __rt_lib_shutdown                         - Undefined Weak Reference
    __sigvec_lookup                           - Undefined Weak Reference
    Image$$PATCH_SSRAM$$Length               0x00000021   Number         0  anon$$obj.o ABSOLUTE
    Reset_Handler_Hook                       0x000000c0   Data           0  QCA6174_SCAQBAFM.sym ABSOLUTE
    PFAL_LC_RxProcArqDone                    0x000000c4   Data           0  QCA6174_SCAQBAFM.sym ABSOLUTE
    PFAL_LC_coexistenceLowChan               0x000000c8   Data           0  QCA6174_SCAQBAFM.sym ABSOLUTE
    PFAL_LC_coexistenceHighChan              0x000000c9   Data           0  QCA6174_SCAQBAFM.sym ABSOLUTE
    PFAL_LC_bSynthEnable                     0x000000ca   Data           0  QCA6174_SCAQBAFM.sym ABSOLUTE
    PFAL_LC_nHopOffset                       0x000000cb   Data           0  QCA6174_SCAQBAFM.sym ABSOLUTE
    PFAL_LC_Rx2_enabled                      0x000000cc   Data           0  QCA6174_SCAQBAFM.sym ABSOLUTE
    PFAL_LC_w4_2ndHalfRx                     0x000000cd   Data           0  QCA6174_SCAQBAFM.sym ABSOLUTE
    PFAL_LC_TxLinkedListNdx                  0x000000ce   Data           0  QCA6174_SCAQBAFM.sym ABSOLUTE
    PFAL_LC_RxAclLinkedListCount             0x000000cf   Data           0  QCA6174_SCAQBAFM.sym ABSOLUTE
    PFAL_LC_RxAclLinkedListPeekNdx           0x000000d0   Data           0  QCA6174_SCAQBAFM.sym ABSOLUTE
    PFAL_LC_RxAclLinkedList_CleanElementCount 0x000000d1   Data           0  QCA6174_SCAQBAFM.sym ABSOLUTE
    PFAL_LC_loopbackEnable                   0x000000d2   Data           0  QCA6174_SCAQBAFM.sym ABSOLUTE
    PFAL_LC_ExtInqRxFirstHalf                0x000000d3   Data           0  QCA6174_SCAQBAFM.sym ABSOLUTE
    PFAL_LC_AdjustTimingAccuracy             0x000000d4   Data           0  QCA6174_SCAQBAFM.sym ABSOLUTE
    PFAL_LC_InitRelOscLPO                    0x000000d8   Data           0  QCA6174_SCAQBAFM.sym ABSOLUTE
    pPFAL_LC_burstTable                      0x000000dc   Data           0  QCA6174_SCAQBAFM.sym ABSOLUTE
    pPFAL_LC_LE_burstTable                   0x000000e0   Data           0  QCA6174_SCAQBAFM.sym ABSOLUTE
    PFAL_LC_TxLinkedList_NO_OUTPUT           0x000000e4   Data           0  QCA6174_SCAQBAFM.sym ABSOLUTE
    PFAL_LC_TxPktHdr                         0x000000e8   Data           0  QCA6174_SCAQBAFM.sym ABSOLUTE
    PFAL_LC_TxPyldHdr                        0x000000ec   Data           0  QCA6174_SCAQBAFM.sym ABSOLUTE
    PFAL_LC_RxLmpLinkedList                  0x000000f0   Data           0  QCA6174_SCAQBAFM.sym ABSOLUTE
    PFAL_LC_RxControlLinkedList              0x000000f8   Data           0  QCA6174_SCAQBAFM.sym ABSOLUTE
    PFAL_LC_TxAclPayloadBuffOffset           0x00000100   Data           0  QCA6174_SCAQBAFM.sym ABSOLUTE
    PFAL_LC_InqScanExtensions                0x00000104   Data           0  QCA6174_SCAQBAFM.sym ABSOLUTE
    PFAL_STMR_LastSetTicks                   0x00000108   Data           0  QCA6174_SCAQBAFM.sym ABSOLUTE
    PFAL_UART_RxDataNeeded                   0x0000010c   Data           0  QCA6174_SCAQBAFM.sym ABSOLUTE
    is_uart_running                          0x0000010d   Data           0  QCA6174_SCAQBAFM.sym ABSOLUTE
    PFAL_UART_TxISRActive                    0x0000010e   Data           0  QCA6174_SCAQBAFM.sym ABSOLUTE
    PFAL_UART_RxActive                       0x0000010f   Data           0  QCA6174_SCAQBAFM.sym ABSOLUTE
    PFAL_UART_TxActive                       0x00000110   Data           0  QCA6174_SCAQBAFM.sym ABSOLUTE
    PFAL_UART_TxPending                      0x00000111   Data           0  QCA6174_SCAQBAFM.sym ABSOLUTE
    PFAL_UART_ctsSafeMode                    0x00000112   Data           0  QCA6174_SCAQBAFM.sym ABSOLUTE
    PFAL_UART_TransportOptionsShadowCopy     0x00000113   Data           0  QCA6174_SCAQBAFM.sym ABSOLUTE
    PFAL_UART_LoggerDataStartBitErr          0x00000114   Data           0  QCA6174_SCAQBAFM.sym ABSOLUTE
    PFAL_UART_LoggerDataStopBitErr           0x00000115   Data           0  QCA6174_SCAQBAFM.sym ABSOLUTE
    PFAL_UART_LoggerDataFatalErr             0x00000116   Data           0  QCA6174_SCAQBAFM.sym ABSOLUTE
    PFAL_UART_LoggerDataPacketIdErr          0x00000117   Data           0  QCA6174_SCAQBAFM.sym ABSOLUTE
    PFAL_UART_SIBS_TxState                   0x00000118   Data           0  QCA6174_SCAQBAFM.sym ABSOLUTE
    PFAL_UART_SIBS_RxState                   0x00000119   Data           0  QCA6174_SCAQBAFM.sym ABSOLUTE
    PFAL_UART_SIBS_timerActive               0x0000011a   Data           0  QCA6174_SCAQBAFM.sym ABSOLUTE
    PFAL_UART_SIBS_txIdleTimerCount          0x0000011b   Data           0  QCA6174_SCAQBAFM.sym ABSOLUTE
    PFAL_UART_CurrentIBRD                    0x0000011c   Data           0  QCA6174_SCAQBAFM.sym ABSOLUTE
    PFAL_UART_CurrentFBRD                    0x0000011e   Data           0  QCA6174_SCAQBAFM.sym ABSOLUTE
    PFAL_UART_SIBS_rxWakeTimerCount          0x00000120   Data           0  QCA6174_SCAQBAFM.sym ABSOLUTE
    pos                                      0x00000124   Data           0  QCA6174_SCAQBAFM.sym ABSOLUTE
    uart_transport                           0x00000128   Data           0  QCA6174_SCAQBAFM.sym ABSOLUTE
    WIP_DBG_EVENT_QUEUE                      0x00000144   Data           0  QCA6174_SCAQBAFM.sym ABSOLUTE
    WIP_DBG_BUFFER_QUEUE                     0x0000014c   Data           0  QCA6174_SCAQBAFM.sym ABSOLUTE
    WIP_DBG_aMemPool                         0x00000154   Data           0  QCA6174_SCAQBAFM.sym ABSOLUTE
    PF_OS_topTimerList                       0x0000015c   Data           0  QCA6174_SCAQBAFM.sym ABSOLUTE
    PF_OS_TopTimerModified                   0x0000015d   Data           0  QCA6174_SCAQBAFM.sym ABSOLUTE
    PF_OS_bSystemReady                       0x0000015e   Data           0  QCA6174_SCAQBAFM.sym ABSOLUTE
    PF_OS_StartTaskMask                      0x0000015f   Data           0  QCA6174_SCAQBAFM.sym ABSOLUTE
    PF_OS_SystemReadyMask                    0x00000160   Data           0  QCA6174_SCAQBAFM.sym ABSOLUTE
    PF_OS_Ticks                              0x00000164   Data           0  QCA6174_SCAQBAFM.sym ABSOLUTE
    SYS_CFG_STACK_SIZES                      0x00000168   Data           0  QCA6174_SCAQBAFM.sym ABSOLUTE
    PF_OS_pHeapBottom                        0x00000174   Data           0  QCA6174_SCAQBAFM.sym ABSOLUTE
    PF_OS_pHeapTop                           0x00000178   Data           0  QCA6174_SCAQBAFM.sym ABSOLUTE
    PF_OS_pUpperHeapBottom                   0x0000017c   Data           0  QCA6174_SCAQBAFM.sym ABSOLUTE
    PF_OS_pUpperHeapTop                      0x00000180   Data           0  QCA6174_SCAQBAFM.sym ABSOLUTE
    PFAL_DBG_VS_Callback                     0x00000188   Data           0  QCA6174_SCAQBAFM.sym ABSOLUTE
    PFAL_DBG_LEAdvPCFCommands                0x0000018c   Data           0  QCA6174_SCAQBAFM.sym ABSOLUTE
    PFAL_DBG_LEPrivacyCommands               0x000001ac   Data           0  QCA6174_SCAQBAFM.sym ABSOLUTE
    LE_Rx_CryptoStatus                       0x000001c8   Data           0  QCA6174_SCAQBAFM.sym ABSOLUTE
    PFAL_LC_CRYPTO_pHlr                      0x000001cc   Data           0  QCA6174_SCAQBAFM.sym ABSOLUTE
    pCRYPTO_Ram                              0x000001d0   Data           0  QCA6174_SCAQBAFM.sym ABSOLUTE
    CryptoErrorFlag                          0x000001d4   Data           0  QCA6174_SCAQBAFM.sym ABSOLUTE
    PFAL_LC_DBCA_Scheduled                   0x000001d8   Data           0  QCA6174_SCAQBAFM.sym ABSOLUTE
    PFAL_LC_DataScanScanTO                   0x000001d9   Data           0  QCA6174_SCAQBAFM.sym ABSOLUTE
    PFAL_LC_STATE_LE_abortFlag               0x000001da   Data           0  QCA6174_SCAQBAFM.sym ABSOLUTE
    PFAL_LC_hlstPtr                          0x000001dc   Data           0  QCA6174_SCAQBAFM.sym ABSOLUTE
    PFAL_LC_LE_saved_RxPktHdrHardAlign       0x000001e0   Data           0  QCA6174_SCAQBAFM.sym ABSOLUTE
    OSIntrDisableStack                       0x000001e4   Data           0  QCA6174_SCAQBAFM.sym ABSOLUTE
    OSIntNesting                             0x000001e8   Data           0  QCA6174_SCAQBAFM.sym ABSOLUTE
    OSLockNesting                            0x000001e9   Data           0  QCA6174_SCAQBAFM.sym ABSOLUTE
    OSPrioCur                                0x000001ea   Data           0  QCA6174_SCAQBAFM.sym ABSOLUTE
    OSPrioHighRdy                            0x000001eb   Data           0  QCA6174_SCAQBAFM.sym ABSOLUTE
    OSRdyGrp                                 0x000001ec   Data           0  QCA6174_SCAQBAFM.sym ABSOLUTE
    OSRunning                                0x000001ed   Data           0  QCA6174_SCAQBAFM.sym ABSOLUTE
    OSTaskCtr                                0x000001ee   Data           0  QCA6174_SCAQBAFM.sym ABSOLUTE
    OSTickStepState                          0x000001ef   Data           0  QCA6174_SCAQBAFM.sym ABSOLUTE
    OSRdyTbl                                 0x000001f0   Data           0  QCA6174_SCAQBAFM.sym ABSOLUTE
    OSCtxSwCtr                               0x000001f4   Data           0  QCA6174_SCAQBAFM.sym ABSOLUTE
    OSEventFreeList                          0x000001f8   Data           0  QCA6174_SCAQBAFM.sym ABSOLUTE
    OSIdleCtr                                0x000001fc   Data           0  QCA6174_SCAQBAFM.sym ABSOLUTE
    OSTCBCur                                 0x00000200   Data           0  QCA6174_SCAQBAFM.sym ABSOLUTE
    OSTCBFreeList                            0x00000204   Data           0  QCA6174_SCAQBAFM.sym ABSOLUTE
    OSTCBHighRdy                             0x00000208   Data           0  QCA6174_SCAQBAFM.sym ABSOLUTE
    OSTCBList                                0x0000020c   Data           0  QCA6174_SCAQBAFM.sym ABSOLUTE
    OSTime                                   0x00000210   Data           0  QCA6174_SCAQBAFM.sym ABSOLUTE
    PFAL_RM_PHYRegValid                      0x00000218   Data           0  QCA6174_SCAQBAFM.sym ABSOLUTE
    coexRequestState                         0x00000219   Data           0  QCA6174_SCAQBAFM.sym ABSOLUTE
    TX_DC_CAL_IQ_LOOP_DURATION_USEC          0x0000021a   Data           0  QCA6174_SCAQBAFM.sym ABSOLUTE
    coeffCrossTxRsbCal                       0x0000021b   Data           0  QCA6174_SCAQBAFM.sym ABSOLUTE
    PFAL_RM_bTempFilterInit                  0x0000021c   Data           0  QCA6174_SCAQBAFM.sym ABSOLUTE
    PFAL_RM_bTempCodeRead                    0x0000021d   Data           0  QCA6174_SCAQBAFM.sym ABSOLUTE
    PFAL_RM_radioInitEnabled                 0x0000021e   Data           0  QCA6174_SCAQBAFM.sym ABSOLUTE
    PFAL_RM_WCNXO_Config                     0x0000021f   Data           0  QCA6174_SCAQBAFM.sym ABSOLUTE
    PFAL_RM_HW_txCoarseTempIndex             0x00000220   Data           0  QCA6174_SCAQBAFM.sym ABSOLUTE
    PFAL_RM_HW_txFineTempIndex               0x00000221   Data           0  QCA6174_SCAQBAFM.sym ABSOLUTE
    PFAL_RM_HW_rxCoarseTempIndex             0x00000222   Data           0  QCA6174_SCAQBAFM.sym ABSOLUTE
    PFAL_RM_HW_rxFineTempIndex               0x00000223   Data           0  QCA6174_SCAQBAFM.sym ABSOLUTE
    prev_txCoarseTempIndex                   0x00000224   Data           0  QCA6174_SCAQBAFM.sym ABSOLUTE
    prev_txFineTempIndex                     0x00000225   Data           0  QCA6174_SCAQBAFM.sym ABSOLUTE
    prev_rxCoarseTempIndex                   0x00000226   Data           0  QCA6174_SCAQBAFM.sym ABSOLUTE
    prev_rxFineTempIndex                     0x00000227   Data           0  QCA6174_SCAQBAFM.sym ABSOLUTE
    PFAL_RM_HW_filteredThermoCode            0x0000022b   Data           0  QCA6174_SCAQBAFM.sym ABSOLUTE
    PFAL_RM_TxPowerLevel                     0x0000022c   Data           0  QCA6174_SCAQBAFM.sym ABSOLUTE
    PFAL_RM_HW_CAL_ERROR_CODE                0x0000022d   Data           0  QCA6174_SCAQBAFM.sym ABSOLUTE
    gCurrentCal                              0x0000022e   Data           0  QCA6174_SCAQBAFM.sym ABSOLUTE
    PFAL_RM_STARTING_POWER_LEVEL_INDEX       0x0000022f   Data           0  QCA6174_SCAQBAFM.sym ABSOLUTE
    PFAL_RM_GFSK_MAX_POWER_LEVEL_INDEX       0x00000230   Data           0  QCA6174_SCAQBAFM.sym ABSOLUTE
    PFAL_RM_DQPSK_MAX_POWER_LEVEL_INDEX      0x00000231   Data           0  QCA6174_SCAQBAFM.sym ABSOLUTE
    PFAL_RM_8DPSK_MAX_POWER_LEVEL_INDEX      0x00000232   Data           0  QCA6174_SCAQBAFM.sym ABSOLUTE
    PFAL_RM_DQPSK_MIN_POWER_LEVEL_INDEX      0x00000233   Data           0  QCA6174_SCAQBAFM.sym ABSOLUTE
    PFAL_RM_8DPSK_MIN_POWER_LEVEL_INDEX      0x00000234   Data           0  QCA6174_SCAQBAFM.sym ABSOLUTE
    PFAL_RM_BROADCAST_POWER_LEVEL_INDEX      0x00000235   Data           0  QCA6174_SCAQBAFM.sym ABSOLUTE
    PFAL_RM_CLASS2_FALLBACK_POWER_LEVEL_INDEX 0x00000236   Data           0  QCA6174_SCAQBAFM.sym ABSOLUTE
    PFAL_RM_HW_MOM_CAP_COARSE_CORNER         0x00000237   Data           0  QCA6174_SCAQBAFM.sym ABSOLUTE
    PFAL_RM_HW_MOM_CAP_FINE_CORNER           0x00000238   Data           0  QCA6174_SCAQBAFM.sym ABSOLUTE
    PFAL_RM_HW_TX_NMOS_SVT_CORNER            0x00000239   Data           0  QCA6174_SCAQBAFM.sym ABSOLUTE
    PFAL_RM_txRtmomCal                       0x0000023a   Data           0  QCA6174_SCAQBAFM.sym ABSOLUTE
    PFAL_RM_txNmosSvtCal                     0x0000023b   Data           0  QCA6174_SCAQBAFM.sym ABSOLUTE
    PFAL_RM_txNmosSvtRtmom_0                 0x0000023c   Data           0  QCA6174_SCAQBAFM.sym ABSOLUTE
    PFAL_RM_txNmosSvtRtmom_1                 0x0000023d   Data           0  QCA6174_SCAQBAFM.sym ABSOLUTE
    PFAL_RM_txIQCompCtrl                     0x0000023e   Data           0  QCA6174_SCAQBAFM.sym ABSOLUTE
    PFAL_RM_txIQCompC2_8_1                   0x0000023f   Data           0  QCA6174_SCAQBAFM.sym ABSOLUTE
    PFAL_RM_HW_txEqCtrl                      0x00000240   Data           0  QCA6174_SCAQBAFM.sym ABSOLUTE
    store_TxLUT_30                           0x00000241   Data           0  QCA6174_SCAQBAFM.sym ABSOLUTE
    coeffCrossTx_RAM                         0x00000242   Data           0  QCA6174_SCAQBAFM.sym ABSOLUTE
    gmGain_RAM                               0x00000243   Data           0  QCA6174_SCAQBAFM.sym ABSOLUTE
    coeffCrossRx_RAM                         0x00000244   Data           0  QCA6174_SCAQBAFM.sym ABSOLUTE
    PFAL_RM_HW_rxIQCorrCoeffCrossGM_0        0x00000245   Data           0  QCA6174_SCAQBAFM.sym ABSOLUTE
    PFAL_RM_HW_rxIQCorrCoeffCrossGM_1        0x00000246   Data           0  QCA6174_SCAQBAFM.sym ABSOLUTE
    PFAL_RM_HW_rxIQCorrCoeffCrossGM_2        0x00000247   Data           0  QCA6174_SCAQBAFM.sym ABSOLUTE
    PFAL_RM_HW_rxIQCorrCoeffCrossGM_3        0x00000248   Data           0  QCA6174_SCAQBAFM.sym ABSOLUTE
    PFAL_RM_HW_rxIQCorrCoeffCrossGM_4        0x00000249   Data           0  QCA6174_SCAQBAFM.sym ABSOLUTE
    PFAL_RM_HW_rxIQCorrCoeffCrossGM_5        0x0000024a   Data           0  QCA6174_SCAQBAFM.sym ABSOLUTE
    PFAL_RM_HW_rxIQCorrCoeffCrossGM_6        0x0000024b   Data           0  QCA6174_SCAQBAFM.sym ABSOLUTE
    PFAL_RM_HW_SoftwarePowerCntlReg          0x0000024c   Data           0  QCA6174_SCAQBAFM.sym ABSOLUTE
    PFAL_RM_HW_TxUT_00                       0x0000024d   Data           0  QCA6174_SCAQBAFM.sym ABSOLUTE
    PFAL_RM_HW_TxNmosSvtRtmom_0              0x0000024e   Data           0  QCA6174_SCAQBAFM.sym ABSOLUTE
    PFAL_RM_HW_RxAdcTempLut_0                0x0000024f   Data           0  QCA6174_SCAQBAFM.sym ABSOLUTE
    PFAL_RM_HW_RxNmosRbiasTempLut_0          0x00000250   Data           0  QCA6174_SCAQBAFM.sym ABSOLUTE
    PFAL_RM_HW_RxDcNotchCtrl                 0x00000251   Data           0  QCA6174_SCAQBAFM.sym ABSOLUTE
    PFAL_RM_HW_RxDcNotchCtrl2                0x00000252   Data           0  QCA6174_SCAQBAFM.sym ABSOLUTE
    PFAL_RM_HW_RxDcNotchTrainPole_14_8       0x00000253   Data           0  QCA6174_SCAQBAFM.sym ABSOLUTE
    PFAL_RM_HW_RxDcNotchTrainPole_7_0        0x00000254   Data           0  QCA6174_SCAQBAFM.sym ABSOLUTE
    PFAL_RM_HW_RxDcNotchTrack_P1_14_8        0x00000255   Data           0  QCA6174_SCAQBAFM.sym ABSOLUTE
    PFAL_RM_HW_RxDcNotchTrack_P1_7_0         0x00000256   Data           0  QCA6174_SCAQBAFM.sym ABSOLUTE
    PFAL_RM_HW_RxDcNotchTrack_P2_14_8        0x00000257   Data           0  QCA6174_SCAQBAFM.sym ABSOLUTE
    PFAL_RM_HW_RxDcNotchTrack_P2_7_0         0x00000258   Data           0  QCA6174_SCAQBAFM.sym ABSOLUTE
    PFAL_RM_HW_RxDcNotchTrack_P3_14_8        0x00000259   Data           0  QCA6174_SCAQBAFM.sym ABSOLUTE
    PFAL_RM_HW_RxDcNotchTrack_P3_7_0         0x0000025a   Data           0  QCA6174_SCAQBAFM.sym ABSOLUTE
    PFAL_RM_HW_RxDcNotchTrack_P4_14_8        0x0000025b   Data           0  QCA6174_SCAQBAFM.sym ABSOLUTE
    PFAL_RM_HW_RxDcNotchTrack_P4_7_0         0x0000025c   Data           0  QCA6174_SCAQBAFM.sym ABSOLUTE
    PFAL_RM_HW_RxDcNotchTrack_P5_14_8        0x0000025d   Data           0  QCA6174_SCAQBAFM.sym ABSOLUTE
    PFAL_RM_HW_RxDcNotchTrack_P5_7_0         0x0000025e   Data           0  QCA6174_SCAQBAFM.sym ABSOLUTE
    PFAL_RM_HW_RxDcNotchTrainDur             0x0000025f   Data           0  QCA6174_SCAQBAFM.sym ABSOLUTE
    PFAL_RM_HW_RxDcNotchTrack_P1_DUR         0x00000260   Data           0  QCA6174_SCAQBAFM.sym ABSOLUTE
    PFAL_RM_HW_RxDcNotchTrack_P2_DUR         0x00000261   Data           0  QCA6174_SCAQBAFM.sym ABSOLUTE
    PFAL_RM_HW_RxDcNotchTrack_P3_DUR         0x00000262   Data           0  QCA6174_SCAQBAFM.sym ABSOLUTE
    PFAL_RM_HW_RxDcNotchTrack_P4_DUR         0x00000263   Data           0  QCA6174_SCAQBAFM.sym ABSOLUTE
    PFAL_RM_HW_RxAgcHighGainCode             0x00000264   Data           0  QCA6174_SCAQBAFM.sym ABSOLUTE
    PFAL_RM_HW_txDaTempLut0                  0x00000265   Data           0  QCA6174_SCAQBAFM.sym ABSOLUTE
    PFAL_RM_HW_txDaTempLut1                  0x00000266   Data           0  QCA6174_SCAQBAFM.sym ABSOLUTE
    PFAL_RM_HW_txTempCal                     0x00000267   Data           0  QCA6174_SCAQBAFM.sym ABSOLUTE
    PFAL_RM_HW_txDaNmosRtmomTempLut0_0       0x00000268   Data           0  QCA6174_SCAQBAFM.sym ABSOLUTE
    PFAL_RM_HW_txDaNmosRtmomTempLut0_1       0x00000269   Data           0  QCA6174_SCAQBAFM.sym ABSOLUTE
    PFAL_RM_HW_txDaNmosRtmomTempLut1_0       0x0000026a   Data           0  QCA6174_SCAQBAFM.sym ABSOLUTE
    PFAL_RM_HW_txDaNmosRtmomTempLut1_1       0x0000026b   Data           0  QCA6174_SCAQBAFM.sym ABSOLUTE
    PFAL_RM_HW_tempSignResultTiaRsOffset0    0x0000026c   Data           0  QCA6174_SCAQBAFM.sym ABSOLUTE
    PFAL_RM_HW_tempSignResultTiaRsOffset1    0x0000026d   Data           0  QCA6174_SCAQBAFM.sym ABSOLUTE
    PFAL_RM_HW_tempSignResultTiaCs           0x0000026e   Data           0  QCA6174_SCAQBAFM.sym ABSOLUTE
    PFAL_RM_txControl                        0x0000026f   Data           0  QCA6174_SCAQBAFM.sym ABSOLUTE
    PFAL_RM_RampGenForce4_en                 0x00000270   Data           0  QCA6174_SCAQBAFM.sym ABSOLUTE
    PFAL_RM_HW_RXRF_ADCRES                   0x00000271   Data           0  QCA6174_SCAQBAFM.sym ABSOLUTE
    PFAL_RM_XLNA_GAIN_dB                     0x00000272   Data           0  QCA6174_SCAQBAFM.sym ABSOLUTE
    PFAL_RM_HW_rawTempCode                   0x00000274   Data           0  QCA6174_SCAQBAFM.sym ABSOLUTE
    PFAL_RM_HW_rawTempCodeOffset             0x00000276   Data           0  QCA6174_SCAQBAFM.sym ABSOLUTE
    coeffDiagTxRsbCal                        0x00000278   Data           0  QCA6174_SCAQBAFM.sym ABSOLUTE
    PFAL_RM_HW_filteredTempCodeQ3            0x0000027a   Data           0  QCA6174_SCAQBAFM.sym ABSOLUTE
    PFAL_RM_HW_NMOS_SVT_Code                 0x0000027c   Data           0  QCA6174_SCAQBAFM.sym ABSOLUTE
    PFAL_RM_HW_MOM_CAP_Code                  0x0000027e   Data           0  QCA6174_SCAQBAFM.sym ABSOLUTE
    resCoeffDiagTx_RAM                       0x00000280   Data           0  QCA6174_SCAQBAFM.sym ABSOLUTE
    resCoeffCrossTx_RAM                      0x00000282   Data           0  QCA6174_SCAQBAFM.sym ABSOLUTE
    coeffDiagTx_RAM                          0x00000284   Data           0  QCA6174_SCAQBAFM.sym ABSOLUTE
    coeffDiagRx_RAM                          0x00000286   Data           0  QCA6174_SCAQBAFM.sym ABSOLUTE
    PFAL_RM_HW_rxIQCorrCoeffDiagGM_0_8_0     0x00000288   Data           0  QCA6174_SCAQBAFM.sym ABSOLUTE
    PFAL_RM_HW_rxIQCorrCoeffDiagGM_1_8_0     0x0000028a   Data           0  QCA6174_SCAQBAFM.sym ABSOLUTE
    PFAL_RM_HW_rxIQCorrCoeffDiagGM_2_8_0     0x0000028c   Data           0  QCA6174_SCAQBAFM.sym ABSOLUTE
    PFAL_RM_HW_rxIQCorrCoeffDiagGM_3_8_0     0x0000028e   Data           0  QCA6174_SCAQBAFM.sym ABSOLUTE
    PFAL_RM_HW_rxIQCorrCoeffDiagGM_4_8_0     0x00000290   Data           0  QCA6174_SCAQBAFM.sym ABSOLUTE
    PFAL_RM_HW_rxIQCorrCoeffDiagGM_5_8_0     0x00000292   Data           0  QCA6174_SCAQBAFM.sym ABSOLUTE
    PFAL_RM_HW_rxIQCorrCoeffDiagGM_6_8_0     0x00000294   Data           0  QCA6174_SCAQBAFM.sym ABSOLUTE
    pRM_Reg16_PHY                            0x00000298   Data           0  QCA6174_SCAQBAFM.sym ABSOLUTE
    PFAL_RM_nextTempCodeClkNative            0x0000029c   Data           0  QCA6174_SCAQBAFM.sym ABSOLUTE
    PFAL_RM_channelCalTablePtr               0x000002a0   Data           0  QCA6174_SCAQBAFM.sym ABSOLUTE
    gInterruptByWLANCounter                  0x000002a4   Data           0  QCA6174_SCAQBAFM.sym ABSOLUTE
    PFAL_RM_pThresholdInputParams            0x000002a8   Data           0  QCA6174_SCAQBAFM.sym ABSOLUTE
    PFAL_RM_TX_DC_CAL_GAIN_0_1               0x000002ac   Data           0  QCA6174_SCAQBAFM.sym ABSOLUTE
    PFAL_RM_TX_DC_CAL_GAIN_2_3               0x000002b0   Data           0  QCA6174_SCAQBAFM.sym ABSOLUTE
    PFAL_RM_TX_DC_CAL_GAIN_4_5               0x000002b4   Data           0  QCA6174_SCAQBAFM.sym ABSOLUTE
    PFAL_RM_TX_DC_CAL_GAIN_6_7               0x000002b8   Data           0  QCA6174_SCAQBAFM.sym ABSOLUTE
    PFAL_RM_TX_DC_CAL_GAIN_8_9               0x000002bc   Data           0  QCA6174_SCAQBAFM.sym ABSOLUTE
    PFAL_RM_TX_DC_CAL_GAIN_10_11             0x000002c0   Data           0  QCA6174_SCAQBAFM.sym ABSOLUTE
    PFAL_RM_TX_DC_CAL_GAIN_12_13             0x000002c4   Data           0  QCA6174_SCAQBAFM.sym ABSOLUTE
    PFAL_RM_TX_DC_CAL_GAIN_14_15             0x000002c8   Data           0  QCA6174_SCAQBAFM.sym ABSOLUTE
    rEVEN_RAM                                0x000002cc   Data           0  QCA6174_SCAQBAFM.sym ABSOLUTE
    rODD_RAM                                 0x000002d0   Data           0  QCA6174_SCAQBAFM.sym ABSOLUTE
    power_I_RAM                              0x000002d4   Data           0  QCA6174_SCAQBAFM.sym ABSOLUTE
    power_Q_RAM                              0x000002d8   Data           0  QCA6174_SCAQBAFM.sym ABSOLUTE
    cross_IQ_RAM                             0x000002dc   Data           0  QCA6174_SCAQBAFM.sym ABSOLUTE
    num_RAM                                  0x000002e0   Data           0  QCA6174_SCAQBAFM.sym ABSOLUTE
    denom_RAM                                0x000002e4   Data           0  QCA6174_SCAQBAFM.sym ABSOLUTE
    alphaTx_RAM                              0x000002e8   Data           0  QCA6174_SCAQBAFM.sym ABSOLUTE
    cosAlphaTx_RAM                           0x000002ec   Data           0  QCA6174_SCAQBAFM.sym ABSOLUTE
    alphaRx_RAM                              0x000002f0   Data           0  QCA6174_SCAQBAFM.sym ABSOLUTE
    cosAlphaRx_RAM                           0x000002f4   Data           0  QCA6174_SCAQBAFM.sym ABSOLUTE
    numTmp_RAM                               0x000002f8   Data           0  QCA6174_SCAQBAFM.sym ABSOLUTE
    cmmDen_RAM                               0x000002fc   Data           0  QCA6174_SCAQBAFM.sym ABSOLUTE
    cosSinRatio_RAM                          0x00000300   Data           0  QCA6174_SCAQBAFM.sym ABSOLUTE
    sinSinRatio_RAM                          0x00000304   Data           0  QCA6174_SCAQBAFM.sym ABSOLUTE
    invTan_RAM                               0x00000308   Data           0  QCA6174_SCAQBAFM.sym ABSOLUTE
    deltaR1_RAM                              0x0000030c   Data           0  QCA6174_SCAQBAFM.sym ABSOLUTE
    deltaR2_RAM                              0x00000310   Data           0  QCA6174_SCAQBAFM.sym ABSOLUTE
    halfDeltaR1_RAM                          0x00000314   Data           0  QCA6174_SCAQBAFM.sym ABSOLUTE
    firstMult_RAM                            0x00000318   Data           0  QCA6174_SCAQBAFM.sym ABSOLUTE
    secondMult_RAM                           0x0000031c   Data           0  QCA6174_SCAQBAFM.sym ABSOLUTE
    epson_Tx_RAM                             0x00000320   Data           0  QCA6174_SCAQBAFM.sym ABSOLUTE
    theta_Tx_RAM                             0x00000324   Data           0  QCA6174_SCAQBAFM.sym ABSOLUTE
    invTanDelta1_RAM                         0x00000328   Data           0  QCA6174_SCAQBAFM.sym ABSOLUTE
    invTanDelta2_RAM                         0x0000032c   Data           0  QCA6174_SCAQBAFM.sym ABSOLUTE
    tmp_RAM                                  0x00000330   Data           0  QCA6174_SCAQBAFM.sym ABSOLUTE
    epson_Rx_RAM                             0x00000334   Data           0  QCA6174_SCAQBAFM.sym ABSOLUTE
    doubR2_RAM                               0x00000338   Data           0  QCA6174_SCAQBAFM.sym ABSOLUTE
    theta_Rx_RAM                             0x0000033c   Data           0  QCA6174_SCAQBAFM.sym ABSOLUTE
    PFAL_RM_RX_Get_Normalized_RSSI           0x00000340   Data           0  QCA6174_SCAQBAFM.sym ABSOLUTE
    tempFixed                                0x00000348   Data           0  QCA6174_SCAQBAFM.sym ABSOLUTE
    tempFixed2                               0x00000350   Data           0  QCA6174_SCAQBAFM.sym ABSOLUTE
    resultFixed                              0x00000358   Data           0  QCA6174_SCAQBAFM.sym ABSOLUTE
    TempCalDataTx_Temp_Cal_Table             0x00000360   Data           0  QCA6174_SCAQBAFM.sym ABSOLUTE
    TempCalDataTx_NMOS_RTMOM_Table           0x00000388   Data           0  QCA6174_SCAQBAFM.sym ABSOLUTE
    ExtTempCalDataTx_NMOS_RTMOM_Table        0x0000039c   Data           0  QCA6174_SCAQBAFM.sym ABSOLUTE
    ADC_TEMP_CAL_DATA_RX                     0x000003b0   Data           0  QCA6174_SCAQBAFM.sym ABSOLUTE
    RX_NMOS_RBIAS_TEMP_PROCESS_CAL_OFFSET_TABLE 0x000003d8   Data           0  QCA6174_SCAQBAFM.sym ABSOLUTE
    RX_RTMOM_TEMP_PROCESS_CAL_OFFSET_TABLE   0x000003ec   Data           0  QCA6174_SCAQBAFM.sym ABSOLUTE
    metricIntegrationTimeAvg                 0x00000400   Data           0  QCA6174_SCAQBAFM.sym ABSOLUTE
    PFAL_RM_RMRegOverride                    0x00000410   Data           0  QCA6174_SCAQBAFM.sym ABSOLUTE
    PFAL_RM_pTxPowerCfgRM_Reg                0x000004c4   Data           0  QCA6174_SCAQBAFM.sym ABSOLUTE
    PFAL_RM_HW_RXBB_TIA_CM_CTRL              0x000004c8   Data           0  QCA6174_SCAQBAFM.sym ABSOLUTE
    PFAL_RM_HW_RXRF_LOAD_CTUNE               0x000004c9   Data           0  QCA6174_SCAQBAFM.sym ABSOLUTE
    PFAL_RM_anaPwrSaveDefault                0x000004cc   Data           0  QCA6174_SCAQBAFM.sym ABSOLUTE
    PFAL_SLEEP_ComparatorIntEnabled          0x000004d0   Data           0  QCA6174_SCAQBAFM.sym ABSOLUTE
    PFAL_SLEEP_clkCalLoggerDataReady         0x000004d1   Data           0  QCA6174_SCAQBAFM.sym ABSOLUTE
    PFAL_SLEEP_EnableShadowCopy              0x000004d2   Data           0  QCA6174_SCAQBAFM.sym ABSOLUTE
    PFAL_SLEEP_HciWakeSignalISR              0x000004d4   Data           0  QCA6174_SCAQBAFM.sym ABSOLUTE
    PFAL_SLEEP_GpioWakeSignalISR             0x000004d8   Data           0  QCA6174_SCAQBAFM.sym ABSOLUTE
    PFAL_SLEEP_clkCalTimeout                 0x000004e0   Data           0  QCA6174_SCAQBAFM.sym ABSOLUTE
    PFAL_SLEEP_clkComparatorCount            0x000004e4   Data           0  QCA6174_SCAQBAFM.sym ABSOLUTE
    PFAL_SLEEP_ComparatorValue               0x000004e8   Data           0  QCA6174_SCAQBAFM.sym ABSOLUTE
    LeAdvCnt                                 0x000004f0   Data           0  QCA6174_SCAQBAFM.sym ABSOLUTE
    RandomSeed                               0x000004f4   Data           0  QCA6174_SCAQBAFM.sym ABSOLUTE
    PFAL_SYS_VsHCIReset                      0x000004f8   Data           0  QCA6174_SCAQBAFM.sym ABSOLUTE
    PFAL_SYS_bZeroCacheOnWake                0x000004fc   Data           0  QCA6174_SCAQBAFM.sym ABSOLUTE
    PFAL_SYS_pwrModeCurrent                  0x000004fd   Data           0  QCA6174_SCAQBAFM.sym ABSOLUTE
    PFAL_SYS_GPIOInputShadowCopy             0x00000500   Data           0  QCA6174_SCAQBAFM.sym ABSOLUTE
    PFAL_SYS_powerModeRequestSemaphore       0x00000504   Data           0  QCA6174_SCAQBAFM.sym ABSOLUTE
    gOwiIntCallback                          0x00000508   Data           0  QCA6174_SCAQBAFM.sym ABSOLUTE
    gOwiIntParam                             0x0000050c   Data           0  QCA6174_SCAQBAFM.sym ABSOLUTE
    PFAL_SYS_RefFrequency                    0x00000510   Data           0  QCA6174_SCAQBAFM.sym ABSOLUTE
    PFAL_SYS_lppsPktDetCount                 0x00000514   Data           0  QCA6174_SCAQBAFM.sym ABSOLUTE
    syncDetectStatus                         0x00000515   Data           0  QCA6174_SCAQBAFM.sym ABSOLUTE
    berStatus                                0x00000516   Data           0  QCA6174_SCAQBAFM.sym ABSOLUTE
    totalBitErrors                           0x00000518   Data           0  QCA6174_SCAQBAFM.sym ABSOLUTE
    totalSyncDetect                          0x0000051a   Data           0  QCA6174_SCAQBAFM.sym ABSOLUTE
    PFAL_SYS_EDL_BERT_TriggerPin             0x0000051c   Data           0  QCA6174_SCAQBAFM.sym ABSOLUTE
    PFAL_SYS_EDL_ProdTestStatus              0x00000520   Data           0  QCA6174_SCAQBAFM.sym ABSOLUTE
    PFAL_SYS_EDL_ProdTestResult              0x00000524   Data           0  QCA6174_SCAQBAFM.sym ABSOLUTE
    DEBUG_BIT0_STORED                        0x00000528   Data           0  QCA6174_SCAQBAFM.sym ABSOLUTE
    DEBUG_BIT1_STORED                        0x0000052c   Data           0  QCA6174_SCAQBAFM.sym ABSOLUTE
    pEDL_Data                                0x00000530   Data           0  QCA6174_SCAQBAFM.sym ABSOLUTE
    PFAL_VOICE_State                         0x00000534   Data           0  QCA6174_SCAQBAFM.sym ABSOLUTE
    HIF_TaskHandle                           0x00000536   Data           0  QCA6174_SCAQBAFM.sym ABSOLUTE
    LLM_TaskHandle                           0x00000537   Data           0  QCA6174_SCAQBAFM.sym ABSOLUTE
    APP_TaskHandle                           0x00000538   Data           0  QCA6174_SCAQBAFM.sym ABSOLUTE
    MCI_TaskHandle                           0x00000539   Data           0  QCA6174_SCAQBAFM.sym ABSOLUTE
    MWS_TaskHandle                           0x0000053a   Data           0  QCA6174_SCAQBAFM.sym ABSOLUTE
    BKGD_TaskHandle                          0x0000053b   Data           0  QCA6174_SCAQBAFM.sym ABSOLUTE
    HIF_TimerMask                            0x0000053c   Data           0  QCA6174_SCAQBAFM.sym ABSOLUTE
    LLM_TimerMask                            0x00000540   Data           0  QCA6174_SCAQBAFM.sym ABSOLUTE
    APP_TimerMask                            0x00000544   Data           0  QCA6174_SCAQBAFM.sym ABSOLUTE
    MCI_TimerMask                            0x00000548   Data           0  QCA6174_SCAQBAFM.sym ABSOLUTE
    MWS_TimerMask                            0x0000054c   Data           0  QCA6174_SCAQBAFM.sym ABSOLUTE
    BKGD_TimerMask                           0x00000550   Data           0  QCA6174_SCAQBAFM.sym ABSOLUTE
    PF_DBG_LoggerWaitDuringResetProcessing   0x00000554   Data           0  QCA6174_SCAQBAFM.sym ABSOLUTE
    PF_DBG_pLoggerData                       0x00000558   Data           0  QCA6174_SCAQBAFM.sym ABSOLUTE
    PF_DBG_pSavedLogHead                     0x0000055c   Data           0  QCA6174_SCAQBAFM.sym ABSOLUTE
    PF_DBG_pSavedLogTail                     0x00000560   Data           0  QCA6174_SCAQBAFM.sym ABSOLUTE
    BKGD_State                               0x00000564   Data           0  QCA6174_SCAQBAFM.sym ABSOLUTE
    BKGD_ActivityCountdownTimer              0x00000566   Data           0  QCA6174_SCAQBAFM.sym ABSOLUTE
    BKGD_ActivityCountdownTimerReload        0x00000567   Data           0  QCA6174_SCAQBAFM.sym ABSOLUTE
    BKGD_LoggerCountdownTimer                0x00000568   Data           0  QCA6174_SCAQBAFM.sym ABSOLUTE
    BKGD_LoggerCountdownTimerReload          0x00000569   Data           0  QCA6174_SCAQBAFM.sym ABSOLUTE
    BKGD_ActivityPeriod                      0x0000056a   Data           0  QCA6174_SCAQBAFM.sym ABSOLUTE
    BKGD_TimerPeriod                         0x0000056c   Data           0  QCA6174_SCAQBAFM.sym ABSOLUTE
    HCI_largeHciCmdMaxNumber                 0x0000056e   Data           0  QCA6174_SCAQBAFM.sym ABSOLUTE
    HCI_hostSizeSCODataPayload               0x00000571   Data           0  QCA6174_SCAQBAFM.sym ABSOLUTE
    HCI_hcSizeSCODataPayload                 0x00000572   Data           0  QCA6174_SCAQBAFM.sym ABSOLUTE
    HCI_IsHostBufferSizeSet                  0x00000573   Data           0  QCA6174_SCAQBAFM.sym ABSOLUTE
    HCI_hostFlowControlEnable                0x00000574   Data           0  QCA6174_SCAQBAFM.sym ABSOLUTE
    HCI_smallCmdReadyCount                   0x00000575   Data           0  QCA6174_SCAQBAFM.sym ABSOLUTE
    HCI_largeCmdReadyCount                   0x00000576   Data           0  QCA6174_SCAQBAFM.sym ABSOLUTE
    HCI_hostTotalNumACLDataPackets           0x00000578   Data           0  QCA6174_SCAQBAFM.sym ABSOLUTE
    HCI_hostTotalNumSCODataPackets           0x0000057a   Data           0  QCA6174_SCAQBAFM.sym ABSOLUTE
    HCI_TxQueue                              0x0000057c   Data           0  QCA6174_SCAQBAFM.sym ABSOLUTE
    HCI_syncFlowControlEnable                0x00000584   Data           0  QCA6174_SCAQBAFM.sym ABSOLUTE
    txSeqMode1PktType                        0x00000586   Data           0  QCA6174_SCAQBAFM.sym ABSOLUTE
    txSeqMode2PktType                        0x000005bc   Data           0  QCA6174_SCAQBAFM.sym ABSOLUTE
    txSeqMode3PktType                        0x000005e0   Data           0  QCA6174_SCAQBAFM.sym ABSOLUTE
    SeqTestTxMode                            0x000005f4   Data           0  QCA6174_SCAQBAFM.sym ABSOLUTE
    SeqTestEnable                            0x000005f5   Data           0  QCA6174_SCAQBAFM.sym ABSOLUTE
    SeqTestLtAddr                            0x000005f6   Data           0  QCA6174_SCAQBAFM.sym ABSOLUTE
    SeqRxFirstStateNullPktAligned            0x000005f7   Data           0  QCA6174_SCAQBAFM.sym ABSOLUTE
    SeqTestTxIncNullPkt                      0x000005f8   Data           0  QCA6174_SCAQBAFM.sym ABSOLUTE
    ProdRxBurstCfgSupport                    0x000005f9   Data           0  QCA6174_SCAQBAFM.sym ABSOLUTE
    maxRxSeqStatsEventSz                     0x000005fa   Data           0  QCA6174_SCAQBAFM.sym ABSOLUTE
    MaxProdRxBurstPktNum                     0x000005fc   Data           0  QCA6174_SCAQBAFM.sym ABSOLUTE
    ProdRxBurstPktRecvNum                    0x00000600   Data           0  QCA6174_SCAQBAFM.sym ABSOLUTE
    txSeqModeInfo                            0x00000604   Data           0  QCA6174_SCAQBAFM.sym ABSOLUTE
    rxSeqPktType                             0x0000061c   Data           0  QCA6174_SCAQBAFM.sym ABSOLUTE
    PF_LC_swNCount                           0x00000628   Data           0  QCA6174_SCAQBAFM.sym ABSOLUTE
    PFAL_TXP_Data                            0x0000062c   Data           0  QCA6174_SCAQBAFM.sym ABSOLUTE
    PF_TXP_Functions                         0x00000630   Data           0  QCA6174_SCAQBAFM.sym ABSOLUTE
    SLC_AFH_InitRandNumSeedSlotCount         0x00000634   Data           0  QCA6174_SCAQBAFM.sym ABSOLUTE
    SLC_AFH_IsChanAssessmentFrameActive      0x00000635   Data           0  QCA6174_SCAQBAFM.sym ABSOLUTE
    SLC_AFH_LocalMetricChan                  0x00000636   Data           0  QCA6174_SCAQBAFM.sym ABSOLUTE
    SLC_AFH_ChannelAssessmentRequired        0x00000637   Data           0  QCA6174_SCAQBAFM.sym ABSOLUTE
    SLC_AFH_LocalRXErrorSum                  0x00000638   Data           0  QCA6174_SCAQBAFM.sym ABSOLUTE
    SLC_AFH_LocalRXCountSum                  0x0000063a   Data           0  QCA6174_SCAQBAFM.sym ABSOLUTE
    eSlaveRxAckNeeded                        0x0000063c   Data           0  QCA6174_SCAQBAFM.sym ABSOLUTE
    SLC_pScanAC_dispatchElem                 0x00000640   Data           0  QCA6174_SCAQBAFM.sym ABSOLUTE
    pSLC_accessScan                          0x00000644   Data           0  QCA6174_SCAQBAFM.sym ABSOLUTE
    pageRespTOCount                          0x00000648   Data           0  QCA6174_SCAQBAFM.sym ABSOLUTE
    newConnTOCount                           0x0000064c   Data           0  QCA6174_SCAQBAFM.sym ABSOLUTE
    slotCounter                              0x0000064e   Data           0  QCA6174_SCAQBAFM.sym ABSOLUTE
    SlaveSkipTx                              0x00000650   Data           0  QCA6174_SCAQBAFM.sym ABSOLUTE
    SLC_processedTxBlocks                    0x00000651   Data           0  QCA6174_SCAQBAFM.sym ABSOLUTE
    SLC_hostACLDataPacketLength              0x00000652   Data           0  QCA6174_SCAQBAFM.sym ABSOLUTE
    SLC_BB_RxPktMemBlks                      0x00000654   Data           0  QCA6174_SCAQBAFM.sym ABSOLUTE
    SLC_RX_ACL_LINKED_LIST_capacityInBytes   0x00000658   Data           0  QCA6174_SCAQBAFM.sym ABSOLUTE
    SLC_pIdScan                              0x0000065c   Data           0  QCA6174_SCAQBAFM.sym ABSOLUTE
    SLC_LE_savedSlaveDispatchClk             0x00000660   Data           0  QCA6174_SCAQBAFM.sym ABSOLUTE
    SLC_LE_stateInfo                         0x00000664   Data           0  QCA6174_SCAQBAFM.sym ABSOLUTE
    SLC_LE_pHlr_TxSetup                      0x00000668   Data           0  QCA6174_SCAQBAFM.sym ABSOLUTE
    LpbkTestPattern                          0x0000066c   Data           0  QCA6174_SCAQBAFM.sym ABSOLUTE
    activeMode                               0x0000066d   Data           0  QCA6174_SCAQBAFM.sym ABSOLUTE
    StatusAndControl                         0x0000066e   Data           0  QCA6174_SCAQBAFM.sym ABSOLUTE
    ptestBlock                               0x00000670   Data           0  QCA6174_SCAQBAFM.sym ABSOLUTE
    pTestStatistics                          0x00000674   Data           0  QCA6174_SCAQBAFM.sym ABSOLUTE
    SLC_TestMuxSource                        0x00000678   Data           0  QCA6174_SCAQBAFM.sym ABSOLUTE
    SDB_CondPerf_Flags                       0x0000067c   Data           0  QCA6174_SCAQBAFM.sym ABSOLUTE
    SDB_supportedCodecs                      0x00000680   Data           0  QCA6174_SCAQBAFM.sym ABSOLUTE
    SDB_LLR_ChannelMap                       0x00000688   Data           0  QCA6174_SCAQBAFM.sym ABSOLUTE
    SDB_SyncTrainChannels                    0x0000069a   Data           0  QCA6174_SCAQBAFM.sym ABSOLUTE
    SDB_HciDataTxPoolCount                   0x000006a0   Data           0  QCA6174_SCAQBAFM.sym ABSOLUTE
    SDB_HciDataRxPoolCount                   0x000006a1   Data           0  QCA6174_SCAQBAFM.sym ABSOLUTE
    SDB_HciLeDataTxPoolCount                 0x000006a2   Data           0  QCA6174_SCAQBAFM.sym ABSOLUTE
    SDB_inquiryPndCount                      0x000006a3   Data           0  QCA6174_SCAQBAFM.sym ABSOLUTE
    SDB_QOS_Format                           0x000006a4   Data           0  QCA6174_SCAQBAFM.sym ABSOLUTE
    SDB_deviceUnderTestMode                  0x000006a5   Data           0  QCA6174_SCAQBAFM.sym ABSOLUTE
    SDB_loopbackMode                         0x000006a6   Data           0  QCA6174_SCAQBAFM.sym ABSOLUTE
    SDB_scanEnable                           0x000006a7   Data           0  QCA6174_SCAQBAFM.sym ABSOLUTE
    SDB_authenticationEnable                 0x000006a8   Data           0  QCA6174_SCAQBAFM.sym ABSOLUTE
    SDB_SimplePairingMode                    0x000006a9   Data           0  QCA6174_SCAQBAFM.sym ABSOLUTE
    SDB_SimplePairingDebugMode               0x000006aa   Data           0  QCA6174_SCAQBAFM.sym ABSOLUTE
    SDB_encryptionMode                       0x000006ab   Data           0  QCA6174_SCAQBAFM.sym ABSOLUTE
    SDB_holdModeActivity                     0x000006ac   Data           0  QCA6174_SCAQBAFM.sym ABSOLUTE
    SDB_LE_Role                              0x000006ad   Data           0  QCA6174_SCAQBAFM.sym ABSOLUTE
    SDB_bEvalScatternetSched                 0x000006ae   Data           0  QCA6174_SCAQBAFM.sym ABSOLUTE
    SDB_SCO_FullStatus                       0x000006af   Data           0  QCA6174_SCAQBAFM.sym ABSOLUTE
    SDB_numActivePiconet                     0x000006b0   Data           0  QCA6174_SCAQBAFM.sym ABSOLUTE
    SDB_retransmitWindowInhibitMask          0x000006b1   Data           0  QCA6174_SCAQBAFM.sym ABSOLUTE
    SDB_nTotalpActiveConnCount               0x000006b2   Data           0  QCA6174_SCAQBAFM.sym ABSOLUTE
    SDB_nTotalpConnCount                     0x000006b3   Data           0  QCA6174_SCAQBAFM.sym ABSOLUTE
    SDB_bLinkSupervisionTimerActive          0x000006b4   Data           0  QCA6174_SCAQBAFM.sym ABSOLUTE
    SDB_bMaxAuthenTimerActive                0x000006b5   Data           0  QCA6174_SCAQBAFM.sym ABSOLUTE
    SDB_nTotalpLeConnCount                   0x000006b6   Data           0  QCA6174_SCAQBAFM.sym ABSOLUTE
    SDB_inquiryMaxPeriodLength               0x000006b8   Data           0  QCA6174_SCAQBAFM.sym ABSOLUTE
    SDB_inquiryMinPeriodLength               0x000006ba   Data           0  QCA6174_SCAQBAFM.sym ABSOLUTE
    SDB_SecureConnections                    0x000006bc   Data           0  QCA6174_SCAQBAFM.sym ABSOLUTE
    SDB_connectionAcceptTimeout              0x000006be   Data           0  QCA6174_SCAQBAFM.sym ABSOLUTE
    SDB_defaultLinkPolicySettings            0x000006c0   Data           0  QCA6174_SCAQBAFM.sym ABSOLUTE
    SDB_AuthenticationRetry                  0x000006c2   Data           0  QCA6174_SCAQBAFM.sym ABSOLUTE
    SDB_classOfDevice                        0x000006c4   Data           0  QCA6174_SCAQBAFM.sym ABSOLUTE
    SDB_HciDataTxPool                        0x000006c8   Data           0  QCA6174_SCAQBAFM.sym ABSOLUTE
    SDB_HciDataRxPool                        0x000006cc   Data           0  QCA6174_SCAQBAFM.sym ABSOLUTE
    SDB_HciLeDataTxPool                      0x000006d0   Data           0  QCA6174_SCAQBAFM.sym ABSOLUTE
    SDB_localLoopback_pConn                  0x000006d4   Data           0  QCA6174_SCAQBAFM.sym ABSOLUTE
    SDB_HV1pActiveConn                       0x000006d8   Data           0  QCA6174_SCAQBAFM.sym ABSOLUTE
    SDB_localParityBits                      0x000006dc   Data           0  QCA6174_SCAQBAFM.sym ABSOLUTE
    SDB_LE_randomDevAddr                     0x000006e1   Data           0  QCA6174_SCAQBAFM.sym ABSOLUTE
    SDB_RoleSwitch                           0x000006e8   Data           0  QCA6174_SCAQBAFM.sym ABSOLUTE
    SDB_focus                                0x000006f0   Data           0  QCA6174_SCAQBAFM.sym ABSOLUTE
    SDB_LE_DeviceFilterList                  0x000006f8   Data           0  QCA6174_SCAQBAFM.sym ABSOLUTE
    SDB_LE_AD_UUID_FilterList                0x00000700   Data           0  QCA6174_SCAQBAFM.sym ABSOLUTE
    SDB_LE_AdvPCFBcstAddrList                0x00000708   Data           0  QCA6174_SCAQBAFM.sym ABSOLUTE
    SDB_LE_AdvPCFServiceUUIDList             0x00000710   Data           0  QCA6174_SCAQBAFM.sym ABSOLUTE
    SDB_LE_AdvPCFServiceSolicitUUIDList      0x00000718   Data           0  QCA6174_SCAQBAFM.sym ABSOLUTE
    SDB_LE_AdvPCFLocalNameList               0x00000720   Data           0  QCA6174_SCAQBAFM.sym ABSOLUTE
    SDB_LE_AdvPCFManuDataList                0x00000728   Data           0  QCA6174_SCAQBAFM.sym ABSOLUTE
    SDB_LE_AdvPCFServiceDataList             0x00000730   Data           0  QCA6174_SCAQBAFM.sym ABSOLUTE
    SDB_LE_advDupFilterList                  0x00000738   Data           0  QCA6174_SCAQBAFM.sym ABSOLUTE
    SDB_LE_advDupFilterAddrList              0x00000740   Data           0  QCA6174_SCAQBAFM.sym ABSOLUTE
    SDB_em                                   0x00000748   Data           0  QCA6174_SCAQBAFM.sym ABSOLUTE
    SDB_em_p2                                0x00000750   Data           0  QCA6174_SCAQBAFM.sym ABSOLUTE
    SDB_LE_em                                0x00000758   Data           0  QCA6174_SCAQBAFM.sym ABSOLUTE
    SDB_aTotalpScoConn                       0x00000760   Data           0  QCA6174_SCAQBAFM.sym ABSOLUTE
    SDB_IRK_Table                            0x00000768   Data           0  QCA6174_SCAQBAFM.sym ABSOLUTE
    SDB_inquiryLength                        0x00000770   Data           0  QCA6174_SCAQBAFM.sym ABSOLUTE
    SDB_inquiryNumResponsesAllowed           0x00000771   Data           0  QCA6174_SCAQBAFM.sym ABSOLUTE
    SDB_inquiryNumResponses                  0x00000772   Data           0  QCA6174_SCAQBAFM.sym ABSOLUTE
    SDB_inquiryLAP                           0x00000773   Data           0  QCA6174_SCAQBAFM.sym ABSOLUTE
    SDB_KeepAlive                            0x0000077c   Data           0  QCA6174_SCAQBAFM.sym ABSOLUTE
    SDB_LE_BB_RxPktMemBlks                   0x00000784   Data           0  QCA6174_SCAQBAFM.sym ABSOLUTE
    SDB_LE_debugChMapUpdateIdx               0x00000785   Data           0  QCA6174_SCAQBAFM.sym ABSOLUTE
    SDB_broadcast_encryptionKeySize          0x00000786   Data           0  QCA6174_SCAQBAFM.sym ABSOLUTE
    SDB_HCI_EventFilters                     0x00000787   Data           0  QCA6174_SCAQBAFM.sym ABSOLUTE
    SDB_pLoggerCounters                      0x0000078c   Data           0  QCA6174_SCAQBAFM.sym ABSOLUTE
    PM_BT_CLK_AlwaysOn                       0x00000790   Data           0  QCA6174_SCAQBAFM.sym ABSOLUTE
    currBtState                              0x00000794   Data           0  QCA6174_SCAQBAFM.sym ABSOLUTE
    PFAL_DMR_LastChanAvoidanceNumber         0x0000079c   Data           0  QCA6174_SCAQBAFM.sym ABSOLUTE
    PFAL_DMR_PendingChanAvoidanceNumber      0x0000079d   Data           0  QCA6174_SCAQBAFM.sym ABSOLUTE
    MWS_RuntimeFlag                          0x000007a0   Data           0  QCA6174_SCAQBAFM.sym ABSOLUTE
    MWS_debugFlag                            0x000007a1   Data           0  QCA6174_SCAQBAFM.sym ABSOLUTE
    MWSIRQTable                              0x000007a4   Data           0  QCA6174_SCAQBAFM.sym ABSOLUTE
    IrqTableSize                             0x000007a8   Data           0  QCA6174_SCAQBAFM.sym ABSOLUTE
    rtsm_cont                                0x000007ac   Data           0  QCA6174_SCAQBAFM.sym ABSOLUTE
    pPF_CFG_BT_HCICommandOverride            0x000007b4   Data           0  QCA6174_SCAQBAFM.sym ABSOLUTE
    pPF_CFG_SYS_RegisterOverride             0x000007b8   Data           0  QCA6174_SCAQBAFM.sym ABSOLUTE
    pPF_CFG_SYS_StoredLinkKeys               0x000007bc   Data           0  QCA6174_SCAQBAFM.sym ABSOLUTE
    CFG_USB_REASSEMBLY                       0x000007c0   Data           0  QCA6174_SCAQBAFM.sym ABSOLUTE
    PFAL_CFG_MaxTagValue                     0x000007c4   Data           0  QCA6174_SCAQBAFM.sym ABSOLUTE
    PFAL_CFG_DataInit                        0x000007c8   Data           0  QCA6174_SCAQBAFM.sym ABSOLUTE
    PFAL_CFG_Read                            0x000007cc   Data           0  QCA6174_SCAQBAFM.sym ABSOLUTE
    PFAL_CFG_DynamicWrite                    0x000007d0   Data           0  QCA6174_SCAQBAFM.sym ABSOLUTE
    PFAL_CFG_DynamicWriteInit                0x000007d4   Data           0  QCA6174_SCAQBAFM.sym ABSOLUTE
    pCfgBase                                 0x000007d8   Data           0  QCA6174_SCAQBAFM.sym ABSOLUTE
    GTMR_Flag1                               0x000007dc   Data           0  QCA6174_SCAQBAFM.sym ABSOLUTE
    GTMR_Flag2                               0x000007dd   Data           0  QCA6174_SCAQBAFM.sym ABSOLUTE
    SavedTimerSettings                       0x000007de   Data           0  QCA6174_SCAQBAFM.sym ABSOLUTE
    gPRUHALTimeCount                         0x000007e4   Data           0  QCA6174_SCAQBAFM.sym ABSOLUTE
    gPRUHALDelayTime                         0x000007e6   Data           0  QCA6174_SCAQBAFM.sym ABSOLUTE
    PFAL_PRUHAL_pHlr                         0x000007e8   Data           0  QCA6174_SCAQBAFM.sym ABSOLUTE
    gPRUHALData                              0x000007ec   Data           0  QCA6174_SCAQBAFM.sym ABSOLUTE
    gPRUIPeriodicTimer                       0x000007f0   Data           0  QCA6174_SCAQBAFM.sym ABSOLUTE
    gPRUINotifyDelayTimer                    0x000007f4   Data           0  QCA6174_SCAQBAFM.sym ABSOLUTE
    wipower_otp_platform                     0x000007f8   Data           0  QCA6174_SCAQBAFM.sym ABSOLUTE
    wipower_otp_embedded                     0x00000804   Data           0  QCA6174_SCAQBAFM.sym ABSOLUTE
    pNX2A4WPData                             0x00000814   Data           0  QCA6174_SCAQBAFM.sym ABSOLUTE
    gStarkRevision                           0x00000818   Data           0  QCA6174_SCAQBAFM.sym ABSOLUTE
    gStarkRegAData                           0x00000819   Data           0  QCA6174_SCAQBAFM.sym ABSOLUTE
    pPFAL_RM_rmCfgfunc                       0x00000820   Data           0  QCA6174_SCAQBAFM.sym ABSOLUTE
    pPFAL_RM_rmPriorSleepFunc                0x00000824   Data           0  QCA6174_SCAQBAFM.sym ABSOLUTE
    pPFAL_RM_rmWakeFunc                      0x00000828   Data           0  QCA6174_SCAQBAFM.sym ABSOLUTE
    pPFAL_RM_RMRegOverride                   0x0000082c   Data           0  QCA6174_SCAQBAFM.sym ABSOLUTE
    pPFAL_RM_RMClockInit                     0x00000830   Data           0  QCA6174_SCAQBAFM.sym ABSOLUTE
    gBTStartupCalStatus                      0x00000834   Data           0  QCA6174_SCAQBAFM.sym ABSOLUTE
    PFAL_SYS_LPO_type                        0x00000837   Data           0  QCA6174_SCAQBAFM.sym ABSOLUTE
    PFAL_TXP_pExtFunctions                   0x00000838   Data           0  QCA6174_SCAQBAFM.sym ABSOLUTE
    transport                                0x0000083c   Data           0  QCA6174_SCAQBAFM.sym ABSOLUTE
    SiFlashOpCodes                           0x00000840   Data           0  QCA6174_SCAQBAFM.sym ABSOLUTE
    gEepromCtrlByte                          0x0000084c   Data           0  QCA6174_SCAQBAFM.sym ABSOLUTE
    EepromCtrlCode                           0x0000084d   Data           0  QCA6174_SCAQBAFM.sym ABSOLUTE
    efuse_api                                0x00000850   Data           0  QCA6174_SCAQBAFM.sym ABSOLUTE
    efuse_cache                              0x00000854   Data           0  QCA6174_SCAQBAFM.sym ABSOLUTE
    CFG_NvmType                              0x00000858   Data           0  QCA6174_SCAQBAFM.sym ABSOLUTE
    CFG_EXT_Init                             0x0000085c   Data           0  QCA6174_SCAQBAFM.sym ABSOLUTE
    CFG_EXT_GetConfigParameterInfo           0x00000860   Data           0  QCA6174_SCAQBAFM.sym ABSOLUTE
    CFG_EXT_WriteDynamicConfigParameters     0x00000864   Data           0  QCA6174_SCAQBAFM.sym ABSOLUTE
    CFG_EXT_NVM_GetTagEntry                  0x00000868   Data           0  QCA6174_SCAQBAFM.sym ABSOLUTE
    BKGD_pCallback                           0x0000086c   Data           0  QCA6174_SCAQBAFM.sym ABSOLUTE
    HIF_pCallback                            0x00000870   Data           0  QCA6174_SCAQBAFM.sym ABSOLUTE
    LLM_pCallback                            0x00000874   Data           0  QCA6174_SCAQBAFM.sym ABSOLUTE
    MCI_pCallback                            0x00000878   Data           0  QCA6174_SCAQBAFM.sym ABSOLUTE
    MWS_pCallback                            0x0000087c   Data           0  QCA6174_SCAQBAFM.sym ABSOLUTE
    ucEventQueTop                            0x00000880   Data           0  QCA6174_SCAQBAFM.sym ABSOLUTE
    ucEventQueBot                            0x00000881   Data           0  QCA6174_SCAQBAFM.sym ABSOLUTE
    ucRxSearchChannel                        0x00000882   Data           0  QCA6174_SCAQBAFM.sym ABSOLUTE
    ucCurrentSearchSharingCycle              0x00000883   Data           0  QCA6174_SCAQBAFM.sym ABSOLUTE
    ucAdjustTime                             0x00000884   Data           0  QCA6174_SCAQBAFM.sym ABSOLUTE
    eInitialState                            0x00000885   Data           0  QCA6174_SCAQBAFM.sym ABSOLUTE
    eCurrentState                            0x00000886   Data           0  QCA6174_SCAQBAFM.sym ABSOLUTE
    ucRxWindowDuration                       0x00000887   Data           0  QCA6174_SCAQBAFM.sym ABSOLUTE
    ucActiveChannel                          0x00000888   Data           0  QCA6174_SCAQBAFM.sym ABSOLUTE
    ucActiveChannelTimerIntervals            0x00000889   Data           0  QCA6174_SCAQBAFM.sym ABSOLUTE
    ucDelayTime                              0x0000088a   Data           0  QCA6174_SCAQBAFM.sym ABSOLUTE
    ucAdvPacketSize                          0x0000088b   Data           0  QCA6174_SCAQBAFM.sym ABSOLUTE
    ucAdvDataMesgSize                        0x0000088c   Data           0  QCA6174_SCAQBAFM.sym ABSOLUTE
    ucAdvPacketMaxSize                       0x0000088d   Data           0  QCA6174_SCAQBAFM.sym ABSOLUTE
    ucRadioMesgSize                          0x0000088e   Data           0  QCA6174_SCAQBAFM.sym ABSOLUTE
    ucAdvRequiredFields                      0x0000088f   Data           0  QCA6174_SCAQBAFM.sym ABSOLUTE
    ucAdvOptionalFields                      0x00000890   Data           0  QCA6174_SCAQBAFM.sym ABSOLUTE
    ucAdvNegotiationState                    0x00000891   Data           0  QCA6174_SCAQBAFM.sym ABSOLUTE
    ucAdvRetryIncrease                       0x00000892   Data           0  QCA6174_SCAQBAFM.sym ABSOLUTE
    ucAdvRetryIncreaseReset                  0x00000893   Data           0  QCA6174_SCAQBAFM.sym ABSOLUTE
    ucFreqHopIndex                           0x00000894   Data           0  QCA6174_SCAQBAFM.sym ABSOLUTE
    bANTTestMode                             0x00000895   Data           0  QCA6174_SCAQBAFM.sym ABSOLUTE
    ucANTBurstBlockedCount                   0x00000896   Data           0  QCA6174_SCAQBAFM.sym ABSOLUTE
    bSaveBurst                               0x00000897   Data           0  QCA6174_SCAQBAFM.sym ABSOLUTE
    ucSaveBurstChannel                       0x00000898   Data           0  QCA6174_SCAQBAFM.sym ABSOLUTE
    ucBurstQueuedChannel                     0x00000899   Data           0  QCA6174_SCAQBAFM.sym ABSOLUTE
    usStartTime                              0x0000089a   Data           0  QCA6174_SCAQBAFM.sym ABSOLUTE
    usAdvStallCount                          0x0000089c   Data           0  QCA6174_SCAQBAFM.sym ABSOLUTE
    usAdvStallCountReset                     0x0000089e   Data           0  QCA6174_SCAQBAFM.sym ABSOLUTE
    usPacketsReceived                        0x000008a0   Data           0  QCA6174_SCAQBAFM.sym ABSOLUTE
    usPacketsLost                            0x000008a2   Data           0  QCA6174_SCAQBAFM.sym ABSOLUTE
    usPacketsCRCError                        0x000008a4   Data           0  QCA6174_SCAQBAFM.sym ABSOLUTE
    usSearchCount                            0x000008a6   Data           0  QCA6174_SCAQBAFM.sym ABSOLUTE
    usTxPackets                              0x000008a8   Data           0  QCA6174_SCAQBAFM.sym ABSOLUTE
    usPacketLimit                            0x000008aa   Data           0  QCA6174_SCAQBAFM.sym ABSOLUTE
    ANT_CCR                                  0x000008ac   Data           0  QCA6174_SCAQBAFM.sym ABSOLUTE
    OLD_ANT_CCR                              0x000008ae   Data           0  QCA6174_SCAQBAFM.sym ABSOLUTE
    RADIO_DR1_CCR                            0x000008b0   Data           0  QCA6174_SCAQBAFM.sym ABSOLUTE
    CAPTURE_REF_ANT_CCR                      0x000008b2   Data           0  QCA6174_SCAQBAFM.sym ABSOLUTE
    usSearchEnvelopeLengthConfig             0x000008b4   Data           0  QCA6174_SCAQBAFM.sym ABSOLUTE
    usRadioSyncCRC                           0x000008b6   Data           0  QCA6174_SCAQBAFM.sym ABSOLUTE
    uChannelState                            0x000008b8   Data           0  QCA6174_SCAQBAFM.sym ABSOLUTE
    uExtAssign                               0x000008bc   Data           0  QCA6174_SCAQBAFM.sym ABSOLUTE
    uANTLibConfig                            0x000008c0   Data           0  QCA6174_SCAQBAFM.sym ABSOLUTE
    uGlobalControl1                          0x000008c4   Data           0  QCA6174_SCAQBAFM.sym ABSOLUTE
    uGlobalControl2                          0x000008c8   Data           0  QCA6174_SCAQBAFM.sym ABSOLUTE
    uGlobalControl3                          0x000008cc   Data           0  QCA6174_SCAQBAFM.sym ABSOLUTE
    uTrack                                   0x000008d0   Data           0  QCA6174_SCAQBAFM.sym ABSOLUTE
    uTxMesgControl                           0x000008d4   Data           0  QCA6174_SCAQBAFM.sym ABSOLUTE
    uRxMesgControl                           0x000008d8   Data           0  QCA6174_SCAQBAFM.sym ABSOLUTE
    uTransfer                                0x000008dc   Data           0  QCA6174_SCAQBAFM.sym ABSOLUTE
    uTxSavedMesgControl                      0x000008e0   Data           0  QCA6174_SCAQBAFM.sym ABSOLUTE
    stNegotiationMode                        0x000008e4   Data           0  QCA6174_SCAQBAFM.sym ABSOLUTE
    stActiveAdvancedMode                     0x000008e8   Data           0  QCA6174_SCAQBAFM.sym ABSOLUTE
    ulBitErrorCount                          0x000008ec   Data           0  QCA6174_SCAQBAFM.sym ABSOLUTE
    ACCUM_CCR_ERR                            0x000008f0   Data           0  QCA6174_SCAQBAFM.sym ABSOLUTE
    uANTControl                              0x000008f4   Data           0  QCA6174_SCAQBAFM.sym ABSOLUTE
    uANTEnvelope                             0x000008f8   Data           0  QCA6174_SCAQBAFM.sym ABSOLUTE
    aucFreqHopTable                          0x000008fc   Data           0  QCA6174_SCAQBAFM.sym ABSOLUTE
    aucChannelNetwork                        0x00000902   Data           0  QCA6174_SCAQBAFM.sym ABSOLUTE
    aucSearchTimeOut                         0x0000090a   Data           0  QCA6174_SCAQBAFM.sym ABSOLUTE
    aucSearchChPriority                      0x00000912   Data           0  QCA6174_SCAQBAFM.sym ABSOLUTE
    aucSearchSharingConfig                   0x0000091a   Data           0  QCA6174_SCAQBAFM.sym ABSOLUTE
    aucLowPrioritySearchTimeOut              0x00000922   Data           0  QCA6174_SCAQBAFM.sym ABSOLUTE
    aucRadioFrequency                        0x0000092a   Data           0  QCA6174_SCAQBAFM.sym ABSOLUTE
    BT_CCR                                   0x00000934   Data           0  QCA6174_SCAQBAFM.sym ABSOLUTE
    OLD_BT_CCR                               0x0000093c   Data           0  QCA6174_SCAQBAFM.sym ABSOLUTE
    CAPTURE_REF_BT_CCR                       0x00000944   Data           0  QCA6174_SCAQBAFM.sym ABSOLUTE
    aucANTConnIntervalPriorityConfig         0x0000094c   Data           0  QCA6174_SCAQBAFM.sym ABSOLUTE
    aucANTSearchIntervalPriorityConfig       0x00000954   Data           0  QCA6174_SCAQBAFM.sym ABSOLUTE
    aucANTBurstKeepAliveConfig               0x0000095c   Data           0  QCA6174_SCAQBAFM.sym ABSOLUTE
    aucANTConnIntervalCount                  0x00000964   Data           0  QCA6174_SCAQBAFM.sym ABSOLUTE
    aucANTSearchIntervalCount                0x0000096c   Data           0  QCA6174_SCAQBAFM.sym ABSOLUTE
    aucRadioTxPower                          0x00000974   Data           0  QCA6174_SCAQBAFM.sym ABSOLUTE
    aucRSSI                                  0x0000097c   Data           0  QCA6174_SCAQBAFM.sym ABSOLUTE
    aucRSSIProxConfig                        0x00000984   Data           0  QCA6174_SCAQBAFM.sym ABSOLUTE
    aucAFHTimeoutCount                       0x0000098c   Data           0  QCA6174_SCAQBAFM.sym ABSOLUTE
    stTxQueue                                0x00000994   Data           0  QCA6174_SCAQBAFM.sym ABSOLUTE
    SDB_LE_MaxAddrType                       0x0000099d   Data           0  QCA6174_SCAQBAFM.sym ABSOLUTE
    LLM_LE_TestRxHwModeEnabled               0x0000099e   Data           0  QCA6174_SCAQBAFM.sym ABSOLUTE
    LLM_AFH_LE_initChannelMap                0x0000099f   Data           0  QCA6174_SCAQBAFM.sym ABSOLUTE
    LLM_AFH_LE_HostChannelMap                0x000009a4   Data           0  QCA6174_SCAQBAFM.sym ABSOLUTE
    LLM_AFH_ChanClassEnabledByHost           0x000009a9   Data           0  QCA6174_SCAQBAFM.sym ABSOLUTE
    LLM_AFH_LocalChanAssessmentState         0x000009aa   Data           0  QCA6174_SCAQBAFM.sym ABSOLUTE
    LLM_AFH_LE_AssessChannelMap              0x000009ab   Data           0  QCA6174_SCAQBAFM.sym ABSOLUTE
    LLM_AFH_LE_WLANChannelMap                0x000009b0   Data           0  QCA6174_SCAQBAFM.sym ABSOLUTE
    LLM_AFH_LE_LTEChannelMap                 0x000009b5   Data           0  QCA6174_SCAQBAFM.sym ABSOLUTE
    LLM_randomNumberDataInitializedByReset   0x000009ba   Data           0  QCA6174_SCAQBAFM.sym ABSOLUTE
    LLM_activeConnectionAllocationCount      0x000009bc   Data           0  QCA6174_SCAQBAFM.sym ABSOLUTE
    LLM_aMemPoolActiveConnNoAccessLcHw       0x000009c0   Data           0  QCA6174_SCAQBAFM.sym ABSOLUTE
    LLM_lowPowerModePossible                 0x000009c8   Data           0  QCA6174_SCAQBAFM.sym ABSOLUTE
    LLM_extendedFeatures_p1                  0x000009c9   Data           0  QCA6174_SCAQBAFM.sym ABSOLUTE
    LLM_Rand_lsfr                            0x000009cc   Data           0  QCA6174_SCAQBAFM.sym ABSOLUTE
    LLM_CQDDRCssHCI_handle                   0x000009d0   Data           0  QCA6174_SCAQBAFM.sym ABSOLUTE
    LLM_CQDDRCssBitsReceived                 0x000009d4   Data           0  QCA6174_SCAQBAFM.sym ABSOLUTE
    LLM_CQDDRCssBER                          0x000009d8   Data           0  QCA6174_SCAQBAFM.sym ABSOLUTE
    LLM_CQDDRCssPER                          0x000009da   Data           0  QCA6174_SCAQBAFM.sym ABSOLUTE
    LLM_CQDDRCssPreferredPktType             0x000009dc   Data           0  QCA6174_SCAQBAFM.sym ABSOLUTE
    LLM_pageScanCount                        0x000009dd   Data           0  QCA6174_SCAQBAFM.sym ABSOLUTE
    LLM_inquiryScanCount                     0x000009de   Data           0  QCA6174_SCAQBAFM.sym ABSOLUTE
    LLM_trigScanCount                        0x000009df   Data           0  QCA6174_SCAQBAFM.sym ABSOLUTE
    LLM_connectionSetupFilterCount           0x000009e0   Data           0  QCA6174_SCAQBAFM.sym ABSOLUTE
    LLM_inquiryResultFilterCount             0x000009e1   Data           0  QCA6174_SCAQBAFM.sym ABSOLUTE
    LLM_scoChanDB                            0x000009e4   Data           0  QCA6174_SCAQBAFM.sym ABSOLUTE
    LLM_enableDeviceUnderTestMode            0x000009e8   Data           0  QCA6174_SCAQBAFM.sym ABSOLUTE
    LLM_Num_HCI_Command_Packets              0x000009e9   Data           0  QCA6174_SCAQBAFM.sym ABSOLUTE
    LLM_scanSuspended                        0x000009ea   Data           0  QCA6174_SCAQBAFM.sym ABSOLUTE
    LLM_lmCB                                 0x000009ec   Data           0  QCA6174_SCAQBAFM.sym ABSOLUTE
    LLM_hostPINtype                          0x000009f4   Data           0  QCA6174_SCAQBAFM.sym ABSOLUTE
    LLM_lmstate                              0x000009f5   Data           0  QCA6174_SCAQBAFM.sym ABSOLUTE
    pLMcommand                               0x000009f8   Data           0  QCA6174_SCAQBAFM.sym ABSOLUTE
    LLM_ltaddrDB                             0x000009fc   Data           0  QCA6174_SCAQBAFM.sym ABSOLUTE
    LLM_SDB_piconetHandleDB                  0x00000a04   Data           0  QCA6174_SCAQBAFM.sym ABSOLUTE
    LLM_SDB_HCI_connHandleDB                 0x00000a0c   Data           0  QCA6174_SCAQBAFM.sym ABSOLUTE
    LLM_xSCOchannelDB                        0x00000a14   Data           0  QCA6174_SCAQBAFM.sym ABSOLUTE
    LLM_lmpSeqSCO_DispatchQ                  0x00000a1c   Data           0  QCA6174_SCAQBAFM.sym ABSOLUTE
    LLM_xSCO_DelayMultiplierDefault          0x00000a24   Data           0  QCA6174_SCAQBAFM.sym ABSOLUTE
    LLM_xSCO_DelayMultiplier                 0x00000a25   Data           0  QCA6174_SCAQBAFM.sym ABSOLUTE
    LLM_CachedSyncLinkOffsetMap              0x00000a38   Data           0  QCA6174_SCAQBAFM.sym ABSOLUTE
    LLM_ExtFrameConfig                       0x00000a40   Data           0  QCA6174_SCAQBAFM.sym ABSOLUTE
    SLC_DisQ_CurrentClock                    0x00000a44   Data           0  QCA6174_SCAQBAFM.sym ABSOLUTE
    SCO_BadPktCntr                           0x00000a48   Data           0  QCA6174_SCAQBAFM.sym ABSOLUTE
    SLC_LE_scannerBackoffDisabled            0x00000a4c   Data           0  QCA6174_SCAQBAFM.sym ABSOLUTE
    SLC_lfsr                                 0x00000a50   Data           0  QCA6174_SCAQBAFM.sym ABSOLUTE
    PFAL_ACI_IsHWLocked                      0x00000a57   Data           0  QCA6174_SCAQBAFM.sym ABSOLUTE
    Clk1                                     0x00000a58   Data           0  QCA6174_SCAQBAFM.sym ABSOLUTE
    Clk2                                     0x00000a60   Data           0  QCA6174_SCAQBAFM.sym ABSOLUTE
    Clk12                                    0x00000a68   Data           0  QCA6174_SCAQBAFM.sym ABSOLUTE
    ucResetType                              0x00000a70   Data           0  QCA6174_SCAQBAFM.sym ABSOLUTE
    uANTMainCtrl                             0x00000a74   Data           0  QCA6174_SCAQBAFM.sym ABSOLUTE
    pucHCIDataSave                           0x00000a78   Data           0  QCA6174_SCAQBAFM.sym ABSOLUTE
    CQDDR_ihandle                            0x00000a7c   Data           0  QCA6174_SCAQBAFM.sym ABSOLUTE
    LLM_CQDDRCssEDR_eSCO_PreferredPktType    0x00000a7e   Data           0  QCA6174_SCAQBAFM.sym ABSOLUTE
    LLM_CQDDRCssWER                          0x00000a80   Data           0  QCA6174_SCAQBAFM.sym ABSOLUTE
    LLM_BDADDER_List                         0x00000a84   Data           0  QCA6174_SCAQBAFM.sym ABSOLUTE
    pLLM_HCI_CurrentCmdPkt                   0x00000a8c   Data           0  QCA6174_SCAQBAFM.sym ABSOLUTE
    LLM_LE_aMemPoolDefCmd                    0x00000a90   Data           0  QCA6174_SCAQBAFM.sym ABSOLUTE
    qLLM_LE_DefCmdQueue                      0x00000a98   Data           0  QCA6174_SCAQBAFM.sym ABSOLUTE
    ucANTTxSerialBufferingConfig             0x00000aa0   Data           0  QCA6174_SCAQBAFM.sym ABSOLUTE
    usANTTxSerialQueueTop                    0x00000aa2   Data           0  QCA6174_SCAQBAFM.sym ABSOLUTE
    usANTTxSerialQueueBot                    0x00000aa4   Data           0  QCA6174_SCAQBAFM.sym ABSOLUTE
    usANTRxSerialIndex                       0x00000aa6   Data           0  QCA6174_SCAQBAFM.sym ABSOLUTE
    usANTTxSerialBufferingSizeThreshold      0x00000aa8   Data           0  QCA6174_SCAQBAFM.sym ABSOLUTE
    usANTEventFilterConfig                   0x00000aaa   Data           0  QCA6174_SCAQBAFM.sym ABSOLUTE
    uANTDataPathCtrl                         0x00000aac   Data           0  QCA6174_SCAQBAFM.sym ABSOLUTE
    ulANTTxSerialBufferingTimeThreshold      0x00000ab0   Data           0  QCA6174_SCAQBAFM.sym ABSOLUTE
    stANTTxSerialBufferingFlushTime          0x00000ab4   Data           0  QCA6174_SCAQBAFM.sym ABSOLUTE
    s_accum                                  0x00000ac8   Data           0  QCA6174_SCAQBAFM.sym ABSOLUTE
    PFAL_LC_TxLinkedList                     0x00000ad0   Data           0  QCA6174_SCAQBAFM.sym ABSOLUTE
    PFAL_LC_RxScoLinkedList                  0x00000af0   Data           0  QCA6174_SCAQBAFM.sym ABSOLUTE
    PFAL_LC_RxAclLinkedList                  0x00000afc   Data           0  QCA6174_SCAQBAFM.sym ABSOLUTE
    PFAL_LC_TxScratchpad                     0x00000b40   Data           0  QCA6174_SCAQBAFM.sym ABSOLUTE
    PFAL_LC_RxScratchpad                     0x00000b5c   Data           0  QCA6174_SCAQBAFM.sym ABSOLUTE
    AM_AddrFilterCopy                        0x00000b7c   Data           0  QCA6174_SCAQBAFM.sym ABSOLUTE
    Default_AM_AddrFilter                    0x00000b8c   Data           0  QCA6174_SCAQBAFM.sym ABSOLUTE
    PFAL_LC_TxAclPayloadBuff                 0x00000b9c   Data           0  QCA6174_SCAQBAFM.sym ABSOLUTE
    gSha256Context                           0x00000fa0   Data           0  QCA6174_SCAQBAFM.sym ABSOLUTE
    sco_buffer                               0x00001008   Data           0  QCA6174_SCAQBAFM.sym ABSOLUTE
    rx_sco_pkt                               0x000011a8   Data           0  QCA6174_SCAQBAFM.sym ABSOLUTE
    CFG_Parameters_SYS                       0x000011b8   Data           0  QCA6174_SCAQBAFM.sym ABSOLUTE
    PF_OS_TaskStack                          0x000013bc   Data           0  QCA6174_SCAQBAFM.sym ABSOLUTE
    PF_OS_timerVal                           0x000013d4   Data           0  QCA6174_SCAQBAFM.sym ABSOLUTE
    PF_OS_aQueues                            0x00001510   Data           0  QCA6174_SCAQBAFM.sym ABSOLUTE
    PF_OS_timerNextStatus                    0x000015c8   Data           0  QCA6174_SCAQBAFM.sym ABSOLUTE
    TlvFile                                  0x00001618   Data           0  QCA6174_SCAQBAFM.sym ABSOLUTE
    PFAL_CRYPTO_Ram                          0x0000162c   Data           0  QCA6174_SCAQBAFM.sym ABSOLUTE
    aPFAL_OS_EventQ                          0x000016bc   Data           0  QCA6174_SCAQBAFM.sym ABSOLUTE
    SiW_Task_Events                          0x000016d8   Data           0  QCA6174_SCAQBAFM.sym ABSOLUTE
    SiW_Semaphores                           0x000016f0   Data           0  QCA6174_SCAQBAFM.sym ABSOLUTE
    OSEventTbl                               0x0000173c   Data           0  QCA6174_SCAQBAFM.sym ABSOLUTE
    OSTaskIdleStk                            0x0000196c   Data           0  QCA6174_SCAQBAFM.sym ABSOLUTE
    OSTCBPrioTbl                             0x00001b6c   Data           0  QCA6174_SCAQBAFM.sym ABSOLUTE
    OSTCBTbl                                 0x00001b90   Data           0  QCA6174_SCAQBAFM.sym ABSOLUTE
    PFAL_RM_CustomerPowerLevelMappingTbl     0x00001c90   Data           0  QCA6174_SCAQBAFM.sym ABSOLUTE
    PFAL_RM_HW_RXBB_TIA_RS_CTRL_BASELINE_wOFFSET 0x00001c9a   Data           0  QCA6174_SCAQBAFM.sym ABSOLUTE
    PFAL_RM_HW_RXBB_TIA_CS_CTRL_BASELINE_wOFFSET 0x00001cba   Data           0  QCA6174_SCAQBAFM.sym ABSOLUTE
    PFAL_RM_HW_RXBB_TIA_RS_CTRL_BASELINE     0x00001cda   Data           0  QCA6174_SCAQBAFM.sym ABSOLUTE
    PFAL_RM_HW_RXBB_TIA_CS_CTRL_BASELINE     0x00001cfa   Data           0  QCA6174_SCAQBAFM.sym ABSOLUTE
    PFAL_RM_HW_MODEM_TX_TEMP_CAL_TABLE       0x00001d1a   Data           0  QCA6174_SCAQBAFM.sym ABSOLUTE
    PFAL_SYS_pwrModeVote                     0x00001d24   Data           0  QCA6174_SCAQBAFM.sym ABSOLUTE
    uart_iop_data                            0x00001d30   Data           0  QCA6174_SCAQBAFM.sym ABSOLUTE
    uart_rx_flow_buf                         0x00001df8   Data           0  QCA6174_SCAQBAFM.sym ABSOLUTE
    voiceDebugBuf                            0x00001e08   Data           0  QCA6174_SCAQBAFM.sym ABSOLUTE
    PFAL_VOICE_bbTxSilenceBuffer             0x00001e30   Data           0  QCA6174_SCAQBAFM.sym ABSOLUTE
    hci_sco_rx_pkt                           0x00001e6c   Data           0  QCA6174_SCAQBAFM.sym ABSOLUTE
    hci_sco_tx_pkt                           0x000021b4   Data           0  QCA6174_SCAQBAFM.sym ABSOLUTE
    PFAL_VOICE_HCISCO                        0x000024fc   Data           0  QCA6174_SCAQBAFM.sym ABSOLUTE
    CFG_Parameters_BT                        0x000025fc   Data           0  QCA6174_SCAQBAFM.sym ABSOLUTE
    CFG_Parameters_Voice                     0x000026c0   Data           0  QCA6174_SCAQBAFM.sym ABSOLUTE
    aFMB_StaticPool                          0x000026fc   Data           0  QCA6174_SCAQBAFM.sym ABSOLUTE
    EPTM_cfgSeqRxState                       0x0000279c   Data           0  QCA6174_SCAQBAFM.sym ABSOLUTE
    EPTM_SeqRxPerfStatus                     0x0000281c   Data           0  QCA6174_SCAQBAFM.sym ABSOLUTE
    EptmSeqState                             0x00002a68   Data           0  QCA6174_SCAQBAFM.sym ABSOLUTE
    RxSeqStatsEventData                      0x00002a88   Data           0  QCA6174_SCAQBAFM.sym ABSOLUTE
    SLC_BCA                                  0x00002cd8   Data           0  QCA6174_SCAQBAFM.sym ABSOLUTE
    SLC_roleSwitchParam                      0x00002cf4   Data           0  QCA6174_SCAQBAFM.sym ABSOLUTE
    SLC_curContext                           0x00002d20   Data           0  QCA6174_SCAQBAFM.sym ABSOLUTE
    SLC_rxFifo                               0x00002d54   Data           0  QCA6174_SCAQBAFM.sym ABSOLUTE
    SLC_txFifo                               0x00002db8   Data           0  QCA6174_SCAQBAFM.sym ABSOLUTE
    SDB_inqCtrl                              0x00002dc4   Data           0  QCA6174_SCAQBAFM.sym ABSOLUTE
    SDB_OOB_info                             0x00002de0   Data           0  QCA6174_SCAQBAFM.sym ABSOLUTE
    SDB_inquiryScan                          0x00002e40   Data           0  QCA6174_SCAQBAFM.sym ABSOLUTE
    SDB_pageScan                             0x00002e94   Data           0  QCA6174_SCAQBAFM.sym ABSOLUTE
    SDB_TrigScan                             0x00002ec8   Data           0  QCA6174_SCAQBAFM.sym ABSOLUTE
    SDB_LE_AdvChanSyncWordInfo               0x00002ef0   Data           0  QCA6174_SCAQBAFM.sym ABSOLUTE
    SDB_LE_TestModeSyncWordInfo              0x00002f00   Data           0  QCA6174_SCAQBAFM.sym ABSOLUTE
    SDB_LE_Scan_Initiator                    0x00002f10   Data           0  QCA6174_SCAQBAFM.sym ABSOLUTE
    SDB_LE_Scan_Scanner                      0x00002f74   Data           0  QCA6174_SCAQBAFM.sym ABSOLUTE
    SDB_LE_Advertise                         0x00002fd8   Data           0  QCA6174_SCAQBAFM.sym ABSOLUTE
    SDB_Ant                                  0x00003018   Data           0  QCA6174_SCAQBAFM.sym ABSOLUTE
    SDB_inquiry                              0x000030cc   Data           0  QCA6174_SCAQBAFM.sym ABSOLUTE
    SDB_extInquiryData                       0x000030e8   Data           0  QCA6174_SCAQBAFM.sym ABSOLUTE
    SDB_page                                 0x00003110   Data           0  QCA6174_SCAQBAFM.sym ABSOLUTE
    SDB_broadcast                            0x00003140   Data           0  QCA6174_SCAQBAFM.sym ABSOLUTE
    SDB_scatternet                           0x0000315c   Data           0  QCA6174_SCAQBAFM.sym ABSOLUTE
    SDB_piconet                              0x000031f8   Data           0  QCA6174_SCAQBAFM.sym ABSOLUTE
    SDB_aTotalpActiveConn                    0x0000320c   Data           0  QCA6174_SCAQBAFM.sym ABSOLUTE
    SDB_HCI_connectionHandleMap              0x00003260   Data           0  QCA6174_SCAQBAFM.sym ABSOLUTE
    SDB_aTotalpLeConn                        0x00003318   Data           0  QCA6174_SCAQBAFM.sym ABSOLUTE
    SDB_BTUnitLocalName                      0x00003368   Data           0  QCA6174_SCAQBAFM.sym ABSOLUTE
    SDB_voiceSettings                        0x00003464   Data           0  QCA6174_SCAQBAFM.sym ABSOLUTE
    SDB_deferredAdvInd                       0x00003494   Data           0  QCA6174_SCAQBAFM.sym ABSOLUTE
    SDB_SyncTrain                            0x000034b8   Data           0  QCA6174_SCAQBAFM.sym ABSOLUTE
    SDB_Linkless                             0x000034d8   Data           0  QCA6174_SCAQBAFM.sym ABSOLUTE
    SDB_ExtTrigger                           0x0000351c   Data           0  QCA6174_SCAQBAFM.sym ABSOLUTE
    SDB_SyncTrainScan                        0x00003528   Data           0  QCA6174_SCAQBAFM.sym ABSOLUTE
    SDB_ClockAdjust                          0x00003584   Data           0  QCA6174_SCAQBAFM.sym ABSOLUTE
    SDB_qHCI_EventFilter                     0x00003594   Data           0  QCA6174_SCAQBAFM.sym ABSOLUTE
    SDB_Remote                               0x000035a4   Data           0  QCA6174_SCAQBAFM.sym ABSOLUTE
    PM_resourceListCurrState                 0x000035b8   Data           0  QCA6174_SCAQBAFM.sym ABSOLUTE
    g_mwsinfo                                0x000035cc   Data           0  QCA6174_SCAQBAFM.sym ABSOLUTE
    my_ctx                                   0x000035e4   Data           0  QCA6174_SCAQBAFM.sym ABSOLUTE
    gPRUIParams                              0x000036ec   Data           0  QCA6174_SCAQBAFM.sym ABSOLUTE
    PFAL_SYS_AudioData                       0x00003700   Data           0  QCA6174_SCAQBAFM.sym ABSOLUTE
    PFAL_VoiceChan                           0x00004f88   Data           0  QCA6174_SCAQBAFM.sym ABSOLUTE
    gSiFlashInfo                             0x00004f9c   Data           0  QCA6174_SCAQBAFM.sym ABSOLUTE
    gEepromInfo                              0x00004fa8   Data           0  QCA6174_SCAQBAFM.sym ABSOLUTE
    efuse_api_space                          0x00004fb8   Data           0  QCA6174_SCAQBAFM.sym ABSOLUTE
    efuse_space                              0x00005000   Data           0  QCA6174_SCAQBAFM.sym ABSOLUTE
    CFG_Parameters_RM                        0x00005200   Data           0  QCA6174_SCAQBAFM.sym ABSOLUTE
    aucTxAnt                                 0x0000575c   Data           0  QCA6174_SCAQBAFM.sym ABSOLUTE
    pucTxAnt                                 0x000057c4   Data           0  QCA6174_SCAQBAFM.sym ABSOLUTE
    aucTxAdvTransfer                         0x000057e4   Data           0  QCA6174_SCAQBAFM.sym ABSOLUTE
    aucRxAdvTransfer                         0x00005802   Data           0  QCA6174_SCAQBAFM.sym ABSOLUTE
    pucRxAnt                                 0x00005820   Data           0  QCA6174_SCAQBAFM.sym ABSOLUTE
    aucRxAnt                                 0x00005840   Data           0  QCA6174_SCAQBAFM.sym ABSOLUTE
    auChannelEvents                          0x000058a8   Data           0  QCA6174_SCAQBAFM.sym ABSOLUTE
    auChannelState                           0x000058c8   Data           0  QCA6174_SCAQBAFM.sym ABSOLUTE
    auChannelExtAssign                       0x000058e8   Data           0  QCA6174_SCAQBAFM.sym ABSOLUTE
    asIncExcListConf                         0x00005908   Data           0  QCA6174_SCAQBAFM.sym ABSOLUTE
    asChannelMonitor                         0x00005928   Data           0  QCA6174_SCAQBAFM.sym ABSOLUTE
    ausChannelTime                           0x00005938   Data           0  QCA6174_SCAQBAFM.sym ABSOLUTE
    ausChannelPeriod                         0x00005948   Data           0  QCA6174_SCAQBAFM.sym ABSOLUTE
    asEventQue                               0x00005958   Data           0  QCA6174_SCAQBAFM.sym ABSOLUTE
    ausRxSearchWaveForm                      0x00005968   Data           0  QCA6174_SCAQBAFM.sym ABSOLUTE
    astANTActivityInfo                       0x00005978   Data           0  QCA6174_SCAQBAFM.sym ABSOLUTE
    auANTCoexConfig                          0x000059f0   Data           0  QCA6174_SCAQBAFM.sym ABSOLUTE
    auANTAdvCoexConfig                       0x00005a10   Data           0  QCA6174_SCAQBAFM.sym ABSOLUTE
    ausANTTxConnKeepAliveConfig              0x00005a30   Data           0  QCA6174_SCAQBAFM.sym ABSOLUTE
    ausANTRxConnKeepAliveConfig              0x00005a40   Data           0  QCA6174_SCAQBAFM.sym ABSOLUTE
    ausConnPrioritySpacingConfig             0x00005a50   Data           0  QCA6174_SCAQBAFM.sym ABSOLUTE
    ausANTTxConnBlockedCount                 0x00005a60   Data           0  QCA6174_SCAQBAFM.sym ABSOLUTE
    ausANTRxConnBlockedCount                 0x00005a70   Data           0  QCA6174_SCAQBAFM.sym ABSOLUTE
    auANTCoexState                           0x00005a80   Data           0  QCA6174_SCAQBAFM.sym ABSOLUTE
    ausNetworkAddress                        0x00005aa0   Data           0  QCA6174_SCAQBAFM.sym ABSOLUTE
    ausTxTimeoutMonitor                      0x00005ab0   Data           0  QCA6174_SCAQBAFM.sym ABSOLUTE
    aucFreqTable                             0x00005ac0   Data           0  QCA6174_SCAQBAFM.sym ABSOLUTE
    aucIDList                                0x00005ad8   Data           0  QCA6174_SCAQBAFM.sym ABSOLUTE
    astTxBuffer                              0x00005b58   Data           0  QCA6174_SCAQBAFM.sym ABSOLUTE
    LLM_AFH_LocalChannelClassificationAFH    0x00005f58   Data           0  QCA6174_SCAQBAFM.sym ABSOLUTE
    LLM_AFH_LocalChannelClassificationUBC    0x00005f64   Data           0  QCA6174_SCAQBAFM.sym ABSOLUTE
    LLM_AFH_CombinedChannelClassificationAFH 0x00005f70   Data           0  QCA6174_SCAQBAFM.sym ABSOLUTE
    LLM_AFH_ChannelMapAFH                    0x00005f7c   Data           0  QCA6174_SCAQBAFM.sym ABSOLUTE
    LLM_AFH_ChannelMapUBC                    0x00005f88   Data           0  QCA6174_SCAQBAFM.sym ABSOLUTE
    LLM_AFH_HostSpecifiedChanMapUBC          0x00005f94   Data           0  QCA6174_SCAQBAFM.sym ABSOLUTE
    LLM_AFH_HostSpecifiedChanMapAFH          0x00005fa0   Data           0  QCA6174_SCAQBAFM.sym ABSOLUTE
    LLM_AFH_HostMaps                         0x00005fac   Data           0  QCA6174_SCAQBAFM.sym ABSOLUTE
    LLM_randomNumberData                     0x00005fd0   Data           0  QCA6174_SCAQBAFM.sym ABSOLUTE
    LLM_aMemPoolSDB                          0x00005ff0   Data           0  QCA6174_SCAQBAFM.sym ABSOLUTE
    LLM_sp                                   0x00006018   Data           0  QCA6174_SCAQBAFM.sym ABSOLUTE
    LLM_lmpSeqSCO                            0x00006090   Data           0  QCA6174_SCAQBAFM.sym ABSOLUTE
    LLM_utilityTimer                         0x000060f4   Data           0  QCA6174_SCAQBAFM.sym ABSOLUTE
    EIR_AllocData                            0x00006148   Data           0  QCA6174_SCAQBAFM.sym ABSOLUTE
    LLM_AfhData                              0x00006168   Data           0  QCA6174_SCAQBAFM.sym ABSOLUTE
    LLM_AfhHangBands                         0x00006314   Data           0  QCA6174_SCAQBAFM.sym ABSOLUTE
    SLC_DisQ_DispatchedElem                  0x00006328   Data           0  QCA6174_SCAQBAFM.sym ABSOLUTE
    VersionString                            0x00006338   Data           0  QCA6174_SCAQBAFM.sym ABSOLUTE
    gWipTmrMgmtObj                           0x0000639c   Data           0  QCA6174_SCAQBAFM.sym ABSOLUTE
    wci2_hdlc_buffer                         0x000063ac   Data           0  QCA6174_SCAQBAFM.sym ABSOLUTE
    PFAL_VOICE_PCM                           0x0000642c   Data           0  QCA6174_SCAQBAFM.sym ABSOLUTE
    PFAL_VOICE_NBSProcessor                  0x00006480   Data           0  QCA6174_SCAQBAFM.sym ABSOLUTE
    PFAL_VOICE_WBSProcessor                  0x000064a4   Data           0  QCA6174_SCAQBAFM.sym ABSOLUTE
    HID_Global                               0x000064bc   Data           0  QCA6174_SCAQBAFM.sym ABSOLUTE
    LLM_LE_encrStartEncryptionCommandSave    0x000065c4   Data           0  QCA6174_SCAQBAFM.sym ABSOLUTE
    stTxMessage                              0x000065e4   Data           0  QCA6174_SCAQBAFM.sym ABSOLUTE
    aucANTTxSerialQueue                      0x00006608   Data           0  QCA6174_SCAQBAFM.sym ABSOLUTE
    tempPoint1                               0x00006a08   Data           0  QCA6174_SCAQBAFM.sym ABSOLUTE
    tempPoint2                               0x00006a54   Data           0  QCA6174_SCAQBAFM.sym ABSOLUTE
    tempValue                                0x00006aa0   Data           0  QCA6174_SCAQBAFM.sym ABSOLUTE
    ctx256                                   0x00006ac8   Data           0  QCA6174_SCAQBAFM.sym ABSOLUTE
    w                                        0x00006b30   Data           0  QCA6174_SCAQBAFM.sym ABSOLUTE
    Q                                        0x00006bc0   Data           0  QCA6174_SCAQBAFM.sym ABSOLUTE
    SYS_Stack                                0x00006c48   Data           0  QCA6174_SCAQBAFM.sym ABSOLUTE
    __limit_sp                               0x00006c48   Data           0  QCA6174_SCAQBAFM.sym ABSOLUTE
    SYS_StackTop                             0x00007148   Data           0  QCA6174_SCAQBAFM.sym ABSOLUTE
    __initial_sp                             0x00007148   Data           0  QCA6174_SCAQBAFM.sym ABSOLUTE
    __initial_contex                         0x0000718c   Data           0  QCA6174_SCAQBAFM.sym ABSOLUTE
    PFAL_DBG_ActivityMask                    0x00010000   Data           0  QCA6174_SCAQBAFM.sym ABSOLUTE
    PFAL_DBG_UartInitialized                 0x00010001   Data           0  QCA6174_SCAQBAFM.sym ABSOLUTE
    gHostLogCtrlEnabled                      0x00010002   Data           0  QCA6174_SCAQBAFM.sym ABSOLUTE
    ISR_Log_DumpTopology                     0x00010003   Data           0  QCA6174_SCAQBAFM.sym ABSOLUTE
    PFAL_DBG_ActivityToggle                  0x00010006   Data           0  QCA6174_SCAQBAFM.sym ABSOLUTE
    PF_DBG_nSequenceCount                    0x00010007   Data           0  QCA6174_SCAQBAFM.sym ABSOLUTE
    PFAL_DBG_SysExceptionNotify              0x00010008   Data           0  QCA6174_SCAQBAFM.sym ABSOLUTE
    PFAL_DBG_pFaultData                      0x0001000c   Data           0  QCA6174_SCAQBAFM.sym ABSOLUTE
    gDbgScanTypeStr                          0x00010014   Data           0  QCA6174_SCAQBAFM.sym ABSOLUTE
    __stdout                                 0x00010020   Data           0  QCA6174_SCAQBAFM.sym ABSOLUTE
    wipowerAppState                          0x00010024   Data           0  QCA6174_SCAQBAFM.sym ABSOLUTE
    WlanCalWhileBTCal                        0x00010028   Data           0  QCA6174_SCAQBAFM.sym ABSOLUTE
    MCI_Predicted                            0x00010029   Data           0  QCA6174_SCAQBAFM.sym ABSOLUTE
    g_mci_ready                              0x0001002a   Data           0  QCA6174_SCAQBAFM.sym ABSOLUTE
    ScanActivityBitMapFlag                   0x0001002b   Data           0  QCA6174_SCAQBAFM.sym ABSOLUTE
    Gpm_queue_voerflow_flag                  0x0001002c   Data           0  QCA6174_SCAQBAFM.sym ABSOLUTE
    g_ANT_LinkID_Start                       0x0001002d   Data           0  QCA6174_SCAQBAFM.sym ABSOLUTE
    MCI_NoLinkState                          0x0001002e   Data           0  QCA6174_SCAQBAFM.sym ABSOLUTE
    mapMCIPrioIdx_ANT                        0x0001002f   Data           0  QCA6174_SCAQBAFM.sym ABSOLUTE
    ScanActivityBitMap                       0x00010034   Data           0  QCA6174_SCAQBAFM.sym ABSOLUTE
    ScanActivityBitMapWakeUpCopy             0x00010038   Data           0  QCA6174_SCAQBAFM.sym ABSOLUTE
    LE_time_start                            0x0001003c   Data           0  QCA6174_SCAQBAFM.sym ABSOLUTE
    LE_time_offset                           0x00010040   Data           0  QCA6174_SCAQBAFM.sym ABSOLUTE
    pgSniffConn                              0x00010044   Data           0  QCA6174_SCAQBAFM.sym ABSOLUTE
    pgVoiceConn                              0x00010048   Data           0  QCA6174_SCAQBAFM.sym ABSOLUTE
    PFAL_COEX_MCI_BT_CAL_REQ_CB              0x0001004c   Data           0  QCA6174_SCAQBAFM.sym ABSOLUTE
    MCI_Schd_Send_Func                       0x00010050   Data           0  QCA6174_SCAQBAFM.sym ABSOLUTE
    LE_last_tx_duration                      0x00010054   Data           0  QCA6174_SCAQBAFM.sym ABSOLUTE
    LE_last_rx_duration                      0x00010056   Data           0  QCA6174_SCAQBAFM.sym ABSOLUTE
    tech_token                               0x00010058   Data           0  QCA6174_SCAQBAFM.sym ABSOLUTE
    pcoex_qmi_idl_service_object             0x0001005c   Data           0  QCA6174_SCAQBAFM.sym ABSOLUTE
    PFAL_GPIO_FunctionMappingTbl             0x00010060   Data           0  QCA6174_SCAQBAFM.sym ABSOLUTE
    PFAL_GPIO_RomePinMap_Usb                 0x00010064   Data           0  QCA6174_SCAQBAFM.sym ABSOLUTE
    PFAL_GPIO_RomePinMap_Uart                0x0001007f   Data           0  QCA6174_SCAQBAFM.sym ABSOLUTE
    PFAL_GPIO_RomePinMap_QctWiPower          0x0001009a   Data           0  QCA6174_SCAQBAFM.sym ABSOLUTE
    PFAL_GPIO_RomePinMap_3rdWiPower          0x000100b5   Data           0  QCA6174_SCAQBAFM.sym ABSOLUTE
    PFAL_IM_NVIC_Enabled                     0x000100d0   Data           0  QCA6174_SCAQBAFM.sym ABSOLUTE
    PFAL_IM_NVIC_Irq_EnMask                  0x000100d4   Data           0  QCA6174_SCAQBAFM.sym ABSOLUTE
    PFAL_FS_IsInitalized                     0x000100d8   Data           0  QCA6174_SCAQBAFM.sym ABSOLUTE
    PFAL_FS_DEV_pFunctions                   0x000100dc   Data           0  QCA6174_SCAQBAFM.sym ABSOLUTE
    gFSFileTable                             0x000100e0   Data           0  QCA6174_SCAQBAFM.sym ABSOLUTE
    PFAL_FS_SiFlashFunctions                 0x000100f8   Data           0  QCA6174_SCAQBAFM.sym ABSOLUTE
    PFAL_FS_EepromFunctions                  0x00010114   Data           0  QCA6174_SCAQBAFM.sym ABSOLUTE
    pruHandOffState                          0x00010130   Data           0  QCA6174_SCAQBAFM.sym ABSOLUTE
    pA4wpPeroidTimer                         0x00010134   Data           0  QCA6174_SCAQBAFM.sym ABSOLUTE
    fBtShouldRecalibrate                     0x00010138   Data           0  QCA6174_SCAQBAFM.sym ABSOLUTE
    is_sw_trigger                            0x00010139   Data           0  QCA6174_SCAQBAFM.sym ABSOLUTE
    gpm_parsebuf_addr                        0x0001013c   Data           0  QCA6174_SCAQBAFM.sym ABSOLUTE
    MCI_RX_CMD                               0x00010140   Data           0  QCA6174_SCAQBAFM.sym ABSOLUTE
    g_usb_inited                             0x00010150   Data           0  QCA6174_SCAQBAFM.sym ABSOLUTE
    usb_str_man                              0x00010151   Data           0  QCA6174_SCAQBAFM.sym ABSOLUTE
    usb_str_pro                              0x00010152   Data           0  QCA6174_SCAQBAFM.sym ABSOLUTE
    usb_str_ser                              0x00010153   Data           0  QCA6174_SCAQBAFM.sym ABSOLUTE
    usb_str_con                              0x00010154   Data           0  QCA6174_SCAQBAFM.sym ABSOLUTE
    rtw_1                                    0x00010156   Data           0  QCA6174_SCAQBAFM.sym ABSOLUTE
    USBPolicyConfig                          0x00010158   Data           0  QCA6174_SCAQBAFM.sym ABSOLUTE
    glpm                                     0x0001015c   Data           0  QCA6174_SCAQBAFM.sym ABSOLUTE
    usb_hw_cap                               0x00010160   Data           0  QCA6174_SCAQBAFM.sym ABSOLUTE
    USBStringTable                           0x00010168   Data           0  QCA6174_SCAQBAFM.sym ABSOLUTE
    USB_Assco_Desc                           0x00010170   Data           0  QCA6174_SCAQBAFM.sym ABSOLUTE
    USBStrings                               0x00010178   Data           0  QCA6174_SCAQBAFM.sym ABSOLUTE
    hid_kbd_iid                              0x00010200   Data           0  QCA6174_SCAQBAFM.sym ABSOLUTE
    hid_ms_iid                               0x00010201   Data           0  QCA6174_SCAQBAFM.sym ABSOLUTE
    hid_on                                   0x00010202   Data           0  QCA6174_SCAQBAFM.sym ABSOLUTE
    hid_endpoint                             0x00010204   Data           0  QCA6174_SCAQBAFM.sym ABSOLUTE
    hid_eps                                  0x0001020c   Data           0  QCA6174_SCAQBAFM.sym ABSOLUTE
    hid_kbd_intferface                       0x00010214   Data           0  QCA6174_SCAQBAFM.sym ABSOLUTE
    hid_ms_intferface                        0x00010224   Data           0  QCA6174_SCAQBAFM.sym ABSOLUTE
    g_patched                                0x00010234   Data           0  QCA6174_SCAQBAFM.sym ABSOLUTE
    dfu_iid                                  0x00010235   Data           0  QCA6174_SCAQBAFM.sym ABSOLUTE
    dfu_eps                                  0x00010238   Data           0  QCA6174_SCAQBAFM.sym ABSOLUTE
    dfu_endpoint                             0x0001023c   Data           0  QCA6174_SCAQBAFM.sym ABSOLUTE
    dfu_interface                            0x00010244   Data           0  QCA6174_SCAQBAFM.sym ABSOLUTE
    gp_hciCtx                                0x00010254   Data           0  QCA6174_SCAQBAFM.sym ABSOLUTE
    stack_initialized                        0x00010270   Data           0  QCA6174_SCAQBAFM.sym ABSOLUTE
    sal_costom_gap_cb                        0x00010274   Data           0  QCA6174_SCAQBAFM.sym ABSOLUTE
    gapProfileState                          0x00010278   Data           0  QCA6174_SCAQBAFM.sym ABSOLUTE
    scanRspData                              0x0001027a   Data           0  QCA6174_SCAQBAFM.sym ABSOLUTE
    advertData                               0x00010288   Data           0  QCA6174_SCAQBAFM.sym ABSOLUTE
    pruCachedSetting                         0x00010294   Data           0  QCA6174_SCAQBAFM.sym ABSOLUTE
    appParam                                 0x00010298   Data           0  QCA6174_SCAQBAFM.sym ABSOLUTE
    pWipLeStackMemPoolObj                    0x000102e4   Data           0  QCA6174_SCAQBAFM.sym ABSOLUTE
    coex_tech_band_type_data_v02             0x000102e8   Data           0  QCA6174_SCAQBAFM.sym ABSOLUTE
    coex_antenna_state_data_v02              0x000102ed   Data           0  QCA6174_SCAQBAFM.sym ABSOLUTE
    coex_tech_sync_state_data_v02            0x000102f2   Data           0  QCA6174_SCAQBAFM.sym ABSOLUTE
    coex_tech_state_update_req_data_v02      0x000102f7   Data           0  QCA6174_SCAQBAFM.sym ABSOLUTE
    coex_wwan_lte_state_data_v02             0x000102fa   Data           0  QCA6174_SCAQBAFM.sym ABSOLUTE
    coex_wwan_tdscdma_state_data_v02         0x00010307   Data           0  QCA6174_SCAQBAFM.sym ABSOLUTE
    coex_wwan_gsm_state_data_v02             0x00010310   Data           0  QCA6174_SCAQBAFM.sym ABSOLUTE
    coex_wwan_onex_state_data_v02            0x00010319   Data           0  QCA6174_SCAQBAFM.sym ABSOLUTE
    coex_wwan_hdr_state_data_v02             0x00010322   Data           0  QCA6174_SCAQBAFM.sym ABSOLUTE
    coex_wwan_wcdma_state_data_v02           0x0001032b   Data           0  QCA6174_SCAQBAFM.sym ABSOLUTE
    coex_wlan_wifi_connection_info_data_v02  0x00010334   Data           0  QCA6174_SCAQBAFM.sym ABSOLUTE
    coex_wlan_wifi_state_data_v02            0x0001033b   Data           0  QCA6174_SCAQBAFM.sym ABSOLUTE
    coex_diversity_antenna_state_data_v02    0x0001034a   Data           0  QCA6174_SCAQBAFM.sym ABSOLUTE
    qmi_coex_tech_sync_req_msg_data_v02      0x00010351   Data           0  QCA6174_SCAQBAFM.sym ABSOLUTE
    qmi_coex_tech_sync_resp_msg_data_v02     0x00010359   Data           0  QCA6174_SCAQBAFM.sym ABSOLUTE
    qmi_coex_tech_sync_update_ind_msg_data_v02 0x00010361   Data           0  QCA6174_SCAQBAFM.sym ABSOLUTE
    qmi_coex_tech_state_update_req_msg_data_v02 0x00010367   Data           0  QCA6174_SCAQBAFM.sym ABSOLUTE
    qmi_coex_wwan_lte_state_ind_msg_data_v02 0x0001036f   Data           0  QCA6174_SCAQBAFM.sym ABSOLUTE
    qmi_coex_wwan_tdscdma_state_ind_msg_data_v02 0x00010375   Data           0  QCA6174_SCAQBAFM.sym ABSOLUTE
    qmi_coex_wwan_gsm_state_ind_msg_data_v02 0x0001037b   Data           0  QCA6174_SCAQBAFM.sym ABSOLUTE
    qmi_coex_wwan_onex_state_ind_msg_data_v02 0x00010381   Data           0  QCA6174_SCAQBAFM.sym ABSOLUTE
    qmi_coex_wwan_hdr_state_ind_msg_data_v02 0x00010387   Data           0  QCA6174_SCAQBAFM.sym ABSOLUTE
    qmi_coex_wwan_wcdma_state_ind_msg_data_v02 0x0001038d   Data           0  QCA6174_SCAQBAFM.sym ABSOLUTE
    qmi_coex_wlan_wifi_state_ind_msg_data_v02 0x00010393   Data           0  QCA6174_SCAQBAFM.sym ABSOLUTE
    qmi_coex_diversity_antenna_state_ind_msg_data_v02 0x00010399   Data           0  QCA6174_SCAQBAFM.sym ABSOLUTE
    coex_type_table_v02                      0x000103a0   Data           0  QCA6174_SCAQBAFM.sym ABSOLUTE
    coex_message_table_v02                   0x00010408   Data           0  QCA6174_SCAQBAFM.sym ABSOLUTE
    coex_qmi_idl_type_table_object_referenced_tables_v02 0x00010470   Data           0  QCA6174_SCAQBAFM.sym ABSOLUTE
    coex_qmi_idl_type_table_object_v02       0x00010478   Data           0  QCA6174_SCAQBAFM.sym ABSOLUTE
    coex_service_indication_messages_v02     0x00010490   Data           0  QCA6174_SCAQBAFM.sym ABSOLUTE
    coex_qmi_idl_service_object_v02          0x000104e0   Data           0  QCA6174_SCAQBAFM.sym ABSOLUTE
    g_txp_retry_bits                         0x00010510   Data           0  QCA6174_SCAQBAFM.sym ABSOLUTE
    bt_iid0                                  0x00010514   Data           0  QCA6174_SCAQBAFM.sym ABSOLUTE
    bt_iid1                                  0x00010515   Data           0  QCA6174_SCAQBAFM.sym ABSOLUTE
    g_drop_data                              0x00010516   Data           0  QCA6174_SCAQBAFM.sym ABSOLUTE
    usb_sco_rx_idx                           0x00010517   Data           0  QCA6174_SCAQBAFM.sym ABSOLUTE
    usb_sco_tx_idx                           0x00010518   Data           0  QCA6174_SCAQBAFM.sym ABSOLUTE
    static_sco_pkt_len                       0x00010519   Data           0  QCA6174_SCAQBAFM.sym ABSOLUTE
    is_sco_start                             0x0001051a   Data           0  QCA6174_SCAQBAFM.sym ABSOLUTE
    isoout                                   0x0001051c   Data           0  QCA6174_SCAQBAFM.sym ABSOLUTE
    isoin                                    0x00010520   Data           0  QCA6174_SCAQBAFM.sym ABSOLUTE
    bt_in_endpoint                           0x00010524   Data           0  QCA6174_SCAQBAFM.sym ABSOLUTE
    bt_out_endpoint                          0x0001052c   Data           0  QCA6174_SCAQBAFM.sym ABSOLUTE
    bt_intf0_intferface                      0x00010534   Data           0  QCA6174_SCAQBAFM.sym ABSOLUTE
    bt_intf1_intferface                      0x00010544   Data           0  QCA6174_SCAQBAFM.sym ABSOLUTE
    usb_transport                            0x00010554   Data           0  QCA6174_SCAQBAFM.sym ABSOLUTE
    loc_controllers                          0x00010580   Data           0  QCA6174_SCAQBAFM.sym ABSOLUTE
    BDADDR_EMPTY                             0x00010584   Data           0  QCA6174_SCAQBAFM.sym ABSOLUTE
    gap_users                                0x0001058c   Data           0  QCA6174_SCAQBAFM.sym ABSOLUTE
    pass_through_mode                        0x00010594   Data           0  QCA6174_SCAQBAFM.sym ABSOLUTE
    att_opeartion_timeout                    0x00010598   Data           0  QCA6174_SCAQBAFM.sym ABSOLUTE
    hci_wrap                                 0x0001059c   Data           0  QCA6174_SCAQBAFM.sym ABSOLUTE
    adp_ctx                                  0x000105a0   Data           0  QCA6174_SCAQBAFM.sym ABSOLUTE
    a4wpServiceUUID                          0x000105a4   Data           0  QCA6174_SCAQBAFM.sym ABSOLUTE
    a4wpPruControlProps                      0x000105a6   Data           0  QCA6174_SCAQBAFM.sym ABSOLUTE
    a4wpPruControl                           0x000105b9   Data           0  QCA6174_SCAQBAFM.sym ABSOLUTE
    a4wpPtuStaticParamProps                  0x000105be   Data           0  QCA6174_SCAQBAFM.sym ABSOLUTE
    a4wpPruAlertProps                        0x000105d1   Data           0  QCA6174_SCAQBAFM.sym ABSOLUTE
    a4wpPruAlert                             0x000105e4   Data           0  QCA6174_SCAQBAFM.sym ABSOLUTE
    a4wpPruAlertDesc                         0x000105e6   Data           0  QCA6174_SCAQBAFM.sym ABSOLUTE
    a4wpPruStaticParamProps                  0x000105e8   Data           0  QCA6174_SCAQBAFM.sym ABSOLUTE
    a4wpPruDynamicParamProps                 0x000105fb   Data           0  QCA6174_SCAQBAFM.sym ABSOLUTE
    a4wpParamTable                           0x00010610   Data           0  QCA6174_SCAQBAFM.sym ABSOLUTE
    a4wpAttrTbl                              0x00010640   Data           0  QCA6174_SCAQBAFM.sym ABSOLUTE
    qmi_response_type_data_v01               0x00010790   Data           0  QCA6174_SCAQBAFM.sym ABSOLUTE
    qmi_get_supported_msgs_resp_data_v01     0x00010795   Data           0  QCA6174_SCAQBAFM.sym ABSOLUTE
    qmi_get_supported_fields_req_data_v01    0x000107a1   Data           0  QCA6174_SCAQBAFM.sym ABSOLUTE
    qmi_get_supported_fields_resp_data_v01   0x000107a4   Data           0  QCA6174_SCAQBAFM.sym ABSOLUTE
    common_type_table_v01                    0x000107bc   Data           0  QCA6174_SCAQBAFM.sym ABSOLUTE
    common_message_table_v01                 0x000107c4   Data           0  QCA6174_SCAQBAFM.sym ABSOLUTE
    common_qmi_idl_type_table_object_referenced_tables_v01 0x000107e4   Data           0  QCA6174_SCAQBAFM.sym ABSOLUTE
    common_qmi_idl_type_table_object_v01     0x000107e8   Data           0  QCA6174_SCAQBAFM.sym ABSOLUTE
    l2cap_context                            0x00010804   Data           0  QCA6174_SCAQBAFM.sym ABSOLUTE
    io_cap_table                             0x00010808   Data           0  QCA6174_SCAQBAFM.sym ABSOLUTE
    const_Rb                                 0x00010821   Data           0  QCA6174_SCAQBAFM.sym ABSOLUTE
    PFAL_PROC_CRC32                          0x00010834   Data           0  QCA6174_SCAQBAFM.sym ABSOLUTE
    PFAL_PROC_rand16                         0x00010838   Data           0  QCA6174_SCAQBAFM.sym ABSOLUTE
    PFAL_PROC_Uint16Msb                      0x0001083c   Data           0  QCA6174_SCAQBAFM.sym ABSOLUTE
    PFAL_PROC_Uint16Lsb                      0x00010840   Data           0  QCA6174_SCAQBAFM.sym ABSOLUTE
    PFAL_PROC_Uint32Byte3                    0x00010844   Data           0  QCA6174_SCAQBAFM.sym ABSOLUTE
    PFAL_PROC_Uint32Byte2                    0x00010848   Data           0  QCA6174_SCAQBAFM.sym ABSOLUTE
    PFAL_PROC_Uint32Byte1                    0x0001084c   Data           0  QCA6174_SCAQBAFM.sym ABSOLUTE
    PFAL_PROC_Uint32Byte0                    0x00010850   Data           0  QCA6174_SCAQBAFM.sym ABSOLUTE
    PFAL_DBG_UART_Init                       0x00010854   Data           0  QCA6174_SCAQBAFM.sym ABSOLUTE
    PFAL_DBG_UART_Write                      0x00010858   Data           0  QCA6174_SCAQBAFM.sym ABSOLUTE
    PFAL_DBG_ActivateLoggerPort              0x0001085c   Data           0  QCA6174_SCAQBAFM.sym ABSOLUTE
    PFAL_DBG_DeactivateLoggerPort            0x00010860   Data           0  QCA6174_SCAQBAFM.sym ABSOLUTE
    PFAL_DBG_DumpContext                     0x00010864   Data           0  QCA6174_SCAQBAFM.sym ABSOLUTE
    PFAL_DBG_Fault                           0x00010868   Data           0  QCA6174_SCAQBAFM.sym ABSOLUTE
    PFAL_DBG_SetLedState                     0x0001086c   Data           0  QCA6174_SCAQBAFM.sym ABSOLUTE
    PFAL_DBG_ActivityStateEval               0x00010870   Data           0  QCA6174_SCAQBAFM.sym ABSOLUTE
    PFAL_DBG_ResetReasonSet                  0x00010874   Data           0  QCA6174_SCAQBAFM.sym ABSOLUTE
    PFAL_DBG_ISR_LogMsg                      0x00010878   Data           0  QCA6174_SCAQBAFM.sym ABSOLUTE
    PFAL_DBG_AllocMem                        0x0001087c   Data           0  QCA6174_SCAQBAFM.sym ABSOLUTE
    PFAL_DBG_Log_HexDump                     0x00010880   Data           0  QCA6174_SCAQBAFM.sym ABSOLUTE
    PFAL_DBG_Log_VStr                        0x00010884   Data           0  QCA6174_SCAQBAFM.sym ABSOLUTE
    PFAL_DBG_Log_Var                         0x00010888   Data           0  QCA6174_SCAQBAFM.sym ABSOLUTE
    PFAL_DBG_Log_VStrForced                  0x0001088c   Data           0  QCA6174_SCAQBAFM.sym ABSOLUTE
    PFAL_DBG_SaveReason_TriggerReset         0x00010890   Data           0  QCA6174_SCAQBAFM.sym ABSOLUTE
    PFAL_DBG_UART_Reset                      0x00010894   Data           0  QCA6174_SCAQBAFM.sym ABSOLUTE
    PFAL_DBG_EXCEPTION_DumpMemory            0x00010898   Data           0  QCA6174_SCAQBAFM.sym ABSOLUTE
    PFAL_DBG_BootToEDL                       0x0001089c   Data           0  QCA6174_SCAQBAFM.sym ABSOLUTE
    PFAL_DBG_ActivityInit                    0x000108a0   Data           0  QCA6174_SCAQBAFM.sym ABSOLUTE
    PFAL_DBG_ActivitySet                     0x000108a4   Data           0  QCA6174_SCAQBAFM.sym ABSOLUTE
    PFAL_DBG_ActivityClear                   0x000108a8   Data           0  QCA6174_SCAQBAFM.sym ABSOLUTE
    PFAL_DBG_ActivityTimer                   0x000108ac   Data           0  QCA6174_SCAQBAFM.sym ABSOLUTE
    PFAL_DBG_SetDebugFunctions               0x000108b0   Data           0  QCA6174_SCAQBAFM.sym ABSOLUTE
    PFAL_DBG_ISR_DumpLog                     0x000108b4   Data           0  QCA6174_SCAQBAFM.sym ABSOLUTE
    PFAL_DBG_ISR_DumpTopology                0x000108b8   Data           0  QCA6174_SCAQBAFM.sym ABSOLUTE
    PFAL_DBG_Log_CStr                        0x000108bc   Data           0  QCA6174_SCAQBAFM.sym ABSOLUTE
    PFAL_DBG_Log_Packet                      0x000108c0   Data           0  QCA6174_SCAQBAFM.sym ABSOLUTE
    PFAL_DBG_CheckStacks                     0x000108c4   Data           0  QCA6174_SCAQBAFM.sym ABSOLUTE
    PFAL_DBG_DisplayStacks                   0x000108c8   Data           0  QCA6174_SCAQBAFM.sym ABSOLUTE
    PFAL_LC_loadBurstTimers                  0x000108cc   Data           0  QCA6174_SCAQBAFM.sym ABSOLUTE
    PFAL_LC_LE_loadBurstTimers               0x000108d0   Data           0  QCA6174_SCAQBAFM.sym ABSOLUTE
    PFAL_LC_Clk_Calc_Integer                 0x000108d4   Data           0  QCA6174_SCAQBAFM.sym ABSOLUTE
    PFAL_LC_Clk_A_GetInteger                 0x000108d8   Data           0  QCA6174_SCAQBAFM.sym ABSOLUTE
    PFAL_LC_Clk_Calc_SlotOffset              0x000108dc   Data           0  QCA6174_SCAQBAFM.sym ABSOLUTE
    PFAL_LC_Clk_Add                          0x000108e0   Data           0  QCA6174_SCAQBAFM.sym ABSOLUTE
    PFAL_LC_Clk_Subtract                     0x000108e4   Data           0  QCA6174_SCAQBAFM.sym ABSOLUTE
    PFAL_LC_INT0_ISR                         0x000108e8   Data           0  QCA6174_SCAQBAFM.sym ABSOLUTE
    PFAL_LC_INT0_Handler                     0x000108ec   Data           0  QCA6174_SCAQBAFM.sym ABSOLUTE
    PFAL_LC_INT1_ISR                         0x000108f0   Data           0  QCA6174_SCAQBAFM.sym ABSOLUTE
    PFAL_LC_INT1_Handler                     0x000108f4   Data           0  QCA6174_SCAQBAFM.sym ABSOLUTE
    PFAL_LC_FSYNC_ISR                        0x000108f8   Data           0  QCA6174_SCAQBAFM.sym ABSOLUTE
    PFAL_LC_GetLLRMsgType                    0x000108fc   Data           0  QCA6174_SCAQBAFM.sym ABSOLUTE
    PFAL_LC_ContextFrame_CONN_MASTER         0x00010900   Data           0  QCA6174_SCAQBAFM.sym ABSOLUTE
    PFAL_LC_ContextRx_CONN_MASTER            0x00010904   Data           0  QCA6174_SCAQBAFM.sym ABSOLUTE
    PFAL_LC_writeBdAddr                      0x00010908   Data           0  QCA6174_SCAQBAFM.sym ABSOLUTE
    PFAL_LC_procTxFHSCommon                  0x0001090c   Data           0  QCA6174_SCAQBAFM.sym ABSOLUTE
    PFAL_LC_procRxFHSCommon                  0x00010910   Data           0  QCA6174_SCAQBAFM.sym ABSOLUTE
    PFAL_LC_writeTxPktHdr                    0x00010914   Data           0  QCA6174_SCAQBAFM.sym ABSOLUTE
    PFAL_WriteSyncTrainPacket                0x00010918   Data           0  QCA6174_SCAQBAFM.sym ABSOLUTE
    PFAL_LC_setScrambleFECOptions            0x0001091c   Data           0  QCA6174_SCAQBAFM.sym ABSOLUTE
    PFAL_LC_setHoppingOptions                0x00010920   Data           0  QCA6174_SCAQBAFM.sym ABSOLUTE
    PFAL_LC_RxRssiDbmGet                     0x00010924   Data           0  QCA6174_SCAQBAFM.sym ABSOLUTE
    PFAL_LC_PeekNextRxAclPayload             0x00010928   Data           0  QCA6174_SCAQBAFM.sym ABSOLUTE
    PFAL_LC_GetNextRxAclFMB                  0x0001092c   Data           0  QCA6174_SCAQBAFM.sym ABSOLUTE
    PFAL_LC_ContextTx_ContinuousPayloadSetup 0x00010930   Data           0  QCA6174_SCAQBAFM.sym ABSOLUTE
    PFAL_LC_ContextTx_BurstPacketSetup       0x00010934   Data           0  QCA6174_SCAQBAFM.sym ABSOLUTE
    PFAL_LC_LE_writeAdvChanPDU_Hdr           0x00010938   Data           0  QCA6174_SCAQBAFM.sym ABSOLUTE
    PFAL_LC_LE_writeTestModePDU_Hdr          0x0001093c   Data           0  QCA6174_SCAQBAFM.sym ABSOLUTE
    PFAL_LC_LE_GetRxUlpFMB                   0x00010940   Data           0  QCA6174_SCAQBAFM.sym ABSOLUTE
    PFAL_LC_LE_setAdvertisingChannel         0x00010944   Data           0  QCA6174_SCAQBAFM.sym ABSOLUTE
    PFAL_LC_LE_getDataChan                   0x00010948   Data           0  QCA6174_SCAQBAFM.sym ABSOLUTE
    PFAL_LC_LE_setDataChannel                0x0001094c   Data           0  QCA6174_SCAQBAFM.sym ABSOLUTE
    PFAL_LC_Stop                             0x00010950   Data           0  QCA6174_SCAQBAFM.sym ABSOLUTE
    PFAL_LC_Init                             0x00010954   Data           0  QCA6174_SCAQBAFM.sym ABSOLUTE
    PFAL_LC_Clk_N_GetInteger                 0x00010958   Data           0  QCA6174_SCAQBAFM.sym ABSOLUTE
    PFAL_LC_Clk_N_GetFull                    0x0001095c   Data           0  QCA6174_SCAQBAFM.sym ABSOLUTE
    PFAL_LC_Clk_Calc_Full                    0x00010960   Data           0  QCA6174_SCAQBAFM.sym ABSOLUTE
    PFAL_LC_Clk_Sign_Inverse                 0x00010964   Data           0  QCA6174_SCAQBAFM.sym ABSOLUTE
    PFAL_LC_Clk_2_NxtFrame                   0x00010968   Data           0  QCA6174_SCAQBAFM.sym ABSOLUTE
    PFAL_LC_Clk_Convert_Ticks_Clock          0x0001096c   Data           0  QCA6174_SCAQBAFM.sym ABSOLUTE
    PFAL_LC_IM_Connect                       0x00010970   Data           0  QCA6174_SCAQBAFM.sym ABSOLUTE
    PFAL_LC_ContextFrame_PAGE_ID             0x00010974   Data           0  QCA6174_SCAQBAFM.sym ABSOLUTE
    PFAL_LC_ContextFrame_PAGE_FHS            0x00010978   Data           0  QCA6174_SCAQBAFM.sym ABSOLUTE
    PFAL_LC_ContextTx_PAGE_ID                0x0001097c   Data           0  QCA6174_SCAQBAFM.sym ABSOLUTE
    PFAL_LC_ContextTx_PAGE_FHS               0x00010980   Data           0  QCA6174_SCAQBAFM.sym ABSOLUTE
    PFAL_LC_ContextTx_PAGE_POLL              0x00010984   Data           0  QCA6174_SCAQBAFM.sym ABSOLUTE
    PFAL_LC_BuildLLRPacket                   0x00010988   Data           0  QCA6174_SCAQBAFM.sym ABSOLUTE
    PFAL_LC_HandleLLRPacket                  0x0001098c   Data           0  QCA6174_SCAQBAFM.sym ABSOLUTE
    PFAL_LC_ContextRx_NONE                   0x00010990   Data           0  QCA6174_SCAQBAFM.sym ABSOLUTE
    PFAL_LC_ContextRx_PAGE_ID                0x00010994   Data           0  QCA6174_SCAQBAFM.sym ABSOLUTE
    PFAL_LC_ContextRx_PAGE_FHS               0x00010998   Data           0  QCA6174_SCAQBAFM.sym ABSOLUTE
    PFAL_LC_ContextFrame_CONN_SLAVE          0x0001099c   Data           0  QCA6174_SCAQBAFM.sym ABSOLUTE
    PFAL_LC_ContextFrame_SEMI_CONN           0x000109a0   Data           0  QCA6174_SCAQBAFM.sym ABSOLUTE
    PFAL_LC_ContextTx_CONN_MASTER            0x000109a4   Data           0  QCA6174_SCAQBAFM.sym ABSOLUTE
    PFAL_LC_ContextFrame_INQUIRY             0x000109a8   Data           0  QCA6174_SCAQBAFM.sym ABSOLUTE
    PFAL_LC_ContextTx_INQUIRY                0x000109ac   Data           0  QCA6174_SCAQBAFM.sym ABSOLUTE
    PFAL_LC_ContextRx_INQUIRY                0x000109b0   Data           0  QCA6174_SCAQBAFM.sym ABSOLUTE
    PFAL_LC_ContextRx_INQUIRY_EXT_DATA       0x000109b4   Data           0  QCA6174_SCAQBAFM.sym ABSOLUTE
    PFAL_LC_ContextFrame_RSW2M_TDD           0x000109b8   Data           0  QCA6174_SCAQBAFM.sym ABSOLUTE
    PFAL_LC_ContextFrame_RSW2M_PSW           0x000109bc   Data           0  QCA6174_SCAQBAFM.sym ABSOLUTE
    PFAL_LC_ContextFrame_RSW2S_TDD           0x000109c0   Data           0  QCA6174_SCAQBAFM.sym ABSOLUTE
    PFAL_LC_ContextFrame_RSW2S_PSW           0x000109c4   Data           0  QCA6174_SCAQBAFM.sym ABSOLUTE
    PFAL_LC_ContextTx_RSW2M                  0x000109c8   Data           0  QCA6174_SCAQBAFM.sym ABSOLUTE
    PFAL_LC_ContextRx_RSW2M_ID               0x000109cc   Data           0  QCA6174_SCAQBAFM.sym ABSOLUTE
    PFAL_LC_procRxFHS                        0x000109d0   Data           0  QCA6174_SCAQBAFM.sym ABSOLUTE
    PFAL_LC_procRxFHS_Switch                 0x000109d4   Data           0  QCA6174_SCAQBAFM.sym ABSOLUTE
    PFAL_LC_procRxFHSInqResp                 0x000109d8   Data           0  QCA6174_SCAQBAFM.sym ABSOLUTE
    PFAL_LC_putFHSPktConnection              0x000109dc   Data           0  QCA6174_SCAQBAFM.sym ABSOLUTE
    PFAL_LC_putFHSPktInquiryResponse         0x000109e0   Data           0  QCA6174_SCAQBAFM.sym ABSOLUTE
    PFAL_LC_putFHSPktRoleSwitch              0x000109e4   Data           0  QCA6174_SCAQBAFM.sym ABSOLUTE
    PFAL_LC_putPOLLPacket                    0x000109e8   Data           0  QCA6174_SCAQBAFM.sym ABSOLUTE
    PFAL_LC_writeTxPayloadHeader             0x000109ec   Data           0  QCA6174_SCAQBAFM.sym ABSOLUTE
    PFAL_LC_getRxPacketHeader                0x000109f0   Data           0  QCA6174_SCAQBAFM.sym ABSOLUTE
    PFAL_LC_procRxACLPayloadHdr              0x000109f4   Data           0  QCA6174_SCAQBAFM.sym ABSOLUTE
    PFAL_LC_writeEncrKey                     0x000109f8   Data           0  QCA6174_SCAQBAFM.sym ABSOLUTE
    PFAL_LC_ContextFrame_PSCAN               0x000109fc   Data           0  QCA6174_SCAQBAFM.sym ABSOLUTE
    PFAL_LC_ContextFrame_PAGE_SCAN_RESPONSE  0x00010a00   Data           0  QCA6174_SCAQBAFM.sym ABSOLUTE
    PFAL_LC_ContextTx_PSCAN                  0x00010a04   Data           0  QCA6174_SCAQBAFM.sym ABSOLUTE
    PFAL_LC_ContextRx_PSCAN                  0x00010a08   Data           0  QCA6174_SCAQBAFM.sym ABSOLUTE
    PFAL_LC_ContextRx_LPPSCAN                0x00010a0c   Data           0  QCA6174_SCAQBAFM.sym ABSOLUTE
    PFAL_LC_ContextFrame_PSCAN_FHS           0x00010a10   Data           0  QCA6174_SCAQBAFM.sym ABSOLUTE
    PFAL_LC_ContextRx_PSCAN_FHS              0x00010a14   Data           0  QCA6174_SCAQBAFM.sym ABSOLUTE
    PFAL_LC_ContextTx_PSCAN_FHS              0x00010a18   Data           0  QCA6174_SCAQBAFM.sym ABSOLUTE
    PFAL_LC_ContextFrame_INQUIRY_SCAN        0x00010a1c   Data           0  QCA6174_SCAQBAFM.sym ABSOLUTE
    PFAL_LC_ContextFrame_INQUIRY_SCAN_RESPONSE 0x00010a20   Data           0  QCA6174_SCAQBAFM.sym ABSOLUTE
    PFAL_LC_ContextRx_INQUIRY_SCAN           0x00010a24   Data           0  QCA6174_SCAQBAFM.sym ABSOLUTE
    PFAL_LC_ContextTx_INQUIRY_SCAN           0x00010a28   Data           0  QCA6174_SCAQBAFM.sym ABSOLUTE
    PFAL_LC_ContextTx_EXT_INQUIRY_RES        0x00010a2c   Data           0  QCA6174_SCAQBAFM.sym ABSOLUTE
    PFAL_LC_ContextTx_SYNC_TRAIN             0x00010a30   Data           0  QCA6174_SCAQBAFM.sym ABSOLUTE
    PFAL_LC_ContextTx_LINKLESS_BC            0x00010a34   Data           0  QCA6174_SCAQBAFM.sym ABSOLUTE
    PFAL_LC_ContextRx_ASSOCIATION            0x00010a38   Data           0  QCA6174_SCAQBAFM.sym ABSOLUTE
    PFAL_LC_ContextTx_ASSOCIATION            0x00010a3c   Data           0  QCA6174_SCAQBAFM.sym ABSOLUTE
    PFAL_LC_ContextFrame_SYNC_TRAIN_SCAN     0x00010a40   Data           0  QCA6174_SCAQBAFM.sym ABSOLUTE
    PFAL_LC_ContextRx_SYNC_TRAIN_SCAN        0x00010a44   Data           0  QCA6174_SCAQBAFM.sym ABSOLUTE
    PFAL_LC_ContextFrame_DATA_SCAN           0x00010a48   Data           0  QCA6174_SCAQBAFM.sym ABSOLUTE
    PFAL_LC_ContextRx_DATA_SCAN              0x00010a4c   Data           0  QCA6174_SCAQBAFM.sym ABSOLUTE
    PFAL_LC_ContextRx_MEASURE_RSSI           0x00010a50   Data           0  QCA6174_SCAQBAFM.sym ABSOLUTE
    PFAL_LC_ContextRx_CHAN_ASSESSMENT        0x00010a54   Data           0  QCA6174_SCAQBAFM.sym ABSOLUTE
    PFAL_LC_ContextRx_PROC_CHAN_ASSESSMENT   0x00010a58   Data           0  QCA6174_SCAQBAFM.sym ABSOLUTE
    PFAL_LC_testSetRxSlotOptions             0x00010a5c   Data           0  QCA6174_SCAQBAFM.sym ABSOLUTE
    PFAL_LC_testSetTxSlotOptions             0x00010a60   Data           0  QCA6174_SCAQBAFM.sym ABSOLUTE
    PFAL_LC_ResizeBBPackets                  0x00010a64   Data           0  QCA6174_SCAQBAFM.sym ABSOLUTE
    PFAL_LC_InitRxBuffers                    0x00010a68   Data           0  QCA6174_SCAQBAFM.sym ABSOLUTE
    PFAL_LC_PeekRxLmpPayload                 0x00010a6c   Data           0  QCA6174_SCAQBAFM.sym ABSOLUTE
    PFAL_LC_GetRxLmpFMB                      0x00010a70   Data           0  QCA6174_SCAQBAFM.sym ABSOLUTE
    PFAL_LC_procConfigDUT_TESTER_xSCO_Rx     0x00010a74   Data           0  QCA6174_SCAQBAFM.sym ABSOLUTE
    PFAL_LC_procAclTxLoopBack                0x00010a78   Data           0  QCA6174_SCAQBAFM.sym ABSOLUTE
    PFAL_LC_procRxL2cap                      0x00010a7c   Data           0  QCA6174_SCAQBAFM.sym ABSOLUTE
    PFAL_LC_procRx_EPTM                      0x00010a80   Data           0  QCA6174_SCAQBAFM.sym ABSOLUTE
    PFAL_LC_EPTM_procRxQueue_4_BitErrors     0x00010a84   Data           0  QCA6174_SCAQBAFM.sym ABSOLUTE
    PFAL_LC_ContextTx_Continuous             0x00010a88   Data           0  QCA6174_SCAQBAFM.sym ABSOLUTE
    PFAL_LC_ContextTx_Burst                  0x00010a8c   Data           0  QCA6174_SCAQBAFM.sym ABSOLUTE
    PFAL_LC_LE_ContextTx_Continuous          0x00010a90   Data           0  QCA6174_SCAQBAFM.sym ABSOLUTE
    PFAL_LC_SetLoopbackMode                  0x00010a94   Data           0  QCA6174_SCAQBAFM.sym ABSOLUTE
    PFAL_LC_GetLoopbackMode                  0x00010a98   Data           0  QCA6174_SCAQBAFM.sym ABSOLUTE
    PFAL_LC_ExtendedInquiryCheck             0x00010a9c   Data           0  QCA6174_SCAQBAFM.sym ABSOLUTE
    PFAL_LC_procRxExtInqData                 0x00010aa0   Data           0  QCA6174_SCAQBAFM.sym ABSOLUTE
    PFAL_LC_SetExtInqFirstHalfSlotRx         0x00010aa4   Data           0  QCA6174_SCAQBAFM.sym ABSOLUTE
    PFAL_LC_GetExtInqFirstHalfSlotRx         0x00010aa8   Data           0  QCA6174_SCAQBAFM.sym ABSOLUTE
    PFAL_LC_SetExtAccessFunctions            0x00010aac   Data           0  QCA6174_SCAQBAFM.sym ABSOLUTE
    PFAL_LC_ContextFrame_LE_SCAN             0x00010ab0   Data           0  QCA6174_SCAQBAFM.sym ABSOLUTE
    PFAL_LC_ContextRx_LE_SCAN                0x00010ab4   Data           0  QCA6174_SCAQBAFM.sym ABSOLUTE
    PFAL_LC_ContextRx_LE_TEST_RX_SCAN        0x00010ab8   Data           0  QCA6174_SCAQBAFM.sym ABSOLUTE
    PFAL_LC_ContextRx_LE_SCAN_SCAN_REQ       0x00010abc   Data           0  QCA6174_SCAQBAFM.sym ABSOLUTE
    PFAL_LC_ContextRx_LE_ADVERTISE           0x00010ac0   Data           0  QCA6174_SCAQBAFM.sym ABSOLUTE
    PFAL_LC_ContextRx_LE_CONN_SLAVE_SYNC     0x00010ac4   Data           0  QCA6174_SCAQBAFM.sym ABSOLUTE
    PFAL_LC_ContextRx_LE_CONN_SLAVE          0x00010ac8   Data           0  QCA6174_SCAQBAFM.sym ABSOLUTE
    PFAL_LC_ContextRx_LE_CONN_MASTER         0x00010acc   Data           0  QCA6174_SCAQBAFM.sym ABSOLUTE
    PFAL_LC_ContextFrame_LE_ADVERTISE        0x00010ad0   Data           0  QCA6174_SCAQBAFM.sym ABSOLUTE
    PFAL_LC_ContextFrame_LE_CONN             0x00010ad4   Data           0  QCA6174_SCAQBAFM.sym ABSOLUTE
    PFAL_LC_ContextFrame_LE_TEST             0x00010ad8   Data           0  QCA6174_SCAQBAFM.sym ABSOLUTE
    PFAL_LC_ContextTx_LE_TEST_TX             0x00010adc   Data           0  QCA6174_SCAQBAFM.sym ABSOLUTE
    PFAL_LC_ContextTx_LE_ADVERTISE           0x00010ae0   Data           0  QCA6174_SCAQBAFM.sym ABSOLUTE
    PFAL_LC_ContextTx_LE_CONN                0x00010ae4   Data           0  QCA6174_SCAQBAFM.sym ABSOLUTE
    PFAL_LC_ContextTx_LE_SCAN_ACTIVE         0x00010ae8   Data           0  QCA6174_SCAQBAFM.sym ABSOLUTE
    PFAL_LC_LE_putAdvPacket                  0x00010aec   Data           0  QCA6174_SCAQBAFM.sym ABSOLUTE
    PFAL_LC_LE_putScanReqPacket              0x00010af0   Data           0  QCA6174_SCAQBAFM.sym ABSOLUTE
    PFAL_LC_LE_putScanRspPacket              0x00010af4   Data           0  QCA6174_SCAQBAFM.sym ABSOLUTE
    PFAL_LC_LE_putConnectReqPacket           0x00010af8   Data           0  QCA6174_SCAQBAFM.sym ABSOLUTE
    PFAL_LC_LE_putConnParmsInConnectReqPacket 0x00010afc   Data           0  QCA6174_SCAQBAFM.sym ABSOLUTE
    PFAL_LC_LE_writeDataChanPDU_Hdr          0x00010b00   Data           0  QCA6174_SCAQBAFM.sym ABSOLUTE
    PFAL_LC_LE_writeTestTxPacket             0x00010b04   Data           0  QCA6174_SCAQBAFM.sym ABSOLUTE
    PFAL_LC_LE_procRxAdvChanHeader           0x00010b08   Data           0  QCA6174_SCAQBAFM.sym ABSOLUTE
    PFAL_LC_LE_getAdvPayloadPtr              0x00010b0c   Data           0  QCA6174_SCAQBAFM.sym ABSOLUTE
    PFAL_LC_LE_procRxAdvPayload              0x00010b10   Data           0  QCA6174_SCAQBAFM.sym ABSOLUTE
    PFAL_LC_LE_procRxAdvConnectReqAdd        0x00010b14   Data           0  QCA6174_SCAQBAFM.sym ABSOLUTE
    PFAL_LC_LE_procRxDataChan_PDUheader      0x00010b18   Data           0  QCA6174_SCAQBAFM.sym ABSOLUTE
    PFAL_LC_LE_computeClockOffset            0x00010b1c   Data           0  QCA6174_SCAQBAFM.sym ABSOLUTE
    PFAL_LC_LE_EnableRxHwTestMode            0x00010b20   Data           0  QCA6174_SCAQBAFM.sym ABSOLUTE
    PFAL_LC_LE_DisableRxHwTestMode           0x00010b24   Data           0  QCA6174_SCAQBAFM.sym ABSOLUTE
    PFAL_LC_ANT_writeTestTxPacket            0x00010b28   Data           0  QCA6174_SCAQBAFM.sym ABSOLUTE
    PFAL_LC_ANT_exitANTMode                  0x00010b2c   Data           0  QCA6174_SCAQBAFM.sym ABSOLUTE
    PFAL_LC_ContextFrame_ANT                 0x00010b30   Data           0  QCA6174_SCAQBAFM.sym ABSOLUTE
    PFAL_LC_ContextTx_ANT_TX                 0x00010b34   Data           0  QCA6174_SCAQBAFM.sym ABSOLUTE
    PFAL_LC_ContextRx_ANT_RX_SCAN            0x00010b38   Data           0  QCA6174_SCAQBAFM.sym ABSOLUTE
    PFAL_LC_SET_ENCR_CNTRL_CRYPTO_W_MIC_ENABLE 0x00010b3c   Data           0  QCA6174_SCAQBAFM.sym ABSOLUTE
    OSTaskIdleHook                           0x00010b40   Data           0  QCA6174_SCAQBAFM.sym ABSOLUTE
    PFAL_STMR_Handler                        0x00010b44   Data           0  QCA6174_SCAQBAFM.sym ABSOLUTE
    PFAL_STMR_Open                           0x00010b48   Data           0  QCA6174_SCAQBAFM.sym ABSOLUTE
    PFAL_STMR_ConvertToTicks                 0x00010b4c   Data           0  QCA6174_SCAQBAFM.sym ABSOLUTE
    PFAL_STMR_Start                          0x00010b50   Data           0  QCA6174_SCAQBAFM.sym ABSOLUTE
    PFAL_STMR_GetElapsedTicks                0x00010b54   Data           0  QCA6174_SCAQBAFM.sym ABSOLUTE
    PFAL_SYS_TOP_IsWiPowerFastbootEnabled    0x00010b58   Data           0  QCA6174_SCAQBAFM.sym ABSOLUTE
    PFAL_SYS_TOP_IsBootModeWiPower           0x00010b5c   Data           0  QCA6174_SCAQBAFM.sym ABSOLUTE
    PFAL_SYS_TOP_IsCoexMCIEnable             0x00010b60   Data           0  QCA6174_SCAQBAFM.sym ABSOLUTE
    PFAL_SYS_TOP_WLAN_SDIO                   0x00010b64   Data           0  QCA6174_SCAQBAFM.sym ABSOLUTE
    PFAL_SYS_TOP_IsEmulation                 0x00010b68   Data           0  QCA6174_SCAQBAFM.sym ABSOLUTE
    PFAL_SYS_TOP_IsRMPhyMode                 0x00010b6c   Data           0  QCA6174_SCAQBAFM.sym ABSOLUTE
    PFAL_SYS_TOP_LoadDSet                    0x00010b70   Data           0  QCA6174_SCAQBAFM.sym ABSOLUTE
    PFAL_SYS_TOP_StoreToOTP                  0x00010b74   Data           0  QCA6174_SCAQBAFM.sym ABSOLUTE
    PFAL_SYS_TOP_StoreToNVM                  0x00010b78   Data           0  QCA6174_SCAQBAFM.sym ABSOLUTE
    PFAL_SYS_TOP_IsTuffeloSoC                0x00010b7c   Data           0  QCA6174_SCAQBAFM.sym ABSOLUTE
    PFAL_UART_Rx_Handler                     0x00010b80   Data           0  QCA6174_SCAQBAFM.sym ABSOLUTE
    PFAL_UART_Tx_Handler                     0x00010b84   Data           0  QCA6174_SCAQBAFM.sym ABSOLUTE
    PFAL_UART_Er_Handler                     0x00010b88   Data           0  QCA6174_SCAQBAFM.sym ABSOLUTE
    PFAL_IM_TIMER_2_INT_Handler              0x00010b8c   Data           0  QCA6174_SCAQBAFM.sym ABSOLUTE
    PFAL_UART_SetCTS_Mode                    0x00010b90   Data           0  QCA6174_SCAQBAFM.sym ABSOLUTE
    PFAL_VOICE_UART_Fill_Rx_SCO_Buff         0x00010b94   Data           0  QCA6174_SCAQBAFM.sym ABSOLUTE
    PFAL_UART_Rx_ISR                         0x00010b98   Data           0  QCA6174_SCAQBAFM.sym ABSOLUTE
    PFAL_UART_Tx_ISR                         0x00010b9c   Data           0  QCA6174_SCAQBAFM.sym ABSOLUTE
    PFAL_UART_Error_ISR                      0x00010ba0   Data           0  QCA6174_SCAQBAFM.sym ABSOLUTE
    PFAL_UART_HandlePacketFromHost           0x00010ba4   Data           0  QCA6174_SCAQBAFM.sym ABSOLUTE
    PFAL_UART_Activate                       0x00010ba8   Data           0  QCA6174_SCAQBAFM.sym ABSOLUTE
    PFAL_UART_Deactivate                     0x00010bac   Data           0  QCA6174_SCAQBAFM.sym ABSOLUTE
    PFAL_UART_fillRxLL                       0x00010bb0   Data           0  QCA6174_SCAQBAFM.sym ABSOLUTE
    PFAL_UART_fillTxLL                       0x00010bb4   Data           0  QCA6174_SCAQBAFM.sym ABSOLUTE
    PFAL_UART_InitRxActiveState              0x00010bb8   Data           0  QCA6174_SCAQBAFM.sym ABSOLUTE
    PFAL_UART_GetBaudRateFromNVM             0x00010bbc   Data           0  QCA6174_SCAQBAFM.sym ABSOLUTE
    PFAL_UART_Setup                          0x00010bc0   Data           0  QCA6174_SCAQBAFM.sym ABSOLUTE
    PFAL_UART_ResetBaud                      0x00010bc4   Data           0  QCA6174_SCAQBAFM.sym ABSOLUTE
    PFAL_UART_HW_wait4Tx                     0x00010bc8   Data           0  QCA6174_SCAQBAFM.sym ABSOLUTE
    PFAL_UART_IOMUX                          0x00010bcc   Data           0  QCA6174_SCAQBAFM.sym ABSOLUTE
    PFAL_UART_SIBS_SendSignalingByte         0x00010bd0   Data           0  QCA6174_SCAQBAFM.sym ABSOLUTE
    PFAL_UART_SIBS_VoteRxWake                0x00010bd4   Data           0  QCA6174_SCAQBAFM.sym ABSOLUTE
    PFAL_UART_SIBS_TxIdle                    0x00010bd8   Data           0  QCA6174_SCAQBAFM.sym ABSOLUTE
    PFAL_UART_SIBS_TxWakeAckRcvd             0x00010bdc   Data           0  QCA6174_SCAQBAFM.sym ABSOLUTE
    PFAL_UART_SIBS_TxTimeout                 0x00010be0   Data           0  QCA6174_SCAQBAFM.sym ABSOLUTE
    PFAL_UART_SIBS_TxRequest                 0x00010be4   Data           0  QCA6174_SCAQBAFM.sym ABSOLUTE
    PFAL_UART_SIBS_RxWake                    0x00010be8   Data           0  QCA6174_SCAQBAFM.sym ABSOLUTE
    PFAL_UART_SIBS_RxWakeInt                 0x00010bec   Data           0  QCA6174_SCAQBAFM.sym ABSOLUTE
    PFAL_UART_SIBS_RxTimeout                 0x00010bf0   Data           0  QCA6174_SCAQBAFM.sym ABSOLUTE
    PFAL_UART_SIBS_RxSleep                   0x00010bf4   Data           0  QCA6174_SCAQBAFM.sym ABSOLUTE
    PFAL_UART_SIBS_ExtWakeISR                0x00010bf8   Data           0  QCA6174_SCAQBAFM.sym ABSOLUTE
    PFAL_UART_SIBS_TimeoutIsr                0x00010bfc   Data           0  QCA6174_SCAQBAFM.sym ABSOLUTE
    PFAL_UART_SIBS_StartTimer                0x00010c00   Data           0  QCA6174_SCAQBAFM.sym ABSOLUTE
    PFAL_UART_SIBS_StopTimer                 0x00010c04   Data           0  QCA6174_SCAQBAFM.sym ABSOLUTE
    CFG_SYS_Init                             0x00010c08   Data           0  QCA6174_SCAQBAFM.sym ABSOLUTE
    CFG_SYS_GetConfigParameterInfo           0x00010c0c   Data           0  QCA6174_SCAQBAFM.sym ABSOLUTE
    CFG_SYS_GetTagEntry                      0x00010c10   Data           0  QCA6174_SCAQBAFM.sym ABSOLUTE
    WIP_VTXP_HandOffToHost                   0x00010c14   Data           0  QCA6174_SCAQBAFM.sym ABSOLUTE
    WIP_VTXP_HandOffToVirtualTxp             0x00010c18   Data           0  QCA6174_SCAQBAFM.sym ABSOLUTE
    WIP_VTXP_Write                           0x00010c1c   Data           0  QCA6174_SCAQBAFM.sym ABSOLUTE
    WIP_VTXP_SendReset                       0x00010c20   Data           0  QCA6174_SCAQBAFM.sym ABSOLUTE
    WIP_VTXP_SendCommand                     0x00010c24   Data           0  QCA6174_SCAQBAFM.sym ABSOLUTE
    WIP_VTXP_SendEventToBleStack             0x00010c28   Data           0  QCA6174_SCAQBAFM.sym ABSOLUTE
    WIP_VTXP_SendAclDataToBleStack           0x00010c2c   Data           0  QCA6174_SCAQBAFM.sym ABSOLUTE
    PackA4wpCommandHeader                    0x00010c30   Data           0  QCA6174_SCAQBAFM.sym ABSOLUTE
    WIP_VTXP_GetTxpMsgAtomic                 0x00010c34   Data           0  QCA6174_SCAQBAFM.sym ABSOLUTE
    WIP_VTXP_SendAclDataFromBleStack         0x00010c38   Data           0  QCA6174_SCAQBAFM.sym ABSOLUTE
    WIP_VTXP_A4WP_SetCurrentLimit            0x00010c3c   Data           0  QCA6174_SCAQBAFM.sym ABSOLUTE
    WIP_VTXP_A4WP_SetChargeOutput            0x00010c40   Data           0  QCA6174_SCAQBAFM.sym ABSOLUTE
    WIP_VTXP_A4WP_EnableAlertNotify          0x00010c44   Data           0  QCA6174_SCAQBAFM.sym ABSOLUTE
    WIP_VTXP_A4WP_EnableDataNotify           0x00010c48   Data           0  QCA6174_SCAQBAFM.sym ABSOLUTE
    WIP_VTXP_A4WP_EnablePowerApplyNotify     0x00010c4c   Data           0  QCA6174_SCAQBAFM.sym ABSOLUTE
    WIP_VTXP_A4WP_GetCurrentLimit            0x00010c50   Data           0  QCA6174_SCAQBAFM.sym ABSOLUTE
    WIP_VTXP_A4WP_GetChargeOutput            0x00010c54   Data           0  QCA6174_SCAQBAFM.sym ABSOLUTE
    WIP_VTXP_HandlePacketIn                  0x00010c58   Data           0  QCA6174_SCAQBAFM.sym ABSOLUTE
    WIP_DBG_LogDbgData                       0x00010c5c   Data           0  QCA6174_SCAQBAFM.sym ABSOLUTE
    WIP_DBG_SendDbgEvent                     0x00010c60   Data           0  QCA6174_SCAQBAFM.sym ABSOLUTE
    WIP_DBG_DeInitMem                        0x00010c64   Data           0  QCA6174_SCAQBAFM.sym ABSOLUTE
    WIP_DBG_SendEventViaDbgChannel           0x00010c68   Data           0  QCA6174_SCAQBAFM.sym ABSOLUTE
    WIP_DBG_SendCommandCompleteEventViaDbgChannel 0x00010c6c   Data           0  QCA6174_SCAQBAFM.sym ABSOLUTE
    WIP_DBG_GetNextLogEvent                  0x00010c70   Data           0  QCA6174_SCAQBAFM.sym ABSOLUTE
    PFAL_COEX_MCI_Get_Starttime              0x00010c74   Data           0  QCA6174_SCAQBAFM.sym ABSOLUTE
    PFAL_COEX_MCI_Next_JobCat_Proc           0x00010c78   Data           0  QCA6174_SCAQBAFM.sym ABSOLUTE
    MCI_Schd_Update                          0x00010c7c   Data           0  QCA6174_SCAQBAFM.sym ABSOLUTE
    MCI_Schd_Delete_Expire                   0x00010c80   Data           0  QCA6174_SCAQBAFM.sym ABSOLUTE
    MCI_Schd_Update_Msg                      0x00010c84   Data           0  QCA6174_SCAQBAFM.sym ABSOLUTE
    MCI_Schd_Insert_Msg                      0x00010c88   Data           0  QCA6174_SCAQBAFM.sym ABSOLUTE
    MCI_Schd_Get_Resend_Max                  0x00010c8c   Data           0  QCA6174_SCAQBAFM.sym ABSOLUTE
    MCI_Schd_Do_Resend                       0x00010c90   Data           0  QCA6174_SCAQBAFM.sym ABSOLUTE
    MCI_Schd_CheckTag                        0x00010c94   Data           0  QCA6174_SCAQBAFM.sym ABSOLUTE
    MCI_Schd_Gen_Entry                       0x00010c98   Data           0  QCA6174_SCAQBAFM.sym ABSOLUTE
    MCI_Schd_Send_Msg                        0x00010c9c   Data           0  QCA6174_SCAQBAFM.sym ABSOLUTE
    MCI_Submit_Sched_Msg                     0x00010ca0   Data           0  QCA6174_SCAQBAFM.sym ABSOLUTE
    PFAL_COEX_MCI_Schd_Next_Frame            0x00010ca4   Data           0  QCA6174_SCAQBAFM.sym ABSOLUTE
    MCI_Msg_Queue_Free                       0x00010ca8   Data           0  QCA6174_SCAQBAFM.sym ABSOLUTE
    MCI_Empty_Tx_Queue                       0x00010cac   Data           0  QCA6174_SCAQBAFM.sym ABSOLUTE
    MCI_Tx_Msg_Enqueue                       0x00010cb0   Data           0  QCA6174_SCAQBAFM.sym ABSOLUTE
    MCI_Tx_Msg_Dequeue                       0x00010cb4   Data           0  QCA6174_SCAQBAFM.sym ABSOLUTE
    MCI_Msg_Queue_Alloc                      0x00010cb8   Data           0  QCA6174_SCAQBAFM.sym ABSOLUTE
    MCI_GPM_Queue_Overflow_Handle            0x00010cbc   Data           0  QCA6174_SCAQBAFM.sym ABSOLUTE
    PFAL_COEX_MCI_TxScanUpdate               0x00010cc0   Data           0  QCA6174_SCAQBAFM.sym ABSOLUTE
    PFAL_COEX_MCI_TxConnUpdate               0x00010cc4   Data           0  QCA6174_SCAQBAFM.sym ABSOLUTE
    MCI_ProcessStatusReq                     0x00010cc8   Data           0  QCA6174_SCAQBAFM.sym ABSOLUTE
    MCI_UpdateTopology                       0x00010ccc   Data           0  QCA6174_SCAQBAFM.sym ABSOLUTE
    MCI_ProcessVersionReq                    0x00010cd0   Data           0  QCA6174_SCAQBAFM.sym ABSOLUTE
    MCI_TxDebugGPM                           0x00010cd4   Data           0  QCA6174_SCAQBAFM.sym ABSOLUTE
    MCI_TxWlanBTPrio                         0x00010cd8   Data           0  QCA6174_SCAQBAFM.sym ABSOLUTE
    MCI_TxSchedMsgTrigRsp                    0x00010cdc   Data           0  QCA6174_SCAQBAFM.sym ABSOLUTE
    MCI_ReplyRXSSLowerThresholdToWLAN        0x00010ce0   Data           0  QCA6174_SCAQBAFM.sym ABSOLUTE
    PFAL_COEX_MCI_Update_Scan_Bit_Map        0x00010ce4   Data           0  QCA6174_SCAQBAFM.sym ABSOLUTE
    MCI_Queue_Overflow_GPM                   0x00010ce8   Data           0  QCA6174_SCAQBAFM.sym ABSOLUTE
    MCI_Scans_Upadate                        0x00010cec   Data           0  QCA6174_SCAQBAFM.sym ABSOLUTE
    MCI_SetRXSSLowerThreshold                0x00010cf0   Data           0  QCA6174_SCAQBAFM.sym ABSOLUTE
    MCI_ProcessWLANChan                      0x00010cf4   Data           0  QCA6174_SCAQBAFM.sym ABSOLUTE
    MCI_ProcessSchedInfoTrigger              0x00010cf8   Data           0  QCA6174_SCAQBAFM.sym ABSOLUTE
    MCI_ProcessRecievedGPM                   0x00010cfc   Data           0  QCA6174_SCAQBAFM.sym ABSOLUTE
    PFAL_IM_MCI_INT_Handler                  0x00010d00   Data           0  QCA6174_SCAQBAFM.sym ABSOLUTE
    PFAL_IM_BT_MCI_POWER_INT_Handler         0x00010d04   Data           0  QCA6174_SCAQBAFM.sym ABSOLUTE
    PFAL_COEX_MCI_Send_Remote_Reset_Msg      0x00010d08   Data           0  QCA6174_SCAQBAFM.sym ABSOLUTE
    MCI_UpdateLinkStatus                     0x00010d0c   Data           0  QCA6174_SCAQBAFM.sym ABSOLUTE
    MCI_Schd_Readjust_Prio                   0x00010d10   Data           0  QCA6174_SCAQBAFM.sym ABSOLUTE
    MCI_SCO_Prio_Convert                     0x00010d14   Data           0  QCA6174_SCAQBAFM.sym ABSOLUTE
    MCI_ACL_Prio_Convert                     0x00010d18   Data           0  QCA6174_SCAQBAFM.sym ABSOLUTE
    MCI_Prio_Convert                         0x00010d1c   Data           0  QCA6174_SCAQBAFM.sym ABSOLUTE
    PFAL_COEX_MCI_CAL_Notify                 0x00010d20   Data           0  QCA6174_SCAQBAFM.sym ABSOLUTE
    PFAL_COEX_MCI_BT_CAL_Grant_TX            0x00010d24   Data           0  QCA6174_SCAQBAFM.sym ABSOLUTE
    PFAL_COEX_MCI_Schedule_MSG_Check         0x00010d28   Data           0  QCA6174_SCAQBAFM.sym ABSOLUTE
    PFAL_COEX_MCI_Send_Schedule_MSG          0x00010d2c   Data           0  QCA6174_SCAQBAFM.sym ABSOLUTE
    PFAL_COEX_MCI_INFO_Copy                  0x00010d30   Data           0  QCA6174_SCAQBAFM.sym ABSOLUTE
    PFAL_COEX_MCI_Find_MSG_Before            0x00010d34   Data           0  QCA6174_SCAQBAFM.sym ABSOLUTE
    PFAL_COEX_MCI_Clean_Para                 0x00010d38   Data           0  QCA6174_SCAQBAFM.sym ABSOLUTE
    PFAL_COEX_MCI_PRIO_SET                   0x00010d3c   Data           0  QCA6174_SCAQBAFM.sym ABSOLUTE
    PFAL_COEX_MCI_CONTMSG_SET                0x00010d40   Data           0  QCA6174_SCAQBAFM.sym ABSOLUTE
    MCI_Schd_Resend_Check_Set                0x00010d44   Data           0  QCA6174_SCAQBAFM.sym ABSOLUTE
    MCI_Enqueue_Msg                          0x00010d48   Data           0  QCA6174_SCAQBAFM.sym ABSOLUTE
    MCI_Send_Queued_Msg                      0x00010d4c   Data           0  QCA6174_SCAQBAFM.sym ABSOLUTE
    PFAL_COEX_MCI_TxBTSystemReset            0x00010d50   Data           0  QCA6174_SCAQBAFM.sym ABSOLUTE
    MCI_Parse_Gpm                            0x00010d54   Data           0  QCA6174_SCAQBAFM.sym ABSOLUTE
    PFAL_COEX_MCI_ProfileRemove              0x00010d58   Data           0  QCA6174_SCAQBAFM.sym ABSOLUTE
    PFAL_COEX_MCI_ProfileAdd                 0x00010d5c   Data           0  QCA6174_SCAQBAFM.sym ABSOLUTE
    MCI_TxVersionReq                         0x00010d60   Data           0  QCA6174_SCAQBAFM.sym ABSOLUTE
    MCI_TxStatusReq                          0x00010d64   Data           0  QCA6174_SCAQBAFM.sym ABSOLUTE
    MCI_SendSchedTriggerResp                 0x00010d68   Data           0  QCA6174_SCAQBAFM.sym ABSOLUTE
    PFAL_COEX_MCI_TxScanActivity             0x00010d6c   Data           0  QCA6174_SCAQBAFM.sym ABSOLUTE
    PFAL_COEX_MCI_Connect                    0x00010d70   Data           0  QCA6174_SCAQBAFM.sym ABSOLUTE
    PFAL_COEX_MCI_Init                       0x00010d74   Data           0  QCA6174_SCAQBAFM.sym ABSOLUTE
    MCI_SendRemoteResetIfWarranted           0x00010d78   Data           0  QCA6174_SCAQBAFM.sym ABSOLUTE
    PFAL_COEX_MCI_UpdatePerformanceState     0x00010d7c   Data           0  QCA6174_SCAQBAFM.sym ABSOLUTE
    PFAL_COEX_MCI_UpdatexSCOMap              0x00010d80   Data           0  QCA6174_SCAQBAFM.sym ABSOLUTE
    PFAL_COEX_MCI_UpdateSniffMapActivity     0x00010d84   Data           0  QCA6174_SCAQBAFM.sym ABSOLUTE
    PFAL_COEX_MCI_UpdateSniffMap             0x00010d88   Data           0  QCA6174_SCAQBAFM.sym ABSOLUTE
    PFAL_COEX_MCI_TrackPageScanInterval      0x00010d8c   Data           0  QCA6174_SCAQBAFM.sym ABSOLUTE
    PFAL_COEX_MCI_BT_CAL_Done_TX             0x00010d90   Data           0  QCA6174_SCAQBAFM.sym ABSOLUTE
    PFAL_COEX_MCI_CHECK_WLAN_CAL_GRANT       0x00010d94   Data           0  QCA6174_SCAQBAFM.sym ABSOLUTE
    PFAL_COEX_MCI_TX_REQ                     0x00010d98   Data           0  QCA6174_SCAQBAFM.sym ABSOLUTE
    PFAL_COEX_MCI_RX_REQ                     0x00010d9c   Data           0  QCA6174_SCAQBAFM.sym ABSOLUTE
    PFAL_COEX_MCI_Prediction_Thread          0x00010da0   Data           0  QCA6174_SCAQBAFM.sym ABSOLUTE
    PFAL_COEX_MCI_Prediction                 0x00010da4   Data           0  QCA6174_SCAQBAFM.sym ABSOLUTE
    PFAL_COEX_MCI_Schedule                   0x00010da8   Data           0  QCA6174_SCAQBAFM.sym ABSOLUTE
    PFAL_COEX_MCI_Wake_Up                    0x00010dac   Data           0  QCA6174_SCAQBAFM.sym ABSOLUTE
    PFAL_COEX_MCI_SetOsInit                  0x00010db0   Data           0  QCA6174_SCAQBAFM.sym ABSOLUTE
    PFAL_RM_HW_CoexistenceGrantRequestMCI    0x00010db4   Data           0  QCA6174_SCAQBAFM.sym ABSOLUTE
    PFAL_COEX_MWS_Disable_Algorithm          0x00010db8   Data           0  QCA6174_SCAQBAFM.sym ABSOLUTE
    PFAL_COEX_MWS_ProcBandInfo               0x00010dbc   Data           0  QCA6174_SCAQBAFM.sym ABSOLUTE
    PFAL_COEX_MWS_Calc_SWITCH_Time           0x00010dc0   Data           0  QCA6174_SCAQBAFM.sym ABSOLUTE
    PFAL_COEX_MWS_Get_TargetCLK              0x00010dc4   Data           0  QCA6174_SCAQBAFM.sym ABSOLUTE
    PFAL_COEX_MWS_Calc_Delta                 0x00010dc8   Data           0  QCA6174_SCAQBAFM.sym ABSOLUTE
    PFAL_COEX_MWS_Pwr_Backoff_TxPwrLimit_Default 0x00010dcc   Data           0  QCA6174_SCAQBAFM.sym ABSOLUTE
    SLC_Timestamp_getArrival                 0x00010dd0   Data           0  QCA6174_SCAQBAFM.sym ABSOLUTE
    PFLA_COEX_MWS_A2DP_Pwr_Backoff_Calculation 0x00010dd4   Data           0  QCA6174_SCAQBAFM.sym ABSOLUTE
    PFLA_COEX_MWS_eSCO_Pwr_Backoff_Calculation 0x00010dd8   Data           0  QCA6174_SCAQBAFM.sym ABSOLUTE
    PFAL_COEX_MWS_Pwr_Backoff_Timer_handler  0x00010ddc   Data           0  QCA6174_SCAQBAFM.sym ABSOLUTE
    PFAL_COEX_MWS_BtTxPwrLimit               0x00010de0   Data           0  QCA6174_SCAQBAFM.sym ABSOLUTE
    PFAL_COEX_MWS_updateAFHMap_4_LTEchan     0x00010de4   Data           0  QCA6174_SCAQBAFM.sym ABSOLUTE
    PFAL_COEX_MWS_HandleLteChanMapUpdate     0x00010de8   Data           0  QCA6174_SCAQBAFM.sym ABSOLUTE
    LLM_MWS_CP_handleSetLinkPolicySettings   0x00010dec   Data           0  QCA6174_SCAQBAFM.sym ABSOLUTE
    LLM_MWS_CP_handleRoleSwitch2Master       0x00010df0   Data           0  QCA6174_SCAQBAFM.sym ABSOLUTE
    wci2_decode_sync_req                     0x00010df4   Data           0  QCA6174_SCAQBAFM.sym ABSOLUTE
    wci2_sync_resp_encode_send               0x00010df8   Data           0  QCA6174_SCAQBAFM.sym ABSOLUTE
    wci2_decode_sync_resp                    0x00010dfc   Data           0  QCA6174_SCAQBAFM.sym ABSOLUTE
    wci2_decode_tech_update_req              0x00010e00   Data           0  QCA6174_SCAQBAFM.sym ABSOLUTE
    wci2_decode_state_ind                    0x00010e04   Data           0  QCA6174_SCAQBAFM.sym ABSOLUTE
    PFAL_COEX_MWS_DEBUG_PrintfBitMap         0x00010e08   Data           0  QCA6174_SCAQBAFM.sym ABSOLUTE
    LTE_SubFrameType                         0x00010e0c   Data           0  QCA6174_SCAQBAFM.sym ABSOLUTE
    LTE_FreqPowerTable                       0x00010e68   Data           0  QCA6174_SCAQBAFM.sym ABSOLUTE
    PFAL_COEX_MWS_Pwr_Backoff_Init           0x00010e80   Data           0  QCA6174_SCAQBAFM.sym ABSOLUTE
    PFAL_COEX_MWS_Pwr_Backoff_Calc_TXFER     0x00010e84   Data           0  QCA6174_SCAQBAFM.sym ABSOLUTE
    PFAL_COEX_MWS_timer_handle               0x00010e88   Data           0  QCA6174_SCAQBAFM.sym ABSOLUTE
    PFAL_COEX_MWS_timer2_handle              0x00010e8c   Data           0  QCA6174_SCAQBAFM.sym ABSOLUTE
    MWS_Block_Master_Role_Switch             0x00010e90   Data           0  QCA6174_SCAQBAFM.sym ABSOLUTE
    MWS_Perform_Role_Switch_2_Master         0x00010e94   Data           0  QCA6174_SCAQBAFM.sym ABSOLUTE
    wci2_type2_route_received_msg            0x00010e98   Data           0  QCA6174_SCAQBAFM.sym ABSOLUTE
    wci2_encode_send_sync_req                0x00010e9c   Data           0  QCA6174_SCAQBAFM.sym ABSOLUTE
    PFAL_COEX_MWS_State_Reset                0x00010ea0   Data           0  QCA6174_SCAQBAFM.sym ABSOLUTE
    PF_OS_Init                               0x00010ea4   Data           0  QCA6174_SCAQBAFM.sym ABSOLUTE
    PF_OS_StartTasks                         0x00010ea8   Data           0  QCA6174_SCAQBAFM.sym ABSOLUTE
    PF_OS_DisableScheduling                  0x00010eac   Data           0  QCA6174_SCAQBAFM.sym ABSOLUTE
    PF_OS_EnableScheduling                   0x00010eb0   Data           0  QCA6174_SCAQBAFM.sym ABSOLUTE
    PF_OS_EnableTask                         0x00010eb4   Data           0  QCA6174_SCAQBAFM.sym ABSOLUTE
    PF_OS_SystemPreReset                     0x00010eb8   Data           0  QCA6174_SCAQBAFM.sym ABSOLUTE
    PF_OS_SystemReset                        0x00010ebc   Data           0  QCA6174_SCAQBAFM.sym ABSOLUTE
    PF_OS_SystemReady                        0x00010ec0   Data           0  QCA6174_SCAQBAFM.sym ABSOLUTE
    PF_OS_InitFMBPool                        0x00010ec4   Data           0  QCA6174_SCAQBAFM.sym ABSOLUTE
    PF_OS_AllocMem                           0x00010ec8   Data           0  QCA6174_SCAQBAFM.sym ABSOLUTE
    PF_OS_FreeMem                            0x00010ecc   Data           0  QCA6174_SCAQBAFM.sym ABSOLUTE
    PF_OS_EnqueueMsgEx                       0x00010ed0   Data           0  QCA6174_SCAQBAFM.sym ABSOLUTE
    PF_OS_EnqueueMsgEx_LIFO                  0x00010ed4   Data           0  QCA6174_SCAQBAFM.sym ABSOLUTE
    PF_OS_EnqueueQueueEx                     0x00010ed8   Data           0  QCA6174_SCAQBAFM.sym ABSOLUTE
    PF_OS_DequeueMsgEx                       0x00010edc   Data           0  QCA6174_SCAQBAFM.sym ABSOLUTE
    PF_OS_DequeueMsgExAt                     0x00010ee0   Data           0  QCA6174_SCAQBAFM.sym ABSOLUTE
    PF_OS_FreeAllQueueMsgEx                  0x00010ee4   Data           0  QCA6174_SCAQBAFM.sym ABSOLUTE
    PF_OS_FreeNQueueMsgEx                    0x00010ee8   Data           0  QCA6174_SCAQBAFM.sym ABSOLUTE
    PF_OS_StartTimer                         0x00010eec   Data           0  QCA6174_SCAQBAFM.sym ABSOLUTE
    PF_OS_StopTimer                          0x00010ef0   Data           0  QCA6174_SCAQBAFM.sym ABSOLUTE
    PF_OS_ProcessTimer                       0x00010ef4   Data           0  QCA6174_SCAQBAFM.sym ABSOLUTE
    PF_OS_DequeueTimer                       0x00010ef8   Data           0  QCA6174_SCAQBAFM.sym ABSOLUTE
    PF_OS_InitMalloc                         0x00010efc   Data           0  QCA6174_SCAQBAFM.sym ABSOLUTE
    PF_OS_Malloc                             0x00010f00   Data           0  QCA6174_SCAQBAFM.sym ABSOLUTE
    PF_OS_MallocWordAligned                  0x00010f04   Data           0  QCA6174_SCAQBAFM.sym ABSOLUTE
    PF_PROC_DelayMS                          0x00010f08   Data           0  QCA6174_SCAQBAFM.sym ABSOLUTE
    HCI_SendStatus                           0x00010f0c   Data           0  QCA6174_SCAQBAFM.sym ABSOLUTE
    HCI_SendTLVStatus                        0x00010f10   Data           0  QCA6174_SCAQBAFM.sym ABSOLUTE
    HCI_SendVersionString                    0x00010f14   Data           0  QCA6174_SCAQBAFM.sym ABSOLUTE
    HCI_SendVersionInteger                   0x00010f18   Data           0  QCA6174_SCAQBAFM.sym ABSOLUTE
    HCI_VSSet_VariableRegParameter           0x00010f1c   Data           0  QCA6174_SCAQBAFM.sym ABSOLUTE
    HCI_VS_ReadVersionInfo                   0x00010f20   Data           0  QCA6174_SCAQBAFM.sym ABSOLUTE
    HCI_VS_ReadActiveRssi                    0x00010f24   Data           0  QCA6174_SCAQBAFM.sym ABSOLUTE
    HCI_Process_VSC_Write_DDB_Key_Entry      0x00010f28   Data           0  QCA6174_SCAQBAFM.sym ABSOLUTE
    HCI_Process_VSC_Read_DDB_Key_Entry_By_Index 0x00010f2c   Data           0  QCA6174_SCAQBAFM.sym ABSOLUTE
    HCI_Process_VSC_Read_DDB_Key_Entry       0x00010f30   Data           0  QCA6174_SCAQBAFM.sym ABSOLUTE
    HCI_Process_VSC_Delete_DDB_Key_Entry     0x00010f34   Data           0  QCA6174_SCAQBAFM.sym ABSOLUTE
    HCI_Process_VSC_Delete_All_DDB_Key_Entry 0x00010f38   Data           0  QCA6174_SCAQBAFM.sym ABSOLUTE
    HCI_Process_VSC_BdAddrWriteCmd           0x00010f3c   Data           0  QCA6174_SCAQBAFM.sym ABSOLUTE
    HCI_Process_VSC_SetFeatureBit            0x00010f40   Data           0  QCA6174_SCAQBAFM.sym ABSOLUTE
    HCI_Process_VSC_ConfigGpio               0x00010f44   Data           0  QCA6174_SCAQBAFM.sym ABSOLUTE
    HCI_Process_VSC_ReadGpio                 0x00010f48   Data           0  QCA6174_SCAQBAFM.sym ABSOLUTE
    HCI_Process_VSC_ReadPSdata               0x00010f4c   Data           0  QCA6174_SCAQBAFM.sym ABSOLUTE
    HCI_Process_VSC_WritePSdata              0x00010f50   Data           0  QCA6174_SCAQBAFM.sym ABSOLUTE
    HCI_sendDebugEventPacket                 0x00010f54   Data           0  QCA6174_SCAQBAFM.sym ABSOLUTE
    CFG_HandleVariableConfigParameter        0x00010f58   Data           0  QCA6174_SCAQBAFM.sym ABSOLUTE
    PFAL_NVM_Parse                           0x00010f5c   Data           0  QCA6174_SCAQBAFM.sym ABSOLUTE
    PFAL_TLV_Start                           0x00010f60   Data           0  QCA6174_SCAQBAFM.sym ABSOLUTE
    PFAL_TLV_Continue                        0x00010f64   Data           0  QCA6174_SCAQBAFM.sym ABSOLUTE
    PFAL_TLV_Done                            0x00010f68   Data           0  QCA6174_SCAQBAFM.sym ABSOLUTE
    PFAL_TLV_Process                         0x00010f6c   Data           0  QCA6174_SCAQBAFM.sym ABSOLUTE
    PFAL_DBG_IsMemoryAccessible              0x00010f70   Data           0  QCA6174_SCAQBAFM.sym ABSOLUTE
    PFAL_ConfigureModulationPowerLevelOverride 0x00010f74   Data           0  QCA6174_SCAQBAFM.sym ABSOLUTE
    PFAL_ConfigureExtendedModulationPowerLevelOverride 0x00010f78   Data           0  QCA6174_SCAQBAFM.sym ABSOLUTE
    PFAL_MemAccess_Command                   0x00010f7c   Data           0  QCA6174_SCAQBAFM.sym ABSOLUTE
    HCI_SendUploadResponse                   0x00010f80   Data           0  QCA6174_SCAQBAFM.sym ABSOLUTE
    PFAL_DBG_VS_GetBufferForTagReturnEvent   0x00010f84   Data           0  QCA6174_SCAQBAFM.sym ABSOLUTE
    PFAL_DBG_HostLogCtrl                     0x00010f88   Data           0  QCA6174_SCAQBAFM.sym ABSOLUTE
    FlashAccess                              0x00010f8c   Data           0  QCA6174_SCAQBAFM.sym ABSOLUTE
    PFAL_DBG_BluetoothCommands               0x00010fb0   Data           0  QCA6174_SCAQBAFM.sym ABSOLUTE
    HCI_VendorCommand                        0x00010fdc   Data           0  QCA6174_SCAQBAFM.sym ABSOLUTE
    PFAL_DBG_SendVSEventWithData             0x00010fe0   Data           0  QCA6174_SCAQBAFM.sym ABSOLUTE
    PFAL_DBG_Bluetooth_sendRSSI_ThresholdEvent 0x00010fe4   Data           0  QCA6174_SCAQBAFM.sym ABSOLUTE
    PFAL_DBG_VS_InstallAppCmdCallback        0x00010fe8   Data           0  QCA6174_SCAQBAFM.sym ABSOLUTE
    TempReverseWriteByteArray                0x00010fec   Data           0  QCA6174_SCAQBAFM.sym ABSOLUTE
    PFAL_LC_CRYPTO_Hlr                       0x00010ff0   Data           0  QCA6174_SCAQBAFM.sym ABSOLUTE
    PFAL_LC_CRYPTO_WriteKeyReverseOrder      0x00011024   Data           0  QCA6174_SCAQBAFM.sym ABSOLUTE
    PFAL_LC_CRYPTO_Platform_Init             0x00011028   Data           0  QCA6174_SCAQBAFM.sym ABSOLUTE
    PFAL_GPIO_Init                           0x0001102c   Data           0  QCA6174_SCAQBAFM.sym ABSOLUTE
    PFAL_GPIO_Mux                            0x00011030   Data           0  QCA6174_SCAQBAFM.sym ABSOLUTE
    PFAL_GPIO_SetInterruptLevel              0x00011034   Data           0  QCA6174_SCAQBAFM.sym ABSOLUTE
    PFAL_GPIO_SetDirection                   0x00011038   Data           0  QCA6174_SCAQBAFM.sym ABSOLUTE
    PFAL_GPIO_ConfigureInterrupt             0x0001103c   Data           0  QCA6174_SCAQBAFM.sym ABSOLUTE
    PFAL_GPIO_EnableInterrupt                0x00011040   Data           0  QCA6174_SCAQBAFM.sym ABSOLUTE
    PFAL_GPIO_DisableInterrupt               0x00011044   Data           0  QCA6174_SCAQBAFM.sym ABSOLUTE
    PFAL_GPIO_AUDIO_IO_Mux                   0x00011048   Data           0  QCA6174_SCAQBAFM.sym ABSOLUTE
    PFAL_GPIO_SPI_IO_Mux                     0x0001104c   Data           0  QCA6174_SCAQBAFM.sym ABSOLUTE
    PFAL_GPIO_I2C_IO_Mux                     0x00011050   Data           0  QCA6174_SCAQBAFM.sym ABSOLUTE
    PFAL_GPIO_DBG_UART_IO_Mux                0x00011054   Data           0  QCA6174_SCAQBAFM.sym ABSOLUTE
    PFAL_GPIO_HCI_UART_IO_Mux                0x00011058   Data           0  QCA6174_SCAQBAFM.sym ABSOLUTE
    PFAL_GPIO_OWI_UART_IO_Mux                0x0001105c   Data           0  QCA6174_SCAQBAFM.sym ABSOLUTE
    PFAL_GPIO_OWI_CheckPinState              0x00011060   Data           0  QCA6174_SCAQBAFM.sym ABSOLUTE
    PFAL_IM_Init                             0x00011064   Data           0  QCA6174_SCAQBAFM.sym ABSOLUTE
    PFAL_IM_Connect                          0x00011068   Data           0  QCA6174_SCAQBAFM.sym ABSOLUTE
    PFAL_IM_ENABLE_IRQ_INT                   0x0001106c   Data           0  QCA6174_SCAQBAFM.sym ABSOLUTE
    PFAL_IM_DISABLE_IRQ_INT                  0x00011070   Data           0  QCA6174_SCAQBAFM.sym ABSOLUTE
    PFAL_IM_ENABLE_MASK_IRQ_INT              0x00011074   Data           0  QCA6174_SCAQBAFM.sym ABSOLUTE
    PFAL_IM_DISABLE_MASK_IRQ_INT             0x00011078   Data           0  QCA6174_SCAQBAFM.sym ABSOLUTE
    PFAL_IM_READ_IRQ_ENABLE                  0x0001107c   Data           0  QCA6174_SCAQBAFM.sym ABSOLUTE
    PFAL_IM_RESTORE_PRI_IRQ_INT              0x00011080   Data           0  QCA6174_SCAQBAFM.sym ABSOLUTE
    PFAL_LC_Start                            0x00011084   Data           0  QCA6174_SCAQBAFM.sym ABSOLUTE
    PFAL_LC_hlstSLC_ContextSwitch            0x00011088   Data           0  QCA6174_SCAQBAFM.sym ABSOLUTE
    PFAL_LC_hlstMConnEntry                   0x0001108c   Data           0  QCA6174_SCAQBAFM.sym ABSOLUTE
    PFAL_LC_hlstMConnSyncEval                0x00011090   Data           0  QCA6174_SCAQBAFM.sym ABSOLUTE
    PFAL_LC_hlstMConnRxHdr1                  0x00011094   Data           0  QCA6174_SCAQBAFM.sym ABSOLUTE
    PFAL_LC_hlstMConnRxHdr2                  0x00011098   Data           0  QCA6174_SCAQBAFM.sym ABSOLUTE
    PFAL_LC_hlstMConnRxHdrDone               0x0001109c   Data           0  QCA6174_SCAQBAFM.sym ABSOLUTE
    PFAL_LC_hlstMConnRxSlot                  0x000110a0   Data           0  QCA6174_SCAQBAFM.sym ABSOLUTE
    PFAL_LC_hlstMConnTxSlot                  0x000110a4   Data           0  QCA6174_SCAQBAFM.sym ABSOLUTE
    PFAL_LC_hlstMConnSkipTx                  0x000110a8   Data           0  QCA6174_SCAQBAFM.sym ABSOLUTE
    PFAL_LC_hlstMConnDummy5                  0x000110ac   Data           0  QCA6174_SCAQBAFM.sym ABSOLUTE
    PFAL_LC_hlstMConnSkipRx                  0x000110b0   Data           0  QCA6174_SCAQBAFM.sym ABSOLUTE
    PFAL_LC_hlstEBCASync                     0x000110b4   Data           0  QCA6174_SCAQBAFM.sym ABSOLUTE
    PFAL_LC_hlstEBCAEntry                    0x000110b8   Data           0  QCA6174_SCAQBAFM.sym ABSOLUTE
    PFAL_LC_hlstEBCADone                     0x000110bc   Data           0  QCA6174_SCAQBAFM.sym ABSOLUTE
    PFAL_LC_hlstMConnDummy2                  0x000110c0   Data           0  QCA6174_SCAQBAFM.sym ABSOLUTE
    PFAL_LC_hlstMContextSwitchLC             0x000110c4   Data           0  QCA6174_SCAQBAFM.sym ABSOLUTE
    PFAL_LC_hlstIDScanSync                   0x000110c8   Data           0  QCA6174_SCAQBAFM.sym ABSOLUTE
    PFAL_LC_hlstIDScanEntry                  0x000110cc   Data           0  QCA6174_SCAQBAFM.sym ABSOLUTE
    PFAL_LC_hlstIDScanRxSearch               0x000110d0   Data           0  QCA6174_SCAQBAFM.sym ABSOLUTE
    PFAL_LC_hlstIDScanWaitPreSlot            0x000110d4   Data           0  QCA6174_SCAQBAFM.sym ABSOLUTE
    PFAL_LC_hlstIDScanWaitLC                 0x000110d8   Data           0  QCA6174_SCAQBAFM.sym ABSOLUTE
    PFAL_LC_hlstIDScanWaitRx                 0x000110dc   Data           0  QCA6174_SCAQBAFM.sym ABSOLUTE
    PFAL_LC_hlstIDScanWaitExtTx              0x000110e0   Data           0  QCA6174_SCAQBAFM.sym ABSOLUTE
    PFAL_LC_hlstIDScanAssocNotifyWaitPreSlotRx 0x000110e4   Data           0  QCA6174_SCAQBAFM.sym ABSOLUTE
    PFAL_LC_hlstIDScanAssocNotifyWaitRx      0x000110e8   Data           0  QCA6174_SCAQBAFM.sym ABSOLUTE
    PFAL_LC_hlstIDScanAssocNotifyRxHdr       0x000110ec   Data           0  QCA6174_SCAQBAFM.sym ABSOLUTE
    PFAL_LC_hlstIDScanAssocNotifyTx          0x000110f0   Data           0  QCA6174_SCAQBAFM.sym ABSOLUTE
    PFAL_LC_hlstSConnEntry                   0x000110f4   Data           0  QCA6174_SCAQBAFM.sym ABSOLUTE
    PFAL_LC_hlstSConnSyncSetup               0x000110f8   Data           0  QCA6174_SCAQBAFM.sym ABSOLUTE
    PFAL_LC_hlstSConnSkipTxD                 0x000110fc   Data           0  QCA6174_SCAQBAFM.sym ABSOLUTE
    PFAL_LC_hlstSConnSkipTx                  0x00011100   Data           0  QCA6174_SCAQBAFM.sym ABSOLUTE
    PFAL_LC_hlstSConnSyncRx                  0x00011104   Data           0  QCA6174_SCAQBAFM.sym ABSOLUTE
    PFAL_LC_hlstSConnEnterRxAck              0x00011108   Data           0  QCA6174_SCAQBAFM.sym ABSOLUTE
    PFAL_LC_hlstSConnEnterRx                 0x0001110c   Data           0  QCA6174_SCAQBAFM.sym ABSOLUTE
    PFAL_LC_hlstSConnRxHdr1                  0x00011110   Data           0  QCA6174_SCAQBAFM.sym ABSOLUTE
    PFAL_LC_hlstSConnRxHdr2                  0x00011114   Data           0  QCA6174_SCAQBAFM.sym ABSOLUTE
    PFAL_LC_hlstSConnRxHdrDone               0x00011118   Data           0  QCA6174_SCAQBAFM.sym ABSOLUTE
    PFAL_LC_hlstSConnSwitchOnPreslot         0x0001111c   Data           0  QCA6174_SCAQBAFM.sym ABSOLUTE
    PFAL_LC_hlstSConnRxSlot                  0x00011120   Data           0  QCA6174_SCAQBAFM.sym ABSOLUTE
    PFAL_LC_hlstSConnDummy                   0x00011124   Data           0  QCA6174_SCAQBAFM.sym ABSOLUTE
    PFAL_LC_hlstSConnTxSlot                  0x00011128   Data           0  QCA6174_SCAQBAFM.sym ABSOLUTE
    PFAL_LC_hlstSConnTxPreSlot               0x0001112c   Data           0  QCA6174_SCAQBAFM.sym ABSOLUTE
    PFAL_LC_hlstSConnTxLC                    0x00011130   Data           0  QCA6174_SCAQBAFM.sym ABSOLUTE
    PFAL_LC_hlstDataScanEntry                0x00011134   Data           0  QCA6174_SCAQBAFM.sym ABSOLUTE
    PFAL_LC_hlstDataScanSync                 0x00011138   Data           0  QCA6174_SCAQBAFM.sym ABSOLUTE
    PFAL_LC_hlstDataScanScan                 0x0001113c   Data           0  QCA6174_SCAQBAFM.sym ABSOLUTE
    PFAL_LC_hlstDataScanRetry                0x00011140   Data           0  QCA6174_SCAQBAFM.sym ABSOLUTE
    PFAL_LC_hlstDataScanReSync               0x00011144   Data           0  QCA6174_SCAQBAFM.sym ABSOLUTE
    PFAL_LC_hlstDataScanNotAlive             0x00011148   Data           0  QCA6174_SCAQBAFM.sym ABSOLUTE
    PFAL_LC_hlstPageTriggerSense             0x0001114c   Data           0  QCA6174_SCAQBAFM.sym ABSOLUTE
    PFAL_LC_hlstPageTriggerTx                0x00011150   Data           0  QCA6174_SCAQBAFM.sym ABSOLUTE
    PFAL_LC_hlstPageTriggerDone              0x00011154   Data           0  QCA6174_SCAQBAFM.sym ABSOLUTE
    PFAL_LC_hlstTrigScan                     0x00011158   Data           0  QCA6174_SCAQBAFM.sym ABSOLUTE
    PFAL_LC_hlstTrigScanDone                 0x0001115c   Data           0  QCA6174_SCAQBAFM.sym ABSOLUTE
    PFAL_LC_hlstLE_TxSyncEval                0x00011160   Data           0  QCA6174_SCAQBAFM.sym ABSOLUTE
    PFAL_LC_hlstLE_DataScanEntry             0x00011164   Data           0  QCA6174_SCAQBAFM.sym ABSOLUTE
    PFAL_LC_hlstLE_DataScanSync              0x00011168   Data           0  QCA6174_SCAQBAFM.sym ABSOLUTE
    PFAL_LC_hlstLE_DataScanScan              0x0001116c   Data           0  QCA6174_SCAQBAFM.sym ABSOLUTE
    PFAL_LC_State_LE_setAbortFlag            0x00011170   Data           0  QCA6174_SCAQBAFM.sym ABSOLUTE
    PFAL_LC_State_LE_checkAbortFlag          0x00011174   Data           0  QCA6174_SCAQBAFM.sym ABSOLUTE
    PFAL_LC_hlstLE_Rx                        0x00011178   Data           0  QCA6174_SCAQBAFM.sym ABSOLUTE
    PFAL_LC_hlstLE_Tx                        0x0001117c   Data           0  QCA6174_SCAQBAFM.sym ABSOLUTE
    PFAL_LC_hlstLE_TestModeEntry             0x00011180   Data           0  QCA6174_SCAQBAFM.sym ABSOLUTE
    PFAL_LC_hlstLE_TestModeActive            0x00011184   Data           0  QCA6174_SCAQBAFM.sym ABSOLUTE
    PFAL_LC_hlstLE_TestModeRxScan            0x00011188   Data           0  QCA6174_SCAQBAFM.sym ABSOLUTE
    PFAL_LC_hlstLE_TestModeRx                0x0001118c   Data           0  QCA6174_SCAQBAFM.sym ABSOLUTE
    PFAL_LC_LE_exitTestMode                  0x00011190   Data           0  QCA6174_SCAQBAFM.sym ABSOLUTE
    PFAL_LC_hlstANT_FrameEntry               0x00011194   Data           0  QCA6174_SCAQBAFM.sym ABSOLUTE
    PFAL_LC_hlstANT_FrameSyncEval            0x00011198   Data           0  QCA6174_SCAQBAFM.sym ABSOLUTE
    PFAL_LC_hlstANT_FrameTxRx                0x0001119c   Data           0  QCA6174_SCAQBAFM.sym ABSOLUTE
    PFAL_LC_hlstANT_RescheduleEntry          0x000111a0   Data           0  QCA6174_SCAQBAFM.sym ABSOLUTE
    PFAL_LC_hlstANT_RescheduleExit           0x000111a4   Data           0  QCA6174_SCAQBAFM.sym ABSOLUTE
    PFAL_LC_hlstSyncTrainScanEntry           0x000111a8   Data           0  QCA6174_SCAQBAFM.sym ABSOLUTE
    PFAL_LC_hlstSyncTrainScanSync            0x000111ac   Data           0  QCA6174_SCAQBAFM.sym ABSOLUTE
    PFAL_LC_hlstSyncTrainScanScan            0x000111b0   Data           0  QCA6174_SCAQBAFM.sym ABSOLUTE
    PFAL_LC_hlstSyncTrainScanDone            0x000111b4   Data           0  QCA6174_SCAQBAFM.sym ABSOLUTE
    PFAL_LC_State_patch_hook                 0x000111b8   Data           0  QCA6174_SCAQBAFM.sym ABSOLUTE
    PFAL_LC_AbortFrame                       0x000111bc   Data           0  QCA6174_SCAQBAFM.sym ABSOLUTE
    PFAL_OS_Init                             0x000111c0   Data           0  QCA6174_SCAQBAFM.sym ABSOLUTE
    PFAL_OS_SignalEvent                      0x000111c4   Data           0  QCA6174_SCAQBAFM.sym ABSOLUTE
    PFAL_OS_WaitEvents                       0x000111c8   Data           0  QCA6174_SCAQBAFM.sym ABSOLUTE
    PFAL_OS_CreateSemas                      0x000111cc   Data           0  QCA6174_SCAQBAFM.sym ABSOLUTE
    PFAL_OS_GrabSema                         0x000111d0   Data           0  QCA6174_SCAQBAFM.sym ABSOLUTE
    PFAL_OS_ReleaseSema                      0x000111d4   Data           0  QCA6174_SCAQBAFM.sym ABSOLUTE
    PFAL_PATCH_SetHeader                     0x000111d8   Data           0  QCA6174_SCAQBAFM.sym ABSOLUTE
    PFAL_PATCH_Attach                        0x000111dc   Data           0  QCA6174_SCAQBAFM.sym ABSOLUTE
    PFAL_PATCH_GlobalDataInit                0x000111e0   Data           0  QCA6174_SCAQBAFM.sym ABSOLUTE
    PFAL_PATCH_Apply                         0x000111e4   Data           0  QCA6174_SCAQBAFM.sym ABSOLUTE
    PFAL_PATCH_SetRegion                     0x000111e8   Data           0  QCA6174_SCAQBAFM.sym ABSOLUTE
    PFAL_PATCH_GetVersion                    0x000111ec   Data           0  QCA6174_SCAQBAFM.sym ABSOLUTE
    PFAL_PATCH_GetLength                     0x000111f0   Data           0  QCA6174_SCAQBAFM.sym ABSOLUTE
    PFAL_PATCH_LoadFromNVM                   0x000111f4   Data           0  QCA6174_SCAQBAFM.sym ABSOLUTE
    PFAL_PATCH_StoreToNVM                    0x000111f8   Data           0  QCA6174_SCAQBAFM.sym ABSOLUTE
    PFAL_RM_initCfg                          0x000111fc   Data           0  QCA6174_SCAQBAFM.sym ABSOLUTE
    PFAL_RM_initTxCfg_EDR                    0x00011200   Data           0  QCA6174_SCAQBAFM.sym ABSOLUTE
    PFAL_RM_Platform_Wake                    0x00011204   Data           0  QCA6174_SCAQBAFM.sym ABSOLUTE
    PFAL_RM_Platform_PriorToSleep            0x00011208   Data           0  QCA6174_SCAQBAFM.sym ABSOLUTE
    PFAL_RM_initCfgToPlatform                0x0001120c   Data           0  QCA6174_SCAQBAFM.sym ABSOLUTE
    PFAL_RM_setTxPower2GFSK_DEFAULT          0x00011210   Data           0  QCA6174_SCAQBAFM.sym ABSOLUTE
    PFAL_RM_setModemTempCalIndexMapping      0x00011214   Data           0  QCA6174_SCAQBAFM.sym ABSOLUTE
    PFAL_RM_filterCalibrationCode            0x00011218   Data           0  QCA6174_SCAQBAFM.sym ABSOLUTE
    PFAL_RM_temperaturePeriodicCalibration   0x0001121c   Data           0  QCA6174_SCAQBAFM.sym ABSOLUTE
    PFAL_RM_tempRead_UpdateIdxValues         0x00011220   Data           0  QCA6174_SCAQBAFM.sym ABSOLUTE
    PFAL_RM_tempUpdateShadow4Sleep           0x00011224   Data           0  QCA6174_SCAQBAFM.sym ABSOLUTE
    PFAL_RM_tempUpdateShadow2HWRegisters     0x00011228   Data           0  QCA6174_SCAQBAFM.sym ABSOLUTE
    PFAL_RM_tempUpdateHWRegisters            0x0001122c   Data           0  QCA6174_SCAQBAFM.sym ABSOLUTE
    PFAL_RM_temperatureSensorIndexCalc       0x00011230   Data           0  QCA6174_SCAQBAFM.sym ABSOLUTE
    PFAL_RM_temperatureTxCoarseIndexTableUpdate 0x00011234   Data           0  QCA6174_SCAQBAFM.sym ABSOLUTE
    PFAL_RM_temperatureTxFineIndexTableUpdate 0x00011238   Data           0  QCA6174_SCAQBAFM.sym ABSOLUTE
    PFAL_RM_temperatureRxCoarseIndexTableUpdate 0x0001123c   Data           0  QCA6174_SCAQBAFM.sym ABSOLUTE
    PFAL_RM_temperatureRxCoarseIndexTableUpdate_part1 0x00011240   Data           0  QCA6174_SCAQBAFM.sym ABSOLUTE
    PFAL_RM_temperatureRxCoarseIndexTableUpdate_part2 0x00011244   Data           0  QCA6174_SCAQBAFM.sym ABSOLUTE
    PFAL_RM_temperatureRxFineIndexTableUpdate 0x00011248   Data           0  QCA6174_SCAQBAFM.sym ABSOLUTE
    PFAL_RM_tempCalWait4NewData              0x0001124c   Data           0  QCA6174_SCAQBAFM.sym ABSOLUTE
    PFAL_RM_updateSSBI2_PVC_table            0x00011250   Data           0  QCA6174_SCAQBAFM.sym ABSOLUTE
    PFAL_RM_BT_SSBI_Access                   0x00011254   Data           0  QCA6174_SCAQBAFM.sym ABSOLUTE
    BT_SSBI_Peek                             0x00011258   Data           0  QCA6174_SCAQBAFM.sym ABSOLUTE
    BT_SSBI_Poke                             0x0001125c   Data           0  QCA6174_SCAQBAFM.sym ABSOLUTE
    PFAL_TRANSPORT_Protected_SSBI_Peek       0x00011260   Data           0  QCA6174_SCAQBAFM.sym ABSOLUTE
    PFAL_TRANSPORT_Protected_SSBI_Poke       0x00011264   Data           0  QCA6174_SCAQBAFM.sym ABSOLUTE
    PFAL_RM_setTxLUT                         0x00011268   Data           0  QCA6174_SCAQBAFM.sym ABSOLUTE
    PFAL_RM_Platform_Config                  0x0001126c   Data           0  QCA6174_SCAQBAFM.sym ABSOLUTE
    PFAL_RM_RUN_BT_STARTUP_CALIBRATIONS      0x00011270   Data           0  QCA6174_SCAQBAFM.sym ABSOLUTE
    PFAL_RM_HW_Restore_TxDcCalGainRegisters  0x00011274   Data           0  QCA6174_SCAQBAFM.sym ABSOLUTE
    PFAL_RM_HW_RestoreShadow_TxDcCalGainRegisters 0x00011278   Data           0  QCA6174_SCAQBAFM.sym ABSOLUTE
    PFAL_RM_HW_Restore_RxRSBCalRegisters     0x0001127c   Data           0  QCA6174_SCAQBAFM.sym ABSOLUTE
    PFAL_RM_HW_RestoreShadow_RxRSBCalRegisters 0x00011280   Data           0  QCA6174_SCAQBAFM.sym ABSOLUTE
    PFAL_RM_HW_Setup_TempCalibration         0x00011284   Data           0  QCA6174_SCAQBAFM.sym ABSOLUTE
    PFAL_RM_HW_Configure_BT_Cal_Analog       0x00011288   Data           0  QCA6174_SCAQBAFM.sym ABSOLUTE
    PFAL_RM_HW_StartUpCal_ProcessCornerDiscovery 0x0001128c   Data           0  QCA6174_SCAQBAFM.sym ABSOLUTE
    PFAL_RM_HW_StartUpCal_TxRadioCalibration 0x00011290   Data           0  QCA6174_SCAQBAFM.sym ABSOLUTE
    PFAL_RM_HW_StartUpCal_ModemTxDcCalibration 0x00011294   Data           0  QCA6174_SCAQBAFM.sym ABSOLUTE
    PFAL_RM_HW_EvaluateElapsedTime           0x00011298   Data           0  QCA6174_SCAQBAFM.sym ABSOLUTE
    PFAL_RM_HW_CheckAvailableCalTime         0x0001129c   Data           0  QCA6174_SCAQBAFM.sym ABSOLUTE
    PFAL_RM_HW_InitializePowerLevelLUTs      0x000112a0   Data           0  QCA6174_SCAQBAFM.sym ABSOLUTE
    PFAL_RM_HW_Disable_TX_DC_and_DC_RSB_Mode 0x000112a4   Data           0  QCA6174_SCAQBAFM.sym ABSOLUTE
    PFAL_RM_HW_Save_TxDcCalGainRegisters     0x000112a8   Data           0  QCA6174_SCAQBAFM.sym ABSOLUTE
    PFAL_RM_HW_Clear_TxDcCalGainRegisters    0x000112ac   Data           0  QCA6174_SCAQBAFM.sym ABSOLUTE
    PFAL_RM_HW_Configure_Tx_Rx_Analog_TxDcCal 0x000112b0   Data           0  QCA6174_SCAQBAFM.sym ABSOLUTE
    PFAL_RM_HW_Configure_Tx_Modem_TxDcCal    0x000112b4   Data           0  QCA6174_SCAQBAFM.sym ABSOLUTE
    PFAL_RM_HW_Configure_Rx_Modem_TxDcCal    0x000112b8   Data           0  QCA6174_SCAQBAFM.sym ABSOLUTE
    PFAL_RM_HW_Measure_DC_Metrics_TxDcCal    0x000112bc   Data           0  QCA6174_SCAQBAFM.sym ABSOLUTE
    PFAL_RM_HW_StartUpCal_TxRSBCalibration   0x000112c0   Data           0  QCA6174_SCAQBAFM.sym ABSOLUTE
    PFAL_RM_HW_Configure_Tx_Rx_Analog_TxRSBCal 0x000112c4   Data           0  QCA6174_SCAQBAFM.sym ABSOLUTE
    PFAL_RM_HW_Configure_Tx_Modem_TxRSBCal   0x000112c8   Data           0  QCA6174_SCAQBAFM.sym ABSOLUTE
    PFAL_RM_HW_Configure_Rx_Modem_TxRSBCal   0x000112cc   Data           0  QCA6174_SCAQBAFM.sym ABSOLUTE
    PFAL_RM_HW_StartUpCal_RxRSBCalibration   0x000112d0   Data           0  QCA6174_SCAQBAFM.sym ABSOLUTE
    PFAL_RM_HW_StartUpCal_ChannelCalibration 0x000112d4   Data           0  QCA6174_SCAQBAFM.sym ABSOLUTE
    PFAL_RM_HW_Rx_DC_Filter_IQ_Corr_Tx_DacInterf 0x000112d8   Data           0  QCA6174_SCAQBAFM.sym ABSOLUTE
    PFAL_RM_HW_Measure_Power_Metrics         0x000112dc   Data           0  QCA6174_SCAQBAFM.sym ABSOLUTE
    PFAL_RM_HW_Compute_R                     0x000112e0   Data           0  QCA6174_SCAQBAFM.sym ABSOLUTE
    PFAL_RM_HW_Set_Tx_IQ_Cor_Coeffs          0x000112e4   Data           0  QCA6174_SCAQBAFM.sym ABSOLUTE
    PFAL_RM_HW_Set_Rx_Analog_Phase_Shift     0x000112e8   Data           0  QCA6174_SCAQBAFM.sym ABSOLUTE
    PFAL_RM_HW_Set_Rx_Analog_GM_TIA_and_ADC_Gains 0x000112ec   Data           0  QCA6174_SCAQBAFM.sym ABSOLUTE
    PFAL_RM_HW_GainLineup                    0x000112f0   Data           0  QCA6174_SCAQBAFM.sym ABSOLUTE
    PFAL_RM_HW_Measure_DC_Metrics            0x000112f4   Data           0  QCA6174_SCAQBAFM.sym ABSOLUTE
    PFAL_RM_HW_Compute_Gain_Phase_IMB_Parameters 0x000112f8   Data           0  QCA6174_SCAQBAFM.sym ABSOLUTE
    PFAL_RM_HW_Compute_Rx_IQ_Corr            0x000112fc   Data           0  QCA6174_SCAQBAFM.sym ABSOLUTE
    PFAL_RM_HW_Compute_Tx_IQ_Corr            0x00011300   Data           0  QCA6174_SCAQBAFM.sym ABSOLUTE
    PFAL_RM_HW_Combine_Tx_Coeffs             0x00011304   Data           0  QCA6174_SCAQBAFM.sym ABSOLUTE
    PFAL_RM_HW_Set_Rx_IQ_Cor_Coeffs          0x00011308   Data           0  QCA6174_SCAQBAFM.sym ABSOLUTE
    PFAL_RM_HW_Store_Registers_RxRSBCal      0x0001130c   Data           0  QCA6174_SCAQBAFM.sym ABSOLUTE
    PFAL_RM_HW_Configure_Tx_Rx_Analog_RxRSBCal 0x00011310   Data           0  QCA6174_SCAQBAFM.sym ABSOLUTE
    PFAL_RM_HW_Configure_Tx_Modem_RxRSBCal   0x00011314   Data           0  QCA6174_SCAQBAFM.sym ABSOLUTE
    PFAL_RM_HW_Configure_Rx_Modem_RxRSBCal   0x00011318   Data           0  QCA6174_SCAQBAFM.sym ABSOLUTE
    PFAL_RM_HW_fixLongSettlingTime_LoopbackPath 0x0001131c   Data           0  QCA6174_SCAQBAFM.sym ABSOLUTE
    PFAL_RM_HW_RxModemControl                0x00011320   Data           0  QCA6174_SCAQBAFM.sym ABSOLUTE
    PFAL_RM_HW_TxModemControl                0x00011324   Data           0  QCA6174_SCAQBAFM.sym ABSOLUTE
    PFAL_RM_HW_PowerMetricsControl           0x00011328   Data           0  QCA6174_SCAQBAFM.sym ABSOLUTE
    PFAL_RM_HW_DCMetricsControl              0x0001132c   Data           0  QCA6174_SCAQBAFM.sym ABSOLUTE
    PFAL_RM_HW_Set_DC_I_Tx                   0x00011330   Data           0  QCA6174_SCAQBAFM.sym ABSOLUTE
    PFAL_RM_HW_Set_DC_Q_Tx                   0x00011334   Data           0  QCA6174_SCAQBAFM.sym ABSOLUTE
    PFAL_RM_HW_Turn_OFF_SLNA                 0x00011338   Data           0  QCA6174_SCAQBAFM.sym ABSOLUTE
    PFAL_RM_HW_FixedPointAdd                 0x0001133c   Data           0  QCA6174_SCAQBAFM.sym ABSOLUTE
    PFAL_RM_HW_FixedPointSubtract            0x00011340   Data           0  QCA6174_SCAQBAFM.sym ABSOLUTE
    PFAL_RM_HW_Round_Unsigned                0x00011344   Data           0  QCA6174_SCAQBAFM.sym ABSOLUTE
    PFAL_RM_HW_32BitBoundaryCheckWithResult_Round_Signed 0x00011348   Data           0  QCA6174_SCAQBAFM.sym ABSOLUTE
    PFAL_RM_HW_32BitBoundaryCheckWithResult_Signed 0x0001134c   Data           0  QCA6174_SCAQBAFM.sym ABSOLUTE
    PFAL_RM_HW_32BitBoundaryCheckWithResult_Unsigned 0x00011350   Data           0  QCA6174_SCAQBAFM.sym ABSOLUTE
    PFAL_RM_HW_COS                           0x00011354   Data           0  QCA6174_SCAQBAFM.sym ABSOLUTE
    PFAL_RM_HW_SIN                           0x00011358   Data           0  QCA6174_SCAQBAFM.sym ABSOLUTE
    PFAL_RM_HW_ValidateRegisterReadSignedValue 0x0001135c   Data           0  QCA6174_SCAQBAFM.sym ABSOLUTE
    PFAL_RM_RX_Get_Normalized_RSSI_Rome      0x00011360   Data           0  QCA6174_SCAQBAFM.sym ABSOLUTE
    PFAL_RM_RX_Get_Normalized_RSSI_Iris      0x00011364   Data           0  QCA6174_SCAQBAFM.sym ABSOLUTE
    PFAL_RM_radioDeInit                      0x00011368   Data           0  QCA6174_SCAQBAFM.sym ABSOLUTE
    PFAL_RM_radioWakeup                      0x0001136c   Data           0  QCA6174_SCAQBAFM.sym ABSOLUTE
    PFAL_RM_progRegInit                      0x00011370   Data           0  QCA6174_SCAQBAFM.sym ABSOLUTE
    PFAL_RM_CalculateCorrelatorThreshold_BREDR 0x00011374   Data           0  QCA6174_SCAQBAFM.sym ABSOLUTE
    PFAL_RM_CalculateCorrelatorThreshold_LE  0x00011378   Data           0  QCA6174_SCAQBAFM.sym ABSOLUTE
    PFAL_RM_CalculateCorrelatorThreshold_ANT 0x0001137c   Data           0  QCA6174_SCAQBAFM.sym ABSOLUTE
    PFAL_RM_initLLMPowerLevelIndexMapping    0x00011380   Data           0  QCA6174_SCAQBAFM.sym ABSOLUTE
    PFAL_RM_rx_Write_SyncInfo                0x00011384   Data           0  QCA6174_SCAQBAFM.sym ABSOLUTE
    PFAL_RM_restoreHalfChannelTune           0x00011388   Data           0  QCA6174_SCAQBAFM.sym ABSOLUTE
    PFAL_RM_tx_Write_PowerCfgInfo            0x0001138c   Data           0  QCA6174_SCAQBAFM.sym ABSOLUTE
    PFAL_RM_tx_Write_ModulationInfo          0x00011390   Data           0  QCA6174_SCAQBAFM.sym ABSOLUTE
    PFAL_RM_configureAnt                     0x00011394   Data           0  QCA6174_SCAQBAFM.sym ABSOLUTE
    PFAL_RM_SSBI_Init                        0x00011398   Data           0  QCA6174_SCAQBAFM.sym ABSOLUTE
    PFAL_RM_HW_CoexGrantMCI_CB               0x0001139c   Data           0  QCA6174_SCAQBAFM.sym ABSOLUTE
    PFAL_RM_HW_ReadPackedBits                0x000113a0   Data           0  QCA6174_SCAQBAFM.sym ABSOLUTE
    PFAL_IM_BT_LPO_CAL_DONE_INT_Handler      0x000113a4   Data           0  QCA6174_SCAQBAFM.sym ABSOLUTE
    PFAL_IM_WAKE_INT_Handler                 0x000113a8   Data           0  QCA6174_SCAQBAFM.sym ABSOLUTE
    PFAL_SLEEP_SaveContext                   0x000113ac   Data           0  QCA6174_SCAQBAFM.sym ABSOLUTE
    PFAL_SLEEP_RestoreContext                0x000113b0   Data           0  QCA6174_SCAQBAFM.sym ABSOLUTE
    PFAL_SLEEP_Init                          0x000113b4   Data           0  QCA6174_SCAQBAFM.sym ABSOLUTE
    PFAL_SLEEP_StartClockCalibration         0x000113b8   Data           0  QCA6174_SCAQBAFM.sym ABSOLUTE
    PFAL_SLEEP_PreProcessing                 0x000113bc   Data           0  QCA6174_SCAQBAFM.sym ABSOLUTE
    PFAL_SLEEP_EnterNap                      0x000113c0   Data           0  QCA6174_SCAQBAFM.sym ABSOLUTE
    PFAL_SLEEP_StartWakeupTimer              0x000113c4   Data           0  QCA6174_SCAQBAFM.sym ABSOLUTE
    PFAL_SLEEP_EnterDeepSleep                0x000113c8   Data           0  QCA6174_SCAQBAFM.sym ABSOLUTE
    PFAL_SLEEP_WakeInterruptConnect          0x000113cc   Data           0  QCA6174_SCAQBAFM.sym ABSOLUTE
    PFAL_SYS_programClockRegs_4_RefFrequency 0x000113d0   Data           0  QCA6174_SCAQBAFM.sym ABSOLUTE
    PFAL_CFG_Access                          0x000113d4   Data           0  QCA6174_SCAQBAFM.sym ABSOLUTE
    PFAL_SYS_SoCInit                         0x000113e4   Data           0  QCA6174_SCAQBAFM.sym ABSOLUTE
    PFAL_SYS_PostResetInit                   0x000113e8   Data           0  QCA6174_SCAQBAFM.sym ABSOLUTE
    PFAL_SYS_Reset                           0x000113ec   Data           0  QCA6174_SCAQBAFM.sym ABSOLUTE
    PFAL_SYS_InitBBClk                       0x000113f0   Data           0  QCA6174_SCAQBAFM.sym ABSOLUTE
    PFAL_SYS_progClkUsingFreqSelection       0x000113f4   Data           0  QCA6174_SCAQBAFM.sym ABSOLUTE
    PFAL_SYS_GPIO_POWERUP_WAKE_ISR           0x000113f8   Data           0  QCA6174_SCAQBAFM.sym ABSOLUTE
    PFAL_SYS_GPIO_POWERDOWN_WAKE_ISR         0x000113fc   Data           0  QCA6174_SCAQBAFM.sym ABSOLUTE
    PFAL_SYS_WakeInit                        0x00011400   Data           0  QCA6174_SCAQBAFM.sym ABSOLUTE
    PFAL_SYS_HaltSystemInterrupts            0x00011404   Data           0  QCA6174_SCAQBAFM.sym ABSOLUTE
    PFAL_SYS_initClocks                      0x00011408   Data           0  QCA6174_SCAQBAFM.sym ABSOLUTE
    PFAL_SYS_requestPowerMode                0x0001140c   Data           0  QCA6174_SCAQBAFM.sym ABSOLUTE
    PFAL_SYS_EnableOWIWakeupInt              0x00011410   Data           0  QCA6174_SCAQBAFM.sym ABSOLUTE
    PFAL_SYS_DisableOWIWakeupInt             0x00011414   Data           0  QCA6174_SCAQBAFM.sym ABSOLUTE
    PFAL_SYS_FreqToRefType                   0x00011418   Data           0  QCA6174_SCAQBAFM.sym ABSOLUTE
    PFAL_SYS_ClockRegWrite                   0x0001141c   Data           0  QCA6174_SCAQBAFM.sym ABSOLUTE
    PFAL_SYS_programClockRegs                0x00011420   Data           0  QCA6174_SCAQBAFM.sym ABSOLUTE
    PFAL_SYS_DFU_Start                       0x00011424   Data           0  QCA6174_SCAQBAFM.sym ABSOLUTE
    PFAL_SYS_EDL_Start                       0x00011428   Data           0  QCA6174_SCAQBAFM.sym ABSOLUTE
    PFAL_SYS_EDL_UART_fillRxLL               0x0001142c   Data           0  QCA6174_SCAQBAFM.sym ABSOLUTE
    PFAL_SYS_EDL_ProcessCommand              0x00011430   Data           0  QCA6174_SCAQBAFM.sym ABSOLUTE
    PFAL_SYS_EDL_SendStatus                  0x00011434   Data           0  QCA6174_SCAQBAFM.sym ABSOLUTE
    PFAL_SYS_EDL_SendTLVStatus               0x00011438   Data           0  QCA6174_SCAQBAFM.sym ABSOLUTE
    PFAL_SYS_EDL_SendVersionInteger          0x0001143c   Data           0  QCA6174_SCAQBAFM.sym ABSOLUTE
    PFAL_SYS_EDL_SendUploadResponse          0x00011440   Data           0  QCA6174_SCAQBAFM.sym ABSOLUTE
    PFAL_SYS_EDL_SendVersion                 0x00011444   Data           0  QCA6174_SCAQBAFM.sym ABSOLUTE
    PFAL_SYS_EDL_SendPeek16Response          0x00011448   Data           0  QCA6174_SCAQBAFM.sym ABSOLUTE
    PFAL_SYS_EDL_SendCalibrationDatalog      0x0001144c   Data           0  QCA6174_SCAQBAFM.sym ABSOLUTE
    PFAL_SYS_EDL_HandleSSBIPeek              0x00011450   Data           0  QCA6174_SCAQBAFM.sym ABSOLUTE
    PFAL_SYS_EDL_HandleSSBIPoke              0x00011454   Data           0  QCA6174_SCAQBAFM.sym ABSOLUTE
    PFAL_SYS_EDL_SendEvent                   0x00011458   Data           0  QCA6174_SCAQBAFM.sym ABSOLUTE
    PFAL_SYS_EDL_SuperEDL_Init               0x0001145c   Data           0  QCA6174_SCAQBAFM.sym ABSOLUTE
    PFAL_SYS_EDL_Rome_TempCal                0x00011460   Data           0  QCA6174_SCAQBAFM.sym ABSOLUTE
    PFAL_SYS_EDL_TempCalOffsetCalc           0x00011464   Data           0  QCA6174_SCAQBAFM.sym ABSOLUTE
    PFAL_SYS_EDL_LPPS                        0x00011468   Data           0  QCA6174_SCAQBAFM.sym ABSOLUTE
    PFAL_SYS_EDL_LPPS_BIST                   0x0001146c   Data           0  QCA6174_SCAQBAFM.sym ABSOLUTE
    PFAL_SYS_EDL_Rx_BERT_Disable_and_Status  0x00011470   Data           0  QCA6174_SCAQBAFM.sym ABSOLUTE
    PFAL_SYS_EDL_Rx_BERT_Setup               0x00011474   Data           0  QCA6174_SCAQBAFM.sym ABSOLUTE
    PFAL_SYS_EDL_Rx_BERT                     0x00011478   Data           0  QCA6174_SCAQBAFM.sym ABSOLUTE
    PFAL_SYS_EDL_hciReset                    0x0001147c   Data           0  QCA6174_SCAQBAFM.sym ABSOLUTE
    PFAL_SYS_EDL_MemBist                     0x00011480   Data           0  QCA6174_SCAQBAFM.sym ABSOLUTE
    PFAL_SYS_EDL_RAMBist                     0x00011484   Data           0  QCA6174_SCAQBAFM.sym ABSOLUTE
    PFAL_SYS_EDL_ROMBist                     0x00011488   Data           0  QCA6174_SCAQBAFM.sym ABSOLUTE
    PFAL_SYS_EDL_NapTest                     0x0001148c   Data           0  QCA6174_SCAQBAFM.sym ABSOLUTE
    PFAL_SYS_EDL_SleepTest                   0x00011490   Data           0  QCA6174_SCAQBAFM.sym ABSOLUTE
    PFAL_SYS_EDL_PCMLoopback                 0x00011494   Data           0  QCA6174_SCAQBAFM.sym ABSOLUTE
    PFAL_UART_IOP_Init                       0x00011498   Data           0  QCA6174_SCAQBAFM.sym ABSOLUTE
    PFAL_UART_IOP_RunSetup                   0x0001149c   Data           0  QCA6174_SCAQBAFM.sym ABSOLUTE
    PFAL_UART_IOP_RunTxRx                    0x000114a0   Data           0  QCA6174_SCAQBAFM.sym ABSOLUTE
    PFAL_UART_CalculateBaudRegisters         0x000114a4   Data           0  QCA6174_SCAQBAFM.sym ABSOLUTE
    PFAL_UART_CalculateRefClk                0x000114a8   Data           0  QCA6174_SCAQBAFM.sym ABSOLUTE
    PFAL_IM_BTC_CLKN_CMPR0_INT_Handler       0x000114ac   Data           0  QCA6174_SCAQBAFM.sym ABSOLUTE
    PFAL_IM_BTC_CLKN_CMPR1_INT_Handler       0x000114b0   Data           0  QCA6174_SCAQBAFM.sym ABSOLUTE
    PFAL_IM_ACI_TX_INT_Handler               0x000114b4   Data           0  QCA6174_SCAQBAFM.sym ABSOLUTE
    PFAL_VOICE_UpdateSettings                0x000114b8   Data           0  QCA6174_SCAQBAFM.sym ABSOLUTE
    PFAL_VOICE_UpdateChan                    0x000114bc   Data           0  QCA6174_SCAQBAFM.sym ABSOLUTE
    PFAL_VOICE_AudioSpkrISR                  0x000114c0   Data           0  QCA6174_SCAQBAFM.sym ABSOLUTE
    PFAL_VOICE_AudioMicISR                   0x000114c4   Data           0  QCA6174_SCAQBAFM.sym ABSOLUTE
    PFAL_VOICE_ErroneousDataProcess1Packet   0x000114c8   Data           0  QCA6174_SCAQBAFM.sym ABSOLUTE
    PFAL_VOICE_ErroneousDataProcess2Packets  0x000114cc   Data           0  QCA6174_SCAQBAFM.sym ABSOLUTE
    PFAL_VOICE_ErroneousDataProcess3Packets  0x000114d0   Data           0  QCA6174_SCAQBAFM.sym ABSOLUTE
    PFAL_VOICE_Init                          0x000114d4   Data           0  QCA6174_SCAQBAFM.sym ABSOLUTE
    PFAL_VOICE_AllocChan                     0x000114d8   Data           0  QCA6174_SCAQBAFM.sym ABSOLUTE
    PFAL_VOICE_FreeChan                      0x000114dc   Data           0  QCA6174_SCAQBAFM.sym ABSOLUTE
    PFAL_VOICE_StopChan                      0x000114e0   Data           0  QCA6174_SCAQBAFM.sym ABSOLUTE
    PFAL_VOICE_SetupNextAudioSpkrInterrupt   0x000114e4   Data           0  QCA6174_SCAQBAFM.sym ABSOLUTE
    PFAL_VOICE_SetupNextAudioMicInterrupt    0x000114e8   Data           0  QCA6174_SCAQBAFM.sym ABSOLUTE
    PFAL_VOICE_RxErroneousDataProcess        0x000114ec   Data           0  QCA6174_SCAQBAFM.sym ABSOLUTE
    PFAL_VOICE_BasebandProcessingNonRT       0x000114f0   Data           0  QCA6174_SCAQBAFM.sym ABSOLUTE
    PFAL_VOICE_ScoTxData                     0x000114f4   Data           0  QCA6174_SCAQBAFM.sym ABSOLUTE
    PFAL_VOICE_ScoRxData                     0x000114f8   Data           0  QCA6174_SCAQBAFM.sym ABSOLUTE
    PFAL_VOICE_ScoRxDataNotify               0x000114fc   Data           0  QCA6174_SCAQBAFM.sym ABSOLUTE
    PFAL_VOICE_LogData                       0x00011500   Data           0  QCA6174_SCAQBAFM.sym ABSOLUTE
    PFAL_VOICE_setHandoffPending             0x00011504   Data           0  QCA6174_SCAQBAFM.sym ABSOLUTE
    PFAL_VOICE_doResourceHandoff             0x00011508   Data           0  QCA6174_SCAQBAFM.sym ABSOLUTE
    PFAL_VOICE_ScoTxSilence                  0x0001150c   Data           0  QCA6174_SCAQBAFM.sym ABSOLUTE
    PFAL_VOICE_SetLoopbackMode               0x00011510   Data           0  QCA6174_SCAQBAFM.sym ABSOLUTE
    PFAL_VOICE_GetLoopbackMode               0x00011514   Data           0  QCA6174_SCAQBAFM.sym ABSOLUTE
    PFAL_VOICE_HCI_SCO_Init_Buffs            0x00011518   Data           0  QCA6174_SCAQBAFM.sym ABSOLUTE
    PFAL_VOICE_HCI_SCO_Set_Conn_Handle       0x0001151c   Data           0  QCA6174_SCAQBAFM.sym ABSOLUTE
    PFAL_VOICE_HCI_SCO_Config                0x00011520   Data           0  QCA6174_SCAQBAFM.sym ABSOLUTE
    PFAL_VOICE_HCI_SCO_Set_Payload_Size      0x00011524   Data           0  QCA6174_SCAQBAFM.sym ABSOLUTE
    PFAL_VOICE_HCI_SCO_Set_Transport         0x00011528   Data           0  QCA6174_SCAQBAFM.sym ABSOLUTE
    smplSinkSource                           0x0001152c   Data           0  QCA6174_SCAQBAFM.sym ABSOLUTE
    scoSinkSource                            0x00011564   Data           0  QCA6174_SCAQBAFM.sym ABSOLUTE
    PFAL_VOICE_HCI_SCO_Init                  0x00011574   Data           0  QCA6174_SCAQBAFM.sym ABSOLUTE
    PFAL_OTP_Write                           0x00011578   Data           0  QCA6174_SCAQBAFM.sym ABSOLUTE
    PFAL_FS_SetDevFunctions                  0x0001157c   Data           0  QCA6174_SCAQBAFM.sym ABSOLUTE
    PFAL_FS_FileName2ID                      0x00011580   Data           0  QCA6174_SCAQBAFM.sym ABSOLUTE
    PFAL_FS_LoadFsInfo                       0x00011584   Data           0  QCA6174_SCAQBAFM.sym ABSOLUTE
    PFAL_FS_Recycle                          0x00011588   Data           0  QCA6174_SCAQBAFM.sym ABSOLUTE
    PFAL_FS_DataBlkAligned                   0x0001158c   Data           0  QCA6174_SCAQBAFM.sym ABSOLUTE
    PFAL_FS_GetFreeMem                       0x00011590   Data           0  QCA6174_SCAQBAFM.sym ABSOLUTE
    PFAL_FS_Init                             0x00011594   Data           0  QCA6174_SCAQBAFM.sym ABSOLUTE
    PFAL_FS_CreateFile                       0x00011598   Data           0  QCA6174_SCAQBAFM.sym ABSOLUTE
    PFAL_FS_DeleteFile                       0x0001159c   Data           0  QCA6174_SCAQBAFM.sym ABSOLUTE
    PFAL_FS_OpenFile                         0x000115a0   Data           0  QCA6174_SCAQBAFM.sym ABSOLUTE
    PFAL_FS_GetFileLen                       0x000115a4   Data           0  QCA6174_SCAQBAFM.sym ABSOLUTE
    PFAL_FS_WriteFile                        0x000115a8   Data           0  QCA6174_SCAQBAFM.sym ABSOLUTE
    PFAL_FS_ReadFile                         0x000115ac   Data           0  QCA6174_SCAQBAFM.sym ABSOLUTE
    PFAL_FS_CloseFile                        0x000115b0   Data           0  QCA6174_SCAQBAFM.sym ABSOLUTE
    PFAL_FS_Format                           0x000115b4   Data           0  QCA6174_SCAQBAFM.sym ABSOLUTE
    CFG_BT_Init                              0x000115b8   Data           0  QCA6174_SCAQBAFM.sym ABSOLUTE
    CFG_BT_GetConfigParameterInfo            0x000115bc   Data           0  QCA6174_SCAQBAFM.sym ABSOLUTE
    CFG_BT_GetTagEntry                       0x000115c0   Data           0  QCA6174_SCAQBAFM.sym ABSOLUTE
    CFG_Voice_Init                           0x000115c4   Data           0  QCA6174_SCAQBAFM.sym ABSOLUTE
    CFG_Voice_GetConfigParameterInfo         0x000115c8   Data           0  QCA6174_SCAQBAFM.sym ABSOLUTE
    CFG_Voice_GetTagEntry                    0x000115cc   Data           0  QCA6174_SCAQBAFM.sym ABSOLUTE
    TaskConstTable                           0x000115d0   Data           0  QCA6174_SCAQBAFM.sym ABSOLUTE
    TimerConstTable                          0x00011660   Data           0  QCA6174_SCAQBAFM.sym ABSOLUTE
    PF_OS_AllocateStaticFMB                  0x00011b50   Data           0  QCA6174_SCAQBAFM.sym ABSOLUTE
    PF_DBG_Init                              0x00011b54   Data           0  QCA6174_SCAQBAFM.sym ABSOLUTE
    PF_DBG_InitHW                            0x00011b58   Data           0  QCA6174_SCAQBAFM.sym ABSOLUTE
    PF_DBG_StartLogger                       0x00011b5c   Data           0  QCA6174_SCAQBAFM.sym ABSOLUTE
    PF_DBG_LogTransmitQueuedData             0x00011b60   Data           0  QCA6174_SCAQBAFM.sym ABSOLUTE
    PF_DBG_LogEnqueueData                    0x00011b64   Data           0  QCA6174_SCAQBAFM.sym ABSOLUTE
    PF_DBG_LogEnqueueHdr                     0x00011b68   Data           0  QCA6174_SCAQBAFM.sym ABSOLUTE
    PF_DBG_SendLogEventToHost                0x00011b6c   Data           0  QCA6174_SCAQBAFM.sym ABSOLUTE
    BKGD_init                                0x00011b70   Data           0  QCA6174_SCAQBAFM.sym ABSOLUTE
    BKGD_TimerPeriodEval                     0x00011b74   Data           0  QCA6174_SCAQBAFM.sym ABSOLUTE
    BKGD_DisplayData                         0x00011b78   Data           0  QCA6174_SCAQBAFM.sym ABSOLUTE
    BKGD_DisplayDataLL                       0x00011b7c   Data           0  QCA6174_SCAQBAFM.sym ABSOLUTE
    BKGD_LogData                             0x00011b80   Data           0  QCA6174_SCAQBAFM.sym ABSOLUTE
    BKGD_InitSDBloggerCounters               0x00011b84   Data           0  QCA6174_SCAQBAFM.sym ABSOLUTE
    BKGD_DisplayDataUL                       0x00011b88   Data           0  QCA6174_SCAQBAFM.sym ABSOLUTE
    BKGD_SystemReady                         0x00011b8c   Data           0  QCA6174_SCAQBAFM.sym ABSOLUTE
    BKGD_PreReset                            0x00011b90   Data           0  QCA6174_SCAQBAFM.sym ABSOLUTE
    BKGD_Reset                               0x00011b94   Data           0  QCA6174_SCAQBAFM.sym ABSOLUTE
    BKGD_ActivityFreqSet                     0x00011b98   Data           0  QCA6174_SCAQBAFM.sym ABSOLUTE
    BKGD_ProcE_DATA_READY                    0x00011b9c   Data           0  QCA6174_SCAQBAFM.sym ABSOLUTE
    HCI_ProcE_LL2HCI_ACL_MSG                 0x00011ba0   Data           0  QCA6174_SCAQBAFM.sym ABSOLUTE
    HCI_GetNextAclPkt                        0x00011ba4   Data           0  QCA6174_SCAQBAFM.sym ABSOLUTE
    HCI_FindValidAclPkt                      0x00011ba8   Data           0  QCA6174_SCAQBAFM.sym ABSOLUTE
    HCI_ProcessResetCommand                  0x00011bac   Data           0  QCA6174_SCAQBAFM.sym ABSOLUTE
    UpdateFlowControlData                    0x00011bb0   Data           0  QCA6174_SCAQBAFM.sym ABSOLUTE
    HCI_InitFlowVariables                    0x00011bb4   Data           0  QCA6174_SCAQBAFM.sym ABSOLUTE
    HCI_LocalInit                            0x00011bb8   Data           0  QCA6174_SCAQBAFM.sym ABSOLUTE
    HCI_FreeQueues                           0x00011bbc   Data           0  QCA6174_SCAQBAFM.sym ABSOLUTE
    HCI_PerformSystemReadyProcessing         0x00011bc0   Data           0  QCA6174_SCAQBAFM.sym ABSOLUTE
    HandleLocalLoopbackACL                   0x00011bc4   Data           0  QCA6174_SCAQBAFM.sym ABSOLUTE
    HCI_ConfigureScoPackets                  0x00011bc8   Data           0  QCA6174_SCAQBAFM.sym ABSOLUTE
    HCI_ProcQ_HOST_CMD_RX                    0x00011bcc   Data           0  QCA6174_SCAQBAFM.sym ABSOLUTE
    HCI_ProcQ_HOST_EXT_RX_A                  0x00011bd0   Data           0  QCA6174_SCAQBAFM.sym ABSOLUTE
    HCI_ProcE_CMD_BUF_OVERFLOW               0x00011bd4   Data           0  QCA6174_SCAQBAFM.sym ABSOLUTE
    HCI_ProcE_ACL_BUF_OVERFLOW               0x00011bd8   Data           0  QCA6174_SCAQBAFM.sym ABSOLUTE
    HCI_ProcE_SCO_BUF_OVERFLOW               0x00011bdc   Data           0  QCA6174_SCAQBAFM.sym ABSOLUTE
    HCI_ProcE_DATA_FROM_HOST_READY           0x00011be0   Data           0  QCA6174_SCAQBAFM.sym ABSOLUTE
    HCI_ProcE_RESET_RANDOM_SEED_COMPLETE     0x00011be4   Data           0  QCA6174_SCAQBAFM.sym ABSOLUTE
    HCI_ProcE_DATA_TO_HOST_READY             0x00011be8   Data           0  QCA6174_SCAQBAFM.sym ABSOLUTE
    HCI_ProcE_ANT_CMD_FROM_HOST_READY        0x00011bec   Data           0  QCA6174_SCAQBAFM.sym ABSOLUTE
    HCI_ProcE_ANT_EVENT_TO_HOST_READY        0x00011bf0   Data           0  QCA6174_SCAQBAFM.sym ABSOLUTE
    HCI_ProcE_ANT_DATA_FROM_HOST_READY       0x00011bf4   Data           0  QCA6174_SCAQBAFM.sym ABSOLUTE
    HCI_ProcE_ANT_DATA_TO_HOST_READY         0x00011bf8   Data           0  QCA6174_SCAQBAFM.sym ABSOLUTE
    HCI_ProcE_TXP_UPDATE                     0x00011bfc   Data           0  QCA6174_SCAQBAFM.sym ABSOLUTE
    HCI_ProcE_TXP_EVENT                      0x00011c00   Data           0  QCA6174_SCAQBAFM.sym ABSOLUTE
    HCI_init                                 0x00011c04   Data           0  QCA6174_SCAQBAFM.sym ABSOLUTE
    HCI_SystemReady                          0x00011c08   Data           0  QCA6174_SCAQBAFM.sym ABSOLUTE
    HCI_SendNumCompletedPacketsEvent         0x00011c0c   Data           0  QCA6174_SCAQBAFM.sym ABSOLUTE
    HCI_ProcessHostACL_RX                    0x00011c10   Data           0  QCA6174_SCAQBAFM.sym ABSOLUTE
    HCI_ProcE_A2DP_PAUSE_COMPLETE            0x00011c14   Data           0  QCA6174_SCAQBAFM.sym ABSOLUTE
    LLM_EPTM_handleRxBurstCfg                0x00011c18   Data           0  QCA6174_SCAQBAFM.sym ABSOLUTE
    LLM_EPTM_handleSeqStartControl           0x00011c1c   Data           0  QCA6174_SCAQBAFM.sym ABSOLUTE
    LLM_EPTM_handleStartLEBurstTx            0x00011c20   Data           0  QCA6174_SCAQBAFM.sym ABSOLUTE
    LLM_EPTM_ProcSeqRxConfigState            0x00011c24   Data           0  QCA6174_SCAQBAFM.sym ABSOLUTE
    LLM_EPTM_InitSeqTxRxState                0x00011c28   Data           0  QCA6174_SCAQBAFM.sym ABSOLUTE
    LLM_EPTM_SeqTx2NullPkt                   0x00011c2c   Data           0  QCA6174_SCAQBAFM.sym ABSOLUTE
    LLM_EPTM_SeqTx2NextStatePkt              0x00011c30   Data           0  QCA6174_SCAQBAFM.sym ABSOLUTE
    LLM_EPTM_SeqRx2NullPkt                   0x00011c34   Data           0  QCA6174_SCAQBAFM.sym ABSOLUTE
    LLM_EPTM_SeqRx2NextStatePkt              0x00011c38   Data           0  QCA6174_SCAQBAFM.sym ABSOLUTE
    LLM_EPTM_SeqRxReturnStats                0x00011c3c   Data           0  QCA6174_SCAQBAFM.sym ABSOLUTE
    CountOne                                 0x00011c40   Data           0  QCA6174_SCAQBAFM.sym ABSOLUTE
    BitErrCalc                               0x00011c44   Data           0  QCA6174_SCAQBAFM.sym ABSOLUTE
    LLM_EPTM_Hlr                             0x00011c48   Data           0  QCA6174_SCAQBAFM.sym ABSOLUTE
    LLM_ETPM_handleProdTestRequest           0x00011c64   Data           0  QCA6174_SCAQBAFM.sym ABSOLUTE
    LLM_EPTM_RxBurstEndEvent                 0x00011c68   Data           0  QCA6174_SCAQBAFM.sym ABSOLUTE
    LLM_EPTM_UpdateSeqTxPkt                  0x00011c6c   Data           0  QCA6174_SCAQBAFM.sym ABSOLUTE
    LLM_EPTM_SeqRxProcRxHdrAccOnly           0x00011c70   Data           0  QCA6174_SCAQBAFM.sym ABSOLUTE
    LLM_EPTM_SeqRxProcRxHdr                  0x00011c74   Data           0  QCA6174_SCAQBAFM.sym ABSOLUTE
    LLM_EPTM_SeqRxProcRxCrc                  0x00011c78   Data           0  QCA6174_SCAQBAFM.sym ABSOLUTE
    LLM_EPTM_SeqRxProcRxPld                  0x00011c7c   Data           0  QCA6174_SCAQBAFM.sym ABSOLUTE
    LLM_EPTM_SeqRxProcLERxPld                0x00011c80   Data           0  QCA6174_SCAQBAFM.sym ABSOLUTE
    LLM_EPTM_SeqRxProcRxPldCrcErr            0x00011c84   Data           0  QCA6174_SCAQBAFM.sym ABSOLUTE
    LLM_EPTM_SeqRxIncrRxPkt                  0x00011c88   Data           0  QCA6174_SCAQBAFM.sym ABSOLUTE
    LLM_cmdSLC_StartSynchronizationTrain     0x00011c8c   Data           0  QCA6174_SCAQBAFM.sym ABSOLUTE
    LLM_SelectBestFitBasicRatePacketType     0x00011c90   Data           0  QCA6174_SCAQBAFM.sym ABSOLUTE
    LLM_SynchronizationTrainScan             0x00011c94   Data           0  QCA6174_SCAQBAFM.sym ABSOLUTE
    LLM_SyncTrainReceivedEvent               0x00011c98   Data           0  QCA6174_SCAQBAFM.sym ABSOLUTE
    LLM_cmdSLC_StartLinklessBroadcasts       0x00011c9c   Data           0  QCA6174_SCAQBAFM.sym ABSOLUTE
    LLM_LinklessBroadcastUpdateAfhMap        0x00011ca0   Data           0  QCA6174_SCAQBAFM.sym ABSOLUTE
    LLM_SyncTrainComplete                    0x00011ca4   Data           0  QCA6174_SCAQBAFM.sym ABSOLUTE
    LLM_WriteLinklessBroadcastData           0x00011ca8   Data           0  QCA6174_SCAQBAFM.sym ABSOLUTE
    LLM_cmdSLC_WriteSynchronizationTrainParameters 0x00011cac   Data           0  QCA6174_SCAQBAFM.sym ABSOLUTE
    LLM_cmdSLC_SetTriggeredClockCapture      0x00011cb0   Data           0  QCA6174_SCAQBAFM.sym ABSOLUTE
    LLM_ReserveLinklessLtAddr                0x00011cb4   Data           0  QCA6174_SCAQBAFM.sym ABSOLUTE
    LLM_SlavePageResponseTimeoutEvent        0x00011cb8   Data           0  QCA6174_SCAQBAFM.sym ABSOLUTE
    LLM_InquiryRspTxNotify                   0x00011cbc   Data           0  QCA6174_SCAQBAFM.sym ABSOLUTE
    LLM_TriggeredClockCaptureEvent           0x00011cc0   Data           0  QCA6174_SCAQBAFM.sym ABSOLUTE
    LLM_HandleAssociationEvent               0x00011cc4   Data           0  QCA6174_SCAQBAFM.sym ABSOLUTE
    LLM_cmdSLC_SetCCARecoveryMode            0x00011cc8   Data           0  QCA6174_SCAQBAFM.sym ABSOLUTE
    LLM_InitLinklessBC                       0x00011ccc   Data           0  QCA6174_SCAQBAFM.sym ABSOLUTE
    LLM_SyncTrainScanComplete                0x00011cd0   Data           0  QCA6174_SCAQBAFM.sym ABSOLUTE
    LLM_evalSyncTrainScanReqQ                0x00011cd4   Data           0  QCA6174_SCAQBAFM.sym ABSOLUTE
    PF_LC_putDefaultPacket                   0x00011cd8   Data           0  QCA6174_SCAQBAFM.sym ABSOLUTE
    PF_RM_RxAgcSetGainResetRssi              0x00011cdc   Data           0  QCA6174_SCAQBAFM.sym ABSOLUTE
    PF_RM_ReadRssi                           0x00011ce0   Data           0  QCA6174_SCAQBAFM.sym ABSOLUTE
    PF_RM_updateAverageRSSI                  0x00011ce4   Data           0  QCA6174_SCAQBAFM.sym ABSOLUTE
    PF_RM_RssiCalc                           0x00011ce8   Data           0  QCA6174_SCAQBAFM.sym ABSOLUTE
    PF_SLEEP_Idle                            0x00011cec   Data           0  QCA6174_SCAQBAFM.sym ABSOLUTE
    PF_TXP_Init                              0x00011cf0   Data           0  QCA6174_SCAQBAFM.sym ABSOLUTE
    PF_TXP_HostDataReady                     0x00011cf4   Data           0  QCA6174_SCAQBAFM.sym ABSOLUTE
    PF_TXP_HostDataReady_By_Type             0x00011cf8   Data           0  QCA6174_SCAQBAFM.sym ABSOLUTE
    PF_TXP_GetNextSerializedMsg              0x00011cfc   Data           0  QCA6174_SCAQBAFM.sym ABSOLUTE
    PF_TXP_GetNextSerializedMsg_By_Type      0x00011d00   Data           0  QCA6174_SCAQBAFM.sym ABSOLUTE
    PF_TXP_EventTxDone                       0x00011d04   Data           0  QCA6174_SCAQBAFM.sym ABSOLUTE
    SLC_AFH_HandleInstant                    0x00011d08   Data           0  QCA6174_SCAQBAFM.sym ABSOLUTE
    SLC_AFH_init                             0x00011d0c   Data           0  QCA6174_SCAQBAFM.sym ABSOLUTE
    SLC_AFH_reset                            0x00011d10   Data           0  QCA6174_SCAQBAFM.sym ABSOLUTE
    SLC_AFH_checkChanAssessmentIncomplete    0x00011d14   Data           0  QCA6174_SCAQBAFM.sym ABSOLUTE
    SLC_AFH_setHopChanAssessment             0x00011d18   Data           0  QCA6174_SCAQBAFM.sym ABSOLUTE
    SLC_AFH_setHopDualBCAChanAssessment      0x00011d1c   Data           0  QCA6174_SCAQBAFM.sym ABSOLUTE
    SLC_AFH_setupRxCmdChanAssessment         0x00011d20   Data           0  QCA6174_SCAQBAFM.sym ABSOLUTE
    SLC_AFH_completeDualBCAChanAssessment    0x00011d24   Data           0  QCA6174_SCAQBAFM.sym ABSOLUTE
    SLC_AFH_completeChanAssessment           0x00011d28   Data           0  QCA6174_SCAQBAFM.sym ABSOLUTE
    SLC_AFH_completeEBCAChanAssessment       0x00011d2c   Data           0  QCA6174_SCAQBAFM.sym ABSOLUTE
    SLC_AFH_updatePERMetrics                 0x00011d30   Data           0  QCA6174_SCAQBAFM.sym ABSOLUTE
    SLC_AFH_updatePERMetricsSCOError         0x00011d34   Data           0  QCA6174_SCAQBAFM.sym ABSOLUTE
    SLC_AFH_updatePERMetricsLE               0x00011d38   Data           0  QCA6174_SCAQBAFM.sym ABSOLUTE
    SLC_AclLT_Hlr                            0x00011d3c   Data           0  QCA6174_SCAQBAFM.sym ABSOLUTE
    SLC_initDUT                              0x00011d4c   Data           0  QCA6174_SCAQBAFM.sym ABSOLUTE
    SLC_resetTestBlock                       0x00011d50   Data           0  QCA6174_SCAQBAFM.sym ABSOLUTE
    SLC_testTerminateTestMode                0x00011d54   Data           0  QCA6174_SCAQBAFM.sym ABSOLUTE
    SLC_testConfigureModeSwitch              0x00011d58   Data           0  QCA6174_SCAQBAFM.sym ABSOLUTE
    SLC_testCreateTestPacket                 0x00011d5c   Data           0  QCA6174_SCAQBAFM.sym ABSOLUTE
    SLC_testgetBuffers                       0x00011d60   Data           0  QCA6174_SCAQBAFM.sym ABSOLUTE
    SLC_testFreeIcbbuffers                   0x00011d64   Data           0  QCA6174_SCAQBAFM.sym ABSOLUTE
    SLC_testGenPRBS9                         0x00011d68   Data           0  QCA6174_SCAQBAFM.sym ABSOLUTE
    SLC_testGetTestPattern                   0x00011d6c   Data           0  QCA6174_SCAQBAFM.sym ABSOLUTE
    SLC_dututils_patch_hook                  0x00011d70   Data           0  QCA6174_SCAQBAFM.sym ABSOLUTE
    SLC_resetDUT                             0x00011d74   Data           0  QCA6174_SCAQBAFM.sym ABSOLUTE
    SLC_EPTM_testParseControlMessage         0x00011d78   Data           0  QCA6174_SCAQBAFM.sym ABSOLUTE
    SLC_EPTM_testParseSeqControlMessage      0x00011d7c   Data           0  QCA6174_SCAQBAFM.sym ABSOLUTE
    SLC_EPTM_testParseNextSeqControlMessage  0x00011d80   Data           0  QCA6174_SCAQBAFM.sym ABSOLUTE
    SLC_testParseTestControlMessage          0x00011d84   Data           0  QCA6174_SCAQBAFM.sym ABSOLUTE
    SLC_testSetConfiguration                 0x00011d88   Data           0  QCA6174_SCAQBAFM.sym ABSOLUTE
    SLC_testTriggerCheck                     0x00011d8c   Data           0  QCA6174_SCAQBAFM.sym ABSOLUTE
    SLC_testWhitenMessage                    0x00011d90   Data           0  QCA6174_SCAQBAFM.sym ABSOLUTE
    SLC_TestTxLMP                            0x00011d94   Data           0  QCA6174_SCAQBAFM.sym ABSOLUTE
    SLC_TestTxData                           0x00011d98   Data           0  QCA6174_SCAQBAFM.sym ABSOLUTE
    SLC_TestTxLoopBack                       0x00011d9c   Data           0  QCA6174_SCAQBAFM.sym ABSOLUTE
    SLC_proc_xSCO_Frame_No_Rx                0x00011da0   Data           0  QCA6174_SCAQBAFM.sym ABSOLUTE
    SLC_Flush_getFlushClk                    0x00011da4   Data           0  QCA6174_SCAQBAFM.sym ABSOLUTE
    SLC_Flush_eval_Tx_FlushTimer             0x00011da8   Data           0  QCA6174_SCAQBAFM.sym ABSOLUTE
    SLC_Flush_procRx_ACL_U_ACK               0x00011dac   Data           0  QCA6174_SCAQBAFM.sym ABSOLUTE
    SLC_BB_Service_Rx_Update                 0x00011db0   Data           0  QCA6174_SCAQBAFM.sym ABSOLUTE
    SLC_HlrEnter_DUT                         0x00011db4   Data           0  QCA6174_SCAQBAFM.sym ABSOLUTE
    SLC_getRxPacketFLOW                      0x00011db8   Data           0  QCA6174_SCAQBAFM.sym ABSOLUTE
    SLC_getRxPayloadFLOW                     0x00011dbc   Data           0  QCA6174_SCAQBAFM.sym ABSOLUTE
    SLC_initRxFifoProcs                      0x00011dc0   Data           0  QCA6174_SCAQBAFM.sym ABSOLUTE
    SLC_MasterTrackingInit                   0x00011dc4   Data           0  QCA6174_SCAQBAFM.sym ABSOLUTE
    SLC_MasterTrackingCalc                   0x00011dc8   Data           0  QCA6174_SCAQBAFM.sym ABSOLUTE
    SLC_MasterTrackingApply                  0x00011dcc   Data           0  QCA6174_SCAQBAFM.sym ABSOLUTE
    SLC_BroadcastDelete                      0x00011dd0   Data           0  QCA6174_SCAQBAFM.sym ABSOLUTE
    SLC_procSlaveRxNonCrit                   0x00011dd4   Data           0  QCA6174_SCAQBAFM.sym ABSOLUTE
    SLC_FreeICB                              0x00011dd8   Data           0  QCA6174_SCAQBAFM.sym ABSOLUTE
    SLC_FreeLMP                              0x00011ddc   Data           0  QCA6174_SCAQBAFM.sym ABSOLUTE
    SLC_getNumMemBlk                         0x00011de0   Data           0  QCA6174_SCAQBAFM.sym ABSOLUTE
    SLC_procRxPayload_DUT                    0x00011de4   Data           0  QCA6174_SCAQBAFM.sym ABSOLUTE
    SLC_HlrRxProcHdr_EPTM                    0x00011de8   Data           0  QCA6174_SCAQBAFM.sym ABSOLUTE
    SLC_procRxPayload_EPTM_TEST              0x00011dec   Data           0  QCA6174_SCAQBAFM.sym ABSOLUTE
    SLC_extendedInquiryRxOk                  0x00011df0   Data           0  QCA6174_SCAQBAFM.sym ABSOLUTE
    SLC_putInquiryResults                    0x00011df4   Data           0  QCA6174_SCAQBAFM.sym ABSOLUTE
    SLC_allocExtendedInquiryResultEventMem   0x00011df8   Data           0  QCA6174_SCAQBAFM.sym ABSOLUTE
    SLC_extendedInquiryResponseOk            0x00011dfc   Data           0  QCA6174_SCAQBAFM.sym ABSOLUTE
    SLC_adjustPollingInterval                0x00011e00   Data           0  QCA6174_SCAQBAFM.sym ABSOLUTE
    SLC_HlrRxSetup_LE_SCAN                   0x00011e04   Data           0  QCA6174_SCAQBAFM.sym ABSOLUTE
    SLC_LE_CheckConnectAddress               0x00011e08   Data           0  QCA6174_SCAQBAFM.sym ABSOLUTE
    SLC_HlrRxProcNonRT_LE_SCAN               0x00011e0c   Data           0  QCA6174_SCAQBAFM.sym ABSOLUTE
    SLC_HlrEnter_LE_ADVERTISE                0x00011e10   Data           0  QCA6174_SCAQBAFM.sym ABSOLUTE
    SLC_HlrEnter_LE_CONN                     0x00011e14   Data           0  QCA6174_SCAQBAFM.sym ABSOLUTE
    SLC_LE_BuildIcb                          0x00011e18   Data           0  QCA6174_SCAQBAFM.sym ABSOLUTE
    SLC_HlrTxProc_LE_CONN_DataChan           0x00011e1c   Data           0  QCA6174_SCAQBAFM.sym ABSOLUTE
    SLC_RxProcHdr_LE_DataChannel             0x00011e20   Data           0  QCA6174_SCAQBAFM.sym ABSOLUTE
    SLC_LE_procRxPayload                     0x00011e24   Data           0  QCA6174_SCAQBAFM.sym ABSOLUTE
    SLC_HlrExit_LE_CONN_SLAVE                0x00011e28   Data           0  QCA6174_SCAQBAFM.sym ABSOLUTE
    SLC_HlrExit_LE_CONN_MASTER               0x00011e2c   Data           0  QCA6174_SCAQBAFM.sym ABSOLUTE
    SLC_LE_procRxPkt                         0x00011e30   Data           0  QCA6174_SCAQBAFM.sym ABSOLUTE
    SLC_evalRssiThreshold                    0x00011e34   Data           0  QCA6174_SCAQBAFM.sym ABSOLUTE
    SLC_LE_putAdvReportResults               0x00011e38   Data           0  QCA6174_SCAQBAFM.sym ABSOLUTE
    SLC_LE_procConnectReq                    0x00011e3c   Data           0  QCA6174_SCAQBAFM.sym ABSOLUTE
    SLC_LE_startConnSlave                    0x00011e40   Data           0  QCA6174_SCAQBAFM.sym ABSOLUTE
    SLC_LE_FreeCtrlPdu                       0x00011e44   Data           0  QCA6174_SCAQBAFM.sym ABSOLUTE
    SLC_LE_procRxPayload_TEST                0x00011e48   Data           0  QCA6174_SCAQBAFM.sym ABSOLUTE
    SLC_LE_evalMoreData                      0x00011e4c   Data           0  QCA6174_SCAQBAFM.sym ABSOLUTE
    SLC_LE_setupEncrypt                      0x00011e50   Data           0  QCA6174_SCAQBAFM.sym ABSOLUTE
    SLC_LE_addDeviceToScanRspList            0x00011e54   Data           0  QCA6174_SCAQBAFM.sym ABSOLUTE
    SLC_Hlr_LE_txSetup_NONE                  0x00011e58   Data           0  QCA6174_SCAQBAFM.sym ABSOLUTE
    SLC_LE_StopScanConnect                   0x00011e5c   Data           0  QCA6174_SCAQBAFM.sym ABSOLUTE
    SLC_FrameInt_patch_hook                  0x00011e60   Data           0  QCA6174_SCAQBAFM.sym ABSOLUTE
    SLC_Hlr                                  0x00011e64   Data           0  QCA6174_SCAQBAFM.sym ABSOLUTE
    SLC_HlrRx                                0x000125d4   Data           0  QCA6174_SCAQBAFM.sym ABSOLUTE
    SLC_Flush_getFlushInfo                   0x00012628   Data           0  QCA6174_SCAQBAFM.sym ABSOLUTE
    SLC_HlrEnter_DATA_SCAN                   0x0001262c   Data           0  QCA6174_SCAQBAFM.sym ABSOLUTE
    SLC_HlrRxSetup_DATA_SCAN                 0x00012630   Data           0  QCA6174_SCAQBAFM.sym ABSOLUTE
    SLC_HlrRxProcHdr_ACK                     0x00012634   Data           0  QCA6174_SCAQBAFM.sym ABSOLUTE
    SLC_MasterTrackingDriftCalc              0x00012638   Data           0  QCA6174_SCAQBAFM.sym ABSOLUTE
    SLC_BroadcastAdd                         0x0001263c   Data           0  QCA6174_SCAQBAFM.sym ABSOLUTE
    SLC_isValidMasterTxConn                  0x00012640   Data           0  QCA6174_SCAQBAFM.sym ABSOLUTE
    SLC_isValidSlaveTxConn                   0x00012644   Data           0  QCA6174_SCAQBAFM.sym ABSOLUTE
    SLC_UpdateHostDataPacketLength           0x00012648   Data           0  QCA6174_SCAQBAFM.sym ABSOLUTE
    SLC_CalcAclMaxRxMemBlocks                0x0001264c   Data           0  QCA6174_SCAQBAFM.sym ABSOLUTE
    SLC_LE_PreBuildIcb                       0x00012650   Data           0  QCA6174_SCAQBAFM.sym ABSOLUTE
    SLC_ScheduleNextInquiryScan              0x00012654   Data           0  QCA6174_SCAQBAFM.sym ABSOLUTE
    SLC_ScheduleNextPageScan                 0x00012658   Data           0  QCA6174_SCAQBAFM.sym ABSOLUTE
    SLC_ScheduleNextBCA                      0x0001265c   Data           0  QCA6174_SCAQBAFM.sym ABSOLUTE
    SLC_ScheduleNextSyncTrainScan            0x00012660   Data           0  QCA6174_SCAQBAFM.sym ABSOLUTE
    SLC_ScheduleAlohaBackoff                 0x00012664   Data           0  QCA6174_SCAQBAFM.sym ABSOLUTE
    SLC_ScheduleUpdatePagescanSuccess        0x00012668   Data           0  QCA6174_SCAQBAFM.sym ABSOLUTE
    SLC_ScheduleNextPiconet                  0x0001266c   Data           0  QCA6174_SCAQBAFM.sym ABSOLUTE
    SLC_CheckSleep                           0x00012670   Data           0  QCA6174_SCAQBAFM.sym ABSOLUTE
    SLC_LoadDefaultFrameContext              0x00012674   Data           0  QCA6174_SCAQBAFM.sym ABSOLUTE
    SLC_WriteZeroByteDM1NewIcb               0x00012678   Data           0  QCA6174_SCAQBAFM.sym ABSOLUTE
    SLC_buildPayloadFlowICB                  0x0001267c   Data           0  QCA6174_SCAQBAFM.sym ABSOLUTE
    SLC_Flush_ACL_U                          0x00012680   Data           0  QCA6174_SCAQBAFM.sym ABSOLUTE
    SLC_Flush_ProcessFlush                   0x00012684   Data           0  QCA6174_SCAQBAFM.sym ABSOLUTE
    SLC_SetPiconet                           0x00012688   Data           0  QCA6174_SCAQBAFM.sym ABSOLUTE
    SLC_Schedule_patch_hook                  0x0001268c   Data           0  QCA6174_SCAQBAFM.sym ABSOLUTE
    SLC_Scheduler                            0x00012690   Data           0  QCA6174_SCAQBAFM.sym ABSOLUTE
    SLC_FrameSetup                           0x00012694   Data           0  QCA6174_SCAQBAFM.sym ABSOLUTE
    SLC_Sleep                                0x00012698   Data           0  QCA6174_SCAQBAFM.sym ABSOLUTE
    SLC_Wakeup                               0x0001269c   Data           0  QCA6174_SCAQBAFM.sym ABSOLUTE
    SLC_WakeupPending                        0x000126a0   Data           0  QCA6174_SCAQBAFM.sym ABSOLUTE
    SLC_ScheduleACLData                      0x000126a4   Data           0  QCA6174_SCAQBAFM.sym ABSOLUTE
    SLC_ScheduleNextLE_Scan                  0x000126a8   Data           0  QCA6174_SCAQBAFM.sym ABSOLUTE
    SLC_Schedule_NextLE_Advertising          0x000126ac   Data           0  QCA6174_SCAQBAFM.sym ABSOLUTE
    SLC_connTaskProc                         0x000126b0   Data           0  QCA6174_SCAQBAFM.sym ABSOLUTE
    SLC_onConnHdrRx                          0x000126b4   Data           0  QCA6174_SCAQBAFM.sym ABSOLUTE
    SLC_initConnTask                         0x000126b8   Data           0  QCA6174_SCAQBAFM.sym ABSOLUTE
    SLC_onConnStateChanged                   0x000126bc   Data           0  QCA6174_SCAQBAFM.sym ABSOLUTE
    SLC_onConnPriorityChanged                0x000126c0   Data           0  QCA6174_SCAQBAFM.sym ABSOLUTE
    SLC_onBroadcastTxDone                    0x000126c4   Data           0  QCA6174_SCAQBAFM.sym ABSOLUTE
    SLC_ConnEvalScanWindow                   0x000126c8   Data           0  QCA6174_SCAQBAFM.sym ABSOLUTE
    SDB_InitData                             0x000126cc   Data           0  QCA6174_SCAQBAFM.sym ABSOLUTE
    SDB_InitConnection                       0x000126d0   Data           0  QCA6174_SCAQBAFM.sym ABSOLUTE
    SDB_InitActiveConnection                 0x000126d4   Data           0  QCA6174_SCAQBAFM.sym ABSOLUTE
    SDB_InitScoConnection                    0x000126d8   Data           0  QCA6174_SCAQBAFM.sym ABSOLUTE
    SDB_FreePiconet                          0x000126dc   Data           0  QCA6174_SCAQBAFM.sym ABSOLUTE
    SDB_PiconetBuildActiveMemberList         0x000126e0   Data           0  QCA6174_SCAQBAFM.sym ABSOLUTE
    SDB_TotalBuildActiveMemberList           0x000126e4   Data           0  QCA6174_SCAQBAFM.sym ABSOLUTE
    SDB_addBroadcastConnection               0x000126e8   Data           0  QCA6174_SCAQBAFM.sym ABSOLUTE
    SDB_20LogCalc                            0x000126ec   Data           0  QCA6174_SCAQBAFM.sym ABSOLUTE
    SDB_GetRssiDbm                           0x000126f0   Data           0  QCA6174_SCAQBAFM.sym ABSOLUTE
    SDB_calcWindowDrift                      0x000126f4   Data           0  QCA6174_SCAQBAFM.sym ABSOLUTE
    SDB_BCH                                  0x000126f8   Data           0  QCA6174_SCAQBAFM.sym ABSOLUTE
    SDB_calculateParityBits                  0x000126fc   Data           0  QCA6174_SCAQBAFM.sym ABSOLUTE
    SDB_CalculateAccessCode                  0x00012700   Data           0  QCA6174_SCAQBAFM.sym ABSOLUTE
    SDB_getPiconetClock                      0x00012704   Data           0  QCA6174_SCAQBAFM.sym ABSOLUTE
    SDB_GetRssiThresholdState                0x00012708   Data           0  QCA6174_SCAQBAFM.sym ABSOLUTE
    SDB_isLERssiDbmValid                     0x0001270c   Data           0  QCA6174_SCAQBAFM.sym ABSOLUTE
    SDB_SetLocalName                         0x00012710   Data           0  QCA6174_SCAQBAFM.sym ABSOLUTE
    SDB_InitializeHciDataTxPool              0x00012714   Data           0  QCA6174_SCAQBAFM.sym ABSOLUTE
    SDB_InitializeHciDataRxPool              0x00012718   Data           0  QCA6174_SCAQBAFM.sym ABSOLUTE
    SDB_InitializeHciLeDataTxPool            0x0001271c   Data           0  QCA6174_SCAQBAFM.sym ABSOLUTE
    SDB_ValidateRxBufferSize                 0x00012720   Data           0  QCA6174_SCAQBAFM.sym ABSOLUTE
    SDB_LE_InitConnection                    0x00012724   Data           0  QCA6174_SCAQBAFM.sym ABSOLUTE
    SDB_LE_initRandomDeviceAddr              0x00012728   Data           0  QCA6174_SCAQBAFM.sym ABSOLUTE
    SDB_LE_InitAdvertising                   0x0001272c   Data           0  QCA6174_SCAQBAFM.sym ABSOLUTE
    SDB_LE_InitScan                          0x00012730   Data           0  QCA6174_SCAQBAFM.sym ABSOLUTE
    SDB_addrListFreeList                     0x00012734   Data           0  QCA6174_SCAQBAFM.sym ABSOLUTE
    SDB_addrListFind                         0x00012738   Data           0  QCA6174_SCAQBAFM.sym ABSOLUTE
    SDB_uuidListFind                         0x0001273c   Data           0  QCA6174_SCAQBAFM.sym ABSOLUTE
    SDB_advPCFDataListFind                   0x00012740   Data           0  QCA6174_SCAQBAFM.sym ABSOLUTE
    SDB_findInIRKList                        0x00012744   Data           0  QCA6174_SCAQBAFM.sym ABSOLUTE
    SDB_LE_generateRandomAccessAddr          0x00012748   Data           0  QCA6174_SCAQBAFM.sym ABSOLUTE
    SDB_LE_accessAddrVerifyConsecutive       0x0001274c   Data           0  QCA6174_SCAQBAFM.sym ABSOLUTE
    SDB_LE_accessAddrVerifyAdvHammingDist    0x00012750   Data           0  QCA6174_SCAQBAFM.sym ABSOLUTE
    SDB_LE_accessAddrVerifyDiffBytes         0x00012754   Data           0  QCA6174_SCAQBAFM.sym ABSOLUTE
    SDB_LE_accessAddrCountTransitions        0x00012758   Data           0  QCA6174_SCAQBAFM.sym ABSOLUTE
    SDB_LE_accessAddrVerifyMaxTransitions    0x0001275c   Data           0  QCA6174_SCAQBAFM.sym ABSOLUTE
    SDB_LE_accessAddrVerifyMinTransitions    0x00012760   Data           0  QCA6174_SCAQBAFM.sym ABSOLUTE
    SDB_LE_accessAddrVerifyHammingDist       0x00012764   Data           0  QCA6174_SCAQBAFM.sym ABSOLUTE
    SDB_LE_accessAddrVerify                  0x00012768   Data           0  QCA6174_SCAQBAFM.sym ABSOLUTE
    SDB_LE_buildAdvChannelIndexList          0x0001276c   Data           0  QCA6174_SCAQBAFM.sym ABSOLUTE
    SDB_allocateBroadcastConnection          0x00012770   Data           0  QCA6174_SCAQBAFM.sym ABSOLUTE
    SDB_parseHCI_VoiceSettings               0x00012774   Data           0  QCA6174_SCAQBAFM.sym ABSOLUTE
    SDB_parseHCI_EnhancedVoiceSettings       0x00012778   Data           0  QCA6174_SCAQBAFM.sym ABSOLUTE
    SDB_buildHCI_VoiceSettings               0x0001277c   Data           0  QCA6174_SCAQBAFM.sym ABSOLUTE
    SDB_calcScanACparam                      0x00012780   Data           0  QCA6174_SCAQBAFM.sym ABSOLUTE
    SDB_MasterPiconetSetPolls                0x00012784   Data           0  QCA6174_SCAQBAFM.sym ABSOLUTE
    SDB_BroadcastTxDelete                    0x00012788   Data           0  QCA6174_SCAQBAFM.sym ABSOLUTE
    SDB_BroadcastTxAdd                       0x0001278c   Data           0  QCA6174_SCAQBAFM.sym ABSOLUTE
    SDB_Wakeup                               0x00012790   Data           0  QCA6174_SCAQBAFM.sym ABSOLUTE
    SDB_ReadStoredLinkKey                    0x00012794   Data           0  QCA6174_SCAQBAFM.sym ABSOLUTE
    SDB_WriteStoredLinkKey                   0x00012798   Data           0  QCA6174_SCAQBAFM.sym ABSOLUTE
    SDB_InitPollTimer                        0x0001279c   Data           0  QCA6174_SCAQBAFM.sym ABSOLUTE
    SDB_addClock16_12Offset                  0x000127a0   Data           0  QCA6174_SCAQBAFM.sym ABSOLUTE
    SDB_getNativeClock                       0x000127a4   Data           0  QCA6174_SCAQBAFM.sym ABSOLUTE
    SDB_getTimingControlFlag                 0x000127a8   Data           0  QCA6174_SCAQBAFM.sym ABSOLUTE
    SDB_getSlotOffset                        0x000127ac   Data           0  QCA6174_SCAQBAFM.sym ABSOLUTE
    SDB_updateRSSI_Thresholds                0x000127b0   Data           0  QCA6174_SCAQBAFM.sym ABSOLUTE
    SDB_InitializeHciDataPools               0x000127b4   Data           0  QCA6174_SCAQBAFM.sym ABSOLUTE
    SDB_HTON_ACLpacketTypes                  0x000127b8   Data           0  QCA6174_SCAQBAFM.sym ABSOLUTE
    SDB_LE_computeConnectionMaxFrameCount    0x000127bc   Data           0  QCA6174_SCAQBAFM.sym ABSOLUTE
    SDB_LE_copyConnParams                    0x000127c0   Data           0  QCA6174_SCAQBAFM.sym ABSOLUTE
    SDB_addrListCreateList                   0x000127c4   Data           0  QCA6174_SCAQBAFM.sym ABSOLUTE
    SDB_addrListAdd                          0x000127c8   Data           0  QCA6174_SCAQBAFM.sym ABSOLUTE
    SDB_addrListClear                        0x000127cc   Data           0  QCA6174_SCAQBAFM.sym ABSOLUTE
    SDB_addrListRemove                       0x000127d0   Data           0  QCA6174_SCAQBAFM.sym ABSOLUTE
    SDB_uuidListClear                        0x000127d4   Data           0  QCA6174_SCAQBAFM.sym ABSOLUTE
    SDB_uuidListAdd                          0x000127d8   Data           0  QCA6174_SCAQBAFM.sym ABSOLUTE
    SDB_uuidListRemove                       0x000127dc   Data           0  QCA6174_SCAQBAFM.sym ABSOLUTE
    SDB_advPCFDataListClear                  0x000127e0   Data           0  QCA6174_SCAQBAFM.sym ABSOLUTE
    SDB_advPCFDataListAdd                    0x000127e4   Data           0  QCA6174_SCAQBAFM.sym ABSOLUTE
    SDB_advPCFDataListRemove                 0x000127e8   Data           0  QCA6174_SCAQBAFM.sym ABSOLUTE
    SDB_LE_getAccessAddress                  0x000127ec   Data           0  QCA6174_SCAQBAFM.sym ABSOLUTE
    SDB_LE_getNextAdvChannelIndex            0x000127f0   Data           0  QCA6174_SCAQBAFM.sym ABSOLUTE
    SDB_CCM_initDayCounter                   0x000127f4   Data           0  QCA6174_SCAQBAFM.sym ABSOLUTE
    SDB_CCM_updateDayCounter                 0x000127f8   Data           0  QCA6174_SCAQBAFM.sym ABSOLUTE
    PM_SetPowerModeWithOverride              0x000127fc   Data           0  QCA6174_SCAQBAFM.sym ABSOLUTE
    PM_GetPowerModeSleepEnabled              0x00012800   Data           0  QCA6174_SCAQBAFM.sym ABSOLUTE
    PM_WCNXOGetConfig                        0x00012804   Data           0  QCA6174_SCAQBAFM.sym ABSOLUTE
    SendHciCommandToHciTrans                 0x00012808   Data           0  QCA6174_SCAQBAFM.sym ABSOLUTE
    SendHciAclDataToHciTrans                 0x0001280c   Data           0  QCA6174_SCAQBAFM.sym ABSOLUTE
    Router_RemoveHciEvtFromHcitrans          0x00012810   Data           0  QCA6174_SCAQBAFM.sym ABSOLUTE
    Router_RemoveAclDataFromHcitrans         0x00012814   Data           0  QCA6174_SCAQBAFM.sym ABSOLUTE
    Router_InsertHciCmdToHcitrans            0x00012818   Data           0  QCA6174_SCAQBAFM.sym ABSOLUTE
    Router_InsertAclDataToHcitrans           0x0001281c   Data           0  QCA6174_SCAQBAFM.sym ABSOLUTE
    AthHciTransProcess                       0x00012820   Data           0  QCA6174_SCAQBAFM.sym ABSOLUTE
    ReceiveHciEventFromHciTrans              0x00012824   Data           0  QCA6174_SCAQBAFM.sym ABSOLUTE
    ReceiveAclDataFromHciTrans               0x00012828   Data           0  QCA6174_SCAQBAFM.sym ABSOLUTE
    Bth_RouterInit                           0x0001282c   Data           0  QCA6174_SCAQBAFM.sym ABSOLUTE
    Bth_RouterDeinit                         0x00012830   Data           0  QCA6174_SCAQBAFM.sym ABSOLUTE
    Ath_EVM_Process                          0x00012834   Data           0  QCA6174_SCAQBAFM.sym ABSOLUTE
    BthFlushHciCommandAclData                0x00012838   Data           0  QCA6174_SCAQBAFM.sym ABSOLUTE
    WIP_PRU_SystemReady                      0x0001283c   Data           0  QCA6174_SCAQBAFM.sym ABSOLUTE
    WIP_PRU_SystemShutDown                   0x00012840   Data           0  QCA6174_SCAQBAFM.sym ABSOLUTE
    WIP_PRU_PeriodicTask                     0x00012844   Data           0  QCA6174_SCAQBAFM.sym ABSOLUTE
    A4WP_HandleDataUpdateEvent               0x00012848   Data           0  QCA6174_SCAQBAFM.sym ABSOLUTE
    A4WP_HandleAlertNotifyEvent              0x0001284c   Data           0  QCA6174_SCAQBAFM.sym ABSOLUTE
    A4WP_HandlePowerApplyEvent               0x00012850   Data           0  QCA6174_SCAQBAFM.sym ABSOLUTE
    WIP_PRU_A4WP_ProcessEvents               0x00012854   Data           0  QCA6174_SCAQBAFM.sym ABSOLUTE
    WIP_init                                 0x00012858   Data           0  QCA6174_SCAQBAFM.sym ABSOLUTE
    WIP_init_module                          0x0001285c   Data           0  QCA6174_SCAQBAFM.sym ABSOLUTE
    WIP_SystemReady                          0x00012860   Data           0  QCA6174_SCAQBAFM.sym ABSOLUTE
    WIP_ProcE_LE_STACK                       0x00012864   Data           0  QCA6174_SCAQBAFM.sym ABSOLUTE
    WIP_ProcE_VTXP_PACKET_TO_LE_STACK_READY  0x00012868   Data           0  QCA6174_SCAQBAFM.sym ABSOLUTE
    WIP_ProcE_DBG_LOG_DATA_READY             0x0001286c   Data           0  QCA6174_SCAQBAFM.sym ABSOLUTE
    BKGD_ProcE_APP_RESOURCE_CLEANUP          0x00012870   Data           0  QCA6174_SCAQBAFM.sym ABSOLUTE
    PFAL_DMR_Init                            0x00012874   Data           0  QCA6174_SCAQBAFM.sym ABSOLUTE
    PFAL_DMR_UpdateChannelAvoidenceSettings  0x00012878   Data           0  QCA6174_SCAQBAFM.sym ABSOLUTE
    LLM_ProcE_UPDATE_CHAN_MAP_UBC            0x0001287c   Data           0  QCA6174_SCAQBAFM.sym ABSOLUTE
    PFAL_DMR_SlaveRxSetupFunc                0x00012880   Data           0  QCA6174_SCAQBAFM.sym ABSOLUTE
    PFAL_COEX_MCI_RECOVER                    0x00012884   Data           0  QCA6174_SCAQBAFM.sym ABSOLUTE
    MCI_Send_Msg                             0x00012888   Data           0  QCA6174_SCAQBAFM.sym ABSOLUTE
    MCI_BusRecoverySequence                  0x0001288c   Data           0  QCA6174_SCAQBAFM.sym ABSOLUTE
    PFAL_COEX_MCI_Wake_Remote                0x00012890   Data           0  QCA6174_SCAQBAFM.sym ABSOLUTE
    MCI_Poll_Remote_Sleep_State              0x00012894   Data           0  QCA6174_SCAQBAFM.sym ABSOLUTE
    MCI_Set_Remote_Sleep                     0x00012898   Data           0  QCA6174_SCAQBAFM.sym ABSOLUTE
    MCI_Set_Remote_Awake                     0x0001289c   Data           0  QCA6174_SCAQBAFM.sym ABSOLUTE
    MCI_Remote_Sleeping_Int_Handle           0x000128a0   Data           0  QCA6174_SCAQBAFM.sym ABSOLUTE
    MCI_Remote_Waking_Int_Handle             0x000128a4   Data           0  QCA6174_SCAQBAFM.sym ABSOLUTE
    MCI_Remote_Req_wake_Int_Handle           0x000128a8   Data           0  QCA6174_SCAQBAFM.sym ABSOLUTE
    MCI_Notify_Local_Status                  0x000128ac   Data           0  QCA6174_SCAQBAFM.sym ABSOLUTE
    PFAL_COEX_Update_Command10               0x000128b0   Data           0  QCA6174_SCAQBAFM.sym ABSOLUTE
    PFAL_COEX_CONT_NACK_Abort                0x000128b4   Data           0  QCA6174_SCAQBAFM.sym ABSOLUTE
    MCI_Message_Done_Int_Handler             0x000128b8   Data           0  QCA6174_SCAQBAFM.sym ABSOLUTE
    MCI_CONTSetRfInfo                        0x000128bc   Data           0  QCA6174_SCAQBAFM.sym ABSOLUTE
    PFAL_COEX_MCI_Init_Pfal_Part2            0x000128c0   Data           0  QCA6174_SCAQBAFM.sym ABSOLUTE
    PFAL_COEX_MCI_Init_Pfal_Part1            0x000128c4   Data           0  QCA6174_SCAQBAFM.sym ABSOLUTE
    PFAL_COEX_MCI_Init_procedure             0x000128c8   Data           0  QCA6174_SCAQBAFM.sym ABSOLUTE
    PFAL_COEX_MCI_Bootup_Sequence            0x000128cc   Data           0  QCA6174_SCAQBAFM.sym ABSOLUTE
    PFAL_COEX_MCI_POWER_Isr                  0x000128d0   Data           0  QCA6174_SCAQBAFM.sym ABSOLUTE
    PFAL_COEX_MCI_Isr                        0x000128d4   Data           0  QCA6174_SCAQBAFM.sym ABSOLUTE
    MCI_Get_Remote_Sleep_State               0x000128d8   Data           0  QCA6174_SCAQBAFM.sym ABSOLUTE
    MCI_Local_Sleeping_Handle                0x000128dc   Data           0  QCA6174_SCAQBAFM.sym ABSOLUTE
    MCI_Local_Waking_Handle                  0x000128e0   Data           0  QCA6174_SCAQBAFM.sym ABSOLUTE
    PFAL_COEX_MCI_InitConninfo               0x000128e4   Data           0  QCA6174_SCAQBAFM.sym ABSOLUTE
    PFAL_COEX_MCI_BT_Add_Handle              0x000128e8   Data           0  QCA6174_SCAQBAFM.sym ABSOLUTE
    PFAL_COEX_MCI_BT_Remove_Profile_From_Node 0x000128ec   Data           0  QCA6174_SCAQBAFM.sym ABSOLUTE
    PFAL_COEX_MCI_Get_SCOConn                0x000128f0   Data           0  QCA6174_SCAQBAFM.sym ABSOLUTE
    MCI_IS_SCO_CONN                          0x000128f4   Data           0  QCA6174_SCAQBAFM.sym ABSOLUTE
    MCI_IS_ESCO_CONN                         0x000128f8   Data           0  QCA6174_SCAQBAFM.sym ABSOLUTE
    MCI_GET_LINKID_CONN                      0x000128fc   Data           0  QCA6174_SCAQBAFM.sym ABSOLUTE
    mci_bt_conn_info                         0x00012900   Data           0  QCA6174_SCAQBAFM.sym ABSOLUTE
    PFAL_COEX_MCI_BT_Remove_Handle           0x00012af0   Data           0  QCA6174_SCAQBAFM.sym ABSOLUTE
    PFAL_COEX_MCI_BT_Update_LinkStatus       0x00012af4   Data           0  QCA6174_SCAQBAFM.sym ABSOLUTE
    PFAL_COEX_MCI_BT_ADD_Profile             0x00012af8   Data           0  QCA6174_SCAQBAFM.sym ABSOLUTE
    PFAL_COEX_MCI_BT_Remove_Profile          0x00012afc   Data           0  QCA6174_SCAQBAFM.sym ABSOLUTE
    MCI_IS_SNIFF_MODE                        0x00012b00   Data           0  QCA6174_SCAQBAFM.sym ABSOLUTE
    PTF_ConvertDeltaTimeStamp_toUS           0x00012b04   Data           0  QCA6174_SCAQBAFM.sym ABSOLUTE
    MCI_GETCONNPROFILE                       0x00012b08   Data           0  QCA6174_SCAQBAFM.sym ABSOLUTE
    PFAL_COEX_MCI_Latch_CurrCLK              0x00012b0c   Data           0  QCA6174_SCAQBAFM.sym ABSOLUTE
    MCI_Get_Starttime                        0x00012b10   Data           0  QCA6174_SCAQBAFM.sym ABSOLUTE
    MCI_Schd_Calc_Packet_Len                 0x00012b14   Data           0  QCA6174_SCAQBAFM.sym ABSOLUTE
    MCI_Schd_Conn_Calc_Packet_Len            0x00012b18   Data           0  QCA6174_SCAQBAFM.sym ABSOLUTE
    MCI_init                                 0x00012b1c   Data           0  QCA6174_SCAQBAFM.sym ABSOLUTE
    MCI_SystemReady                          0x00012b20   Data           0  QCA6174_SCAQBAFM.sym ABSOLUTE
    MCI_PreReset                             0x00012b24   Data           0  QCA6174_SCAQBAFM.sym ABSOLUTE
    MCI_Reset                                0x00012b28   Data           0  QCA6174_SCAQBAFM.sym ABSOLUTE
    MCI_ProcE_REQ_WAKE_MSG                   0x00012b2c   Data           0  QCA6174_SCAQBAFM.sym ABSOLUTE
    MCI_ProcE_REMOTE_RESET                   0x00012b30   Data           0  QCA6174_SCAQBAFM.sym ABSOLUTE
    MCI_ProcE_REMOTE_VOICE_UPDATE            0x00012b34   Data           0  QCA6174_SCAQBAFM.sym ABSOLUTE
    MCI_ProcE_REMOTE_SNIFF_UPDATE            0x00012b38   Data           0  QCA6174_SCAQBAFM.sym ABSOLUTE
    MCI_ProcE_REMOTE_DEVICE_WAKE             0x00012b3c   Data           0  QCA6174_SCAQBAFM.sym ABSOLUTE
    MCI_ProcE_LOCAL_DEVICE_WAKE              0x00012b40   Data           0  QCA6174_SCAQBAFM.sym ABSOLUTE
    MCI_ProcE_MSG_INVALID                    0x00012b44   Data           0  QCA6174_SCAQBAFM.sym ABSOLUTE
    MCI_ProcE_MCI_CAL_NOTIFY_ON              0x00012b48   Data           0  QCA6174_SCAQBAFM.sym ABSOLUTE
    MCI_ProcE_MCI_CAL_NOTIFY_OFF             0x00012b4c   Data           0  QCA6174_SCAQBAFM.sym ABSOLUTE
    MCI_ProcE_MCI_RECOVERY_ON                0x00012b50   Data           0  QCA6174_SCAQBAFM.sym ABSOLUTE
    MCI_ProcE_MCI_RECOVERY_OFF               0x00012b54   Data           0  QCA6174_SCAQBAFM.sym ABSOLUTE
    MCI_ProcE_MCI_XSCO_SCHED_PREDICTION      0x00012b58   Data           0  QCA6174_SCAQBAFM.sym ABSOLUTE
    MCI_ProcE_MCI_SNIFF_SCHED_PREDICTION     0x00012b5c   Data           0  QCA6174_SCAQBAFM.sym ABSOLUTE
    MCI_ProcE_MCI_SCHED_MSG_TRIGGER_GPM      0x00012b60   Data           0  QCA6174_SCAQBAFM.sym ABSOLUTE
    MCI_ProcE_MCI_RESERVED                   0x00012b64   Data           0  QCA6174_SCAQBAFM.sym ABSOLUTE
    PFLA_COEX_MWS_enable                     0x00012b68   Data           0  QCA6174_SCAQBAFM.sym ABSOLUTE
    PFAL_COEX_MWS_HW_reset                   0x00012b6c   Data           0  QCA6174_SCAQBAFM.sym ABSOLUTE
    PFAL_COEX_MWS_2WIRE_BaudClk_Config       0x00012b70   Data           0  QCA6174_SCAQBAFM.sym ABSOLUTE
    PFAL_COEX_MWS_2WIRE_Tdm_Txfifo_Config    0x00012b74   Data           0  QCA6174_SCAQBAFM.sym ABSOLUTE
    PFAL_COEX_MWS_2WIRE_Tdm_Txfifo_Depth_Get 0x00012b78   Data           0  QCA6174_SCAQBAFM.sym ABSOLUTE
    PFAL_COEX_MWS_2WIRE_Tdm_Txfifo_Aept_Thr_Get 0x00012b7c   Data           0  QCA6174_SCAQBAFM.sym ABSOLUTE
    PFAL_COEX_MWS_2WIRE_Tdm_Rxfifo_Config    0x00012b80   Data           0  QCA6174_SCAQBAFM.sym ABSOLUTE
    PFAL_COEX_MWS_2WIRE_Tdm_Rxfifo_Depth_Get 0x00012b84   Data           0  QCA6174_SCAQBAFM.sym ABSOLUTE
    PFAL_COEX_MWS_2WIRE_Tdm_Rx_Mask          0x00012b88   Data           0  QCA6174_SCAQBAFM.sym ABSOLUTE
    PFAL_COEX_MWS_2WIRE_TDM_Txfifopush       0x00012b8c   Data           0  QCA6174_SCAQBAFM.sym ABSOLUTE
    PFAL_COEX_MWS_2WIRE_TDM_TxfifopushStr    0x00012b90   Data           0  QCA6174_SCAQBAFM.sym ABSOLUTE
    PFAL_COEX_MWS_2WIRE_TDM_Rxfifopop        0x00012b94   Data           0  QCA6174_SCAQBAFM.sym ABSOLUTE
    PFAL_COEX_MWS_2WIRE_TDM_Rxfifo_PopStr    0x00012b98   Data           0  QCA6174_SCAQBAFM.sym ABSOLUTE
    PFAL_COEX_MWS_2WIRE_TDM_Txfifopop        0x00012b9c   Data           0  QCA6174_SCAQBAFM.sym ABSOLUTE
    PFAL_COEX_MWS_2WIRE_DirectMsg_Send       0x00012ba0   Data           0  QCA6174_SCAQBAFM.sym ABSOLUTE
    PFAL_COEX_MWS_2WIRE_Type0_MSG_Content    0x00012ba4   Data           0  QCA6174_SCAQBAFM.sym ABSOLUTE
    FFAL_COEX_MWS_2WIRE_Rx_Type0_Latch       0x00012ba8   Data           0  QCA6174_SCAQBAFM.sym ABSOLUTE
    PFAL_COEX_MWS_2WIRE_Type1_MSG_Content    0x00012bac   Data           0  QCA6174_SCAQBAFM.sym ABSOLUTE
    FFAL_COEX_MWS_2WIRE_Rx_Type1_Latch       0x00012bb0   Data           0  QCA6174_SCAQBAFM.sym ABSOLUTE
    PFAL_COEX_MWS_2WIRE_Type3_MSG_Content    0x00012bb4   Data           0  QCA6174_SCAQBAFM.sym ABSOLUTE
    FFAL_COEX_MWS_2WIRE_Rx_Type3_Latch       0x00012bb8   Data           0  QCA6174_SCAQBAFM.sym ABSOLUTE
    PFAL_COEX_MWS_2WIRE_Type4_MSG_Content    0x00012bbc   Data           0  QCA6174_SCAQBAFM.sym ABSOLUTE
    FFAL_COEX_MWS_2WIRE_Rx_Type4_Latch       0x00012bc0   Data           0  QCA6174_SCAQBAFM.sym ABSOLUTE
    PFAL_COEX_MWS_2WIRE_Type5_MSG_Content    0x00012bc4   Data           0  QCA6174_SCAQBAFM.sym ABSOLUTE
    FFAL_COEX_MWS_2WIRE_Rx_Type5_Latch       0x00012bc8   Data           0  QCA6174_SCAQBAFM.sym ABSOLUTE
    PFAL_COEX_MWS_2WIRE_Type6_MSG_Content    0x00012bcc   Data           0  QCA6174_SCAQBAFM.sym ABSOLUTE
    FFAL_COEX_MWS_2WIRE_Rx_Type6_Latch       0x00012bd0   Data           0  QCA6174_SCAQBAFM.sym ABSOLUTE
    PFAL_COEX_MWS_2WIRE_Type7_MSG_Content    0x00012bd4   Data           0  QCA6174_SCAQBAFM.sym ABSOLUTE
    FFAL_COEX_MWS_2WIRE_Rx_Type7_Latch       0x00012bd8   Data           0  QCA6174_SCAQBAFM.sym ABSOLUTE
    PFAL_COEX_MWS_2WIRE_TCM_Send             0x00012bdc   Data           0  QCA6174_SCAQBAFM.sym ABSOLUTE
    PFAL_COEX_MWS_2WIRE_Reset                0x00012be0   Data           0  QCA6174_SCAQBAFM.sym ABSOLUTE
    PFAL_COEX_MWS_3WIRE_Reset                0x00012be4   Data           0  QCA6174_SCAQBAFM.sym ABSOLUTE
    PFAL_COEX_MWS_WBCNT_Fsync_Re_Latch       0x00012be8   Data           0  QCA6174_SCAQBAFM.sym ABSOLUTE
    PFAL_COEX_MWS_WBCNT_Active_Re_Latch      0x00012bec   Data           0  QCA6174_SCAQBAFM.sym ABSOLUTE
    PFAL_COEX_MWS_WBCNT_Active_Fe_Latch      0x00012bf0   Data           0  QCA6174_SCAQBAFM.sym ABSOLUTE
    PFAL_COEX_MWS_WBCNT_Tx_Re_Latch          0x00012bf4   Data           0  QCA6174_SCAQBAFM.sym ABSOLUTE
    PFAL_COEX_MWS_WBCNT_Tx_Fe_Latch          0x00012bf8   Data           0  QCA6174_SCAQBAFM.sym ABSOLUTE
    PFAL_COEX_MWS_WBCNT_Rx_Re_Latch          0x00012bfc   Data           0  QCA6174_SCAQBAFM.sym ABSOLUTE
    PFAL_COEX_MWS_WBCNT_Rx_Fe_Latch          0x00012c00   Data           0  QCA6174_SCAQBAFM.sym ABSOLUTE
    PFAL_COEX_MWS_Tx_Mask                    0x00012c04   Data           0  QCA6174_SCAQBAFM.sym ABSOLUTE
    PFAL_COEX_MWS_Intf_Config                0x00012c08   Data           0  QCA6174_SCAQBAFM.sym ABSOLUTE
    PFAL_COEX_MWS_Intr_Enable                0x00012c0c   Data           0  QCA6174_SCAQBAFM.sym ABSOLUTE
    PFAL_COEX_MWS_CXM_Intr_Status_Get        0x00012c10   Data           0  QCA6174_SCAQBAFM.sym ABSOLUTE
    PFAL_COEX_MWS_CXM_Intr_Status_Clear      0x00012c14   Data           0  QCA6174_SCAQBAFM.sym ABSOLUTE
    PFAL_COEX_MWS_Rxprio_Config              0x00012c18   Data           0  QCA6174_SCAQBAFM.sym ABSOLUTE
    PFAL_COEX_MWS_Calc_IRQMask               0x00012c1c   Data           0  QCA6174_SCAQBAFM.sym ABSOLUTE
    PFAL_COEX_MWS_Init                       0x00012c20   Data           0  QCA6174_SCAQBAFM.sym ABSOLUTE
    PFAL_COEX_MWS_Proc_BT_Status             0x00012c24   Data           0  QCA6174_SCAQBAFM.sym ABSOLUTE
    PFAL_COEX_MWS_Timer0_Conifg              0x00012c28   Data           0  QCA6174_SCAQBAFM.sym ABSOLUTE
    PFAL_COEX_MWS_Timer2_Conifg              0x00012c2c   Data           0  QCA6174_SCAQBAFM.sym ABSOLUTE
    PFAL_COEX_MWS_IRQ_Handler                0x00012c30   Data           0  QCA6174_SCAQBAFM.sym ABSOLUTE
    PFAL_IM_BT_CXM_INT_Handler               0x00012c34   Data           0  QCA6174_SCAQBAFM.sym ABSOLUTE
    PFAL_COEX_MWS_Connect                    0x00012c38   Data           0  QCA6174_SCAQBAFM.sym ABSOLUTE
    PFAL_COEX_MWS_Latch_CurrCLK              0x00012c3c   Data           0  QCA6174_SCAQBAFM.sym ABSOLUTE
    PFAL_COEX_MWS_2WIRE_MIDM_Test            0x00012c40   Data           0  QCA6174_SCAQBAFM.sym ABSOLUTE
    PFAL_COEX_MWS_2WIRE_MSFM_Test            0x00012c44   Data           0  QCA6174_SCAQBAFM.sym ABSOLUTE
    PFAL_COEX_MWS_2WIRE_Type5_Test           0x00012c48   Data           0  QCA6174_SCAQBAFM.sym ABSOLUTE
    PFAL_COEX_MWS_2WIRE_Type6_Test           0x00012c4c   Data           0  QCA6174_SCAQBAFM.sym ABSOLUTE
    PFAL_COEX_MWS_2WIRE_Type7_Test           0x00012c50   Data           0  QCA6174_SCAQBAFM.sym ABSOLUTE
    PFAL_COEX_MWS_RTSM_Send_Test             0x00012c54   Data           0  QCA6174_SCAQBAFM.sym ABSOLUTE
    PFAL_COEX_MWS_3WIRE_Active_RE_Test       0x00012c58   Data           0  QCA6174_SCAQBAFM.sym ABSOLUTE
    PFAL_COEX_MWS_3WIRE_Active_FE_Test       0x00012c5c   Data           0  QCA6174_SCAQBAFM.sym ABSOLUTE
    PFAL_COEX_MWS_3WIRE_FSync_Test           0x00012c60   Data           0  QCA6174_SCAQBAFM.sym ABSOLUTE
    MWSIRQTable_2WIRE                        0x00012c64   Data           0  QCA6174_SCAQBAFM.sym ABSOLUTE
    MWSIRQTable_3WIRE                        0x00012df0   Data           0  QCA6174_SCAQBAFM.sym ABSOLUTE
    PFAL_COEX_MWS_Wake_Up                    0x00012e74   Data           0  QCA6174_SCAQBAFM.sym ABSOLUTE
    MWS_init                                 0x00012e78   Data           0  QCA6174_SCAQBAFM.sym ABSOLUTE
    MWS_SystemReady                          0x00012e7c   Data           0  QCA6174_SCAQBAFM.sym ABSOLUTE
    MWS_PreReset                             0x00012e80   Data           0  QCA6174_SCAQBAFM.sym ABSOLUTE
    MWS_Reset                                0x00012e84   Data           0  QCA6174_SCAQBAFM.sym ABSOLUTE
    MWS_ProcQ_QMI_TX_BUFFER                  0x00012e88   Data           0  QCA6174_SCAQBAFM.sym ABSOLUTE
    MWS_ProcQ_QMI_RX_BUFFER                  0x00012e8c   Data           0  QCA6174_SCAQBAFM.sym ABSOLUTE
    MWS_ProcE_ROLE_SWITCH_START              0x00012e90   Data           0  QCA6174_SCAQBAFM.sym ABSOLUTE
    MWS_ProcE_ROLE_SWITCH_SUCC               0x00012e94   Data           0  QCA6174_SCAQBAFM.sym ABSOLUTE
    MWS_ProcE_ROLE_SWITCH_FAIL               0x00012e98   Data           0  QCA6174_SCAQBAFM.sym ABSOLUTE
    MWS_ProcE_MWS_AWAKE                      0x00012e9c   Data           0  QCA6174_SCAQBAFM.sym ABSOLUTE
    qmi_idl_next_element                     0x00012ea0   Data           0  QCA6174_SCAQBAFM.sym ABSOLUTE
    qmi_idl_find_msg                         0x00012ea4   Data           0  QCA6174_SCAQBAFM.sym ABSOLUTE
    qmi_idl_decode_find_tlv                  0x00012ea8   Data           0  QCA6174_SCAQBAFM.sym ABSOLUTE
    qmi_idl_decode_verify_mandatory          0x00012eac   Data           0  QCA6174_SCAQBAFM.sym ABSOLUTE
    qmi_idl_encode_length                    0x00012eb0   Data           0  QCA6174_SCAQBAFM.sym ABSOLUTE
    qmi_idl_decode_element                   0x00012eb4   Data           0  QCA6174_SCAQBAFM.sym ABSOLUTE
    qmi_idl_message_decode_v6                0x00012eb8   Data           0  QCA6174_SCAQBAFM.sym ABSOLUTE
    qmi_idl_encode_element                   0x00012ebc   Data           0  QCA6174_SCAQBAFM.sym ABSOLUTE
    qmi_idl_message_encode_v6                0x00012ec0   Data           0  QCA6174_SCAQBAFM.sym ABSOLUTE
    qmi_idl_message_decode                   0x00012ec4   Data           0  QCA6174_SCAQBAFM.sym ABSOLUTE
    qmi_idl_message_encode                   0x00012ec8   Data           0  QCA6174_SCAQBAFM.sym ABSOLUTE
    wci2_encode_header                       0x00012ecc   Data           0  QCA6174_SCAQBAFM.sym ABSOLUTE
    wci2_type2_frame_and_send_msg            0x00012ed0   Data           0  QCA6174_SCAQBAFM.sym ABSOLUTE
    wci2_decode_header                       0x00012ed4   Data           0  QCA6174_SCAQBAFM.sym ABSOLUTE
    PFAL_COEX_MWS_encode_and_send            0x00012ed8   Data           0  QCA6174_SCAQBAFM.sym ABSOLUTE
    PFAL_COEX_MWS_recv_decode                0x00012edc   Data           0  QCA6174_SCAQBAFM.sym ABSOLUTE
    PF_SYS_Init                              0x00012ee0   Data           0  QCA6174_SCAQBAFM.sym ABSOLUTE
    PF_SYS_EnableTasks                       0x00012ee4   Data           0  QCA6174_SCAQBAFM.sym ABSOLUTE
    PFAL_ACI_Mono_Alloc                      0x00012ee8   Data           0  QCA6174_SCAQBAFM.sym ABSOLUTE
    PFAL_ACI_Mono_Start                      0x00012eec   Data           0  QCA6174_SCAQBAFM.sym ABSOLUTE
    PFAL_ACI_Mono_Stop                       0x00012ef0   Data           0  QCA6174_SCAQBAFM.sym ABSOLUTE
    PFAL_ACI_Mono_Free                       0x00012ef4   Data           0  QCA6174_SCAQBAFM.sym ABSOLUTE
    PFAL_AES_ENCRYPT                         0x00012ef8   Data           0  QCA6174_SCAQBAFM.sym ABSOLUTE
    PFAL_CFG_SetAccessFunctions              0x00012efc   Data           0  QCA6174_SCAQBAFM.sym ABSOLUTE
    PFAL_CFG_SetMaxTagValue                  0x00012f00   Data           0  QCA6174_SCAQBAFM.sym ABSOLUTE
    PFAL_CFG_PostNVMRead                     0x00012f04   Data           0  QCA6174_SCAQBAFM.sym ABSOLUTE
    PFAL_CFG_PreNVMRead                      0x00012f08   Data           0  QCA6174_SCAQBAFM.sym ABSOLUTE
    PFAL_CFG_LoadFromOTP                     0x00012f0c   Data           0  QCA6174_SCAQBAFM.sym ABSOLUTE
    PFAL_CFG_LoadFromNVM                     0x00012f10   Data           0  QCA6174_SCAQBAFM.sym ABSOLUTE
    PFAL_CFG_StoreToNVM                      0x00012f14   Data           0  QCA6174_SCAQBAFM.sym ABSOLUTE
    PFAL_LC_CRYPTO_SWI_Init                  0x00012f18   Data           0  QCA6174_SCAQBAFM.sym ABSOLUTE
    PFAL_GTMR_Init                           0x00012f1c   Data           0  QCA6174_SCAQBAFM.sym ABSOLUTE
    PFAL_GTMR_Close                          0x00012f20   Data           0  QCA6174_SCAQBAFM.sym ABSOLUTE
    GTMR_Write_Timer1                        0x00012f24   Data           0  QCA6174_SCAQBAFM.sym ABSOLUTE
    GTMR_Write_Timer2                        0x00012f28   Data           0  QCA6174_SCAQBAFM.sym ABSOLUTE
    PFAL_IM_OWI_Handler                      0x00012f2c   Data           0  QCA6174_SCAQBAFM.sym ABSOLUTE
    PFAL_OWI_Write                           0x00012f30   Data           0  QCA6174_SCAQBAFM.sym ABSOLUTE
    PFAL_OWI_Read                            0x00012f34   Data           0  QCA6174_SCAQBAFM.sym ABSOLUTE
    PFAL_OWI_InterruptRead                   0x00012f38   Data           0  QCA6174_SCAQBAFM.sym ABSOLUTE
    PFAL_OWI_Transaction2                    0x00012f3c   Data           0  QCA6174_SCAQBAFM.sym ABSOLUTE
    PFAL_OWI_Init                            0x00012f40   Data           0  QCA6174_SCAQBAFM.sym ABSOLUTE
    PFAL_OWI_RegisterCallback                0x00012f44   Data           0  QCA6174_SCAQBAFM.sym ABSOLUTE
    PFAL_PRUI_BuildParityByte                0x00012f48   Data           0  QCA6174_SCAQBAFM.sym ABSOLUTE
    PFAL_PRUI_IsParityOk                     0x00012f4c   Data           0  QCA6174_SCAQBAFM.sym ABSOLUTE
    PFAL_PRUI_CheckRspLen                    0x00012f50   Data           0  QCA6174_SCAQBAFM.sym ABSOLUTE
    PFAL_PRUI_ParseInfo                      0x00012f54   Data           0  QCA6174_SCAQBAFM.sym ABSOLUTE
    PFAL_PRUI_CheckAndParseInfo              0x00012f58   Data           0  QCA6174_SCAQBAFM.sym ABSOLUTE
    PFAL_PRUI_ReadCallback                   0x00012f5c   Data           0  QCA6174_SCAQBAFM.sym ABSOLUTE
    PFAL_PRUI_SendCommand                    0x00012f60   Data           0  QCA6174_SCAQBAFM.sym ABSOLUTE
    PFAL_PRUI_ReadStatus                     0x00012f64   Data           0  QCA6174_SCAQBAFM.sym ABSOLUTE
    PFAL_PRUI_ReadData                       0x00012f68   Data           0  QCA6174_SCAQBAFM.sym ABSOLUTE
    PFAL_PRUI_ReadRegister                   0x00012f6c   Data           0  QCA6174_SCAQBAFM.sym ABSOLUTE
    PFAL_PRUI_WriteRegister                  0x00012f70   Data           0  QCA6174_SCAQBAFM.sym ABSOLUTE
    PFAL_PRUI_OutputEnabled                  0x00012f74   Data           0  QCA6174_SCAQBAFM.sym ABSOLUTE
    PFAL_PRUI_IsChargeComplete               0x00012f78   Data           0  QCA6174_SCAQBAFM.sym ABSOLUTE
    PFAL_PRUI_NotifyAlertEvent               0x00012f7c   Data           0  QCA6174_SCAQBAFM.sym ABSOLUTE
    PFAL_PRUI_NotifyDataUpdateEvent          0x00012f80   Data           0  QCA6174_SCAQBAFM.sym ABSOLUTE
    PFAL_HUTCH_Temp_ADC_To_Celsius           0x00012f84   Data           0  QCA6174_SCAQBAFM.sym ABSOLUTE
    PFAL_PRU_HUTCH_HLR                       0x00012f88   Data           0  QCA6174_SCAQBAFM.sym ABSOLUTE
    PFAL_PRUI_HutchInit                      0x00012fa0   Data           0  QCA6174_SCAQBAFM.sym ABSOLUTE
    PFAL_PRUI_GetRegData                     0x00012fa4   Data           0  QCA6174_SCAQBAFM.sym ABSOLUTE
    PFAL_PRUI_GetReadData                    0x00012fa8   Data           0  QCA6174_SCAQBAFM.sym ABSOLUTE
    PFAL_PRUI_GetStatus                      0x00012fac   Data           0  QCA6174_SCAQBAFM.sym ABSOLUTE
    PFAL_PRUHAL_RegisterDeviceHlr            0x00012fb0   Data           0  QCA6174_SCAQBAFM.sym ABSOLUTE
    PFAL_PRUHAL_Init                         0x00012fb4   Data           0  QCA6174_SCAQBAFM.sym ABSOLUTE
    PRHL_init                                0x00012fb8   Data           0  QCA6174_SCAQBAFM.sym ABSOLUTE
    PRHL_SystemReady                         0x00012fbc   Data           0  QCA6174_SCAQBAFM.sym ABSOLUTE
    PFAL_PRUHAL_NotifyPowerApplyEvent        0x00012fc0   Data           0  QCA6174_SCAQBAFM.sym ABSOLUTE
    PFAL_PRUI_PowerEventSignal               0x00012fc4   Data           0  QCA6174_SCAQBAFM.sym ABSOLUTE
    PFAL_PRUHAL_EnablePowerApply             0x00012fc8   Data           0  QCA6174_SCAQBAFM.sym ABSOLUTE
    PFAL_PRUI_ProcessTimer                   0x00012fcc   Data           0  QCA6174_SCAQBAFM.sym ABSOLUTE
    PFAL_PRUI_UpdatePeriodicTimer            0x00012fd0   Data           0  QCA6174_SCAQBAFM.sym ABSOLUTE
    PRHL_ProcQ_PRUHAL_POWER_EVENT            0x00012fd4   Data           0  QCA6174_SCAQBAFM.sym ABSOLUTE
    PFAL_PRUHAL_EnableAlertNotify            0x00012fd8   Data           0  QCA6174_SCAQBAFM.sym ABSOLUTE
    PFAL_PRUHAL_EnableDataNotify             0x00012fdc   Data           0  QCA6174_SCAQBAFM.sym ABSOLUTE
    PFAL_PRUHAL_SetCurrentLimit              0x00012fe0   Data           0  QCA6174_SCAQBAFM.sym ABSOLUTE
    PFAL_PRUHAL_GetCurrentLimit              0x00012fe4   Data           0  QCA6174_SCAQBAFM.sym ABSOLUTE
    PFAL_NX2A4WP_Read                        0x00012fe8   Data           0  QCA6174_SCAQBAFM.sym ABSOLUTE
    PFAL_NX2A4WP_ReadRegs                    0x00012fec   Data           0  QCA6174_SCAQBAFM.sym ABSOLUTE
    PFAL_NX2A4WP_Write                       0x00012ff0   Data           0  QCA6174_SCAQBAFM.sym ABSOLUTE
    PFAL_NX2A4WP_UpdateStatus                0x00012ff4   Data           0  QCA6174_SCAQBAFM.sym ABSOLUTE
    PFAL_NX2A4WP_ConvADCData                 0x00012ff8   Data           0  QCA6174_SCAQBAFM.sym ABSOLUTE
    PFAL_NX2A4WP_NotifyDataUpdateEvent       0x00012ffc   Data           0  QCA6174_SCAQBAFM.sym ABSOLUTE
    PFAL_NX2A4WP_NotifyAlertEvent            0x00013000   Data           0  QCA6174_SCAQBAFM.sym ABSOLUTE
    PFAL_PRU_NX2A4WP_HLR                     0x00013004   Data           0  QCA6174_SCAQBAFM.sym ABSOLUTE
    PFAL_NX2A4WP_RegDevice                   0x0001301c   Data           0  QCA6174_SCAQBAFM.sym ABSOLUTE
    PFAL_NX2A4WP_WriteRegs                   0x00013020   Data           0  QCA6174_SCAQBAFM.sym ABSOLUTE
    PFAL_STARK_CheckRspLen                   0x00013024   Data           0  QCA6174_SCAQBAFM.sym ABSOLUTE
    PFAL_STARK_OutputEnabled                 0x00013028   Data           0  QCA6174_SCAQBAFM.sym ABSOLUTE
    PFAL_STARK_NotifyAlertEvent              0x0001302c   Data           0  QCA6174_SCAQBAFM.sym ABSOLUTE
    PFAL_STARK_NotifyDataUpdateEvent         0x00013030   Data           0  QCA6174_SCAQBAFM.sym ABSOLUTE
    PFAL_STARK_ParseInfo                     0x00013034   Data           0  QCA6174_SCAQBAFM.sym ABSOLUTE
    PFAL_STARK_CheckAndParseInfo             0x00013038   Data           0  QCA6174_SCAQBAFM.sym ABSOLUTE
    PFAL_STARK_GetReadData                   0x0001303c   Data           0  QCA6174_SCAQBAFM.sym ABSOLUTE
    PFAL_PRU_STARK_HLR                       0x00013040   Data           0  QCA6174_SCAQBAFM.sym ABSOLUTE
    PFAL_STARK_ReadRegisterA                 0x00013058   Data           0  QCA6174_SCAQBAFM.sym ABSOLUTE
    PFAL_STARK_GetRegAData                   0x0001305c   Data           0  QCA6174_SCAQBAFM.sym ABSOLUTE
    PFAL_STARK_WriteRegisterA                0x00013060   Data           0  QCA6174_SCAQBAFM.sym ABSOLUTE
    PFAL_PRUI_StarkInit                      0x00013064   Data           0  QCA6174_SCAQBAFM.sym ABSOLUTE
    PFAL_RM_programRegs                      0x00013068   Data           0  QCA6174_SCAQBAFM.sym ABSOLUTE
    PFAL_RM_Init                             0x0001306c   Data           0  QCA6174_SCAQBAFM.sym ABSOLUTE
    PFAL_RM_ResetInit                        0x00013070   Data           0  QCA6174_SCAQBAFM.sym ABSOLUTE
    PFAL_RM_WakeInit                         0x00013074   Data           0  QCA6174_SCAQBAFM.sym ABSOLUTE
    PFAL_RM_GPIO_Init                        0x00013078   Data           0  QCA6174_SCAQBAFM.sym ABSOLUTE
    PFAL_RM_GPIO_DeInit                      0x0001307c   Data           0  QCA6174_SCAQBAFM.sym ABSOLUTE
    PFAL_RM_HW_Restore_RxRadioCalRegisters   0x00013080   Data           0  QCA6174_SCAQBAFM.sym ABSOLUTE
    PFAL_RM_HW_StartUpCal_RxRadioCalibration 0x00013084   Data           0  QCA6174_SCAQBAFM.sym ABSOLUTE
    PFAL_RM_HW_StartUpCal_ADC_RES_Tuning_Calibration 0x00013088   Data           0  QCA6174_SCAQBAFM.sym ABSOLUTE
    PFAL_RM_radioInit                        0x0001308c   Data           0  QCA6174_SCAQBAFM.sym ABSOLUTE
    PFAL_RM_PhyEmulationModeInit             0x00013090   Data           0  QCA6174_SCAQBAFM.sym ABSOLUTE
    PFAL_RM_PhyEmulationModeWakeup           0x00013094   Data           0  QCA6174_SCAQBAFM.sym ABSOLUTE
    PFAL_SYS_LPO_Init                        0x00013098   Data           0  QCA6174_SCAQBAFM.sym ABSOLUTE
    PFAL_TXP_UART_Functions                  0x0001309c   Data           0  QCA6174_SCAQBAFM.sym ABSOLUTE
    PFAL_TXP_USB_Functions                   0x000130d0   Data           0  QCA6174_SCAQBAFM.sym ABSOLUTE
    PFAL_TXP_IPCT_Functions                  0x00013104   Data           0  QCA6174_SCAQBAFM.sym ABSOLUTE
    PFAL_TXP_SetTxpExtFunctions              0x00013138   Data           0  QCA6174_SCAQBAFM.sym ABSOLUTE
    PFAL_TXP_PreInit                         0x0001313c   Data           0  QCA6174_SCAQBAFM.sym ABSOLUTE
    PFAL_TXP_GetFunctions                    0x00013140   Data           0  QCA6174_SCAQBAFM.sym ABSOLUTE
    PFAL_TXP_PostConfig                      0x00013144   Data           0  QCA6174_SCAQBAFM.sym ABSOLUTE
    PFAL_VOICE_Chan_Start_Timers             0x00013148   Data           0  QCA6174_SCAQBAFM.sym ABSOLUTE
    PFAL_VOICE_Chan_Stop_Timers              0x0001314c   Data           0  QCA6174_SCAQBAFM.sym ABSOLUTE
    PFAL_VOICE_GetDatapath                   0x00013150   Data           0  QCA6174_SCAQBAFM.sym ABSOLUTE
    voice_ops                                0x00013154   Data           0  QCA6174_SCAQBAFM.sym ABSOLUTE
    PFAL_VOICE_Chan_Init                     0x00013178   Data           0  QCA6174_SCAQBAFM.sym ABSOLUTE
    PFAL_VOICE_Coprocessor_Start             0x0001317c   Data           0  QCA6174_SCAQBAFM.sym ABSOLUTE
    PFAL_VOICE_Coprocessor_Stop              0x00013180   Data           0  QCA6174_SCAQBAFM.sym ABSOLUTE
    PFAL_VOICE_Coprocessor_InitTranscoder    0x00013184   Data           0  QCA6174_SCAQBAFM.sym ABSOLUTE
    PFAL_VOICE_Coprocessor_Transcode_Atomic  0x00013188   Data           0  QCA6174_SCAQBAFM.sym ABSOLUTE
    PFAL_VOICE_Coprocessor_AppendTranscodingDone 0x0001318c   Data           0  QCA6174_SCAQBAFM.sym ABSOLUTE
    PFAL_VOICE_Coprocessor_HandleTranscodingDone 0x00013190   Data           0  QCA6174_SCAQBAFM.sym ABSOLUTE
    PFAL_VOICE_Coprocessor_GetNextCmdPointer 0x00013194   Data           0  QCA6174_SCAQBAFM.sym ABSOLUTE
    PFAL_VOICE_Coprocessor_IsCmdComplete     0x00013198   Data           0  QCA6174_SCAQBAFM.sym ABSOLUTE
    PFAL_USB_COMP_Handler                    0x0001319c   Data           0  QCA6174_SCAQBAFM.sym ABSOLUTE
    USB_Dset_Pidvid                          0x000131a0   Data           0  QCA6174_SCAQBAFM.sym ABSOLUTE
    USB_EP_by_Addr                           0x000131a4   Data           0  QCA6174_SCAQBAFM.sym ABSOLUTE
    USB_Register_Endpoint                    0x000131a8   Data           0  QCA6174_SCAQBAFM.sym ABSOLUTE
    USB_Handle_Intfc_Req                     0x000131ac   Data           0  QCA6174_SCAQBAFM.sym ABSOLUTE
    USB_Handle_Class_Req                     0x000131b0   Data           0  QCA6174_SCAQBAFM.sym ABSOLUTE
    USB_Handle_EP_Req                        0x000131b4   Data           0  QCA6174_SCAQBAFM.sym ABSOLUTE
    ROME_USB_config                          0x000131b8   Data           0  QCA6174_SCAQBAFM.sym ABSOLUTE
    USB_Classes_Init                         0x000131bc   Data           0  QCA6174_SCAQBAFM.sym ABSOLUTE
    USB_Initialize                           0x000131c0   Data           0  QCA6174_SCAQBAFM.sym ABSOLUTE
    USB_PreInit                              0x000131c4   Data           0  QCA6174_SCAQBAFM.sym ABSOLUTE
    USB_Set_ResetType                        0x000131c8   Data           0  QCA6174_SCAQBAFM.sym ABSOLUTE
    USB_WARM_Initialize                      0x000131cc   Data           0  QCA6174_SCAQBAFM.sym ABSOLUTE
    USB_COLD_Initialize                      0x000131d0   Data           0  QCA6174_SCAQBAFM.sym ABSOLUTE
    USB_DFU_Initialize                       0x000131d4   Data           0  QCA6174_SCAQBAFM.sym ABSOLUTE
    USB_SetPHYReset                          0x000131d8   Data           0  QCA6174_SCAQBAFM.sym ABSOLUTE
    USB_SetCtlReset                          0x000131dc   Data           0  QCA6174_SCAQBAFM.sym ABSOLUTE
    USB_ResetCore                            0x000131e0   Data           0  QCA6174_SCAQBAFM.sym ABSOLUTE
    USB_FlushRxFifo                          0x000131e4   Data           0  QCA6174_SCAQBAFM.sym ABSOLUTE
    USB_FlushTxFifo                          0x000131e8   Data           0  QCA6174_SCAQBAFM.sym ABSOLUTE
    USB_InitCore                             0x000131ec   Data           0  QCA6174_SCAQBAFM.sym ABSOLUTE
    USB_LPM_Mask                             0x000131f0   Data           0  QCA6174_SCAQBAFM.sym ABSOLUTE
    USB_LPM_SetResp                          0x000131f4   Data           0  QCA6174_SCAQBAFM.sym ABSOLUTE
    USB_InitLPM                              0x000131f8   Data           0  QCA6174_SCAQBAFM.sym ABSOLUTE
    USB_InitDeviceMode                       0x000131fc   Data           0  QCA6174_SCAQBAFM.sym ABSOLUTE
    USB_Isr                                  0x00013200   Data           0  QCA6174_SCAQBAFM.sym ABSOLUTE
    USB_HandleResetInterrupt                 0x00013204   Data           0  QCA6174_SCAQBAFM.sym ABSOLUTE
    USB_HandleEnumCompleteInterrupt          0x00013208   Data           0  QCA6174_SCAQBAFM.sym ABSOLUTE
    USB_HandleEPOUTInterrupt                 0x0001320c   Data           0  QCA6174_SCAQBAFM.sym ABSOLUTE
    USB_HandleEPINInterrupt                  0x00013210   Data           0  QCA6174_SCAQBAFM.sym ABSOLUTE
    USB_HandleResetDetInterrupt              0x00013214   Data           0  QCA6174_SCAQBAFM.sym ABSOLUTE
    USB_HandleWakeUpInterrupt                0x00013218   Data           0  QCA6174_SCAQBAFM.sym ABSOLUTE
    USB_HandleSuspendInterrupt               0x0001321c   Data           0  QCA6174_SCAQBAFM.sym ABSOLUTE
    USB_ActivateEP0                          0x00013220   Data           0  QCA6174_SCAQBAFM.sym ABSOLUTE
    USB_Prepare_Setup                        0x00013224   Data           0  QCA6174_SCAQBAFM.sym ABSOLUTE
    USB_Handle_Setup                         0x00013228   Data           0  QCA6174_SCAQBAFM.sym ABSOLUTE
    USB_Prepare_Data_IN                      0x0001322c   Data           0  QCA6174_SCAQBAFM.sym ABSOLUTE
    USB_Prepare_Data_OUT                     0x00013230   Data           0  QCA6174_SCAQBAFM.sym ABSOLUTE
    USB_Ctrl_Enter_2S                        0x00013234   Data           0  QCA6174_SCAQBAFM.sym ABSOLUTE
    USB_Ctrl_Enter_WD                        0x00013238   Data           0  QCA6174_SCAQBAFM.sym ABSOLUTE
    USB_Ctrl_Enter_WS                        0x0001323c   Data           0  QCA6174_SCAQBAFM.sym ABSOLUTE
    USB_Ctrl_Enter_RDS                       0x00013240   Data           0  QCA6174_SCAQBAFM.sym ABSOLUTE
    USB_Ctrl_Enter_Setup                     0x00013244   Data           0  QCA6174_SCAQBAFM.sym ABSOLUTE
    USB_HandleStandardInterfaceRequest       0x00013248   Data           0  QCA6174_SCAQBAFM.sym ABSOLUTE
    USB_HandleStandardDeviceRequest          0x0001324c   Data           0  QCA6174_SCAQBAFM.sym ABSOLUTE
    USB_EP_Handle_DataXfer                   0x00013250   Data           0  QCA6174_SCAQBAFM.sym ABSOLUTE
    USB_EP0_Handle_DataXfer                  0x00013254   Data           0  QCA6174_SCAQBAFM.sym ABSOLUTE
    USB_Exc_Stop_IN_Transfer                 0x00013258   Data           0  QCA6174_SCAQBAFM.sym ABSOLUTE
    USB_Stop_Data_IN                         0x0001325c   Data           0  QCA6174_SCAQBAFM.sym ABSOLUTE
    USB_HandleEP0Request                     0x00013260   Data           0  QCA6174_SCAQBAFM.sym ABSOLUTE
    USB_HandleGetDesc                        0x00013264   Data           0  QCA6174_SCAQBAFM.sym ABSOLUTE
    USB_HandleUnknownSetup                   0x00013268   Data           0  QCA6174_SCAQBAFM.sym ABSOLUTE
    USB_ContinueEP0Transfer                  0x0001326c   Data           0  QCA6174_SCAQBAFM.sym ABSOLUTE
    USB_Intfc_Get_Desc                       0x00013270   Data           0  QCA6174_SCAQBAFM.sym ABSOLUTE
    USB_Intfc_Ctrl                           0x00013274   Data           0  QCA6174_SCAQBAFM.sym ABSOLUTE
    USB_HandleStandardEndpointRequest        0x00013278   Data           0  QCA6174_SCAQBAFM.sym ABSOLUTE
    USB_SetEPStall                           0x0001327c   Data           0  QCA6174_SCAQBAFM.sym ABSOLUTE
    USB_ClearEPStall                         0x00013280   Data           0  QCA6174_SCAQBAFM.sym ABSOLUTE
    USB_SetFeature                           0x00013284   Data           0  QCA6174_SCAQBAFM.sym ABSOLUTE
    USB_ActivateEP                           0x00013288   Data           0  QCA6174_SCAQBAFM.sym ABSOLUTE
    USB_GetStringDesc                        0x0001328c   Data           0  QCA6174_SCAQBAFM.sym ABSOLUTE
    USB_SetConfiguration                     0x00013290   Data           0  QCA6174_SCAQBAFM.sym ABSOLUTE
    USB_SetInterface                         0x00013294   Data           0  QCA6174_SCAQBAFM.sym ABSOLUTE
    USB_ConfigureEndpoints                   0x00013298   Data           0  QCA6174_SCAQBAFM.sym ABSOLUTE
    USB_ResetInterfaces                      0x0001329c   Data           0  QCA6174_SCAQBAFM.sym ABSOLUTE
    USB_DeactivateEP                         0x000132a0   Data           0  QCA6174_SCAQBAFM.sym ABSOLUTE
    USB_CompleteEP                           0x000132a4   Data           0  QCA6174_SCAQBAFM.sym ABSOLUTE
    USB_Interrupt_Trace                      0x000132a8   Data           0  QCA6174_SCAQBAFM.sym ABSOLUTE
    USB_SoftDisconnect                       0x000132ac   Data           0  QCA6174_SCAQBAFM.sym ABSOLUTE
    USB_SoftConnect                          0x000132b0   Data           0  QCA6174_SCAQBAFM.sym ABSOLUTE
    USB_LP_On                                0x000132b4   Data           0  QCA6174_SCAQBAFM.sym ABSOLUTE
    USB_LP_Off                               0x000132b8   Data           0  QCA6174_SCAQBAFM.sym ABSOLUTE
    USB_Suspend                              0x000132bc   Data           0  QCA6174_SCAQBAFM.sym ABSOLUTE
    USB_L1Enter                              0x000132c0   Data           0  QCA6174_SCAQBAFM.sym ABSOLUTE
    USB_Core_ExitL1                          0x000132c4   Data           0  QCA6174_SCAQBAFM.sym ABSOLUTE
    USB_L1Exit                               0x000132c8   Data           0  QCA6174_SCAQBAFM.sym ABSOLUTE
    USB_Wakeup                               0x000132cc   Data           0  QCA6174_SCAQBAFM.sym ABSOLUTE
    USB_RemoteWakeup                         0x000132d0   Data           0  QCA6174_SCAQBAFM.sym ABSOLUTE
    USB_WakeupHost                           0x000132d4   Data           0  QCA6174_SCAQBAFM.sym ABSOLUTE
    USB_InitializeEPStructure                0x000132d8   Data           0  QCA6174_SCAQBAFM.sym ABSOLUTE
    USB_HandleEarlySuspendInterrupt          0x000132dc   Data           0  QCA6174_SCAQBAFM.sym ABSOLUTE
    USB_HandleGlobalINNAKEffectiveInterrupt  0x000132e0   Data           0  QCA6174_SCAQBAFM.sym ABSOLUTE
    USB_HandleLPMInterrupt                   0x000132e4   Data           0  QCA6174_SCAQBAFM.sym ABSOLUTE
    USB_EnableUSBInterrupt                   0x000132e8   Data           0  QCA6174_SCAQBAFM.sym ABSOLUTE
    USB_StallEP0                             0x000132ec   Data           0  QCA6174_SCAQBAFM.sym ABSOLUTE
    USB_ClearFeature                         0x000132f0   Data           0  QCA6174_SCAQBAFM.sym ABSOLUTE
    USB_SetAddress                           0x000132f4   Data           0  QCA6174_SCAQBAFM.sym ABSOLUTE
    USB_ClearEPHalt                          0x000132f8   Data           0  QCA6174_SCAQBAFM.sym ABSOLUTE
    USB_StartEPTransfer                      0x000132fc   Data           0  QCA6174_SCAQBAFM.sym ABSOLUTE
    USB_ContinueEPTransfer                   0x00013300   Data           0  QCA6174_SCAQBAFM.sym ABSOLUTE
    USB_RestartEPTransfer                    0x00013304   Data           0  QCA6174_SCAQBAFM.sym ABSOLUTE
    USB_ComputeEPPktCnt                      0x00013308   Data           0  QCA6174_SCAQBAFM.sym ABSOLUTE
    USB_ConfigureEPXferBuffer                0x0001330c   Data           0  QCA6174_SCAQBAFM.sym ABSOLUTE
    USB_Module_Install                       0x00013310   Data           0  QCA6174_SCAQBAFM.sym ABSOLUTE
    USB_PostponeAction                       0x00013314   Data           0  QCA6174_SCAQBAFM.sym ABSOLUTE
    USB_Unmask_SOFInt                        0x00013318   Data           0  QCA6174_SCAQBAFM.sym ABSOLUTE
    USB_Mask_SOFInt                          0x0001331c   Data           0  QCA6174_SCAQBAFM.sym ABSOLUTE
    USB_Stop_Force_EOP                       0x00013320   Data           0  QCA6174_SCAQBAFM.sym ABSOLUTE
    USB_Start_Force_EOP                      0x00013324   Data           0  QCA6174_SCAQBAFM.sym ABSOLUTE
    USB_Force_EOP_Handler                    0x00013328   Data           0  QCA6174_SCAQBAFM.sym ABSOLUTE
    USB_Wake_GPIO_ISR                        0x0001332c   Data           0  QCA6174_SCAQBAFM.sym ABSOLUTE
    USB_GPIO_Wakeup_Handler                  0x00013330   Data           0  QCA6174_SCAQBAFM.sym ABSOLUTE
    USB_Wake_Attach                          0x00013334   Data           0  QCA6174_SCAQBAFM.sym ABSOLUTE
    USB_Free_EP_Data                         0x00013338   Data           0  QCA6174_SCAQBAFM.sym ABSOLUTE
    USB_Start_EP                             0x0001333c   Data           0  QCA6174_SCAQBAFM.sym ABSOLUTE
    USB_Stop_EP                              0x00013340   Data           0  QCA6174_SCAQBAFM.sym ABSOLUTE
    USB_Register_Intfc                       0x00013344   Data           0  QCA6174_SCAQBAFM.sym ABSOLUTE
    USB_Restore                              0x00013348   Data           0  QCA6174_SCAQBAFM.sym ABSOLUTE
    USB_PollIsr                              0x0001334c   Data           0  QCA6174_SCAQBAFM.sym ABSOLUTE
    USB_Is_DeepSleep                         0x00013350   Data           0  QCA6174_SCAQBAFM.sym ABSOLUTE
    USB_Is_Sleep                             0x00013354   Data           0  QCA6174_SCAQBAFM.sym ABSOLUTE
    USB_Is_Ready                             0x00013358   Data           0  QCA6174_SCAQBAFM.sym ABSOLUTE
    USB_ConsumeTimer                         0x0001335c   Data           0  QCA6174_SCAQBAFM.sym ABSOLUTE
    USB_Handle_PostponeAction                0x00013360   Data           0  QCA6174_SCAQBAFM.sym ABSOLUTE
    PFAL_USB_Core_Init                       0x00013364   Data           0  QCA6174_SCAQBAFM.sym ABSOLUTE
    HID_Get_Descriptor                       0x00013368   Data           0  QCA6174_SCAQBAFM.sym ABSOLUTE
    HID_Handle_Std_Req                       0x0001336c   Data           0  QCA6174_SCAQBAFM.sym ABSOLUTE
    HID_Report_RxDone_Hook                   0x00013370   Data           0  QCA6174_SCAQBAFM.sym ABSOLUTE
    HID_Handle_Class_Req                     0x00013374   Data           0  QCA6174_SCAQBAFM.sym ABSOLUTE
    USB_SendHID_Report_Comp                  0x00013378   Data           0  QCA6174_SCAQBAFM.sym ABSOLUTE
    USB_SendHIDReport                        0x0001337c   Data           0  QCA6174_SCAQBAFM.sym ABSOLUTE
    USB_Class_HID_Init                       0x00013380   Data           0  QCA6174_SCAQBAFM.sym ABSOLUTE
    USB_DFU_Init                             0x00013384   Data           0  QCA6174_SCAQBAFM.sym ABSOLUTE
    USB_DFU_Hdr_RxDone_Hook                  0x00013388   Data           0  QCA6174_SCAQBAFM.sym ABSOLUTE
    USB_Switch_Mode_Handle                   0x0001338c   Data           0  QCA6174_SCAQBAFM.sym ABSOLUTE
    USB_DFU_StartXfer                        0x00013390   Data           0  QCA6174_SCAQBAFM.sym ABSOLUTE
    USB_DFU_HandleHdr_TLV                    0x00013394   Data           0  QCA6174_SCAQBAFM.sym ABSOLUTE
    USB_DFU_HandleHdr                        0x00013398   Data           0  QCA6174_SCAQBAFM.sym ABSOLUTE
    USB_DFU_HandleData                       0x0001339c   Data           0  QCA6174_SCAQBAFM.sym ABSOLUTE
    USB_HandleVSC                            0x000133a0   Data           0  QCA6174_SCAQBAFM.sym ABSOLUTE
    USB_Class_DFU_Init                       0x000133a4   Data           0  QCA6174_SCAQBAFM.sym ABSOLUTE
    PFAL_SI_Open                             0x000133a8   Data           0  QCA6174_SCAQBAFM.sym ABSOLUTE
    PFAL_SI_Close                            0x000133ac   Data           0  QCA6174_SCAQBAFM.sym ABSOLUTE
    PFAL_SI_Transaction                      0x000133b0   Data           0  QCA6174_SCAQBAFM.sym ABSOLUTE
    PFAL_SiFlash_ReadID                      0x000133b4   Data           0  QCA6174_SCAQBAFM.sym ABSOLUTE
    PFAL_SiFlash_SetWritable                 0x000133b8   Data           0  QCA6174_SCAQBAFM.sym ABSOLUTE
    PFAL_SiFlash_TxDone                      0x000133bc   Data           0  QCA6174_SCAQBAFM.sym ABSOLUTE
    PFAL_SiFlash_RxData                      0x000133c0   Data           0  QCA6174_SCAQBAFM.sym ABSOLUTE
    PFAL_SiFlash_TxData                      0x000133c4   Data           0  QCA6174_SCAQBAFM.sym ABSOLUTE
    PFAL_EEPROM_GetSlaveID                   0x000133c8   Data           0  QCA6174_SCAQBAFM.sym ABSOLUTE
    PFAL_EEPROM_RxData                       0x000133cc   Data           0  QCA6174_SCAQBAFM.sym ABSOLUTE
    PFAL_EEPROM_TxData                       0x000133d0   Data           0  QCA6174_SCAQBAFM.sym ABSOLUTE
    PFAL_DDB_ResetMemoryDB                   0x000133d4   Data           0  QCA6174_SCAQBAFM.sym ABSOLUTE
    PFAL_DDB_CheckFileStatus                 0x000133d8   Data           0  QCA6174_SCAQBAFM.sym ABSOLUTE
    PFAL_DDB_FileInit                        0x000133dc   Data           0  QCA6174_SCAQBAFM.sym ABSOLUTE
    PFAL_DDB_FindDeviceIndex                 0x000133e0   Data           0  QCA6174_SCAQBAFM.sym ABSOLUTE
    PFAL_DDB_WriteToDDBFile                  0x000133e4   Data           0  QCA6174_SCAQBAFM.sym ABSOLUTE
    PFAL_DDB_RecoverRecord                   0x000133e8   Data           0  QCA6174_SCAQBAFM.sym ABSOLUTE
    PFAL_DDB_MakeRecovery                    0x000133ec   Data           0  QCA6174_SCAQBAFM.sym ABSOLUTE
    PFAL_DDB_patch_hook                      0x000133f0   Data           0  QCA6174_SCAQBAFM.sym ABSOLUTE
    PFAL_DDB_AddRecord                       0x000133f4   Data           0  QCA6174_SCAQBAFM.sym ABSOLUTE
    PFAL_DDB_GetValidKeyNum                  0x000133f8   Data           0  QCA6174_SCAQBAFM.sym ABSOLUTE
    PFAL_DDB_FindRecord                      0x000133fc   Data           0  QCA6174_SCAQBAFM.sym ABSOLUTE
    PFAL_DDB_FindRecordByIndex               0x00013400   Data           0  QCA6174_SCAQBAFM.sym ABSOLUTE
    PFAL_DDB_DeleteRecord                    0x00013404   Data           0  QCA6174_SCAQBAFM.sym ABSOLUTE
    PFAL_DDB_DeleteAllRecord                 0x00013408   Data           0  QCA6174_SCAQBAFM.sym ABSOLUTE
    PFAL_DDB_Init                            0x0001340c   Data           0  QCA6174_SCAQBAFM.sym ABSOLUTE
    CFG_SetExtAccessFunctions                0x00013410   Data           0  QCA6174_SCAQBAFM.sym ABSOLUTE
    CFG_Init                                 0x00013414   Data           0  QCA6174_SCAQBAFM.sym ABSOLUTE
    CFG_GetConfigParameterInfo               0x00013418   Data           0  QCA6174_SCAQBAFM.sym ABSOLUTE
    CFG_RM_Init                              0x0001341c   Data           0  QCA6174_SCAQBAFM.sym ABSOLUTE
    CFG_RM_GetConfigParameterInfo            0x00013420   Data           0  QCA6174_SCAQBAFM.sym ABSOLUTE
    CFG_RM_GetTagEntry                       0x00013424   Data           0  QCA6174_SCAQBAFM.sym ABSOLUTE
    OSC_BKGD_ProcCallbackEvents              0x00013428   Data           0  QCA6174_SCAQBAFM.sym ABSOLUTE
    OSC_HIF_ProcCallbackEvents               0x0001342c   Data           0  QCA6174_SCAQBAFM.sym ABSOLUTE
    OSC_HIF_SetCallbackFunctions             0x00013430   Data           0  QCA6174_SCAQBAFM.sym ABSOLUTE
    OSC_MCI_ProcCallbackEvents               0x00013434   Data           0  QCA6174_SCAQBAFM.sym ABSOLUTE
    OSC_MWS_ProcCallbackEvents               0x00013438   Data           0  QCA6174_SCAQBAFM.sym ABSOLUTE
    ANT_Time_BTTimeDiff                      0x0001343c   Data           0  QCA6174_SCAQBAFM.sym ABSOLUTE
    ANT_Time_GetCurrANTTime                  0x00013440   Data           0  QCA6174_SCAQBAFM.sym ABSOLUTE
    ANT_Time_GetRxPacketTime                 0x00013444   Data           0  QCA6174_SCAQBAFM.sym ABSOLUTE
    ANT_Time_Init                            0x00013448   Data           0  QCA6174_SCAQBAFM.sym ABSOLUTE
    ANT_Time_UpdateNewBTTime                 0x0001344c   Data           0  QCA6174_SCAQBAFM.sym ABSOLUTE
    ANT_Time_LateRxCapture                   0x00013450   Data           0  QCA6174_SCAQBAFM.sym ABSOLUTE
    ANT_CoexStartActivity                    0x00013454   Data           0  QCA6174_SCAQBAFM.sym ABSOLUTE
    ANT_CoexStopActivity                     0x00013458   Data           0  QCA6174_SCAQBAFM.sym ABSOLUTE
    ANT_CoexChannelSetMaxPriority            0x0001345c   Data           0  QCA6174_SCAQBAFM.sym ABSOLUTE
    ANT_CoexChannelUpdatePriority            0x00013460   Data           0  QCA6174_SCAQBAFM.sym ABSOLUTE
    ANT_CoexANTEventHandler                  0x00013464   Data           0  QCA6174_SCAQBAFM.sym ABSOLUTE
    ANT_CoexTransferStartHandler             0x00013468   Data           0  QCA6174_SCAQBAFM.sym ABSOLUTE
    ANT_CoexTransferNextHandler              0x0001346c   Data           0  QCA6174_SCAQBAFM.sym ABSOLUTE
    ANT_SetChannelRadioFreq                  0x00013470   Data           0  QCA6174_SCAQBAFM.sym ABSOLUTE
    ANT_GetChannelRadioFreq                  0x00013474   Data           0  QCA6174_SCAQBAFM.sym ABSOLUTE
    Radio_SetToTx                            0x00013478   Data           0  QCA6174_SCAQBAFM.sym ABSOLUTE
    Radio_SetToRx                            0x0001347c   Data           0  QCA6174_SCAQBAFM.sym ABSOLUTE
    Radio_ReadMessage                        0x00013480   Data           0  QCA6174_SCAQBAFM.sym ABSOLUTE
    Radio_ThresholdCompare                   0x00013484   Data           0  QCA6174_SCAQBAFM.sym ABSOLUTE
    Radio_ProcessRxPacket                    0x00013488   Data           0  QCA6174_SCAQBAFM.sym ABSOLUTE
    ANTHL_Init                               0x0001348c   Data           0  QCA6174_SCAQBAFM.sym ABSOLUTE
    ANTHL_EventHandler                       0x00013490   Data           0  QCA6174_SCAQBAFM.sym ABSOLUTE
    GetQUsedSpace                            0x00013494   Data           0  QCA6174_SCAQBAFM.sym ABSOLUTE
    GetQFreeSpace                            0x00013498   Data           0  QCA6174_SCAQBAFM.sym ABSOLUTE
    ANTHL_PushTxBurstQueue                   0x0001349c   Data           0  QCA6174_SCAQBAFM.sym ABSOLUTE
    ANTHL_AdvPopTxBurstQueue                 0x000134a0   Data           0  QCA6174_SCAQBAFM.sym ABSOLUTE
    ANTHL_PopTxBurstQueue                    0x000134a4   Data           0  QCA6174_SCAQBAFM.sym ABSOLUTE
    PutBuffer                                0x000134a8   Data           0  QCA6174_SCAQBAFM.sym ABSOLUTE
    ReadBuffer                               0x000134ac   Data           0  QCA6174_SCAQBAFM.sym ABSOLUTE
    FlushBuffer                              0x000134b0   Data           0  QCA6174_SCAQBAFM.sym ABSOLUTE
    ANTHL_InitSharedChannel                  0x000134b4   Data           0  QCA6174_SCAQBAFM.sym ABSOLUTE
    AutoFreqHopHandler                       0x000134b8   Data           0  QCA6174_SCAQBAFM.sym ABSOLUTE
    ANTHL_SetAutoFreqHopTable                0x000134bc   Data           0  QCA6174_SCAQBAFM.sym ABSOLUTE
    ANT_GetChannelPeriod                     0x000134c0   Data           0  QCA6174_SCAQBAFM.sym ABSOLUTE
    ANT_memcpy                               0x000134c4   Data           0  QCA6174_SCAQBAFM.sym ABSOLUTE
    ANT_OpenChannel                          0x000134c8   Data           0  QCA6174_SCAQBAFM.sym ABSOLUTE
    ANT_CloseChannel                         0x000134cc   Data           0  QCA6174_SCAQBAFM.sym ABSOLUTE
    ANT_TxMessage                            0x000134d0   Data           0  QCA6174_SCAQBAFM.sym ABSOLUTE
    TestModeRxStatUpdate                     0x000134d4   Data           0  QCA6174_SCAQBAFM.sym ABSOLUTE
    TestModeTxStatUpdate                     0x000134d8   Data           0  QCA6174_SCAQBAFM.sym ABSOLUTE
    TransferEnd                              0x000134dc   Data           0  QCA6174_SCAQBAFM.sym ABSOLUTE
    TransferOverRun                          0x000134e0   Data           0  QCA6174_SCAQBAFM.sym ABSOLUTE
    TransferUnderRun                         0x000134e4   Data           0  QCA6174_SCAQBAFM.sym ABSOLUTE
    FillFreqHopTable                         0x000134e8   Data           0  QCA6174_SCAQBAFM.sym ABSOLUTE
    TransferAdvCheck                         0x000134ec   Data           0  QCA6174_SCAQBAFM.sym ABSOLUTE
    TransferRxCheck                          0x000134f0   Data           0  QCA6174_SCAQBAFM.sym ABSOLUTE
    TransferNextAction                       0x000134f4   Data           0  QCA6174_SCAQBAFM.sym ABSOLUTE
    TxChannelInterference                    0x000134f8   Data           0  QCA6174_SCAQBAFM.sym ABSOLUTE
    TxChannelMotionTime                      0x000134fc   Data           0  QCA6174_SCAQBAFM.sym ABSOLUTE
    TxChannelMotion                          0x00013500   Data           0  QCA6174_SCAQBAFM.sym ABSOLUTE
    TxChannelSetTime                         0x00013504   Data           0  QCA6174_SCAQBAFM.sym ABSOLUTE
    RxChannelIncExcIDCheck                   0x00013508   Data           0  QCA6174_SCAQBAFM.sym ABSOLUTE
    RxChannelCheckRadioParameters            0x0001350c   Data           0  QCA6174_SCAQBAFM.sym ABSOLUTE
    RxChannelFindMatch                       0x00013510   Data           0  QCA6174_SCAQBAFM.sym ABSOLUTE
    RxChannelMatched                         0x00013514   Data           0  QCA6174_SCAQBAFM.sym ABSOLUTE
    RxChannelSearchTimeOut                   0x00013518   Data           0  QCA6174_SCAQBAFM.sym ABSOLUTE
    UpdateSearchSharingTimeout               0x0001351c   Data           0  QCA6174_SCAQBAFM.sym ABSOLUTE
    RxChannelTimeout                         0x00013520   Data           0  QCA6174_SCAQBAFM.sym ABSOLUTE
    RxChannelInitSearch                      0x00013524   Data           0  QCA6174_SCAQBAFM.sym ABSOLUTE
    RxChannelPreemptSearch                   0x00013528   Data           0  QCA6174_SCAQBAFM.sym ABSOLUTE
    RxChannelSetTime                         0x0001352c   Data           0  QCA6174_SCAQBAFM.sym ABSOLUTE
    RxChannelPendingTransmit                 0x00013530   Data           0  QCA6174_SCAQBAFM.sym ABSOLUTE
    RxChannelRxAck                           0x00013534   Data           0  QCA6174_SCAQBAFM.sym ABSOLUTE
    SharedChannelMatchID                     0x00013538   Data           0  QCA6174_SCAQBAFM.sym ABSOLUTE
    RxMatchID                                0x0001353c   Data           0  QCA6174_SCAQBAFM.sym ABSOLUTE
    SetEventMessage                          0x00013540   Data           0  QCA6174_SCAQBAFM.sym ABSOLUTE
    SetAdvRxEvent                            0x00013544   Data           0  QCA6174_SCAQBAFM.sym ABSOLUTE
    SetRxEvent                               0x00013548   Data           0  QCA6174_SCAQBAFM.sym ABSOLUTE
    FlushRxEvent                             0x0001354c   Data           0  QCA6174_SCAQBAFM.sym ABSOLUTE
    SetTxEvent                               0x00013550   Data           0  QCA6174_SCAQBAFM.sym ABSOLUTE
    ChannelInit                              0x00013554   Data           0  QCA6174_SCAQBAFM.sym ABSOLUTE
    WatchDog                                 0x00013558   Data           0  QCA6174_SCAQBAFM.sym ABSOLUTE
    AdvanceTime                              0x0001355c   Data           0  QCA6174_SCAQBAFM.sym ABSOLUTE
    ChannelTimer                             0x00013560   Data           0  QCA6174_SCAQBAFM.sym ABSOLUTE
    ChannelUpdate                            0x00013564   Data           0  QCA6174_SCAQBAFM.sym ABSOLUTE
    ChannelStartImmediate                    0x00013568   Data           0  QCA6174_SCAQBAFM.sym ABSOLUTE
    UpdateANTEvent                           0x0001356c   Data           0  QCA6174_SCAQBAFM.sym ABSOLUTE
    SetWakeUpTime                            0x00013570   Data           0  QCA6174_SCAQBAFM.sym ABSOLUTE
    DataWhitening                            0x00013574   Data           0  QCA6174_SCAQBAFM.sym ABSOLUTE
    TxProcess                                0x00013578   Data           0  QCA6174_SCAQBAFM.sym ABSOLUTE
    RxProcess                                0x0001357c   Data           0  QCA6174_SCAQBAFM.sym ABSOLUTE
    ChannelContinue                          0x00013580   Data           0  QCA6174_SCAQBAFM.sym ABSOLUTE
    FindNext                                 0x00013584   Data           0  QCA6174_SCAQBAFM.sym ABSOLUTE
    INT_ANT_TIMER                            0x00013588   Data           0  QCA6174_SCAQBAFM.sym ABSOLUTE
    AdvanceTimeScale                         0x0001358c   Data           0  QCA6174_SCAQBAFM.sym ABSOLUTE
    ANT_CoexInit                             0x00013590   Data           0  QCA6174_SCAQBAFM.sym ABSOLUTE
    ANT_CoexSetPriorityConfig                0x00013594   Data           0  QCA6174_SCAQBAFM.sym ABSOLUTE
    ANT_CoexGetPriorityConfig                0x00013598   Data           0  QCA6174_SCAQBAFM.sym ABSOLUTE
    ANT_CoexSetAdvPriorityConfig             0x0001359c   Data           0  QCA6174_SCAQBAFM.sym ABSOLUTE
    ANT_CoexGetAdvPriorityConfig             0x000135a0   Data           0  QCA6174_SCAQBAFM.sym ABSOLUTE
    ANT_CoexActivityBlockedHandler           0x000135a4   Data           0  QCA6174_SCAQBAFM.sym ABSOLUTE
    ANT_CoexActivityCompleteHandler          0x000135a8   Data           0  QCA6174_SCAQBAFM.sym ABSOLUTE
    ANT_SetChannelRadioTxPower               0x000135ac   Data           0  QCA6174_SCAQBAFM.sym ABSOLUTE
    ANT_SetNetworkAddress                    0x000135b0   Data           0  QCA6174_SCAQBAFM.sym ABSOLUTE
    ANT_SetProxSearch                        0x000135b4   Data           0  QCA6174_SCAQBAFM.sym ABSOLUTE
    ANTHL_IDListConfig                       0x000135b8   Data           0  QCA6174_SCAQBAFM.sym ABSOLUTE
    ANTHL_IDListAdd                          0x000135bc   Data           0  QCA6174_SCAQBAFM.sym ABSOLUTE
    ANT_StackInit                            0x000135c0   Data           0  QCA6174_SCAQBAFM.sym ABSOLUTE
    ANT_SetLibConfig                         0x000135c4   Data           0  QCA6174_SCAQBAFM.sym ABSOLUTE
    ANT_ClearLibConfig                       0x000135c8   Data           0  QCA6174_SCAQBAFM.sym ABSOLUTE
    ANT_GetChannelStatus                     0x000135cc   Data           0  QCA6174_SCAQBAFM.sym ABSOLUTE
    ANT_GetChannelID                         0x000135d0   Data           0  QCA6174_SCAQBAFM.sym ABSOLUTE
    ANT_SetChannelID                         0x000135d4   Data           0  QCA6174_SCAQBAFM.sym ABSOLUTE
    ANT_SetChannelPeriod                     0x000135d8   Data           0  QCA6174_SCAQBAFM.sym ABSOLUTE
    ANT_SetChannelLowPriorityRxSearchTimeout 0x000135dc   Data           0  QCA6174_SCAQBAFM.sym ABSOLUTE
    ANT_SetChannelRxSearchTimeout            0x000135e0   Data           0  QCA6174_SCAQBAFM.sym ABSOLUTE
    ANT_SetSearchWaveform                    0x000135e4   Data           0  QCA6174_SCAQBAFM.sym ABSOLUTE
    ANT_SetSearchChannelPriority             0x000135e8   Data           0  QCA6174_SCAQBAFM.sym ABSOLUTE
    ANT_SetSearchSharingCycles               0x000135ec   Data           0  QCA6174_SCAQBAFM.sym ABSOLUTE
    ANT_GetSearchSharingCycles               0x000135f0   Data           0  QCA6174_SCAQBAFM.sym ABSOLUTE
    ANT_AssignChannel                        0x000135f4   Data           0  QCA6174_SCAQBAFM.sym ABSOLUTE
    ANT_ExtAssignChannel                     0x000135f8   Data           0  QCA6174_SCAQBAFM.sym ABSOLUTE
    ANT_UnAssignChannel                      0x000135fc   Data           0  QCA6174_SCAQBAFM.sym ABSOLUTE
    ANT_ConfigAdvancedBurst                  0x00013600   Data           0  QCA6174_SCAQBAFM.sym ABSOLUTE
    ANT_GetAdvBurstCapabilities              0x00013604   Data           0  QCA6174_SCAQBAFM.sym ABSOLUTE
    ANT_TxAdvancedBurstMessage               0x00013608   Data           0  QCA6174_SCAQBAFM.sym ABSOLUTE
    ANT_TxBurstMessage                       0x0001360c   Data           0  QCA6174_SCAQBAFM.sym ABSOLUTE
    ANT_EventHandler                         0x00013610   Data           0  QCA6174_SCAQBAFM.sym ABSOLUTE
    ANT_StartTestMode                        0x00013614   Data           0  QCA6174_SCAQBAFM.sym ABSOLUTE
    ANT_StopTestMode                         0x00013618   Data           0  QCA6174_SCAQBAFM.sym ABSOLUTE
    ANT_GetTestStats                         0x0001361c   Data           0  QCA6174_SCAQBAFM.sym ABSOLUTE
    INT_RADIO_DR1                            0x00013620   Data           0  QCA6174_SCAQBAFM.sym ABSOLUTE
    ANT_FindNextHighPriority                 0x00013624   Data           0  QCA6174_SCAQBAFM.sym ABSOLUTE
    QCOM_DebugMesgDump                       0x00013628   Data           0  QCA6174_SCAQBAFM.sym ABSOLUTE
    mapPriorityLevel                         0x0001362c   Data           0  QCA6174_SCAQBAFM.sym ABSOLUTE
    sendCoexRequest                          0x00013630   Data           0  QCA6174_SCAQBAFM.sym ABSOLUTE
    QCOM_AntEngineInit                       0x00013634   Data           0  QCA6174_SCAQBAFM.sym ABSOLUTE
    QCOM_ResetAntEngine                      0x00013638   Data           0  QCA6174_SCAQBAFM.sym ABSOLUTE
    QCOM_SignalTask                          0x0001363c   Data           0  QCA6174_SCAQBAFM.sym ABSOLUTE
    QCOM_GetCurrentTime                      0x00013640   Data           0  QCA6174_SCAQBAFM.sym ABSOLUTE
    QCOM_GetAntPacketTime                    0x00013644   Data           0  QCA6174_SCAQBAFM.sym ABSOLUTE
    QCOM_SendAntEvent                        0x00013648   Data           0  QCA6174_SCAQBAFM.sym ABSOLUTE
    QCOM_SendAntData                         0x0001364c   Data           0  QCA6174_SCAQBAFM.sym ABSOLUTE
    QCOM_FreeMem                             0x00013650   Data           0  QCA6174_SCAQBAFM.sym ABSOLUTE
    QCOM_AllocHciTxEventBuffer               0x00013654   Data           0  QCA6174_SCAQBAFM.sym ABSOLUTE
    QCOM_AllocHciTxDataBuffer                0x00013658   Data           0  QCA6174_SCAQBAFM.sym ABSOLUTE
    QCOM_SetAntRxTime                        0x0001365c   Data           0  QCA6174_SCAQBAFM.sym ABSOLUTE
    QCOM_SetAntTxTime                        0x00013660   Data           0  QCA6174_SCAQBAFM.sym ABSOLUTE
    QCOM_SignalChannelUpdate                 0x00013664   Data           0  QCA6174_SCAQBAFM.sym ABSOLUTE
    QCOM_ResetAntRadioEngine                 0x00013668   Data           0  QCA6174_SCAQBAFM.sym ABSOLUTE
    QCOM_SetTxPower                          0x0001366c   Data           0  QCA6174_SCAQBAFM.sym ABSOLUTE
    QCOM_GetANTChannelTxPower                0x00013670   Data           0  QCA6174_SCAQBAFM.sym ABSOLUTE
    QCOM_SetRFChannel                        0x00013674   Data           0  QCA6174_SCAQBAFM.sym ABSOLUTE
    QCOM_SetSyncWord                         0x00013678   Data           0  QCA6174_SCAQBAFM.sym ABSOLUTE
    QCOM_SetRxPacketLength                   0x0001367c   Data           0  QCA6174_SCAQBAFM.sym ABSOLUTE
    QCOM_WriteTxPacket                       0x00013680   Data           0  QCA6174_SCAQBAFM.sym ABSOLUTE
    QCOM_ReadRxPacket                        0x00013684   Data           0  QCA6174_SCAQBAFM.sym ABSOLUTE
    QCOM_SetRxWindow                         0x00013688   Data           0  QCA6174_SCAQBAFM.sym ABSOLUTE
    QCOM_StopRx                              0x0001368c   Data           0  QCA6174_SCAQBAFM.sym ABSOLUTE
    QCOM_GetAntRssi                          0x00013690   Data           0  QCA6174_SCAQBAFM.sym ABSOLUTE
    QCOM_DisableAntInterrupt                 0x00013694   Data           0  QCA6174_SCAQBAFM.sym ABSOLUTE
    QCOM_EnableAntInterrupt                  0x00013698   Data           0  QCA6174_SCAQBAFM.sym ABSOLUTE
    QCOM_VSMesgHandler                       0x0001369c   Data           0  QCA6174_SCAQBAFM.sym ABSOLUTE
    HCI_ProcExtention                        0x000136a0   Data           0  QCA6174_SCAQBAFM.sym ABSOLUTE
    HCI_DecodeACLPkt4L2CAPconnProfile        0x000136a4   Data           0  QCA6174_SCAQBAFM.sym ABSOLUTE
    HCI_logL2CAPconnProfileStatus            0x000136a8   Data           0  QCA6174_SCAQBAFM.sym ABSOLUTE
    HCI_updateL2CAPconnProfileStatus_4_Scatternet 0x000136ac   Data           0  QCA6174_SCAQBAFM.sym ABSOLUTE
    hci_profileDetect_patch_hook             0x000136b0   Data           0  QCA6174_SCAQBAFM.sym ABSOLUTE
    LLM_FRA_Init                             0x000136b4   Data           0  QCA6174_SCAQBAFM.sym ABSOLUTE
    LLM_FRA_Evaluate_ARQN                    0x000136b8   Data           0  QCA6174_SCAQBAFM.sym ABSOLUTE
    LLM_getNumHCI_Commands                   0x000136bc   Data           0  QCA6174_SCAQBAFM.sym ABSOLUTE
    LLM_allocEvent                           0x000136c0   Data           0  QCA6174_SCAQBAFM.sym ABSOLUTE
    LLM_packHCI_EventHeader                  0x000136c4   Data           0  QCA6174_SCAQBAFM.sym ABSOLUTE
    LLM_HCI_SendQ_HCI_UP                     0x000136c8   Data           0  QCA6174_SCAQBAFM.sym ABSOLUTE
    packHCI_Command_Complete_Event           0x000136cc   Data           0  QCA6174_SCAQBAFM.sym ABSOLUTE
    LLM_LE_allocEvent                        0x000136d0   Data           0  QCA6174_SCAQBAFM.sym ABSOLUTE
    sendHCI_Command_Status_Event             0x000136d4   Data           0  QCA6174_SCAQBAFM.sym ABSOLUTE
    packHCI_Command_Complete_Event_wStatus   0x000136d8   Data           0  QCA6174_SCAQBAFM.sym ABSOLUTE
    LLM_HCI_CMN_sendHCI_Encryption_Change_Event 0x000136dc   Data           0  QCA6174_SCAQBAFM.sym ABSOLUTE
    LLM_HCI_LE_Init                          0x000136e0   Data           0  QCA6174_SCAQBAFM.sym ABSOLUTE
    LLM_HCI_LE_HandleHciCommand              0x000136e4   Data           0  QCA6174_SCAQBAFM.sym ABSOLUTE
    LLM_HCI_LE_procHostChannelMap            0x000136e8   Data           0  QCA6174_SCAQBAFM.sym ABSOLUTE
    LLM_HCI_LE_handleCreateConnection        0x000136ec   Data           0  QCA6174_SCAQBAFM.sym ABSOLUTE
    LLM_HCI_LE_handleTestMode                0x000136f0   Data           0  QCA6174_SCAQBAFM.sym ABSOLUTE
    LLM_HCI_LE_handleHostChannelClassification 0x000136f4   Data           0  QCA6174_SCAQBAFM.sym ABSOLUTE
    LLM_HCI_LE_handleStartEncryption         0x000136f8   Data           0  QCA6174_SCAQBAFM.sym ABSOLUTE
    LLM_HCI_LE_get_LE_pConn                  0x000136fc   Data           0  QCA6174_SCAQBAFM.sym ABSOLUTE
    LLM_HCI_LE_handleLongTermKeyReply        0x00013700   Data           0  QCA6174_SCAQBAFM.sym ABSOLUTE
    LLM_LE_HCI_initScan                      0x00013704   Data           0  QCA6174_SCAQBAFM.sym ABSOLUTE
    LLM_HCI_LE_validateConnParams            0x00013708   Data           0  QCA6174_SCAQBAFM.sym ABSOLUTE
    LLM_HCI_LE_handleAdvertisingMode         0x0001370c   Data           0  QCA6174_SCAQBAFM.sym ABSOLUTE
    LLM_HCI_LE_command_patch_hook            0x00013710   Data           0  QCA6174_SCAQBAFM.sym ABSOLUTE
    LLM_lmpSeqMaxSlotReqHandler              0x00013714   Data           0  QCA6174_SCAQBAFM.sym ABSOLUTE
    LLM_lmpSeqMultiSlotReqCntrl_Notify       0x00013718   Data           0  QCA6174_SCAQBAFM.sym ABSOLUTE
    LLM_evalMultiSlotControl                 0x0001371c   Data           0  QCA6174_SCAQBAFM.sym ABSOLUTE
    LLM_initiateLMP_MultiSlotCntrlReqSeq     0x00013720   Data           0  QCA6174_SCAQBAFM.sym ABSOLUTE
    LLM_processlmpSeqMaxSlotReq              0x00013724   Data           0  QCA6174_SCAQBAFM.sym ABSOLUTE
    LLM_evalMaxGapSlots                      0x00013728   Data           0  QCA6174_SCAQBAFM.sym ABSOLUTE
    LLM_eval_LM_ScatternetMultiSlotControl   0x0001372c   Data           0  QCA6174_SCAQBAFM.sym ABSOLUTE
    LLM_evalDataFlowDirection                0x00013730   Data           0  QCA6174_SCAQBAFM.sym ABSOLUTE
    LLM_AFH_reset                            0x00013734   Data           0  QCA6174_SCAQBAFM.sym ABSOLUTE
    LLM_AFH_InitActiveConn                   0x00013738   Data           0  QCA6174_SCAQBAFM.sym ABSOLUTE
    LLM_AFH_handleHostSetChanClassReq        0x0001373c   Data           0  QCA6174_SCAQBAFM.sym ABSOLUTE
    LLM_AFH_MAP_UPDATED                      0x00013740   Data           0  QCA6174_SCAQBAFM.sym ABSOLUTE
    LLM_AFH_updateAllChannelMaps             0x00013744   Data           0  QCA6174_SCAQBAFM.sym ABSOLUTE
    LLM_AFH_updateChannelMapUBC              0x00013748   Data           0  QCA6174_SCAQBAFM.sym ABSOLUTE
    LLM_AFH_SetInstant                       0x0001374c   Data           0  QCA6174_SCAQBAFM.sym ABSOLUTE
    LLM_AFH_ActionMaster                     0x00013750   Data           0  QCA6174_SCAQBAFM.sym ABSOLUTE
    LLM_AFH_sendLMP_Set_AFH                  0x00013754   Data           0  QCA6174_SCAQBAFM.sym ABSOLUTE
    LLM_AFH_updateAllSlavesAHS               0x00013758   Data           0  QCA6174_SCAQBAFM.sym ABSOLUTE
    LLM_AFH_sendLMP_channel_classification_req 0x0001375c   Data           0  QCA6174_SCAQBAFM.sym ABSOLUTE
    LLM_AFH_ActionSlave                      0x00013760   Data           0  QCA6174_SCAQBAFM.sym ABSOLUTE
    LLM_AFH_sendLMP_channel_classification   0x00013764   Data           0  QCA6174_SCAQBAFM.sym ABSOLUTE
    LLM_AFH_evalChanMapReassessmentTimerState 0x00013768   Data           0  QCA6174_SCAQBAFM.sym ABSOLUTE
    LLM_AFH_ComputeErrorRate                 0x0001376c   Data           0  QCA6174_SCAQBAFM.sym ABSOLUTE
    LLM_AFH_updateMapAFH_4_chanNumWLAN       0x00013770   Data           0  QCA6174_SCAQBAFM.sym ABSOLUTE
    LLM_AFH_LE_ChannelMapRemap               0x00013774   Data           0  QCA6174_SCAQBAFM.sym ABSOLUTE
    LLM_ProcE_EBCA_RESET_INTERVAL            0x00013778   Data           0  QCA6174_SCAQBAFM.sym ABSOLUTE
    LLM_AFH_HandleInstant                    0x0001377c   Data           0  QCA6174_SCAQBAFM.sym ABSOLUTE
    LLM_AFH_handleHostReadChanMapReq         0x00013780   Data           0  QCA6174_SCAQBAFM.sym ABSOLUTE
    LLM_AFH_handleHostReadChanClassMode      0x00013784   Data           0  QCA6174_SCAQBAFM.sym ABSOLUTE
    LLM_AFH_handleHostWriteChanClassMode     0x00013788   Data           0  QCA6174_SCAQBAFM.sym ABSOLUTE
    LLM_AFH_terminateConnection              0x0001378c   Data           0  QCA6174_SCAQBAFM.sym ABSOLUTE
    LLM_AFH_SetAFH_ACK                       0x00013790   Data           0  QCA6174_SCAQBAFM.sym ABSOLUTE
    LLM_AFH_evalRemoteFeatures               0x00013794   Data           0  QCA6174_SCAQBAFM.sym ABSOLUTE
    LLM_AFH_LMP_handleChanClassification     0x00013798   Data           0  QCA6174_SCAQBAFM.sym ABSOLUTE
    LLM_AFH_LMP_handleSetAFH                 0x0001379c   Data           0  QCA6174_SCAQBAFM.sym ABSOLUTE
    LLM_AFH_updateAllMastersAHS              0x000137a0   Data           0  QCA6174_SCAQBAFM.sym ABSOLUTE
    LLM_AFH_LMP_handleChanClassificationReq  0x000137a4   Data           0  QCA6174_SCAQBAFM.sym ABSOLUTE
    LLM_AFH_evalPeriodicChanAssessment       0x000137a8   Data           0  QCA6174_SCAQBAFM.sym ABSOLUTE
    LLM_AFH_OneSecondHandler                 0x000137ac   Data           0  QCA6174_SCAQBAFM.sym ABSOLUTE
    transformMatrix                          0x000137b0   Data           0  QCA6174_SCAQBAFM.sym ABSOLUTE
    rotate17Bytes3Left                       0x000137b4   Data           0  QCA6174_SCAQBAFM.sym ABSOLUTE
    LLM_initRoundKey                         0x000137b8   Data           0  QCA6174_SCAQBAFM.sym ABSOLUTE
    LLM_getNextRoundKey                      0x000137bc   Data           0  QCA6174_SCAQBAFM.sym ABSOLUTE
    LLM_keyOffset                            0x000137c0   Data           0  QCA6174_SCAQBAFM.sym ABSOLUTE
    LLM_Ar_Gen                               0x000137c4   Data           0  QCA6174_SCAQBAFM.sym ABSOLUTE
    LLM_Ar_prime                             0x000137c8   Data           0  QCA6174_SCAQBAFM.sym ABSOLUTE
    LLM_Ar                                   0x000137cc   Data           0  QCA6174_SCAQBAFM.sym ABSOLUTE
    LLM_Hash                                 0x000137d0   Data           0  QCA6174_SCAQBAFM.sym ABSOLUTE
    LLM_CipherStepLFSR                       0x000137d4   Data           0  QCA6174_SCAQBAFM.sym ABSOLUTE
    xorN                                     0x000137d8   Data           0  QCA6174_SCAQBAFM.sym ABSOLUTE
    LLM_E1                                   0x000137dc   Data           0  QCA6174_SCAQBAFM.sym ABSOLUTE
    LLM_E21                                  0x000137e0   Data           0  QCA6174_SCAQBAFM.sym ABSOLUTE
    LLM_E22                                  0x000137e4   Data           0  QCA6174_SCAQBAFM.sym ABSOLUTE
    LLM_E3                                   0x000137e8   Data           0  QCA6174_SCAQBAFM.sym ABSOLUTE
    LLM_calcKcPrime                          0x000137ec   Data           0  QCA6174_SCAQBAFM.sym ABSOLUTE
    LLM_rand128                              0x000137f0   Data           0  QCA6174_SCAQBAFM.sym ABSOLUTE
    LLM_randRSSIcapture                      0x000137f4   Data           0  QCA6174_SCAQBAFM.sym ABSOLUTE
    LLM_initLLM_SDB_piconetDB                0x000137f8   Data           0  QCA6174_SCAQBAFM.sym ABSOLUTE
    LLM_get_LTADDR                           0x000137fc   Data           0  QCA6174_SCAQBAFM.sym ABSOLUTE
    LLM_free_LTADDR                          0x00013800   Data           0  QCA6174_SCAQBAFM.sym ABSOLUTE
    LLM_reserve_LTADDR                       0x00013804   Data           0  QCA6174_SCAQBAFM.sym ABSOLUTE
    LLM_initLLM_ltaddrDB                     0x00013808   Data           0  QCA6174_SCAQBAFM.sym ABSOLUTE
    LLM_get_BD_ADDR_pConn                    0x0001380c   Data           0  QCA6174_SCAQBAFM.sym ABSOLUTE
    LLM_InitLLM_activeConnection             0x00013810   Data           0  QCA6174_SCAQBAFM.sym ABSOLUTE
    LLM_allocHCI_connHandle                  0x00013814   Data           0  QCA6174_SCAQBAFM.sym ABSOLUTE
    LLM_freeHCI_connHandle                   0x00013818   Data           0  QCA6174_SCAQBAFM.sym ABSOLUTE
    LLM_init_piconetHandleDB                 0x0001381c   Data           0  QCA6174_SCAQBAFM.sym ABSOLUTE
    LLM_alloc_piconetHandle                  0x00013820   Data           0  QCA6174_SCAQBAFM.sym ABSOLUTE
    LLM_allocSDB_PICONET_INFO_TYPE           0x00013824   Data           0  QCA6174_SCAQBAFM.sym ABSOLUTE
    LLM_freeSDB_PICONET_INFO_TYPE            0x00013828   Data           0  QCA6174_SCAQBAFM.sym ABSOLUTE
    LLM_allocSDB_CONN_TYPE                   0x0001382c   Data           0  QCA6174_SCAQBAFM.sym ABSOLUTE
    LLM_freeSDB_CONN_TYPE                    0x00013830   Data           0  QCA6174_SCAQBAFM.sym ABSOLUTE
    LLM_freeSNIFF_SUBRATE_PARAM_TYPE         0x00013834   Data           0  QCA6174_SCAQBAFM.sym ABSOLUTE
    LLM_allocSDB_ACTIVE_CONN_TYPE            0x00013838   Data           0  QCA6174_SCAQBAFM.sym ABSOLUTE
    LLM_freeSDB_ACTIVE_CONN_TYPE             0x0001383c   Data           0  QCA6174_SCAQBAFM.sym ABSOLUTE
    LLM_allocLLM_ACTIVE_CONN_TYPE            0x00013840   Data           0  QCA6174_SCAQBAFM.sym ABSOLUTE
    LLM_freeLLM_ACTIVE_CONN_TYPE             0x00013844   Data           0  QCA6174_SCAQBAFM.sym ABSOLUTE
    LLM_allocMemSDB                          0x00013848   Data           0  QCA6174_SCAQBAFM.sym ABSOLUTE
    LLM_allocMemSDB_wZero                    0x0001384c   Data           0  QCA6174_SCAQBAFM.sym ABSOLUTE
    LLM_LE_freeConnInfo                      0x00013850   Data           0  QCA6174_SCAQBAFM.sym ABSOLUTE
    LLM_isBD_ADDR_activeConnection           0x00013854   Data           0  QCA6174_SCAQBAFM.sym ABSOLUTE
    LLM_getACL_Handle_pConn                  0x00013858   Data           0  QCA6174_SCAQBAFM.sym ABSOLUTE
    LLM_initHCI_ConnHandleDB                 0x0001385c   Data           0  QCA6174_SCAQBAFM.sym ABSOLUTE
    LLM_init_xSCOchannelDB                   0x00013860   Data           0  QCA6174_SCAQBAFM.sym ABSOLUTE
    LLM_alloc_xSCOchannel                    0x00013864   Data           0  QCA6174_SCAQBAFM.sym ABSOLUTE
    LLM_free_xSCOchannel                     0x00013868   Data           0  QCA6174_SCAQBAFM.sym ABSOLUTE
    LLM_reserveHCI_connHandle                0x0001386c   Data           0  QCA6174_SCAQBAFM.sym ABSOLUTE
    LLM_allocSDB_SCO_CONN_TYPE               0x00013870   Data           0  QCA6174_SCAQBAFM.sym ABSOLUTE
    LLM_freeSDB_SCO_CONN_TYPE                0x00013874   Data           0  QCA6174_SCAQBAFM.sym ABSOLUTE
    LLM_init_activeConnectionDB              0x00013878   Data           0  QCA6174_SCAQBAFM.sym ABSOLUTE
    LLM_free_piconetHandle                   0x0001387c   Data           0  QCA6174_SCAQBAFM.sym ABSOLUTE
    LLM_allocSDB_piconet                     0x00013880   Data           0  QCA6174_SCAQBAFM.sym ABSOLUTE
    LLM_freeSDB_piconet                      0x00013884   Data           0  QCA6174_SCAQBAFM.sym ABSOLUTE
    LLM_allocSNIFF_SUBRATE_PARAM_TYPE        0x00013888   Data           0  QCA6174_SCAQBAFM.sym ABSOLUTE
    LLM_getSDB_connection                    0x0001388c   Data           0  QCA6174_SCAQBAFM.sym ABSOLUTE
    LLM_getSDB_connectionNoHandle            0x00013890   Data           0  QCA6174_SCAQBAFM.sym ABSOLUTE
    LLM_freeSDB_connection                   0x00013894   Data           0  QCA6174_SCAQBAFM.sym ABSOLUTE
    LLM_getSDB_activeConnection              0x00013898   Data           0  QCA6174_SCAQBAFM.sym ABSOLUTE
    LLM_freeSDB_activeConnection             0x0001389c   Data           0  QCA6174_SCAQBAFM.sym ABSOLUTE
    LLM_isSlaveConnPiconetAvailable          0x000138a0   Data           0  QCA6174_SCAQBAFM.sym ABSOLUTE
    LLM_initMemSDB                           0x000138a4   Data           0  QCA6174_SCAQBAFM.sym ABSOLUTE
    LLM_allocMaxMemSDB                       0x000138a8   Data           0  QCA6174_SCAQBAFM.sym ABSOLUTE
    LLM_LE_get_BD_ADDR_pConn                 0x000138ac   Data           0  QCA6174_SCAQBAFM.sym ABSOLUTE
    LLM_LE_freeSDB_activeConnection          0x000138b0   Data           0  QCA6174_SCAQBAFM.sym ABSOLUTE
    LLM_LE_allocConnInfo                     0x000138b4   Data           0  QCA6174_SCAQBAFM.sym ABSOLUTE
    LLM_LE_get_Handle_pConn                  0x000138b8   Data           0  QCA6174_SCAQBAFM.sym ABSOLUTE
    LLM_isNewConnectionAuthenticationInitiated 0x000138bc   Data           0  QCA6174_SCAQBAFM.sym ABSOLUTE
    LLM_new_LM_Connection_Established        0x000138c0   Data           0  QCA6174_SCAQBAFM.sym ABSOLUTE
    LLM_resetTransaction                     0x000138c4   Data           0  QCA6174_SCAQBAFM.sym ABSOLUTE
    LLM_BR_EDR_cmEvalEvent                   0x000138c8   Data           0  QCA6174_SCAQBAFM.sym ABSOLUTE
    LLM_masterLM_Setup                       0x000138cc   Data           0  QCA6174_SCAQBAFM.sym ABSOLUTE
    LLM_slaveConnectionSetup                 0x000138d0   Data           0  QCA6174_SCAQBAFM.sym ABSOLUTE
    LLM_handleCMeLMP_CONNECTION_REQ          0x000138d4   Data           0  QCA6174_SCAQBAFM.sym ABSOLUTE
    LLM_connectionSetupComplete              0x000138d8   Data           0  QCA6174_SCAQBAFM.sym ABSOLUTE
    LLM_cntrlL2capFlow                       0x000138dc   Data           0  QCA6174_SCAQBAFM.sym ABSOLUTE
    llm_connmngr_patch_hook                  0x000138e0   Data           0  QCA6174_SCAQBAFM.sym ABSOLUTE
    cmFSMroutines                            0x000138e4   Data           0  QCA6174_SCAQBAFM.sym ABSOLUTE
    LLM_ACL_U_2hostEnable                    0x00013930   Data           0  QCA6174_SCAQBAFM.sym ABSOLUTE
    LLM_cmEvalEvent                          0x00013934   Data           0  QCA6174_SCAQBAFM.sym ABSOLUTE
    LLM_AclLT_Hlr                            0x00013938   Data           0  QCA6174_SCAQBAFM.sym ABSOLUTE
    LLM_QoS_Hlr                              0x00013948   Data           0  QCA6174_SCAQBAFM.sym ABSOLUTE
    LLM_allocWorkingMem                      0x00013958   Data           0  QCA6174_SCAQBAFM.sym ABSOLUTE
    LLM_allocWorkingMem_NonBlock             0x0001395c   Data           0  QCA6174_SCAQBAFM.sym ABSOLUTE
    LLM_tempPinCodeStorageInit               0x00013960   Data           0  QCA6174_SCAQBAFM.sym ABSOLUTE
    LLM_eval_NonConnSetup_tempPinCodeStorageFree 0x00013964   Data           0  QCA6174_SCAQBAFM.sym ABSOLUTE
    LLM_freeActiveConnectionMem              0x00013968   Data           0  QCA6174_SCAQBAFM.sym ABSOLUTE
    LLM_freeActiveConnectionDB               0x0001396c   Data           0  QCA6174_SCAQBAFM.sym ABSOLUTE
    LLM_CFG_combine_Controller_Features      0x00013970   Data           0  QCA6174_SCAQBAFM.sym ABSOLUTE
    LLM_CFG_get_supported_features           0x00013974   Data           0  QCA6174_SCAQBAFM.sym ABSOLUTE
    LLM_GetInstantDelay                      0x00013978   Data           0  QCA6174_SCAQBAFM.sym ABSOLUTE
    LLM_EIR_freeDataMem                      0x0001397c   Data           0  QCA6174_SCAQBAFM.sym ABSOLUTE
    LLM_EIR_allocDataMem                     0x00013980   Data           0  QCA6174_SCAQBAFM.sym ABSOLUTE
    LLM_CFG_getLE_SupportedFeatures          0x00013984   Data           0  QCA6174_SCAQBAFM.sym ABSOLUTE
    LLM_CFG_get_HCI_supported_Commands       0x00013988   Data           0  QCA6174_SCAQBAFM.sym ABSOLUTE
    LLM_GetInstant                           0x0001398c   Data           0  QCA6174_SCAQBAFM.sym ABSOLUTE
    LLM_ValidateInstant                      0x00013990   Data           0  QCA6174_SCAQBAFM.sym ABSOLUTE
    LLM_EIR_init                             0x00013994   Data           0  QCA6174_SCAQBAFM.sym ABSOLUTE
    LLM_EIR_clearDataMem                     0x00013998   Data           0  QCA6174_SCAQBAFM.sym ABSOLUTE
    LLM_EIR_fillDataMem                      0x0001399c   Data           0  QCA6174_SCAQBAFM.sym ABSOLUTE
    LLM_DATA_LE_allocateWordAlignedMem_fillData 0x000139a0   Data           0  QCA6174_SCAQBAFM.sym ABSOLUTE
    LLM_getExtendedFeatures                  0x000139a4   Data           0  QCA6174_SCAQBAFM.sym ABSOLUTE
    LLM_isLowPowerModePossible               0x000139a8   Data           0  QCA6174_SCAQBAFM.sym ABSOLUTE
    LLM_isSecureConnectionsSupported_4_Both  0x000139ac   Data           0  QCA6174_SCAQBAFM.sym ABSOLUTE
    reserveDBHandle                          0x000139b0   Data           0  QCA6174_SCAQBAFM.sym ABSOLUTE
    getDBHandle                              0x000139b4   Data           0  QCA6174_SCAQBAFM.sym ABSOLUTE
    freeDBHandle                             0x000139b8   Data           0  QCA6174_SCAQBAFM.sym ABSOLUTE
    getDBHandleAvailMask                     0x000139bc   Data           0  QCA6174_SCAQBAFM.sym ABSOLUTE
    getNumDBHandleAvail                      0x000139c0   Data           0  QCA6174_SCAQBAFM.sym ABSOLUTE
    initDBHandleStatusBlock                  0x000139c4   Data           0  QCA6174_SCAQBAFM.sym ABSOLUTE
    setNextDBHandle                          0x000139c8   Data           0  QCA6174_SCAQBAFM.sym ABSOLUTE
    LLM_Pwr_Idx_2_Pwr_Level                  0x000139cc   Data           0  QCA6174_SCAQBAFM.sym ABSOLUTE
    LLM_handleHCI_DISCONNECT                 0x000139d0   Data           0  QCA6174_SCAQBAFM.sym ABSOLUTE
    LLM_handleHCI_CONNECTION_CANCEL          0x000139d4   Data           0  QCA6174_SCAQBAFM.sym ABSOLUTE
    LLM_handleQoSRequest                     0x000139d8   Data           0  QCA6174_SCAQBAFM.sym ABSOLUTE
    LLM_ValidateHCI_Command                  0x000139dc   Data           0  QCA6174_SCAQBAFM.sym ABSOLUTE
    LLM_evalACL_HANDLE_Valid                 0x000139e0   Data           0  QCA6174_SCAQBAFM.sym ABSOLUTE
    LLM_evalACL_HANDLE_is_activeConnection   0x000139e4   Data           0  QCA6174_SCAQBAFM.sym ABSOLUTE
    LLM_eval_LE_handle_is_activeConnection   0x000139e8   Data           0  QCA6174_SCAQBAFM.sym ABSOLUTE
    LLM_eval_BR_EDR_LE_Handle_is_activeConnection 0x000139ec   Data           0  QCA6174_SCAQBAFM.sym ABSOLUTE
    LLM_ReadGolden_RSSI                      0x000139f0   Data           0  QCA6174_SCAQBAFM.sym ABSOLUTE
    LLM_HCI_ReadRSSI                         0x000139f4   Data           0  QCA6174_SCAQBAFM.sym ABSOLUTE
    LLM_HCI_CMD_PreHandler                   0x000139f8   Data           0  QCA6174_SCAQBAFM.sym ABSOLUTE
    LLM_HCI_HandleHciCommand                 0x000139fc   Data           0  QCA6174_SCAQBAFM.sym ABSOLUTE
    LLM_HCI_InitiateRoleSwitch               0x00013a00   Data           0  QCA6174_SCAQBAFM.sym ABSOLUTE
    LLM_InitHCI_RemoteNameRequest            0x00013a04   Data           0  QCA6174_SCAQBAFM.sym ABSOLUTE
    LLM_HCI_VendorSpecificHandler            0x00013a08   Data           0  QCA6174_SCAQBAFM.sym ABSOLUTE
    LLM_handleHCI_ExtendedInquiryResponseData 0x00013a0c   Data           0  QCA6174_SCAQBAFM.sym ABSOLUTE
    LLM_HCI_Init                             0x00013a10   Data           0  QCA6174_SCAQBAFM.sym ABSOLUTE
    LLM_HCI_Command                          0x00013a14   Data           0  QCA6174_SCAQBAFM.sym ABSOLUTE
    LLM_NextCmd                              0x00013a18   Data           0  QCA6174_SCAQBAFM.sym ABSOLUTE
    LLM_TerminateHCI_RemoteNameRequest       0x00013a1c   Data           0  QCA6174_SCAQBAFM.sym ABSOLUTE
    LLM_HCI_ReadClockOffsetRequestHandler    0x00013a20   Data           0  QCA6174_SCAQBAFM.sym ABSOLUTE
    LLM_HCI_ReadRemoteFeaturesRequestHandler 0x00013a24   Data           0  QCA6174_SCAQBAFM.sym ABSOLUTE
    LLM_HCI_ReadRemoteExtendedFeaturesRequestHandler 0x00013a28   Data           0  QCA6174_SCAQBAFM.sym ABSOLUTE
    LLM_HCI_ReadRemoteVersionRequestHandler  0x00013a2c   Data           0  QCA6174_SCAQBAFM.sym ABSOLUTE
    LLM_eval_HCI_ConnSetupAllowedStatus      0x00013a30   Data           0  QCA6174_SCAQBAFM.sym ABSOLUTE
    packHCI_Command_Complete_Event_wBDADDR   0x00013a34   Data           0  QCA6174_SCAQBAFM.sym ABSOLUTE
    packHCI_Command_Complete_Event_wConnectionHandle 0x00013a38   Data           0  QCA6174_SCAQBAFM.sym ABSOLUTE
    sendHCI_CommandCompleteEvent             0x00013a3c   Data           0  QCA6174_SCAQBAFM.sym ABSOLUTE
    sendHCI_Command_Complete_Event_wBDADDR   0x00013a40   Data           0  QCA6174_SCAQBAFM.sym ABSOLUTE
    sendHCI_ConnectionCompleteEvent          0x00013a44   Data           0  QCA6174_SCAQBAFM.sym ABSOLUTE
    sendHCI_ConnectionRequestEvent           0x00013a48   Data           0  QCA6174_SCAQBAFM.sym ABSOLUTE
    sendHCI_DisconnectionCompleteEvent       0x00013a4c   Data           0  QCA6174_SCAQBAFM.sym ABSOLUTE
    sendHCI_PIN_Code_RequestEvent            0x00013a50   Data           0  QCA6174_SCAQBAFM.sym ABSOLUTE
    sendHCI_Link_Key_RequestEvent            0x00013a54   Data           0  QCA6174_SCAQBAFM.sym ABSOLUTE
    sendHCI_Link_Key_NotificationEvent       0x00013a58   Data           0  QCA6174_SCAQBAFM.sym ABSOLUTE
    sendHCI_Change_Connection_Link_Key_CompleteEvent 0x00013a5c   Data           0  QCA6174_SCAQBAFM.sym ABSOLUTE
    sendHCI_Encryption_Key_Refresh_CompleteEvent 0x00013a60   Data           0  QCA6174_SCAQBAFM.sym ABSOLUTE
    sendHCI_Master_Link_Key_CompleteEvent    0x00013a64   Data           0  QCA6174_SCAQBAFM.sym ABSOLUTE
    sendHCI_Read_Remote_Supported_Features_Complete_Event 0x00013a68   Data           0  QCA6174_SCAQBAFM.sym ABSOLUTE
    sendHCI_Read_Remote_Extended_Features_Complete_Event 0x00013a6c   Data           0  QCA6174_SCAQBAFM.sym ABSOLUTE
    sendHCI_Read_Remote_Version_Information_Complete_Event 0x00013a70   Data           0  QCA6174_SCAQBAFM.sym ABSOLUTE
    sendHCI_Read_Clock_Offset_Complete_Event 0x00013a74   Data           0  QCA6174_SCAQBAFM.sym ABSOLUTE
    sendHCI_Remote_Name_Request_Complete_Event 0x00013a78   Data           0  QCA6174_SCAQBAFM.sym ABSOLUTE
    sendHCI_Page_Scan_Repetition_Mode_Change_Event 0x00013a7c   Data           0  QCA6174_SCAQBAFM.sym ABSOLUTE
    sendHCI_Authentication_Complete_Event    0x00013a80   Data           0  QCA6174_SCAQBAFM.sym ABSOLUTE
    LLM_HCI_send_Encryption_Change_Event     0x00013a84   Data           0  QCA6174_SCAQBAFM.sym ABSOLUTE
    sendHCI_Inquiry_Result_Event             0x00013a88   Data           0  QCA6174_SCAQBAFM.sym ABSOLUTE
    sendHCI_Return_Link_Keys_Event           0x00013a8c   Data           0  QCA6174_SCAQBAFM.sym ABSOLUTE
    sendHCI_Inquiry_Complete_Event           0x00013a90   Data           0  QCA6174_SCAQBAFM.sym ABSOLUTE
    sendHCI_Max_Slots_Change_Event           0x00013a94   Data           0  QCA6174_SCAQBAFM.sym ABSOLUTE
    sendHCI_Connection_Packet_Type_Changed_Event 0x00013a98   Data           0  QCA6174_SCAQBAFM.sym ABSOLUTE
    sendHCI_Role_Change_Event                0x00013a9c   Data           0  QCA6174_SCAQBAFM.sym ABSOLUTE
    sendHCI_ModeChangeEvent                  0x00013aa0   Data           0  QCA6174_SCAQBAFM.sym ABSOLUTE
    sendHCI_SynchronousConnectionCompleteEvent 0x00013aa4   Data           0  QCA6174_SCAQBAFM.sym ABSOLUTE
    sendHCI_SynchronousConnectionChangedEvent 0x00013aa8   Data           0  QCA6174_SCAQBAFM.sym ABSOLUTE
    sendHCI_LoopbackCommandEvent             0x00013aac   Data           0  QCA6174_SCAQBAFM.sym ABSOLUTE
    sendHCI_SniffSubrateEvent                0x00013ab0   Data           0  QCA6174_SCAQBAFM.sym ABSOLUTE
    sendHCI_LinkSupervisionTimeoutChangeEvent 0x00013ab4   Data           0  QCA6174_SCAQBAFM.sym ABSOLUTE
    sendHCI_IO_Capability_Request_Event      0x00013ab8   Data           0  QCA6174_SCAQBAFM.sym ABSOLUTE
    sendHCI_IO_Capability_Response_Event     0x00013abc   Data           0  QCA6174_SCAQBAFM.sym ABSOLUTE
    sendHCI_User_Confirmation_Request_Event  0x00013ac0   Data           0  QCA6174_SCAQBAFM.sym ABSOLUTE
    sendHCI_User_PassKey_Request_Event       0x00013ac4   Data           0  QCA6174_SCAQBAFM.sym ABSOLUTE
    sendHCI_User_PassKey_Notification_Event  0x00013ac8   Data           0  QCA6174_SCAQBAFM.sym ABSOLUTE
    sendHCI_Remote_OOB_Data_Request_Event    0x00013acc   Data           0  QCA6174_SCAQBAFM.sym ABSOLUTE
    sendHCI_Simple_Pairing_Complete_Event    0x00013ad0   Data           0  QCA6174_SCAQBAFM.sym ABSOLUTE
    sendHCI_Keypress_Notification_Event      0x00013ad4   Data           0  QCA6174_SCAQBAFM.sym ABSOLUTE
    sendHCI_Remote_Host_Supported_Features_Notification_Event 0x00013ad8   Data           0  QCA6174_SCAQBAFM.sym ABSOLUTE
    sendHCI_Authenticated_Payload_Timeout_Expired_Event 0x00013adc   Data           0  QCA6174_SCAQBAFM.sym ABSOLUTE
    LLM_packLMP_PDU                          0x00013ae0   Data           0  QCA6174_SCAQBAFM.sym ABSOLUTE
    LLM_packLMP_PDU_ext                      0x00013ae4   Data           0  QCA6174_SCAQBAFM.sym ABSOLUTE
    LLM_putLmp                               0x00013ae8   Data           0  QCA6174_SCAQBAFM.sym ABSOLUTE
    LLM_sendLMP_NoPayload                    0x00013aec   Data           0  QCA6174_SCAQBAFM.sym ABSOLUTE
    LLM_sendLMP_oneByte                      0x00013af0   Data           0  QCA6174_SCAQBAFM.sym ABSOLUTE
    LLM_sendLMP_twoBytes                     0x00013af4   Data           0  QCA6174_SCAQBAFM.sym ABSOLUTE
    LLM_sendLMP_uint16                       0x00013af8   Data           0  QCA6174_SCAQBAFM.sym ABSOLUTE
    LLM_sendLMP_multiBytes                   0x00013afc   Data           0  QCA6174_SCAQBAFM.sym ABSOLUTE
    LLM_sendLMP_ext_NoPayload                0x00013b00   Data           0  QCA6174_SCAQBAFM.sym ABSOLUTE
    LLM_sendLMP_ext_oneByte                  0x00013b04   Data           0  QCA6174_SCAQBAFM.sym ABSOLUTE
    LLM_sendLMP_not_accepted                 0x00013b08   Data           0  QCA6174_SCAQBAFM.sym ABSOLUTE
    LLM_sendLMP_accepted_ext                 0x00013b0c   Data           0  QCA6174_SCAQBAFM.sym ABSOLUTE
    LLM_sendLMP_not_accepted_ext             0x00013b10   Data           0  QCA6174_SCAQBAFM.sym ABSOLUTE
    LLM_sendLMP_Version_Res                  0x00013b14   Data           0  QCA6174_SCAQBAFM.sym ABSOLUTE
    LLM_sendLMP_FeaturesMsg                  0x00013b18   Data           0  QCA6174_SCAQBAFM.sym ABSOLUTE
    LLM_sendLMP_FeaturesMsg_ext              0x00013b1c   Data           0  QCA6174_SCAQBAFM.sym ABSOLUTE
    LLM_getLMPformat_clockOffset             0x00013b20   Data           0  QCA6174_SCAQBAFM.sym ABSOLUTE
    LLM_sendLMP_Clock_Offset_Res             0x00013b24   Data           0  QCA6174_SCAQBAFM.sym ABSOLUTE
    LLM_handlePowerCntrl                     0x00013b28   Data           0  QCA6174_SCAQBAFM.sym ABSOLUTE
    LLM_handleEnhancedPowerAdjRequest        0x00013b2c   Data           0  QCA6174_SCAQBAFM.sym ABSOLUTE
    LLM_sendLMP_Timing_Accuracy_Res          0x00013b30   Data           0  QCA6174_SCAQBAFM.sym ABSOLUTE
    LLM_getLMP_nameFragment                  0x00013b34   Data           0  QCA6174_SCAQBAFM.sym ABSOLUTE
    LLM_sendLMP_Name_Res                     0x00013b38   Data           0  QCA6174_SCAQBAFM.sym ABSOLUTE
    LLM_procLMP_name_res                     0x00013b3c   Data           0  QCA6174_SCAQBAFM.sym ABSOLUTE
    LLM_isConnSetup                          0x00013b40   Data           0  QCA6174_SCAQBAFM.sym ABSOLUTE
    LLM_evalLMPMode                          0x00013b44   Data           0  QCA6174_SCAQBAFM.sym ABSOLUTE
    LLM_handleLMP_Supported_Features_Normal  0x00013b48   Data           0  QCA6174_SCAQBAFM.sym ABSOLUTE
    LLM_handleLMP_Supported_Features_Ext_P1  0x00013b4c   Data           0  QCA6174_SCAQBAFM.sym ABSOLUTE
    LLM_LMP_PDU_PreHandler                   0x00013b50   Data           0  QCA6174_SCAQBAFM.sym ABSOLUTE
    LLM_initTransmitPowerLevel               0x00013b54   Data           0  QCA6174_SCAQBAFM.sym ABSOLUTE
    LLM_IsRepeatedAttempts                   0x00013b58   Data           0  QCA6174_SCAQBAFM.sym ABSOLUTE
    LLM_sendLMP_encapsulated_header          0x00013b5c   Data           0  QCA6174_SCAQBAFM.sym ABSOLUTE
    LLM_sendLMP_encapsulated_payload         0x00013b60   Data           0  QCA6174_SCAQBAFM.sym ABSOLUTE
    LLM_sendlmpEncapPDU                      0x00013b64   Data           0  QCA6174_SCAQBAFM.sym ABSOLUTE
    LLM_lmpTxEncapPDU_Handler                0x00013b68   Data           0  QCA6174_SCAQBAFM.sym ABSOLUTE
    LLM_cmLMP_Encap_Rx                       0x00013b6c   Data           0  QCA6174_SCAQBAFM.sym ABSOLUTE
    LLM_eval_lmpRxEncapPDU                   0x00013b70   Data           0  QCA6174_SCAQBAFM.sym ABSOLUTE
    LLM_lmpRxEncapPDU_Handler                0x00013b74   Data           0  QCA6174_SCAQBAFM.sym ABSOLUTE
    LLM_sendLMP_encapPublicKeyCallBack       0x00013b78   Data           0  QCA6174_SCAQBAFM.sym ABSOLUTE
    llm_lmp_pdu_patch_hook                   0x00013b7c   Data           0  QCA6174_SCAQBAFM.sym ABSOLUTE
    LLM_sendLMP_uint32                       0x00013b80   Data           0  QCA6174_SCAQBAFM.sym ABSOLUTE
    LLM_sendLMP_ext_twoBytes                 0x00013b84   Data           0  QCA6174_SCAQBAFM.sym ABSOLUTE
    LLM_sendQoSReq                           0x00013b88   Data           0  QCA6174_SCAQBAFM.sym ABSOLUTE
    LLM_sendLMP_Version_Req                  0x00013b8c   Data           0  QCA6174_SCAQBAFM.sym ABSOLUTE
    LLM_evaluateGenPowerControl              0x00013b90   Data           0  QCA6174_SCAQBAFM.sym ABSOLUTE
    LLM_sendLMP_slot_offset                  0x00013b94   Data           0  QCA6174_SCAQBAFM.sym ABSOLUTE
    LLM_sendLMP_sniffMsg                     0x00013b98   Data           0  QCA6174_SCAQBAFM.sym ABSOLUTE
    LLM_sendLMP_sniff_sub_rate_msg           0x00013b9c   Data           0  QCA6174_SCAQBAFM.sym ABSOLUTE
    LLM_sendLMP_holdMsg                      0x00013ba0   Data           0  QCA6174_SCAQBAFM.sym ABSOLUTE
    LLM_cmLMP_RX                             0x00013ba4   Data           0  QCA6174_SCAQBAFM.sym ABSOLUTE
    LLM_SetRepeatedAttempts                  0x00013ba8   Data           0  QCA6174_SCAQBAFM.sym ABSOLUTE
    LLM_UpdateRepeatedAttempts               0x00013bac   Data           0  QCA6174_SCAQBAFM.sym ABSOLUTE
    LLM_getLMP_FeaturesAclPacketTypes        0x00013bb0   Data           0  QCA6174_SCAQBAFM.sym ABSOLUTE
    LLM_sendLMP_encapPublicKeyPDU            0x00013bb4   Data           0  QCA6174_SCAQBAFM.sym ABSOLUTE
    LLM_sendLMP_IO_capability                0x00013bb8   Data           0  QCA6174_SCAQBAFM.sym ABSOLUTE
    LLM_sendLMP_clk_adj                      0x00013bbc   Data           0  QCA6174_SCAQBAFM.sym ABSOLUTE
    LLM_sendLMP_clk_adj_req                  0x00013bc0   Data           0  QCA6174_SCAQBAFM.sym ABSOLUTE
    LLM_flush_LMPMsg                         0x00013bc4   Data           0  QCA6174_SCAQBAFM.sym ABSOLUTE
    LLM_lmEvalEvent_INQUIRY                  0x00013bc8   Data           0  QCA6174_SCAQBAFM.sym ABSOLUTE
    LLM_handleMasterLinkKey                  0x00013bcc   Data           0  QCA6174_SCAQBAFM.sym ABSOLUTE
    LLM_closeConnection                      0x00013bd0   Data           0  QCA6174_SCAQBAFM.sym ABSOLUTE
    LLM_inquiryComplete                      0x00013bd4   Data           0  QCA6174_SCAQBAFM.sym ABSOLUTE
    LLM_lmEvalEvent                          0x00013bd8   Data           0  QCA6174_SCAQBAFM.sym ABSOLUTE
    LLM_connectionTerminate                  0x00013bdc   Data           0  QCA6174_SCAQBAFM.sym ABSOLUTE
    LLM_createConnectionMaster               0x00013be0   Data           0  QCA6174_SCAQBAFM.sym ABSOLUTE
    LLM_createConnectionSlave                0x00013be4   Data           0  QCA6174_SCAQBAFM.sym ABSOLUTE
    LLM_EnablePageScan                       0x00013be8   Data           0  QCA6174_SCAQBAFM.sym ABSOLUTE
    LLM_scanControl                          0x00013bec   Data           0  QCA6174_SCAQBAFM.sym ABSOLUTE
    LLM_scheduleNextPeriodicInquiry          0x00013bf0   Data           0  QCA6174_SCAQBAFM.sym ABSOLUTE
    LLM_getMaxPktTypes_ACL1                  0x00013bf4   Data           0  QCA6174_SCAQBAFM.sym ABSOLUTE
    LLM_getMaxPktTypes_ACL2_3                0x00013bf8   Data           0  QCA6174_SCAQBAFM.sym ABSOLUTE
    LLM_getMaxPacketTypes                    0x00013bfc   Data           0  QCA6174_SCAQBAFM.sym ABSOLUTE
    LLM_calculatePacketTypes                 0x00013c00   Data           0  QCA6174_SCAQBAFM.sym ABSOLUTE
    LLM_getPacketTypes_fromMaxSlots          0x00013c04   Data           0  QCA6174_SCAQBAFM.sym ABSOLUTE
    LLM_getBTUnitMaxSlots                    0x00013c08   Data           0  QCA6174_SCAQBAFM.sym ABSOLUTE
    LLM_getNewConnectionResources_LE         0x00013c0c   Data           0  QCA6174_SCAQBAFM.sym ABSOLUTE
    LLM_getNewConnectionResources_BR_EDR     0x00013c10   Data           0  QCA6174_SCAQBAFM.sym ABSOLUTE
    LLM_getNewConnectionResources_ANT        0x00013c14   Data           0  QCA6174_SCAQBAFM.sym ABSOLUTE
    LLM_InitNewConnection                    0x00013c18   Data           0  QCA6174_SCAQBAFM.sym ABSOLUTE
    LLM_evalHoldModeActivity                 0x00013c1c   Data           0  QCA6174_SCAQBAFM.sym ABSOLUTE
    LLM_InitRunTimePowerControl              0x00013c20   Data           0  QCA6174_SCAQBAFM.sym ABSOLUTE
    LLM_EvaluateLinkSupervision              0x00013c24   Data           0  QCA6174_SCAQBAFM.sym ABSOLUTE
    LLM_inquiryFilter                        0x00013c28   Data           0  QCA6174_SCAQBAFM.sym ABSOLUTE
    LLM_LE_createConnection                  0x00013c2c   Data           0  QCA6174_SCAQBAFM.sym ABSOLUTE
    LLM_LE_setSDB_LeActiveConnDefaults       0x00013c30   Data           0  QCA6174_SCAQBAFM.sym ABSOLUTE
    LLM_LE_connectionTerminate               0x00013c34   Data           0  QCA6174_SCAQBAFM.sym ABSOLUTE
    LLM_LE_FlushDefCmdQueueOnConnTermination 0x00013c38   Data           0  QCA6174_SCAQBAFM.sym ABSOLUTE
    LLM_getPingTimingAdvance                 0x00013c3c   Data           0  QCA6174_SCAQBAFM.sym ABSOLUTE
    llm_lnkmngr_patch_hook                   0x00013c40   Data           0  QCA6174_SCAQBAFM.sym ABSOLUTE
    lmFSMroutines                            0x00013c44   Data           0  QCA6174_SCAQBAFM.sym ABSOLUTE
    LLM_lmEval_LM_LC_Queue                   0x00013c58   Data           0  QCA6174_SCAQBAFM.sym ABSOLUTE
    LLM_lmTerm_LM_LC_Queue                   0x00013c5c   Data           0  QCA6174_SCAQBAFM.sym ABSOLUTE
    LLM_lmInit                               0x00013c60   Data           0  QCA6174_SCAQBAFM.sym ABSOLUTE
    LLM_createConnection                     0x00013c64   Data           0  QCA6174_SCAQBAFM.sym ABSOLUTE
    LLM_calculateTheoreticalMaxPktSize       0x00013c68   Data           0  QCA6174_SCAQBAFM.sym ABSOLUTE
    LLM_getRxMaxSlot                         0x00013c6c   Data           0  QCA6174_SCAQBAFM.sym ABSOLUTE
    LLM_getTxMaxSlot                         0x00013c70   Data           0  QCA6174_SCAQBAFM.sym ABSOLUTE
    LLM_setSDB_ActiveConnDefaults            0x00013c74   Data           0  QCA6174_SCAQBAFM.sym ABSOLUTE
    LLM_initSecurityKeys                     0x00013c78   Data           0  QCA6174_SCAQBAFM.sym ABSOLUTE
    LLM_getNextPDU                           0x00013c7c   Data           0  QCA6174_SCAQBAFM.sym ABSOLUTE
    LLM_HCI_localLoopback_Initiate           0x00013c80   Data           0  QCA6174_SCAQBAFM.sym ABSOLUTE
    LLM_HCI_localLoopback_Terminate          0x00013c84   Data           0  QCA6174_SCAQBAFM.sym ABSOLUTE
    LLM_lmpSeqLSTO_Handler                   0x00013c88   Data           0  QCA6174_SCAQBAFM.sym ABSOLUTE
    LLM_initiateInternalRoleSwitch           0x00013c8c   Data           0  QCA6174_SCAQBAFM.sym ABSOLUTE
    LLM_LE_createConnectionSlave             0x00013c90   Data           0  QCA6174_SCAQBAFM.sym ABSOLUTE
    LLM_LE_createConnectionMaster            0x00013c94   Data           0  QCA6174_SCAQBAFM.sym ABSOLUTE
    LLM_LE_EnableScan                        0x00013c98   Data           0  QCA6174_SCAQBAFM.sym ABSOLUTE
    LLM_ANT_createConnection                 0x00013c9c   Data           0  QCA6174_SCAQBAFM.sym ABSOLUTE
    LLM_EvaluateMaxAuthenticationInterval    0x00013ca0   Data           0  QCA6174_SCAQBAFM.sym ABSOLUTE
    LLM_DisQ_Enqueue                         0x00013ca4   Data           0  QCA6174_SCAQBAFM.sym ABSOLUTE
    LLM_KickPiconetSupervisionTimeout        0x00013ca8   Data           0  QCA6174_SCAQBAFM.sym ABSOLUTE
    LLM_getEventClock                        0x00013cac   Data           0  QCA6174_SCAQBAFM.sym ABSOLUTE
    LLM_updateSCO_FullStatus                 0x00013cb0   Data           0  QCA6174_SCAQBAFM.sym ABSOLUTE
    LLM_cmdSLC_StopPageScan                  0x00013cb4   Data           0  QCA6174_SCAQBAFM.sym ABSOLUTE
    LLM_cmdSLC_StopInquiryScan               0x00013cb8   Data           0  QCA6174_SCAQBAFM.sym ABSOLUTE
    LLM_ACL_A2DP_Profile_EvalAll             0x00013cbc   Data           0  QCA6174_SCAQBAFM.sym ABSOLUTE
    LLM_SCO_scheduleDelay                    0x00013cc0   Data           0  QCA6174_SCAQBAFM.sym ABSOLUTE
    LLM_eval_LP_Mode                         0x00013cc4   Data           0  QCA6174_SCAQBAFM.sym ABSOLUTE
    llm_rmcdCommand_patch_hook               0x00013cc8   Data           0  QCA6174_SCAQBAFM.sym ABSOLUTE
    LLM_getSCO_HV1_pActiveConn               0x00013ccc   Data           0  QCA6174_SCAQBAFM.sym ABSOLUTE
    LLM_cmdSLC_PerformInquiry                0x00013cd0   Data           0  QCA6174_SCAQBAFM.sym ABSOLUTE
    LLM_cmdSLC_CancelInquiry                 0x00013cd4   Data           0  QCA6174_SCAQBAFM.sym ABSOLUTE
    LLM_cmdSLC_AddInquiryScan                0x00013cd8   Data           0  QCA6174_SCAQBAFM.sym ABSOLUTE
    LLM_cmdSLC_PerformPage                   0x00013cdc   Data           0  QCA6174_SCAQBAFM.sym ABSOLUTE
    LLM_cmdSLC_AddPageScan                   0x00013ce0   Data           0  QCA6174_SCAQBAFM.sym ABSOLUTE
    LLM_cmdSLC_AddTrigScan                   0x00013ce4   Data           0  QCA6174_SCAQBAFM.sym ABSOLUTE
    LLM_cmdSLC_StopTrigScan                  0x00013ce8   Data           0  QCA6174_SCAQBAFM.sym ABSOLUTE
    LLM_cmdSLC_StopPage                      0x00013cec   Data           0  QCA6174_SCAQBAFM.sym ABSOLUTE
    LLM_cmdSLC_EnterHoldMode                 0x00013cf0   Data           0  QCA6174_SCAQBAFM.sym ABSOLUTE
    LLM_cmdSLC_EnterSniffMode                0x00013cf4   Data           0  QCA6174_SCAQBAFM.sym ABSOLUTE
    LLM_cmdSLC_ExitSniffMode                 0x00013cf8   Data           0  QCA6174_SCAQBAFM.sym ABSOLUTE
    LLM_cmdSLC_StartAclService               0x00013cfc   Data           0  QCA6174_SCAQBAFM.sym ABSOLUTE
    LLM_cmdSLC_StopAclService                0x00013d00   Data           0  QCA6174_SCAQBAFM.sym ABSOLUTE
    LLM_cmdSLC_SCO_AddConnection             0x00013d04   Data           0  QCA6174_SCAQBAFM.sym ABSOLUTE
    LLM_cmdSLC_eSCO_AddConnection            0x00013d08   Data           0  QCA6174_SCAQBAFM.sym ABSOLUTE
    LLM_cmdSLC_SCO_DeleteConnection          0x00013d0c   Data           0  QCA6174_SCAQBAFM.sym ABSOLUTE
    LLM_cmdSLC_Disconnect                    0x00013d10   Data           0  QCA6174_SCAQBAFM.sym ABSOLUTE
    LLM_cmdSLC_PerformRoleSwitch             0x00013d14   Data           0  QCA6174_SCAQBAFM.sym ABSOLUTE
    LLM_cmdSLC_UpdateHostDataPacketLength    0x00013d18   Data           0  QCA6174_SCAQBAFM.sym ABSOLUTE
    LLM_cmdSLC_PerformFocus                  0x00013d1c   Data           0  QCA6174_SCAQBAFM.sym ABSOLUTE
    LLM_cmdSLC_PerformClockAdjust            0x00013d20   Data           0  QCA6174_SCAQBAFM.sym ABSOLUTE
    LLM_cmdSLC_evalSniffSubrate              0x00013d24   Data           0  QCA6174_SCAQBAFM.sym ABSOLUTE
    LLM_cmdSLC_LE_AddScan                    0x00013d28   Data           0  QCA6174_SCAQBAFM.sym ABSOLUTE
    LLM_cmdSLC_LE_StopScan                   0x00013d2c   Data           0  QCA6174_SCAQBAFM.sym ABSOLUTE
    LLM_cmdSLC_LE_StartAdvertising           0x00013d30   Data           0  QCA6174_SCAQBAFM.sym ABSOLUTE
    LLM_cmdSLC_LE_StopAdvertising            0x00013d34   Data           0  QCA6174_SCAQBAFM.sym ABSOLUTE
    LLM_cmdSLC_LE_setupConn                  0x00013d38   Data           0  QCA6174_SCAQBAFM.sym ABSOLUTE
    LLM_cmdSLC_LE_setupUpdate                0x00013d3c   Data           0  QCA6174_SCAQBAFM.sym ABSOLUTE
    LLM_SCO_convLocalFormat2LMP_ScoPacket    0x00013d40   Data           0  QCA6174_SCAQBAFM.sym ABSOLUTE
    LLM_SCO_convertLMP_ScoPacket2LocalFormat 0x00013d44   Data           0  QCA6174_SCAQBAFM.sym ABSOLUTE
    LLM_eSCO_evalHCI_SyncConnBandwidth       0x00013d48   Data           0  QCA6174_SCAQBAFM.sym ABSOLUTE
    LLM_xSCO_getNewSCO_Connection            0x00013d4c   Data           0  QCA6174_SCAQBAFM.sym ABSOLUTE
    LLM_xSCO_freeSCO_Connection              0x00013d50   Data           0  QCA6174_SCAQBAFM.sym ABSOLUTE
    LLM_xSCO_get_pSCOconn                    0x00013d54   Data           0  QCA6174_SCAQBAFM.sym ABSOLUTE
    LLM_SCO_getSCO_ChannelMask               0x00013d58   Data           0  QCA6174_SCAQBAFM.sym ABSOLUTE
    LLM_SCO_getNextChannelParams             0x00013d5c   Data           0  QCA6174_SCAQBAFM.sym ABSOLUTE
    LLM_SCO_allocateSCO_Channel              0x00013d60   Data           0  QCA6174_SCAQBAFM.sym ABSOLUTE
    LLM_SCO_freeSCO_Channel                  0x00013d64   Data           0  QCA6174_SCAQBAFM.sym ABSOLUTE
    LLM_SCO_getSCO_ChannelSupported          0x00013d68   Data           0  QCA6174_SCAQBAFM.sym ABSOLUTE
    LLM_SCO_intervalRejected                 0x00013d6c   Data           0  QCA6174_SCAQBAFM.sym ABSOLUTE
    LLM_xSCO_convertAirCodingFormat2AirMode  0x00013d70   Data           0  QCA6174_SCAQBAFM.sym ABSOLUTE
    LLM_xSCO_convertAirMode2AirCodingFormat  0x00013d74   Data           0  QCA6174_SCAQBAFM.sym ABSOLUTE
    LLM_SCO_isNewChanDBsupported             0x00013d78   Data           0  QCA6174_SCAQBAFM.sym ABSOLUTE
    LLM_SCO_isScoChannelParamSupported       0x00013d7c   Data           0  QCA6174_SCAQBAFM.sym ABSOLUTE
    LLM_SCO_getLMPPacketFeature              0x00013d80   Data           0  QCA6174_SCAQBAFM.sym ABSOLUTE
    LLM_xSCO_getLMPAirmodeFeature            0x00013d84   Data           0  QCA6174_SCAQBAFM.sym ABSOLUTE
    LLM_SCO_getLMP_SCO_LINK_REQparam         0x00013d88   Data           0  QCA6174_SCAQBAFM.sym ABSOLUTE
    LLM_SCO_lmpSeqSCO_Abort                  0x00013d8c   Data           0  QCA6174_SCAQBAFM.sym ABSOLUTE
    LLM_eSCO_lmpSeq_eSCO_Abort               0x00013d90   Data           0  QCA6174_SCAQBAFM.sym ABSOLUTE
    LLM_SCO_handleLMP_SCO_LINK_REQ           0x00013d94   Data           0  QCA6174_SCAQBAFM.sym ABSOLUTE
    LLM_xSCO_handleHCI_Sco_Disconnect        0x00013d98   Data           0  QCA6174_SCAQBAFM.sym ABSOLUTE
    LLM_xSCO_createScoConnection             0x00013d9c   Data           0  QCA6174_SCAQBAFM.sym ABSOLUTE
    LLM_SCO_initiateScoConnection            0x00013da0   Data           0  QCA6174_SCAQBAFM.sym ABSOLUTE
    LLM_SCO_sendLMP_SCO_Link_Req             0x00013da4   Data           0  QCA6174_SCAQBAFM.sym ABSOLUTE
    LLM_SCO_process_HCI_ChangePacketType     0x00013da8   Data           0  QCA6174_SCAQBAFM.sym ABSOLUTE
    LLM_SCO_LMP_negotiate_params             0x00013dac   Data           0  QCA6174_SCAQBAFM.sym ABSOLUTE
    LLM_xSCO_getHCI_DisconnectConn           0x00013db0   Data           0  QCA6174_SCAQBAFM.sym ABSOLUTE
    LLM_xSCO_lmpSeqSCOchangeState            0x00013db4   Data           0  QCA6174_SCAQBAFM.sym ABSOLUTE
    LLM_xSCO_sendHCI_SynchronousConnectionCompleteEvent 0x00013db8   Data           0  QCA6174_SCAQBAFM.sym ABSOLUTE
    LLM_xSCO_sendHCI_SynchronousConnectionChangeEvent 0x00013dbc   Data           0  QCA6174_SCAQBAFM.sym ABSOLUTE
    LLM_xSCO_getLMP_Features_xScoPacketTypes 0x00013dc0   Data           0  QCA6174_SCAQBAFM.sym ABSOLUTE
    LLM_xSCO_getPacketTypesSupported         0x00013dc4   Data           0  QCA6174_SCAQBAFM.sym ABSOLUTE
    LLM_eSCO_getHCI_Bandwidth                0x00013dc8   Data           0  QCA6174_SCAQBAFM.sym ABSOLUTE
    LLM_eSCO_handleHCI_SetupSynchronousConnection_New 0x00013dcc   Data           0  QCA6174_SCAQBAFM.sym ABSOLUTE
    LLM_SCO_handleHCI_SetupSynchronousConnection_New 0x00013dd0   Data           0  QCA6174_SCAQBAFM.sym ABSOLUTE
    LLM_xSCO_EvalRetransmissionWindow        0x00013dd4   Data           0  QCA6174_SCAQBAFM.sym ABSOLUTE
    LLM_SCO_handleHCI_AcceptSCOconnection    0x00013dd8   Data           0  QCA6174_SCAQBAFM.sym ABSOLUTE
    LLM_xSCO_lmpSeqSCO_Handler               0x00013ddc   Data           0  QCA6174_SCAQBAFM.sym ABSOLUTE
    LLM_eSCO_free_eSCO_Connection            0x00013de0   Data           0  QCA6174_SCAQBAFM.sym ABSOLUTE
    LLM_eSCO_createScoConnection             0x00013de4   Data           0  QCA6174_SCAQBAFM.sym ABSOLUTE
    LLM_eSCO_sendLMP_eSCO_Link_Req           0x00013de8   Data           0  QCA6174_SCAQBAFM.sym ABSOLUTE
    LLM_eSCO_sendLMP_remove_eSCO_link_req    0x00013dec   Data           0  QCA6174_SCAQBAFM.sym ABSOLUTE
    LLM_eSCO_convertHCIpacketType_2_LMP_eSCOpacketType 0x00013df0   Data           0  QCA6174_SCAQBAFM.sym ABSOLUTE
    LLM_eSCO_convertLMP_eESCOpacketType2_HCIpacketType 0x00013df4   Data           0  QCA6174_SCAQBAFM.sym ABSOLUTE
    LLM_eSCO_convertLMP_eESCOpacketType2_BB_packetType 0x00013df8   Data           0  QCA6174_SCAQBAFM.sym ABSOLUTE
    LLM_eSCO_initiate_eSCO_Connection        0x00013dfc   Data           0  QCA6174_SCAQBAFM.sym ABSOLUTE
    LLM_eSCO_Eval_Transition_2_SCO           0x00013e00   Data           0  QCA6174_SCAQBAFM.sym ABSOLUTE
    LLM_eSCO_process_HCI_SETUP_SYNCRONOUS_CONNECTION_change 0x00013e04   Data           0  QCA6174_SCAQBAFM.sym ABSOLUTE
    LLM_eSCO_loadNegDefaults                 0x00013e08   Data           0  QCA6174_SCAQBAFM.sym ABSOLUTE
    LLM_eSCO_handleLMP_eSCO_LINK_REQ         0x00013e0c   Data           0  QCA6174_SCAQBAFM.sym ABSOLUTE
    LLM_xSCO_getDsco_Value                   0x00013e10   Data           0  QCA6174_SCAQBAFM.sym ABSOLUTE
    LLM_eSCO_getCombinationDsco_Value        0x00013e14   Data           0  QCA6174_SCAQBAFM.sym ABSOLUTE
    LLM_eSCO_Choose_New_Dsco_Value           0x00013e18   Data           0  QCA6174_SCAQBAFM.sym ABSOLUTE
    LLM_eSCOcheckCombinationOverlapSystem    0x00013e1c   Data           0  QCA6174_SCAQBAFM.sym ABSOLUTE
    LLM_eSCOcheckCombinationNoMoreDescoValuesToTry 0x00013e20   Data           0  QCA6174_SCAQBAFM.sym ABSOLUTE
    LLM_eSCO_calc_Starting_Combination       0x00013e24   Data           0  QCA6174_SCAQBAFM.sym ABSOLUTE
    LLM_eSCO_RxLMP_CalcLatency               0x00013e28   Data           0  QCA6174_SCAQBAFM.sym ABSOLUTE
    LLM_eSCO_RxLMP_ConvertParams_To_Combination 0x00013e2c   Data           0  QCA6174_SCAQBAFM.sym ABSOLUTE
    LLM_eSCO_convert_Combination_2_SDB_SCO_TYPE 0x00013e30   Data           0  QCA6174_SCAQBAFM.sym ABSOLUTE
    LLM_eSCO_find_Rx_Combination_In_Current_Progression 0x00013e34   Data           0  QCA6174_SCAQBAFM.sym ABSOLUTE
    LLM_eSCOcheck_Local_Latency_Violation    0x00013e38   Data           0  QCA6174_SCAQBAFM.sym ABSOLUTE
    LLM_eSCOcheck_Local_Reserved_Slot_Violation 0x00013e3c   Data           0  QCA6174_SCAQBAFM.sym ABSOLUTE
    LLM_eSCO_procLMP_eSCO_link_req           0x00013e40   Data           0  QCA6174_SCAQBAFM.sym ABSOLUTE
    llm_sco_patch_hook                       0x00013e44   Data           0  QCA6174_SCAQBAFM.sym ABSOLUTE
    LLM_SCO_initSCO_DB                       0x00013e48   Data           0  QCA6174_SCAQBAFM.sym ABSOLUTE
    LLM_xSCO_connectionTerminate             0x00013e4c   Data           0  QCA6174_SCAQBAFM.sym ABSOLUTE
    LLM_xSCO_convertCodingFormat2AirFormat   0x00013e50   Data           0  QCA6174_SCAQBAFM.sym ABSOLUTE
    LLM_xSCO_convertCodingFormat2SourceFormat 0x00013e54   Data           0  QCA6174_SCAQBAFM.sym ABSOLUTE
    LLM_xSCO_convertPCMDataFormat2SignFormat 0x00013e58   Data           0  QCA6174_SCAQBAFM.sym ABSOLUTE
    LLM_SCO_handleLMP_REMOVE_SCO_LINK_REQ    0x00013e5c   Data           0  QCA6174_SCAQBAFM.sym ABSOLUTE
    LLM_xSCO_evalLocalPreferedPacketTypes    0x00013e60   Data           0  QCA6174_SCAQBAFM.sym ABSOLUTE
    LLM_xSCO_getScoEnableStatus              0x00013e64   Data           0  QCA6174_SCAQBAFM.sym ABSOLUTE
    LLM_xSCO_isScoActiveOnConnection         0x00013e68   Data           0  QCA6174_SCAQBAFM.sym ABSOLUTE
    LLM_xSCO_getScoOnConnection              0x00013e6c   Data           0  QCA6174_SCAQBAFM.sym ABSOLUTE
    LLM_xSCO_handleLMP_ACCEPT_LMP_REMOVE_xSCO_LINK_REQ 0x00013e70   Data           0  QCA6174_SCAQBAFM.sym ABSOLUTE
    LLM_xSCO_eval_SCO_SEQ_Queue              0x00013e74   Data           0  QCA6174_SCAQBAFM.sym ABSOLUTE
    LLM_eSCO_convertBB_packetType2LMP_eESCOpacketType 0x00013e78   Data           0  QCA6174_SCAQBAFM.sym ABSOLUTE
    LLM_eSCO_handleLMP_remove_eSCO_link_req  0x00013e7c   Data           0  QCA6174_SCAQBAFM.sym ABSOLUTE
    LLM_CxM_Init                             0x00013e80   Data           0  QCA6174_SCAQBAFM.sym ABSOLUTE
    LLM_resetDefaults                        0x00013e84   Data           0  QCA6174_SCAQBAFM.sym ABSOLUTE
    LLM_Reset                                0x00013e88   Data           0  QCA6174_SCAQBAFM.sym ABSOLUTE
    LLM_ProcQ_LMS_STATUS                     0x00013e8c   Data           0  QCA6174_SCAQBAFM.sym ABSOLUTE
    LLM_init                                 0x00013e90   Data           0  QCA6174_SCAQBAFM.sym ABSOLUTE
    LLM_PreReset                             0x00013e94   Data           0  QCA6174_SCAQBAFM.sym ABSOLUTE
    LLM_SystemReady                          0x00013e98   Data           0  QCA6174_SCAQBAFM.sym ABSOLUTE
    LLM_ProcE_RANDOM_NUMBER_INIT             0x00013e9c   Data           0  QCA6174_SCAQBAFM.sym ABSOLUTE
    LLM_ProcE_LMP_RX                         0x00013ea0   Data           0  QCA6174_SCAQBAFM.sym ABSOLUTE
    LLM_ProcE_RX_4_BIT_EVAL                  0x00013ea4   Data           0  QCA6174_SCAQBAFM.sym ABSOLUTE
    LLM_ProcE_SLEEP_WAKEUP                   0x00013ea8   Data           0  QCA6174_SCAQBAFM.sym ABSOLUTE
    LLM_ProcE_LMS_STATUS                     0x00013eac   Data           0  QCA6174_SCAQBAFM.sym ABSOLUTE
    LLM_ProcQ_INQUIRY_RESULT                 0x00013eb0   Data           0  QCA6174_SCAQBAFM.sym ABSOLUTE
    LLM_ProcQ_LE_SCAN_RESULT                 0x00013eb4   Data           0  QCA6174_SCAQBAFM.sym ABSOLUTE
    LLM_ProcE_HCI_COMMAND                    0x00013eb8   Data           0  QCA6174_SCAQBAFM.sym ABSOLUTE
    LLM_ProcE_KICK_LINK_SUPERVISION          0x00013ebc   Data           0  QCA6174_SCAQBAFM.sym ABSOLUTE
    LLM_ProcE_KICK_AUTHENTICATION_INTERVAL   0x00013ec0   Data           0  QCA6174_SCAQBAFM.sym ABSOLUTE
    LLM_ProcE_VS_BER_TEST_COMPLETE           0x00013ec4   Data           0  QCA6174_SCAQBAFM.sym ABSOLUTE
    LLM_ProcE_ONE_SHOT_SCAN_KICK             0x00013ec8   Data           0  QCA6174_SCAQBAFM.sym ABSOLUTE
    LLM_ProcE_QTA_AIE_EVAL                   0x00013ecc   Data           0  QCA6174_SCAQBAFM.sym ABSOLUTE
    LLM_ProcE_LE_DEFERRED_COMMAND            0x00013ed0   Data           0  QCA6174_SCAQBAFM.sym ABSOLUTE
    LLM_ProcE_CHAN_ASSESS_DONE               0x00013ed4   Data           0  QCA6174_SCAQBAFM.sym ABSOLUTE
    LLM_ProcE_AFH_WLAN_MAP_UPDATED           0x00013ed8   Data           0  QCA6174_SCAQBAFM.sym ABSOLUTE
    LLM_ProcE_AFH_LTE_MAP_UPDATED            0x00013edc   Data           0  QCA6174_SCAQBAFM.sym ABSOLUTE
    LLM_ProcE_UPDATE_DYNAMIC_DATABASE        0x00013ee0   Data           0  QCA6174_SCAQBAFM.sym ABSOLUTE
    LLM_ProcE_VS_ANT_MODE_CHANGE             0x00013ee4   Data           0  QCA6174_SCAQBAFM.sym ABSOLUTE
    LLM_ProcE_ANT_CMD_FROM_HOST_READY        0x00013ee8   Data           0  QCA6174_SCAQBAFM.sym ABSOLUTE
    LLM_ProcE_ANT_EVENT_TO_HOST_READY        0x00013eec   Data           0  QCA6174_SCAQBAFM.sym ABSOLUTE
    LLM_ProcE_ANT_DATA_FROM_HOST_READY       0x00013ef0   Data           0  QCA6174_SCAQBAFM.sym ABSOLUTE
    LLM_ProcE_ANT_DATA_TO_HOST_READY         0x00013ef4   Data           0  QCA6174_SCAQBAFM.sym ABSOLUTE
    LLM_ProcE_ANT_SERVICE_TX_SERIAL_MESG     0x00013ef8   Data           0  QCA6174_SCAQBAFM.sym ABSOLUTE
    LLM_ProcE_ANT_SERVICE_ANT_EVENT          0x00013efc   Data           0  QCA6174_SCAQBAFM.sym ABSOLUTE
    LLME_init                                0x00013f00   Data           0  QCA6174_SCAQBAFM.sym ABSOLUTE
    LLME_SystemReady                         0x00013f04   Data           0  QCA6174_SCAQBAFM.sym ABSOLUTE
    LLME_ProcE_RSSI_THRESHOLD_EVAL           0x00013f08   Data           0  QCA6174_SCAQBAFM.sym ABSOLUTE
    LLM_SelectSyncInterval                   0x00013f0c   Data           0  QCA6174_SCAQBAFM.sym ABSOLUTE
    LLM_FindLinkParms                        0x00013f10   Data           0  QCA6174_SCAQBAFM.sym ABSOLUTE
    LLM_FindLinkParmsSimple                  0x00013f14   Data           0  QCA6174_SCAQBAFM.sym ABSOLUTE
    LLM_BuildSyncLinkTable                   0x00013f18   Data           0  QCA6174_SCAQBAFM.sym ABSOLUTE
    LLM_GCD                                  0x00013f1c   Data           0  QCA6174_SCAQBAFM.sym ABSOLUTE
    llm_synclinkmngr_patch_hook              0x00013f20   Data           0  QCA6174_SCAQBAFM.sym ABSOLUTE
    LLM_SelectSyncIntervalEx                 0x00013f24   Data           0  QCA6174_SCAQBAFM.sym ABSOLUTE
    LLM_LE_ComputeConnParms                  0x00013f28   Data           0  QCA6174_SCAQBAFM.sym ABSOLUTE
    LLM_checkOverlapSystem                   0x00013f2c   Data           0  QCA6174_SCAQBAFM.sym ABSOLUTE
    LLM_AFH_PrintGraph                       0x00013f30   Data           0  QCA6174_SCAQBAFM.sym ABSOLUTE
    LLM_AFH_PrintMap                         0x00013f34   Data           0  QCA6174_SCAQBAFM.sym ABSOLUTE
    LLM_AFH_AnalyzeFoundBands                0x00013f38   Data           0  QCA6174_SCAQBAFM.sym ABSOLUTE
    LLM_AFH_FindFreeHangoverRec              0x00013f3c   Data           0  QCA6174_SCAQBAFM.sym ABSOLUTE
    LLM_AFH_UpdateHangoverBands              0x00013f40   Data           0  QCA6174_SCAQBAFM.sym ABSOLUTE
    LLM_AFH_SmoothRSSIAssessments            0x00013f44   Data           0  QCA6174_SCAQBAFM.sym ABSOLUTE
    LLM_AFH_UpdateMapStore                   0x00013f48   Data           0  QCA6174_SCAQBAFM.sym ABSOLUTE
    LLM_AFH_IsChanBadHistory                 0x00013f4c   Data           0  QCA6174_SCAQBAFM.sym ABSOLUTE
    LLM_AFH_CreateCurrentMap                 0x00013f50   Data           0  QCA6174_SCAQBAFM.sym ABSOLUTE
    LLM_AFH_SummarizeAssessmentQuality       0x00013f54   Data           0  QCA6174_SCAQBAFM.sym ABSOLUTE
    LLM_AFH_FindBadBand                      0x00013f58   Data           0  QCA6174_SCAQBAFM.sym ABSOLUTE
    LLM_AFH_SelectBandWidth                  0x00013f5c   Data           0  QCA6174_SCAQBAFM.sym ABSOLUTE
    LLM_AFH_FindRSSIBands                    0x00013f60   Data           0  QCA6174_SCAQBAFM.sym ABSOLUTE
    LLM_AFH_InitAFHData                      0x00013f64   Data           0  QCA6174_SCAQBAFM.sym ABSOLUTE
    LLM_AFH_Do_ChannelRating                 0x00013f68   Data           0  QCA6174_SCAQBAFM.sym ABSOLUTE
    LLM_AFH_spike_Analysis                   0x00013f6c   Data           0  QCA6174_SCAQBAFM.sym ABSOLUTE
    LLM_AFH_setCombinedChanClassification    0x00013f70   Data           0  QCA6174_SCAQBAFM.sym ABSOLUTE
    LLM_AFH_SetChannelMap                    0x00013f74   Data           0  QCA6174_SCAQBAFM.sym ABSOLUTE
    LLM_handle_LMP_clk_adj                   0x00013f78   Data           0  QCA6174_SCAQBAFM.sym ABSOLUTE
    LLM_handle_LMP_clk_adj_req               0x00013f7c   Data           0  QCA6174_SCAQBAFM.sym ABSOLUTE
    LLM_handle_LMP_clk_adj_ack               0x00013f80   Data           0  QCA6174_SCAQBAFM.sym ABSOLUTE
    LLM_AdjustClock                          0x00013f84   Data           0  QCA6174_SCAQBAFM.sym ABSOLUTE
    LLM_updateClockAdjustTracking            0x00013f88   Data           0  QCA6174_SCAQBAFM.sym ABSOLUTE
    LLM_isCoarseClockAdjustAllowed           0x00013f8c   Data           0  QCA6174_SCAQBAFM.sym ABSOLUTE
    LLM_initiateCoarseClockAdjust            0x00013f90   Data           0  QCA6174_SCAQBAFM.sym ABSOLUTE
    LLM_initiateClockDragging                0x00013f94   Data           0  QCA6174_SCAQBAFM.sym ABSOLUTE
    LLM_continueClockDragging                0x00013f98   Data           0  QCA6174_SCAQBAFM.sym ABSOLUTE
    LLM_cancelClockAdjust                    0x00013f9c   Data           0  QCA6174_SCAQBAFM.sym ABSOLUTE
    LLM_ResetConnPCA                         0x00013fa0   Data           0  QCA6174_SCAQBAFM.sym ABSOLUTE
    LLM_SetExternalFrameConfiguration        0x00013fa4   Data           0  QCA6174_SCAQBAFM.sym ABSOLUTE
    SLC_enter                                0x00013fa8   Data           0  QCA6174_SCAQBAFM.sym ABSOLUTE
    SLC_adjustTargetClkInterval              0x00013fac   Data           0  QCA6174_SCAQBAFM.sym ABSOLUTE
    SLC_ScheduleNextSCOWindow                0x00013fb0   Data           0  QCA6174_SCAQBAFM.sym ABSOLUTE
    SLC_ESCO_scheduleRetransWindow           0x00013fb4   Data           0  QCA6174_SCAQBAFM.sym ABSOLUTE
    SLC_Dispatch_ParkBeacon_Master           0x00013fb8   Data           0  QCA6174_SCAQBAFM.sym ABSOLUTE
    SLC_Dispatch_ParkBeacon_ACScan           0x00013fbc   Data           0  QCA6174_SCAQBAFM.sym ABSOLUTE
    SLC_Dispatch_ParkBeacon_AccessWindowMaster 0x00013fc0   Data           0  QCA6174_SCAQBAFM.sym ABSOLUTE
    SLC_Dispatch_ParkBeacon_AccessWindowSlave 0x00013fc4   Data           0  QCA6174_SCAQBAFM.sym ABSOLUTE
    SLC_Dispatch_ParkBeacon_AccessWindowNPOLLextension_Master 0x00013fc8   Data           0  QCA6174_SCAQBAFM.sym ABSOLUTE
    SLC_SetupDispatchQEntry_DUT_Tx           0x00013fcc   Data           0  QCA6174_SCAQBAFM.sym ABSOLUTE
    SLC_PeekGeneralDispatchQReadyElement     0x00013fd0   Data           0  QCA6174_SCAQBAFM.sym ABSOLUTE
    SLC_updateDispatch_ParkBeacon_ACScan     0x00013fd4   Data           0  QCA6174_SCAQBAFM.sym ABSOLUTE
    SLC_updateDispatch_ParkBeacon_Master     0x00013fd8   Data           0  QCA6174_SCAQBAFM.sym ABSOLUTE
    SLC_Dispatch_ParkBeacon_UnparkTO_Master  0x00013fdc   Data           0  QCA6174_SCAQBAFM.sym ABSOLUTE
    SLC_Dispatch_ParkBeacon_UnparkTO_Slave   0x00013fe0   Data           0  QCA6174_SCAQBAFM.sym ABSOLUTE
    SLC_updateDispatch_ParkBeaconAccessWindowMaster 0x00013fe4   Data           0  QCA6174_SCAQBAFM.sym ABSOLUTE
    SLC_undoDispatch_HOLD_ACTIVE             0x00013fe8   Data           0  QCA6174_SCAQBAFM.sym ABSOLUTE
    SLC_setNextSniffActive                   0x00013fec   Data           0  QCA6174_SCAQBAFM.sym ABSOLUTE
    SLC_SetupDispatchQEntry_SniffActive      0x00013ff0   Data           0  QCA6174_SCAQBAFM.sym ABSOLUTE
    SLC_RxUpdate_Sniff                       0x00013ff4   Data           0  QCA6174_SCAQBAFM.sym ABSOLUTE
    SLC_HandleSniffIdleTransition            0x00013ff8   Data           0  QCA6174_SCAQBAFM.sym ABSOLUTE
    SLC_SelectPageLLRChannel                 0x00013ffc   Data           0  QCA6174_SCAQBAFM.sym ABSOLUTE
    SLC_Dispatch_SetupBeaconACScan           0x00014000   Data           0  QCA6174_SCAQBAFM.sym ABSOLUTE
    SLC_RxUpdate_TriggerScan                 0x00014004   Data           0  QCA6174_SCAQBAFM.sym ABSOLUTE
    SLC_DisQ_Enqueue                         0x00014008   Data           0  QCA6174_SCAQBAFM.sym ABSOLUTE
    SLC_DisQ_GetHigherPriorityElemWithBlackout 0x0001400c   Data           0  QCA6174_SCAQBAFM.sym ABSOLUTE
    SLC_DisQ_GetPriorityElemScatternet       0x00014010   Data           0  QCA6174_SCAQBAFM.sym ABSOLUTE
    SLC_DisQ_DeleteNullElemsPiconet          0x00014014   Data           0  QCA6174_SCAQBAFM.sym ABSOLUTE
    SLC_DisQ_DeleteNullElemsScatternet       0x00014018   Data           0  QCA6174_SCAQBAFM.sym ABSOLUTE
    SLC_DisQ_AllocDispatchSchedInstr         0x0001401c   Data           0  QCA6174_SCAQBAFM.sym ABSOLUTE
    SLC_Dispatch_LE_Scan_Common              0x00014020   Data           0  QCA6174_SCAQBAFM.sym ABSOLUTE
    SLC_RxUpdate_LE_Conn                     0x00014024   Data           0  QCA6174_SCAQBAFM.sym ABSOLUTE
    SLC_LE_incrConnEvent                     0x00014028   Data           0  QCA6174_SCAQBAFM.sym ABSOLUTE
    SLC_LE_setNextConnEvent                  0x0001402c   Data           0  QCA6174_SCAQBAFM.sym ABSOLUTE
    SLC_LE_getConnEventPriority              0x00014030   Data           0  QCA6174_SCAQBAFM.sym ABSOLUTE
    SLC_LE_compareUpdateCount                0x00014034   Data           0  QCA6174_SCAQBAFM.sym ABSOLUTE
    SLC_LE_checkConnParamsUpdate             0x00014038   Data           0  QCA6174_SCAQBAFM.sym ABSOLUTE
    SLC_LE_checkChannelMapUpdate             0x0001403c   Data           0  QCA6174_SCAQBAFM.sym ABSOLUTE
    SLC_LE_checkConnTimeoutUpdate            0x00014040   Data           0  QCA6174_SCAQBAFM.sym ABSOLUTE
    SLC_LE_getMaxScanSlots                   0x00014044   Data           0  QCA6174_SCAQBAFM.sym ABSOLUTE
    SLC_dispatcher_patch_hook                0x00014048   Data           0  QCA6174_SCAQBAFM.sym ABSOLUTE
    SLC_DISPATCHCommandRoutines              0x0001404c   Data           0  QCA6174_SCAQBAFM.sym ABSOLUTE
    SLC_DISPATCHRescheduleCommandRoutines    0x0001415c   Data           0  QCA6174_SCAQBAFM.sym ABSOLUTE
    SLC_DISPATCHFreeRoutines                 0x0001426c   Data           0  QCA6174_SCAQBAFM.sym ABSOLUTE
    SLC_LE_ScanMode2Hlr                      0x0001437c   Data           0  QCA6174_SCAQBAFM.sym ABSOLUTE
    SLC_LE_CONN_HLR_MAP_SLAVE                0x00014388   Data           0  QCA6174_SCAQBAFM.sym ABSOLUTE
    SLC_LE_CONN_HLR_MAP_MASTER               0x00014398   Data           0  QCA6174_SCAQBAFM.sym ABSOLUTE
    SLC_setupDispatchEventWindow             0x000143a8   Data           0  QCA6174_SCAQBAFM.sym ABSOLUTE
    SLC_Dispatch_Next                        0x000143ac   Data           0  QCA6174_SCAQBAFM.sym ABSOLUTE
    SLC_generalDispatchNext                  0x000143b0   Data           0  QCA6174_SCAQBAFM.sym ABSOLUTE
    SLC_SniffUpdateIdle                      0x000143b4   Data           0  QCA6174_SCAQBAFM.sym ABSOLUTE
    SLC_SetupDispatchQEntry_InquiryScan      0x000143b8   Data           0  QCA6174_SCAQBAFM.sym ABSOLUTE
    SLC_SetupDispatchQEntry_PageScan         0x000143bc   Data           0  QCA6174_SCAQBAFM.sym ABSOLUTE
    SLC_AddDispatchQ_PageScan                0x000143c0   Data           0  QCA6174_SCAQBAFM.sym ABSOLUTE
    SLC_EnqueueACScan                        0x000143c4   Data           0  QCA6174_SCAQBAFM.sym ABSOLUTE
    SLC_DisQ_Reset                           0x000143c8   Data           0  QCA6174_SCAQBAFM.sym ABSOLUTE
    SLC_DisQ_GetNextFutureElem               0x000143cc   Data           0  QCA6174_SCAQBAFM.sym ABSOLUTE
    SLC_SetupDispatchQEntry_LE_Scan          0x000143d0   Data           0  QCA6174_SCAQBAFM.sym ABSOLUTE
    SLC_SetupDispatchQEntry_LE_Advertise     0x000143d4   Data           0  QCA6174_SCAQBAFM.sym ABSOLUTE
    SLC_DisQ_UndoDispatch                    0x000143d8   Data           0  QCA6174_SCAQBAFM.sym ABSOLUTE
    SLC_ScoProcessorUpdate                   0x000143dc   Data           0  QCA6174_SCAQBAFM.sym ABSOLUTE
    SLC_ScoProcessorRemove                   0x000143e0   Data           0  QCA6174_SCAQBAFM.sym ABSOLUTE
    SLC_SCAN_AC_Routines                     0x000143e4   Data           0  QCA6174_SCAQBAFM.sym ABSOLUTE
    SLC_Cancel_LE_Scan                       0x00014400   Data           0  QCA6174_SCAQBAFM.sym ABSOLUTE
    SLC_countRxErrors                        0x00014404   Data           0  QCA6174_SCAQBAFM.sym ABSOLUTE
    SLC_switchSwapParam                      0x00014408   Data           0  QCA6174_SCAQBAFM.sym ABSOLUTE
    SLC_SetupIdScanParams                    0x0001440c   Data           0  QCA6174_SCAQBAFM.sym ABSOLUTE
    SLC_SetupEBCAParams                      0x00014410   Data           0  QCA6174_SCAQBAFM.sym ABSOLUTE
    SLC_SetupSyncTrainScanParams             0x00014414   Data           0  QCA6174_SCAQBAFM.sym ABSOLUTE
    SLC_GetInquiryScanInterval               0x00014418   Data           0  QCA6174_SCAQBAFM.sym ABSOLUTE
    SLC_GetPageScanInterval                  0x0001441c   Data           0  QCA6174_SCAQBAFM.sym ABSOLUTE
    SLC_GetAdvertisingInterval               0x00014420   Data           0  QCA6174_SCAQBAFM.sym ABSOLUTE
    SLC_GetSyncTrainScanInterval             0x00014424   Data           0  QCA6174_SCAQBAFM.sym ABSOLUTE
    SLC_ScanAddRandomDelay                   0x00014428   Data           0  QCA6174_SCAQBAFM.sym ABSOLUTE
    SLC_InitMaster                           0x0001442c   Data           0  QCA6174_SCAQBAFM.sym ABSOLUTE
    SLC_InitSlave                            0x00014430   Data           0  QCA6174_SCAQBAFM.sym ABSOLUTE
    SLC_SetupEncryptKeys                     0x00014434   Data           0  QCA6174_SCAQBAFM.sym ABSOLUTE
    SLC_GetTimeToNextDispatch                0x00014438   Data           0  QCA6174_SCAQBAFM.sym ABSOLUTE
    SLC_CommitSyncHistory                    0x0001443c   Data           0  QCA6174_SCAQBAFM.sym ABSOLUTE
    SLC_event_VoidConn_OneByte               0x00014440   Data           0  QCA6174_SCAQBAFM.sym ABSOLUTE
    SLC_getPiconetClock                      0x00014444   Data           0  QCA6174_SCAQBAFM.sym ABSOLUTE
    SLC_LE_BuildEnabledChannelList           0x00014448   Data           0  QCA6174_SCAQBAFM.sym ABSOLUTE
    SLC_LE_scanCalcBackoffCount              0x0001444c   Data           0  QCA6174_SCAQBAFM.sym ABSOLUTE
    SLC_Get_Trans_Time_By_Package            0x00014450   Data           0  QCA6174_SCAQBAFM.sym ABSOLUTE
    SLC_Get_Max_Package_Length               0x00014454   Data           0  QCA6174_SCAQBAFM.sym ABSOLUTE
    SLC_Get_Acl_2_3_PktType                  0x00014458   Data           0  QCA6174_SCAQBAFM.sym ABSOLUTE
    SLC_Get_Acl_PktType                      0x0001445c   Data           0  QCA6174_SCAQBAFM.sym ABSOLUTE
    SLC_CalcDispatchElementPrio              0x00014460   Data           0  QCA6174_SCAQBAFM.sym ABSOLUTE
    SLC_UpdateSyncHistory                    0x00014464   Data           0  QCA6174_SCAQBAFM.sym ABSOLUTE
    SLC_event_ZeroLengthMsg                  0x00014468   Data           0  QCA6174_SCAQBAFM.sym ABSOLUTE
    SLC_eventHCI_NumCompletedPackets         0x0001446c   Data           0  QCA6174_SCAQBAFM.sym ABSOLUTE
    SLC_eventHCI_FlushOccured                0x00014470   Data           0  QCA6174_SCAQBAFM.sym ABSOLUTE
    SLC_eventHCI_Enhanced_Flush_Complete     0x00014474   Data           0  QCA6174_SCAQBAFM.sym ABSOLUTE
    SLC_event_Conn_MemBlkPtr                 0x00014478   Data           0  QCA6174_SCAQBAFM.sym ABSOLUTE
    SLC_IsMasterInSync                       0x0001447c   Data           0  QCA6174_SCAQBAFM.sym ABSOLUTE
    SLC_IsSlaveInSync                        0x00014480   Data           0  QCA6174_SCAQBAFM.sym ABSOLUTE
    SLC_getFullPiconetClock                  0x00014484   Data           0  QCA6174_SCAQBAFM.sym ABSOLUTE
    SLC_getNextGeneralDispatchClock          0x00014488   Data           0  QCA6174_SCAQBAFM.sym ABSOLUTE
    SLC_ENCR_evalEncryptionKeyStatus         0x0001448c   Data           0  QCA6174_SCAQBAFM.sym ABSOLUTE
    SLC_IsWait4Ack                           0x00014490   Data           0  QCA6174_SCAQBAFM.sym ABSOLUTE
    SLC_LE_eventHCI_NumCompletedPackets      0x00014494   Data           0  QCA6174_SCAQBAFM.sym ABSOLUTE
    SLC_LE_BuildChannelList                  0x00014498   Data           0  QCA6174_SCAQBAFM.sym ABSOLUTE
    SLC_LE_passesDeviceListFilter            0x0001449c   Data           0  QCA6174_SCAQBAFM.sym ABSOLUTE
    SLC_LE_passesUuidListFilter              0x000144a0   Data           0  QCA6174_SCAQBAFM.sym ABSOLUTE
    SLC_LE_passesAdvPCF                      0x000144a4   Data           0  QCA6174_SCAQBAFM.sym ABSOLUTE
    SLC_LE_computeNextConnClock              0x000144a8   Data           0  QCA6174_SCAQBAFM.sym ABSOLUTE
    SLC_LE_computeWinOffset                  0x000144ac   Data           0  QCA6174_SCAQBAFM.sym ABSOLUTE
    SLC_LE_getConnEventMaxFrameCount         0x000144b0   Data           0  QCA6174_SCAQBAFM.sym ABSOLUTE
    SLC_LE_adjustForDrift                    0x000144b4   Data           0  QCA6174_SCAQBAFM.sym ABSOLUTE
    SLC_LE_scanIsScanReqNeeded               0x000144b8   Data           0  QCA6174_SCAQBAFM.sym ABSOLUTE
    SLC_LE_scanHandleScanRspResult           0x000144bc   Data           0  QCA6174_SCAQBAFM.sym ABSOLUTE
    SLC_LE_SetupScanParams                   0x000144c0   Data           0  QCA6174_SCAQBAFM.sym ABSOLUTE
    SLC_LE_countRxErrors                     0x000144c4   Data           0  QCA6174_SCAQBAFM.sym ABSOLUTE
    SLC_Update_Acl_Status                    0x000144c8   Data           0  QCA6174_SCAQBAFM.sym ABSOLUTE
    SLC_EvalCCASlaveRecovery                 0x000144cc   Data           0  QCA6174_SCAQBAFM.sym ABSOLUTE
    SLC_Get_Direction_From_Frametype         0x000144d0   Data           0  QCA6174_SCAQBAFM.sym ABSOLUTE
    SLC_Get_Duration_Time                    0x000144d4   Data           0  QCA6174_SCAQBAFM.sym ABSOLUTE
    SYS_InitReleaseVersion                   0x000144d8   Data           0  QCA6174_SCAQBAFM.sym ABSOLUTE
    SDB_initTask                             0x000144dc   Data           0  QCA6174_SCAQBAFM.sym ABSOLUTE
    SDB_initPollMgr                          0x000144e0   Data           0  QCA6174_SCAQBAFM.sym ABSOLUTE
    SDB_configTask                           0x000144e4   Data           0  QCA6174_SCAQBAFM.sym ABSOLUTE
    SDB_resetTask                            0x000144e8   Data           0  QCA6174_SCAQBAFM.sym ABSOLUTE
    SDB_updateLadder                         0x000144ec   Data           0  QCA6174_SCAQBAFM.sym ABSOLUTE
    SDB_updatePollMgr                        0x000144f0   Data           0  QCA6174_SCAQBAFM.sym ABSOLUTE
    SDB_schedulePollMgr                      0x000144f4   Data           0  QCA6174_SCAQBAFM.sym ABSOLUTE
    SDB_scheduleBroadcast                    0x000144f8   Data           0  QCA6174_SCAQBAFM.sym ABSOLUTE
    PM_BTCLK_StartClockCalibration           0x000144fc   Data           0  QCA6174_SCAQBAFM.sym ABSOLUTE
    Ath_HCI_Init                             0x00014500   Data           0  QCA6174_SCAQBAFM.sym ABSOLUTE
    Ath_HCI_Deinit                           0x00014504   Data           0  QCA6174_SCAQBAFM.sym ABSOLUTE
    GetFreeBthConnection                     0x00014508   Data           0  QCA6174_SCAQBAFM.sym ABSOLUTE
    FindFromBleConnList                      0x0001450c   Data           0  QCA6174_SCAQBAFM.sym ABSOLUTE
    FreeBthConnection                        0x00014510   Data           0  QCA6174_SCAQBAFM.sym ABSOLUTE
    AddToBleConnection                       0x00014514   Data           0  QCA6174_SCAQBAFM.sym ABSOLUTE
    ath_ble_add_connection                   0x00014518   Data           0  QCA6174_SCAQBAFM.sym ABSOLUTE
    ath_ble_delete_connection                0x0001451c   Data           0  QCA6174_SCAQBAFM.sym ABSOLUTE
    ath_le_hci_handle_command_complete       0x00014520   Data           0  QCA6174_SCAQBAFM.sym ABSOLUTE
    ath_le_hci_handle_completed_packets      0x00014524   Data           0  QCA6174_SCAQBAFM.sym ABSOLUTE
    ath_ble_hci_handle_connect_complete      0x00014528   Data           0  QCA6174_SCAQBAFM.sym ABSOLUTE
    ath_ble_hci_handle_disconnect_complete   0x0001452c   Data           0  QCA6174_SCAQBAFM.sym ABSOLUTE
    Router_QueueHciEvtFromController         0x00014530   Data           0  QCA6174_SCAQBAFM.sym ABSOLUTE
    Router_QueueAclDataFromController        0x00014534   Data           0  QCA6174_SCAQBAFM.sym ABSOLUTE
    Router_InternalSendData                  0x00014538   Data           0  QCA6174_SCAQBAFM.sym ABSOLUTE
    ath_le_ctrl_handle_l2cap_data            0x0001453c   Data           0  QCA6174_SCAQBAFM.sym ABSOLUTE
    Router_SendBleHciCommand                 0x00014540   Data           0  QCA6174_SCAQBAFM.sym ABSOLUTE
    Router_SendBleAclData                    0x00014544   Data           0  QCA6174_SCAQBAFM.sym ABSOLUTE
    ath_le_ctrl_handle_event                 0x00014548   Data           0  QCA6174_SCAQBAFM.sym ABSOLUTE
    ath_le_ctrl_handle_data                  0x0001454c   Data           0  QCA6174_SCAQBAFM.sym ABSOLUTE
    MpAllocateBtPacketX                      0x00014550   Data           0  QCA6174_SCAQBAFM.sym ABSOLUTE
    MpFreeBtPacket                           0x00014554   Data           0  QCA6174_SCAQBAFM.sym ABSOLUTE
    Ath_OS_DelayMS                           0x00014558   Data           0  QCA6174_SCAQBAFM.sym ABSOLUTE
    AthMutexInitialize                       0x0001455c   Data           0  QCA6174_SCAQBAFM.sym ABSOLUTE
    AthEventInitialize                       0x00014560   Data           0  QCA6174_SCAQBAFM.sym ABSOLUTE
    Ath_osSemTake                            0x00014564   Data           0  QCA6174_SCAQBAFM.sym ABSOLUTE
    Ath_osSemGive                            0x00014568   Data           0  QCA6174_SCAQBAFM.sym ABSOLUTE
    Ath_osEventTake                          0x0001456c   Data           0  QCA6174_SCAQBAFM.sym ABSOLUTE
    Ath_OS_LockStack                         0x00014570   Data           0  QCA6174_SCAQBAFM.sym ABSOLUTE
    Ath_OS_UnlockStack                       0x00014574   Data           0  QCA6174_SCAQBAFM.sym ABSOLUTE
    Ath_OS_NotifyEvm                         0x00014578   Data           0  QCA6174_SCAQBAFM.sym ABSOLUTE
    Ath_OS_NotifyEvmAlways                   0x0001457c   Data           0  QCA6174_SCAQBAFM.sym ABSOLUTE
    Ath_OS_StopHardware                      0x00014580   Data           0  QCA6174_SCAQBAFM.sym ABSOLUTE
    Ath_OS_ResumeHardware                    0x00014584   Data           0  QCA6174_SCAQBAFM.sym ABSOLUTE
    StackUtil_Init                           0x00014588   Data           0  QCA6174_SCAQBAFM.sym ABSOLUTE
    le_to_host16                             0x0001458c   Data           0  QCA6174_SCAQBAFM.sym ABSOLUTE
    store_to_le16                            0x00014590   Data           0  QCA6174_SCAQBAFM.sym ABSOLUTE
    init_list_head                           0x00014594   Data           0  QCA6174_SCAQBAFM.sym ABSOLUTE
    init_list_entry                          0x00014598   Data           0  QCA6174_SCAQBAFM.sym ABSOLUTE
    get_head_list                            0x0001459c   Data           0  QCA6174_SCAQBAFM.sym ABSOLUTE
    is_node_connected                        0x000145a0   Data           0  QCA6174_SCAQBAFM.sym ABSOLUTE
    insert_tail_list                         0x000145a4   Data           0  QCA6174_SCAQBAFM.sym ABSOLUTE
    insert_head_list                         0x000145a8   Data           0  QCA6174_SCAQBAFM.sym ABSOLUTE
    remove_entry_list                        0x000145ac   Data           0  QCA6174_SCAQBAFM.sym ABSOLUTE
    is_list_empty                            0x000145b0   Data           0  QCA6174_SCAQBAFM.sym ABSOLUTE
    get_next_node                            0x000145b4   Data           0  QCA6174_SCAQBAFM.sym ABSOLUTE
    remove_head_list                         0x000145b8   Data           0  QCA6174_SCAQBAFM.sym ABSOLUTE
    is_node_on_list                          0x000145bc   Data           0  QCA6174_SCAQBAFM.sym ABSOLUTE
    move_list                                0x000145c0   Data           0  QCA6174_SCAQBAFM.sym ABSOLUTE
    list_add                                 0x000145c4   Data           0  QCA6174_SCAQBAFM.sym ABSOLUTE
    list_add_tail                            0x000145c8   Data           0  QCA6174_SCAQBAFM.sym ABSOLUTE
    list_del                                 0x000145cc   Data           0  QCA6174_SCAQBAFM.sym ABSOLUTE
    os_memcmp                                0x000145d0   Data           0  QCA6174_SCAQBAFM.sym ABSOLUTE
    os_memset                                0x000145d4   Data           0  QCA6174_SCAQBAFM.sym ABSOLUTE
    os_memcpy                                0x000145d8   Data           0  QCA6174_SCAQBAFM.sym ABSOLUTE
    le_send_hci_command                      0x000145dc   Data           0  QCA6174_SCAQBAFM.sym ABSOLUTE
    LeReadRxPowerTask                        0x000145e0   Data           0  QCA6174_SCAQBAFM.sym ABSOLUTE
    LeReadTxPowerTask                        0x000145e4   Data           0  QCA6174_SCAQBAFM.sym ABSOLUTE
    MeHandleLEEncryptChange                  0x000145e8   Data           0  QCA6174_SCAQBAFM.sym ABSOLUTE
    MeHandleLEEncryptKeyRefresh              0x000145ec   Data           0  QCA6174_SCAQBAFM.sym ABSOLUTE
    MeHandleLEConnectComplete                0x000145f0   Data           0  QCA6174_SCAQBAFM.sym ABSOLUTE
    MeHandleLEDisconnectComplete             0x000145f4   Data           0  QCA6174_SCAQBAFM.sym ABSOLUTE
    LeReadBufSizeCompleteTask                0x000145f8   Data           0  QCA6174_SCAQBAFM.sym ABSOLUTE
    LeSetEventMaskTask                       0x000145fc   Data           0  QCA6174_SCAQBAFM.sym ABSOLUTE
    LeReadLocFeatureTask                     0x00014600   Data           0  QCA6174_SCAQBAFM.sym ABSOLUTE
    LeSetRandomAddrTask                      0x00014604   Data           0  QCA6174_SCAQBAFM.sym ABSOLUTE
    LeRandomNumTask                          0x00014608   Data           0  QCA6174_SCAQBAFM.sym ABSOLUTE
    LeWLSizeTask                             0x0001460c   Data           0  QCA6174_SCAQBAFM.sym ABSOLUTE
    LeClrWLTask                              0x00014610   Data           0  QCA6174_SCAQBAFM.sym ABSOLUTE
    LeAddToWLTask                            0x00014614   Data           0  QCA6174_SCAQBAFM.sym ABSOLUTE
    LeRemoveFromWLTask                       0x00014618   Data           0  QCA6174_SCAQBAFM.sym ABSOLUTE
    LeEncryptTask                            0x0001461c   Data           0  QCA6174_SCAQBAFM.sym ABSOLUTE
    LeReadStateTask                          0x00014620   Data           0  QCA6174_SCAQBAFM.sym ABSOLUTE
    LeSetAdvTask                             0x00014624   Data           0  QCA6174_SCAQBAFM.sym ABSOLUTE
    LeSetAdvDataTask                         0x00014628   Data           0  QCA6174_SCAQBAFM.sym ABSOLUTE
    LeSetScanparmsTask                       0x0001462c   Data           0  QCA6174_SCAQBAFM.sym ABSOLUTE
    LeSetScanDataTask                        0x00014630   Data           0  QCA6174_SCAQBAFM.sym ABSOLUTE
    LeEnableAdvTask                          0x00014634   Data           0  QCA6174_SCAQBAFM.sym ABSOLUTE
    LeReadAdvPowerTask                       0x00014638   Data           0  QCA6174_SCAQBAFM.sym ABSOLUTE
    LeDisconnectTask                         0x0001463c   Data           0  QCA6174_SCAQBAFM.sym ABSOLUTE
    LeUpdateConnTask                         0x00014640   Data           0  QCA6174_SCAQBAFM.sym ABSOLUTE
    LeSetHostChnTask                         0x00014644   Data           0  QCA6174_SCAQBAFM.sym ABSOLUTE
    LeReadChnMapTask                         0x00014648   Data           0  QCA6174_SCAQBAFM.sym ABSOLUTE
    LeRemoteFeatureTask                      0x0001464c   Data           0  QCA6174_SCAQBAFM.sym ABSOLUTE
    LeLTKReplyTask                           0x00014650   Data           0  QCA6174_SCAQBAFM.sym ABSOLUTE
    LeLTKNegReplyTask                        0x00014654   Data           0  QCA6174_SCAQBAFM.sym ABSOLUTE
    LE_HandleMetaEvent                       0x00014658   Data           0  QCA6174_SCAQBAFM.sym ABSOLUTE
    LeReadRxPower                            0x0001465c   Data           0  QCA6174_SCAQBAFM.sym ABSOLUTE
    LeReadTxPower                            0x00014660   Data           0  QCA6174_SCAQBAFM.sym ABSOLUTE
    MeHandleLEDataSent                       0x00014664   Data           0  QCA6174_SCAQBAFM.sym ABSOLUTE
    Hci_Send_LE_L2Cap_Data                   0x00014668   Data           0  QCA6174_SCAQBAFM.sym ABSOLUTE
    LeReadL2capData                          0x0001466c   Data           0  QCA6174_SCAQBAFM.sym ABSOLUTE
    LeReadBufferSize                         0x00014670   Data           0  QCA6174_SCAQBAFM.sym ABSOLUTE
    LeSetEventMask                           0x00014674   Data           0  QCA6174_SCAQBAFM.sym ABSOLUTE
    LeReadLocalBtaddr                        0x00014678   Data           0  QCA6174_SCAQBAFM.sym ABSOLUTE
    LeReadLocalFeature                       0x0001467c   Data           0  QCA6174_SCAQBAFM.sym ABSOLUTE
    LeSetRandomAddress                       0x00014680   Data           0  QCA6174_SCAQBAFM.sym ABSOLUTE
    LeReadWhiteList                          0x00014684   Data           0  QCA6174_SCAQBAFM.sym ABSOLUTE
    LeClrWhiteList                           0x00014688   Data           0  QCA6174_SCAQBAFM.sym ABSOLUTE
    LeRemoveFromWL                           0x0001468c   Data           0  QCA6174_SCAQBAFM.sym ABSOLUTE
    LeEncrpt                                 0x00014690   Data           0  QCA6174_SCAQBAFM.sym ABSOLUTE
    LeReadSupportState                       0x00014694   Data           0  QCA6174_SCAQBAFM.sym ABSOLUTE
    LeSetAdvParms                            0x00014698   Data           0  QCA6174_SCAQBAFM.sym ABSOLUTE
    LeSetAdvData                             0x0001469c   Data           0  QCA6174_SCAQBAFM.sym ABSOLUTE
    LeSetScanData                            0x000146a0   Data           0  QCA6174_SCAQBAFM.sym ABSOLUTE
    LeEnableAdv                              0x000146a4   Data           0  QCA6174_SCAQBAFM.sym ABSOLUTE
    LeReadAdvTxPower                         0x000146a8   Data           0  QCA6174_SCAQBAFM.sym ABSOLUTE
    LeDisconnect                             0x000146ac   Data           0  QCA6174_SCAQBAFM.sym ABSOLUTE
    LeUpdateConn                             0x000146b0   Data           0  QCA6174_SCAQBAFM.sym ABSOLUTE
    LeSetHostChn                             0x000146b4   Data           0  QCA6174_SCAQBAFM.sym ABSOLUTE
    LeReadChnMap                             0x000146b8   Data           0  QCA6174_SCAQBAFM.sym ABSOLUTE
    LeRemoteFeature                          0x000146bc   Data           0  QCA6174_SCAQBAFM.sym ABSOLUTE
    LeLTKReply                               0x000146c0   Data           0  QCA6174_SCAQBAFM.sym ABSOLUTE
    LeLTKNegReply                            0x000146c4   Data           0  QCA6174_SCAQBAFM.sym ABSOLUTE
    hci_init_radio                           0x000146c8   Data           0  QCA6174_SCAQBAFM.sym ABSOLUTE
    hci_uninit_radio                         0x000146cc   Data           0  QCA6174_SCAQBAFM.sym ABSOLUTE
    os_init                                  0x000146d0   Data           0  QCA6174_SCAQBAFM.sym ABSOLUTE
    os_deinit                                0x000146d4   Data           0  QCA6174_SCAQBAFM.sym ABSOLUTE
    LE_HandleHCIEvent                        0x000146d8   Data           0  QCA6174_SCAQBAFM.sym ABSOLUTE
    BLE_Init                                 0x000146dc   Data           0  QCA6174_SCAQBAFM.sym ABSOLUTE
    BLE_Exit                                 0x000146e0   Data           0  QCA6174_SCAQBAFM.sym ABSOLUTE
    BLE_Set_ATT_Timeout                      0x000146e4   Data           0  QCA6174_SCAQBAFM.sym ABSOLUTE
    gap_set_my_dev_name                      0x000146e8   Data           0  QCA6174_SCAQBAFM.sym ABSOLUTE
    gap_set_my_dev_appearance                0x000146ec   Data           0  QCA6174_SCAQBAFM.sym ABSOLUTE
    gap_start_discoverable_mode              0x000146f0   Data           0  QCA6174_SCAQBAFM.sym ABSOLUTE
    gap_stop_discoverable_mode               0x000146f4   Data           0  QCA6174_SCAQBAFM.sym ABSOLUTE
    gap_update_conn                          0x000146f8   Data           0  QCA6174_SCAQBAFM.sym ABSOLUTE
    gap_set_passkey                          0x000146fc   Data           0  QCA6174_SCAQBAFM.sym ABSOLUTE
    gap_encrypt                              0x00014700   Data           0  QCA6174_SCAQBAFM.sym ABSOLUTE
    gap_bond                                 0x00014704   Data           0  QCA6174_SCAQBAFM.sym ABSOLUTE
    gap_remove_bond                          0x00014708   Data           0  QCA6174_SCAQBAFM.sym ABSOLUTE
    gap_set_pass_through_mode                0x0001470c   Data           0  QCA6174_SCAQBAFM.sym ABSOLUTE
    gap_passthru_hci_command                 0x00014710   Data           0  QCA6174_SCAQBAFM.sym ABSOLUTE
    gap_set_my_dev_prefer_conn_param         0x00014714   Data           0  QCA6174_SCAQBAFM.sym ABSOLUTE
    _customer_gap_user_callback              0x00014718   Data           0  QCA6174_SCAQBAFM.sym ABSOLUTE
    gap_get_rmt_dev_rssi                     0x0001471c   Data           0  QCA6174_SCAQBAFM.sym ABSOLUTE
    gap_disconnect_conn                      0x00014720   Data           0  QCA6174_SCAQBAFM.sym ABSOLUTE
    gatt_register_server_callback            0x00014724   Data           0  QCA6174_SCAQBAFM.sym ABSOLUTE
    gap_register_callback                    0x00014728   Data           0  QCA6174_SCAQBAFM.sym ABSOLUTE
    gap_set_adv_param                        0x0001472c   Data           0  QCA6174_SCAQBAFM.sym ABSOLUTE
    gap_set_adv_data                         0x00014730   Data           0  QCA6174_SCAQBAFM.sym ABSOLUTE
    gap_set_scan_resp_data                   0x00014734   Data           0  QCA6174_SCAQBAFM.sym ABSOLUTE
    gap_set_adv_enable                       0x00014738   Data           0  QCA6174_SCAQBAFM.sym ABSOLUTE
    pru_gap_cb                               0x0001473c   Data           0  QCA6174_SCAQBAFM.sym ABSOLUTE
    pru_gatt_cb                              0x00014740   Data           0  QCA6174_SCAQBAFM.sym ABSOLUTE
    pru_sendNotification                     0x00014744   Data           0  QCA6174_SCAQBAFM.sym ABSOLUTE
    pru_periodicTask                         0x00014748   Data           0  QCA6174_SCAQBAFM.sym ABSOLUTE
    pru_init                                 0x0001474c   Data           0  QCA6174_SCAQBAFM.sym ABSOLUTE
    PRU_ModeTransit_sendAlert                0x00014750   Data           0  QCA6174_SCAQBAFM.sym ABSOLUTE
    PRUAPI_disableBuck                       0x00014754   Data           0  QCA6174_SCAQBAFM.sym ABSOLUTE
    PRUAPI_SetChargeOutput                   0x00014758   Data           0  QCA6174_SCAQBAFM.sym ABSOLUTE
    PRUAPI_SetCurrentLimit                   0x0001475c   Data           0  QCA6174_SCAQBAFM.sym ABSOLUTE
    PRUAPI_adjustVrect_min                   0x00014760   Data           0  QCA6174_SCAQBAFM.sym ABSOLUTE
    PRUAPI_EnableDataNotify                  0x00014764   Data           0  QCA6174_SCAQBAFM.sym ABSOLUTE
    PRUAPI_EnableAlertNotify                 0x00014768   Data           0  QCA6174_SCAQBAFM.sym ABSOLUTE
    PRUAPI_EnablePowerApplyNotify            0x0001476c   Data           0  QCA6174_SCAQBAFM.sym ABSOLUTE
    PRUAPI_updatePruStaticParam              0x00014770   Data           0  QCA6174_SCAQBAFM.sym ABSOLUTE
    PRUAPI_updatePruDynamicParam             0x00014774   Data           0  QCA6174_SCAQBAFM.sym ABSOLUTE
    PRUAPI_updateAppParam                    0x00014778   Data           0  QCA6174_SCAQBAFM.sym ABSOLUTE
    PRUAPI_GetChargingStatus                 0x0001477c   Data           0  QCA6174_SCAQBAFM.sym ABSOLUTE
    PRUAPI_StartHandoffToHost                0x00014780   Data           0  QCA6174_SCAQBAFM.sym ABSOLUTE
    PRUAPI_StartHandoffToFw                  0x00014784   Data           0  QCA6174_SCAQBAFM.sym ABSOLUTE
    pru_defineState                          0x00014788   Data           0  QCA6174_SCAQBAFM.sym ABSOLUTE
    pru_setState                             0x0001478c   Data           0  QCA6174_SCAQBAFM.sym ABSOLUTE
    WIP_TMR_CreateTimer                      0x00014790   Data           0  QCA6174_SCAQBAFM.sym ABSOLUTE
    WIP_TMR_StartTimer                       0x00014794   Data           0  QCA6174_SCAQBAFM.sym ABSOLUTE
    WIP_TMR_StopTimer                        0x00014798   Data           0  QCA6174_SCAQBAFM.sym ABSOLUTE
    WIP_TMR_AllocTimerTblIndex               0x0001479c   Data           0  QCA6174_SCAQBAFM.sym ABSOLUTE
    WIP_TMR_FreeTimerTblIndex                0x000147a0   Data           0  QCA6174_SCAQBAFM.sym ABSOLUTE
    WIP_TMR_RemoveTimer                      0x000147a4   Data           0  QCA6174_SCAQBAFM.sym ABSOLUTE
    WIP_TMR_InsertTimer                      0x000147a8   Data           0  QCA6174_SCAQBAFM.sym ABSOLUTE
    WIP_TMR_FreeTimer                        0x000147ac   Data           0  QCA6174_SCAQBAFM.sym ABSOLUTE
    WIP_TMR_EnqueueActiveList                0x000147b0   Data           0  QCA6174_SCAQBAFM.sym ABSOLUTE
    WIP_TMR_DequeueActiveList                0x000147b4   Data           0  QCA6174_SCAQBAFM.sym ABSOLUTE
    WIP_TMR_DeleteTimer                      0x000147b8   Data           0  QCA6174_SCAQBAFM.sym ABSOLUTE
    WIP_TMR_GetTimerActiveList               0x000147bc   Data           0  QCA6174_SCAQBAFM.sym ABSOLUTE
    WIP_TMR_SetTimer                         0x000147c0   Data           0  QCA6174_SCAQBAFM.sym ABSOLUTE
    WIP_LE_STACK_InitMemPool                 0x000147c4   Data           0  QCA6174_SCAQBAFM.sym ABSOLUTE
    WIP_LE_STACK_DeinitMemPool               0x000147c8   Data           0  QCA6174_SCAQBAFM.sym ABSOLUTE
    WIP_LE_STACK_malloc                      0x000147cc   Data           0  QCA6174_SCAQBAFM.sym ABSOLUTE
    WIP_LE_STACK_free                        0x000147d0   Data           0  QCA6174_SCAQBAFM.sym ABSOLUTE
    WIP_LE_STACK_Reset                       0x000147d4   Data           0  QCA6174_SCAQBAFM.sym ABSOLUTE
    WIP_LE_STACK_FILE_SYS_InitFileSystem     0x000147d8   Data           0  QCA6174_SCAQBAFM.sym ABSOLUTE
    WIP_LE_STACK_FILE_SYS_ResetFileSystem    0x000147dc   Data           0  QCA6174_SCAQBAFM.sym ABSOLUTE
    WIP_LE_STACK_FILE_SYS_CheckFileStatus    0x000147e0   Data           0  QCA6174_SCAQBAFM.sym ABSOLUTE
    WIP_LE_STACK_FILE_SYS_FileInit           0x000147e4   Data           0  QCA6174_SCAQBAFM.sym ABSOLUTE
    WIP_LE_STACK_FILE_SYS_FindDeviceEntry    0x000147e8   Data           0  QCA6174_SCAQBAFM.sym ABSOLUTE
    WIP_LE_STACK_FILE_SYS_LoadFile           0x000147ec   Data           0  QCA6174_SCAQBAFM.sym ABSOLUTE
    WIP_LE_STACK_FILE_SYS_GetHeader          0x000147f0   Data           0  QCA6174_SCAQBAFM.sym ABSOLUTE
    WIP_LE_STACK_FILE_SYS_AccessEntry        0x000147f4   Data           0  QCA6174_SCAQBAFM.sym ABSOLUTE
    WIP_LE_STACK_FILE_SYS_CommitFile         0x000147f8   Data           0  QCA6174_SCAQBAFM.sym ABSOLUTE
    WIP_LE_STACK_FILE_SYS_AddHeader          0x000147fc   Data           0  QCA6174_SCAQBAFM.sym ABSOLUTE
    WIP_LE_STACK_FILE_SYS_AddEntry           0x00014800   Data           0  QCA6174_SCAQBAFM.sym ABSOLUTE
    WIP_LE_STACK_FILE_SYS_DeleteEntry        0x00014804   Data           0  QCA6174_SCAQBAFM.sym ABSOLUTE
    WIP_LE_STACK_FILE_SYS_GetFirstEntry      0x00014808   Data           0  QCA6174_SCAQBAFM.sym ABSOLUTE
    WIP_LE_STACK_FILE_SYS_GetNextEntry       0x0001480c   Data           0  QCA6174_SCAQBAFM.sym ABSOLUTE
    WIP_LE_STACK_FILE_SYS_Init               0x00014810   Data           0  QCA6174_SCAQBAFM.sym ABSOLUTE
    coex_get_service_object_internal_v02     0x00014814   Data           0  QCA6174_SCAQBAFM.sym ABSOLUTE
    qmi_idl_get_max_message_len              0x00014818   Data           0  QCA6174_SCAQBAFM.sym ABSOLUTE
    qmi_idl_get_message_c_struct_len         0x0001481c   Data           0  QCA6174_SCAQBAFM.sym ABSOLUTE
    qmi_idl_get_inherited_service_object     0x00014820   Data           0  QCA6174_SCAQBAFM.sym ABSOLUTE
    wci2_hdlc_frame_and_escape               0x00014824   Data           0  QCA6174_SCAQBAFM.sym ABSOLUTE
    wci2_hdlc_unframe                        0x00014828   Data           0  QCA6174_SCAQBAFM.sym ABSOLUTE
    wci2_hdlc_buffer_and_unescape            0x0001482c   Data           0  QCA6174_SCAQBAFM.sym ABSOLUTE
    PFAL_ACI_HW_Lock                         0x00014830   Data           0  QCA6174_SCAQBAFM.sym ABSOLUTE
    PFAL_ACI_HW_Unlock                       0x00014834   Data           0  QCA6174_SCAQBAFM.sym ABSOLUTE
    PFAL_ACI_RINGBUF_FillSamples             0x00014838   Data           0  QCA6174_SCAQBAFM.sym ABSOLUTE
    PFAL_VOICE_PCM_Alloc                     0x0001483c   Data           0  QCA6174_SCAQBAFM.sym ABSOLUTE
    PFAL_VOICE_PCM_Free                      0x00014840   Data           0  QCA6174_SCAQBAFM.sym ABSOLUTE
    PFAL_VOICE_PCM_Config                    0x00014844   Data           0  QCA6174_SCAQBAFM.sym ABSOLUTE
    PFAL_VOICE_PCM_Get_Sample_Count          0x00014848   Data           0  QCA6174_SCAQBAFM.sym ABSOLUTE
    pcm_smpl_sink_source                     0x0001484c   Data           0  QCA6174_SCAQBAFM.sym ABSOLUTE
    PFAL_VOICE_PCM_Init                      0x00014884   Data           0  QCA6174_SCAQBAFM.sym ABSOLUTE
    PFAL_VOICE_NBS_Functions                 0x00014888   Data           0  QCA6174_SCAQBAFM.sym ABSOLUTE
    PFAL_VOICE_Handle_Transcode_Done         0x000148a0   Data           0  QCA6174_SCAQBAFM.sym ABSOLUTE
    PFAL_VOICE_NBS_patch_hook                0x000148a4   Data           0  QCA6174_SCAQBAFM.sym ABSOLUTE
    nbs_processing                           0x000148a8   Data           0  QCA6174_SCAQBAFM.sym ABSOLUTE
    PFAL_VOICE_NBS_Proc_Init                 0x000148bc   Data           0  QCA6174_SCAQBAFM.sym ABSOLUTE
    PFAL_VOICE_WBS_Functions                 0x000148c0   Data           0  QCA6174_SCAQBAFM.sym ABSOLUTE
    PFAL_VOICE_WBS_ReadMicSample             0x000148d8   Data           0  QCA6174_SCAQBAFM.sym ABSOLUTE
    PFAL_VOICE_WBS_Encode                    0x000148dc   Data           0  QCA6174_SCAQBAFM.sym ABSOLUTE
    PFAL_VOICE_WBS_Decode                    0x000148e0   Data           0  QCA6174_SCAQBAFM.sym ABSOLUTE
    PFAL_VOICE_WBS_WriteSpkrSample           0x000148e4   Data           0  QCA6174_SCAQBAFM.sym ABSOLUTE
    PFAL_VOICE_WBS_PLC                       0x000148e8   Data           0  QCA6174_SCAQBAFM.sym ABSOLUTE
    PFAL_VOICE_WBS_RecoverChecksumError      0x000148ec   Data           0  QCA6174_SCAQBAFM.sym ABSOLUTE
    wbs_processing                           0x000148f0   Data           0  QCA6174_SCAQBAFM.sym ABSOLUTE
    USB_TXP_HIF_PA_ActionHandle              0x00014904   Data           0  QCA6174_SCAQBAFM.sym ABSOLUTE
    USB_TXP_SetHIF_Callback                  0x00014908   Data           0  QCA6174_SCAQBAFM.sym ABSOLUTE
    USB_TXP_ClearHIF_Callback                0x0001490c   Data           0  QCA6174_SCAQBAFM.sym ABSOLUTE
    PFAL_USB_TXP_Activate                    0x00014910   Data           0  QCA6174_SCAQBAFM.sym ABSOLUTE
    PFAL_USB_TXP_Deactivate                  0x00014914   Data           0  QCA6174_SCAQBAFM.sym ABSOLUTE
    USB_TXP_Send_Data_Active                 0x00014918   Data           0  QCA6174_SCAQBAFM.sym ABSOLUTE
    USB_TXP_SendE                            0x0001491c   Data           0  QCA6174_SCAQBAFM.sym ABSOLUTE
    USB_TXP_ActiveRetry                      0x00014920   Data           0  QCA6174_SCAQBAFM.sym ABSOLUTE
    USB_TXP_Send_Data_InActive               0x00014924   Data           0  QCA6174_SCAQBAFM.sym ABSOLUTE
    USB_BT_EvtDone_Callback                  0x00014928   Data           0  QCA6174_SCAQBAFM.sym ABSOLUTE
    USB_BT_SCO_Build_Pkt                     0x0001492c   Data           0  QCA6174_SCAQBAFM.sym ABSOLUTE
    USB_BT_Start_Tx                          0x00014930   Data           0  QCA6174_SCAQBAFM.sym ABSOLUTE
    BT_RxACL_Remain                          0x00014934   Data           0  QCA6174_SCAQBAFM.sym ABSOLUTE
    USB_BT_RxDone_Hook                       0x00014938   Data           0  QCA6174_SCAQBAFM.sym ABSOLUTE
    USB_BT_RxDone                            0x0001493c   Data           0  QCA6174_SCAQBAFM.sym ABSOLUTE
    BT_Intfc0_Handle_Class_Req               0x00014940   Data           0  QCA6174_SCAQBAFM.sym ABSOLUTE
    USB_BT_Start_Rx                          0x00014944   Data           0  QCA6174_SCAQBAFM.sym ABSOLUTE
    USB_BT_Intfc0_Init                       0x00014948   Data           0  QCA6174_SCAQBAFM.sym ABSOLUTE
    USB_BT_Intfc1_Init                       0x0001494c   Data           0  QCA6174_SCAQBAFM.sym ABSOLUTE
    USB_BT_TxDone                            0x00014950   Data           0  QCA6174_SCAQBAFM.sym ABSOLUTE
    USB_BT_EP_TxRx                           0x00014954   Data           0  QCA6174_SCAQBAFM.sym ABSOLUTE
    USB_BT_Tx                                0x00014958   Data           0  QCA6174_SCAQBAFM.sym ABSOLUTE
    USB_HandleIncompISOOUTInterrupt          0x0001495c   Data           0  QCA6174_SCAQBAFM.sym ABSOLUTE
    USB_HandleIncompISOINInterrupt           0x00014960   Data           0  QCA6174_SCAQBAFM.sym ABSOLUTE
    USB_Class_BT_Init                        0x00014964   Data           0  QCA6174_SCAQBAFM.sym ABSOLUTE
    ANT_MainInit                             0x00014968   Data           0  QCA6174_SCAQBAFM.sym ABSOLUTE
    ANT_MainMesgHandler                      0x0001496c   Data           0  QCA6174_SCAQBAFM.sym ABSOLUTE
    ANT_MainStartTxService                   0x00014970   Data           0  QCA6174_SCAQBAFM.sym ABSOLUTE
    ANT_MainReset                            0x00014974   Data           0  QCA6174_SCAQBAFM.sym ABSOLUTE
    ANT_MainVSMesgHandler                    0x00014978   Data           0  QCA6174_SCAQBAFM.sym ABSOLUTE
    CALLBACK_AntEvent                        0x0001497c   Data           0  QCA6174_SCAQBAFM.sym ABSOLUTE
    PF_COEX_getPriority_4_BR_EDR_Conn        0x00014980   Data           0  QCA6174_SCAQBAFM.sym ABSOLUTE
    HID_init                                 0x00014984   Data           0  QCA6174_SCAQBAFM.sym ABSOLUTE
    HID_SystemReady                          0x00014988   Data           0  QCA6174_SCAQBAFM.sym ABSOLUTE
    HID_Recv_HCI_COMMAND                     0x0001498c   Data           0  QCA6174_SCAQBAFM.sym ABSOLUTE
    HID_Recv_Led_Status_Data                 0x00014990   Data           0  QCA6174_SCAQBAFM.sym ABSOLUTE
    HID_ProcE_HCI_PACKET                     0x00014994   Data           0  QCA6174_SCAQBAFM.sym ABSOLUTE
    HID_ProcE_SET_IDLE_KBD                   0x00014998   Data           0  QCA6174_SCAQBAFM.sym ABSOLUTE
    HID_ProcE_SET_IDLE_CLEAR_KBD             0x0001499c   Data           0  QCA6174_SCAQBAFM.sym ABSOLUTE
    HID_ProcE_USB_LED_STATUS                 0x000149a0   Data           0  QCA6174_SCAQBAFM.sym ABSOLUTE
    HID_LoadStack                            0x000149a4   Data           0  QCA6174_SCAQBAFM.sym ABSOLUTE
    HID_UnloadStack                          0x000149a8   Data           0  QCA6174_SCAQBAFM.sym ABSOLUTE
    HID_SendL2capData                        0x000149ac   Data           0  QCA6174_SCAQBAFM.sym ABSOLUTE
    HID_SendLedStatusReport                  0x000149b0   Data           0  QCA6174_SCAQBAFM.sym ABSOLUTE
    HID_SelectDeviceByIndex                  0x000149b4   Data           0  QCA6174_SCAQBAFM.sym ABSOLUTE
    HID_StackLoaded                          0x000149b8   Data           0  QCA6174_SCAQBAFM.sym ABSOLUTE
    HID_StackUnloaded                        0x000149bc   Data           0  QCA6174_SCAQBAFM.sym ABSOLUTE
    HID_SendHciCommand                       0x000149c0   Data           0  QCA6174_SCAQBAFM.sym ABSOLUTE
    HID_SendInputReport                      0x000149c4   Data           0  QCA6174_SCAQBAFM.sym ABSOLUTE
    HID_SelectDeviceByHciHandle              0x000149c8   Data           0  QCA6174_SCAQBAFM.sym ABSOLUTE
    HID_SelectDeviceByAddress                0x000149cc   Data           0  QCA6174_SCAQBAFM.sym ABSOLUTE
    LLM_CQDDR_EvaluatePrefRateFEC_BR         0x000149d0   Data           0  QCA6174_SCAQBAFM.sym ABSOLUTE
    LLM_CQDDR_Init                           0x000149d4   Data           0  QCA6174_SCAQBAFM.sym ABSOLUTE
    LLM_CQDDR_getNextPreferedPktType_EDR     0x000149d8   Data           0  QCA6174_SCAQBAFM.sym ABSOLUTE
    LLM_CQDDR_Init_EDR_eSCO                  0x000149dc   Data           0  QCA6174_SCAQBAFM.sym ABSOLUTE
    LLM_CQDDR_lmp_eSCO_NegotiationHandler    0x000149e0   Data           0  QCA6174_SCAQBAFM.sym ABSOLUTE
    LLM_CQDDR_EvaluateMetrics_EDR_eSCO       0x000149e4   Data           0  QCA6174_SCAQBAFM.sym ABSOLUTE
    LLM_CQDDR_UpdateEvalCount                0x000149e8   Data           0  QCA6174_SCAQBAFM.sym ABSOLUTE
    LLM_CQDDR_evalConnectionCQDDR            0x000149ec   Data           0  QCA6174_SCAQBAFM.sym ABSOLUTE
    LLM_CQDDR_getPacketTypes_fromPrefRate    0x000149f0   Data           0  QCA6174_SCAQBAFM.sym ABSOLUTE
    LLM_CQDDR_Init_CQDDRstate_EDR_eSCO       0x000149f4   Data           0  QCA6174_SCAQBAFM.sym ABSOLUTE
    LLM_CQDDR_eval_CQDDR                     0x000149f8   Data           0  QCA6174_SCAQBAFM.sym ABSOLUTE
    LLM_EDR_LT_DataRateCntrl                 0x000149fc   Data           0  QCA6174_SCAQBAFM.sym ABSOLUTE
    LLM_sendLMP_packet_type_table_req        0x00014a00   Data           0  QCA6174_SCAQBAFM.sym ABSOLUTE
    LLM_EDR_PacketTypeTableValid             0x00014a04   Data           0  QCA6174_SCAQBAFM.sym ABSOLUTE
    LLM_lmpSeqEDR_Handler                    0x00014a08   Data           0  QCA6174_SCAQBAFM.sym ABSOLUTE
    LLM_EDR_evalConnDataRate                 0x00014a0c   Data           0  QCA6174_SCAQBAFM.sym ABSOLUTE
    LLM_HCI_LE_packHCI_EventHeader           0x00014a10   Data           0  QCA6174_SCAQBAFM.sym ABSOLUTE
    LLM_HCI_LE_sendHCI_ConnectionUpdateComplete_Event 0x00014a14   Data           0  QCA6174_SCAQBAFM.sym ABSOLUTE
    LLM_HCI_LE_sendHCI_Advertising_Report_Event 0x00014a18   Data           0  QCA6174_SCAQBAFM.sym ABSOLUTE
    LLM_HCI_LE_Read_Remote_Used_Features_Complete_Event 0x00014a1c   Data           0  QCA6174_SCAQBAFM.sym ABSOLUTE
    LLM_HCI_LE_ConnectionUpdateComplete_Event 0x00014a20   Data           0  QCA6174_SCAQBAFM.sym ABSOLUTE
    LLM_HCI_LE_ConnCompleteEvent             0x00014a24   Data           0  QCA6174_SCAQBAFM.sym ABSOLUTE
    LLM_HCI_LE_LongTermKeyRequested_Event    0x00014a28   Data           0  QCA6174_SCAQBAFM.sym ABSOLUTE
    LLM_HCI_LE_RemoteConnParamRequest_Event  0x00014a2c   Data           0  QCA6174_SCAQBAFM.sym ABSOLUTE
    LLM_LE_sendHCI_EncryptionEvent           0x00014a30   Data           0  QCA6174_SCAQBAFM.sym ABSOLUTE
    LLM_LE_packCtrl_PDU                      0x00014a34   Data           0  QCA6174_SCAQBAFM.sym ABSOLUTE
    LLM_LE_putCtrl                           0x00014a38   Data           0  QCA6174_SCAQBAFM.sym ABSOLUTE
    LLM_LE_packCtrl_EncReq                   0x00014a3c   Data           0  QCA6174_SCAQBAFM.sym ABSOLUTE
    LLM_LE_sendCtrlPdu_oneByte               0x00014a40   Data           0  QCA6174_SCAQBAFM.sym ABSOLUTE
    LLM_LE_sendCtrl_NoPayload                0x00014a44   Data           0  QCA6174_SCAQBAFM.sym ABSOLUTE
    LLM_LE_sendCtrl_ChannelMapReq            0x00014a48   Data           0  QCA6174_SCAQBAFM.sym ABSOLUTE
    LLM_LE_sendCtrl_ConnectionUpdateReq      0x00014a4c   Data           0  QCA6174_SCAQBAFM.sym ABSOLUTE
    LLM_LE_sendCtrl_EncReq                   0x00014a50   Data           0  QCA6174_SCAQBAFM.sym ABSOLUTE
    LLM_LE_sendCtrl_EncRsp                   0x00014a54   Data           0  QCA6174_SCAQBAFM.sym ABSOLUTE
    LLM_LE_sendCtrl_FeatureReq               0x00014a58   Data           0  QCA6174_SCAQBAFM.sym ABSOLUTE
    LLM_LE_sendCtrl_FeatureRsp               0x00014a5c   Data           0  QCA6174_SCAQBAFM.sym ABSOLUTE
    LLM_LE_sendCtrl_VersionInd               0x00014a60   Data           0  QCA6174_SCAQBAFM.sym ABSOLUTE
    LLM_LE_sendCtrl_RejectInd                0x00014a64   Data           0  QCA6174_SCAQBAFM.sym ABSOLUTE
    LLM_LE_sendCtrl_ConnParamNego            0x00014a68   Data           0  QCA6174_SCAQBAFM.sym ABSOLUTE
    LLM_LE_rxCtrl                            0x00014a6c   Data           0  QCA6174_SCAQBAFM.sym ABSOLUTE
    LLM_LE_encrEvalEvent                     0x00014a70   Data           0  QCA6174_SCAQBAFM.sym ABSOLUTE
    LLM_LE_encrDoEncryptionStartup           0x00014a74   Data           0  QCA6174_SCAQBAFM.sym ABSOLUTE
    LLM_LE_encrHandleStartEncryption         0x00014a78   Data           0  QCA6174_SCAQBAFM.sym ABSOLUTE
    LLM_LE_encrHandleEncReq                  0x00014a7c   Data           0  QCA6174_SCAQBAFM.sym ABSOLUTE
    LLM_init_AES_CCM_cryptoIntfc_LE          0x00014a80   Data           0  QCA6174_SCAQBAFM.sym ABSOLUTE
    LLM_LE_encrHandleEncRsp                  0x00014a84   Data           0  QCA6174_SCAQBAFM.sym ABSOLUTE
    LLM_LE_encrHandleStartEncReq             0x00014a88   Data           0  QCA6174_SCAQBAFM.sym ABSOLUTE
    LLM_LE_encrHandleStartEncRsp             0x00014a8c   Data           0  QCA6174_SCAQBAFM.sym ABSOLUTE
    LLM_LE_encrHandleLtk                     0x00014a90   Data           0  QCA6174_SCAQBAFM.sym ABSOLUTE
    LLM_LE_encrHandlePauseEncRsp             0x00014a94   Data           0  QCA6174_SCAQBAFM.sym ABSOLUTE
    LLM_LE_encrHandlePauseEncRspTxAck        0x00014a98   Data           0  QCA6174_SCAQBAFM.sym ABSOLUTE
    LLM_LE_encrHandlePauseEncReq             0x00014a9c   Data           0  QCA6174_SCAQBAFM.sym ABSOLUTE
    LLM_LE_encrHandleRejectInd               0x00014aa0   Data           0  QCA6174_SCAQBAFM.sym ABSOLUTE
    LLM_LE_encrAbortConn                     0x00014aa4   Data           0  QCA6174_SCAQBAFM.sym ABSOLUTE
    LLM_LE_swapByteOrder                     0x00014aa8   Data           0  QCA6174_SCAQBAFM.sym ABSOLUTE
    LLM_LE_swapByteOrderInPlace              0x00014aac   Data           0  QCA6174_SCAQBAFM.sym ABSOLUTE
    LLM_LE_encrIsEncryptionSetupInProgress   0x00014ab0   Data           0  QCA6174_SCAQBAFM.sym ABSOLUTE
    LLM_NegotiateHoldTime                    0x00014ab4   Data           0  QCA6174_SCAQBAFM.sym ABSOLUTE
    LLM_getInitialHoldModeIntervalRange      0x00014ab8   Data           0  QCA6174_SCAQBAFM.sym ABSOLUTE
    LLM_lmpSeqHoldHandler                    0x00014abc   Data           0  QCA6174_SCAQBAFM.sym ABSOLUTE
    LLM_NegotiateSniffParam                  0x00014ac0   Data           0  QCA6174_SCAQBAFM.sym ABSOLUTE
    LLM_procSniffTimingCtlFlag               0x00014ac4   Data           0  QCA6174_SCAQBAFM.sym ABSOLUTE
    LLM_handleUnsniffReq                     0x00014ac8   Data           0  QCA6174_SCAQBAFM.sym ABSOLUTE
    LLM_handleHostTerminateSniff             0x00014acc   Data           0  QCA6174_SCAQBAFM.sym ABSOLUTE
    LLM_computeSubrate                       0x00014ad0   Data           0  QCA6174_SCAQBAFM.sym ABSOLUTE
    LLM_sendHCI_SniffSubrateEvent            0x00014ad4   Data           0  QCA6174_SCAQBAFM.sym ABSOLUTE
    LLM_clearSniffSubrateParams              0x00014ad8   Data           0  QCA6174_SCAQBAFM.sym ABSOLUTE
    LLM_allocSniffSubrateParams              0x00014adc   Data           0  QCA6174_SCAQBAFM.sym ABSOLUTE
    LLM_handleSniffSubrateReq                0x00014ae0   Data           0  QCA6174_SCAQBAFM.sym ABSOLUTE
    LLM_genSniffSubrateReq                   0x00014ae4   Data           0  QCA6174_SCAQBAFM.sym ABSOLUTE
    LLM_SniffSubrate_UpdateHostParameters    0x00014ae8   Data           0  QCA6174_SCAQBAFM.sym ABSOLUTE
    LLM_lmpSeqSniffHandler                   0x00014aec   Data           0  QCA6174_SCAQBAFM.sym ABSOLUTE
    LLM_lp_sniff_patch_hook                  0x00014af0   Data           0  QCA6174_SCAQBAFM.sym ABSOLUTE
    LLM_lowPowerSeqDeferProc                 0x00014af4   Data           0  QCA6174_SCAQBAFM.sym ABSOLUTE
    LLM_SniffSubrate_Eval_LSTO               0x00014af8   Data           0  QCA6174_SCAQBAFM.sym ABSOLUTE
    LLM_SniffSubrate_handleHCISniffSubrateParams 0x00014afc   Data           0  QCA6174_SCAQBAFM.sym ABSOLUTE
    LLM_initiateLMP_PagingSchemeSeq          0x00014b00   Data           0  QCA6174_SCAQBAFM.sym ABSOLUTE
    LLM_notifyPagingSchemeChange             0x00014b04   Data           0  QCA6174_SCAQBAFM.sym ABSOLUTE
    LLM_processRoleSwitchComplete            0x00014b08   Data           0  QCA6174_SCAQBAFM.sym ABSOLUTE
    LLM_terminateRoleSwitch                  0x00014b0c   Data           0  QCA6174_SCAQBAFM.sym ABSOLUTE
    LLM_RoleSwitch_getSlavePiconet           0x00014b10   Data           0  QCA6174_SCAQBAFM.sym ABSOLUTE
    LLM_RoleSwitch_Response                  0x00014b14   Data           0  QCA6174_SCAQBAFM.sym ABSOLUTE
    LLM_RoleSwitch_Initiate                  0x00014b18   Data           0  QCA6174_SCAQBAFM.sym ABSOLUTE
    LLM_RoleSwitch_handleReq                 0x00014b1c   Data           0  QCA6174_SCAQBAFM.sym ABSOLUTE
    LLM_SPAIRING_getLinkKeyClass             0x00014b20   Data           0  QCA6174_SCAQBAFM.sym ABSOLUTE
    LLM_SPAIRING_AUTH_STAGE1_EventHlr        0x00014b24   Data           0  QCA6174_SCAQBAFM.sym ABSOLUTE
    LLM_SPAIRING_AUTH_STAGE1_ConfirmHlr      0x00014b3c   Data           0  QCA6174_SCAQBAFM.sym ABSOLUTE
    LLM_SPAIRING_AUTH_STAGE1_process_event   0x00014b48   Data           0  QCA6174_SCAQBAFM.sym ABSOLUTE
    LLM_SPAIRING_AUTH_STAGE1_setupKeyConfirmInfo 0x00014b4c   Data           0  QCA6174_SCAQBAFM.sym ABSOLUTE
    LLM_SPAIRING_AUTH_STAGE1_getProcedure    0x00014b50   Data           0  QCA6174_SCAQBAFM.sym ABSOLUTE
    LLM_SPAIRING_calcLinkKey                 0x00014b54   Data           0  QCA6174_SCAQBAFM.sym ABSOLUTE
    LLM_SPAIRING_get_HCI_Local_OOB_Data      0x00014b58   Data           0  QCA6174_SCAQBAFM.sym ABSOLUTE
    LLM_SPAIRING_get_HCI_Local_OOB_Extended_Data 0x00014b5c   Data           0  QCA6174_SCAQBAFM.sym ABSOLUTE
    LLM_SPAIRING_eval4DebugPublicKey         0x00014b60   Data           0  QCA6174_SCAQBAFM.sym ABSOLUTE
    LLM_addHCI_Filter                        0x00014b64   Data           0  QCA6174_SCAQBAFM.sym ABSOLUTE
    LLM_initHCI_FilterDatabase               0x00014b68   Data           0  QCA6174_SCAQBAFM.sym ABSOLUTE
    LLM_clearAllHCI_Filters                  0x00014b6c   Data           0  QCA6174_SCAQBAFM.sym ABSOLUTE
    LLM_clearHCI_FilterType                  0x00014b70   Data           0  QCA6174_SCAQBAFM.sym ABSOLUTE
    LLM_isAutoAcceptAll                      0x00014b74   Data           0  QCA6174_SCAQBAFM.sym ABSOLUTE
    LLM_isAutoAccept                         0x00014b78   Data           0  QCA6174_SCAQBAFM.sym ABSOLUTE
    LLM_isAllClearHCI_FilterType             0x00014b7c   Data           0  QCA6174_SCAQBAFM.sym ABSOLUTE
    LLM_isAllClearHCI_Filter                 0x00014b80   Data           0  QCA6174_SCAQBAFM.sym ABSOLUTE
    LLM_passThruHCI_Filter                   0x00014b84   Data           0  QCA6174_SCAQBAFM.sym ABSOLUTE
    LLM_checkCondition                       0x00014b88   Data           0  QCA6174_SCAQBAFM.sym ABSOLUTE
    LLM_create_Inquiry_BDADDR_List           0x00014b8c   Data           0  QCA6174_SCAQBAFM.sym ABSOLUTE
    LLM_eval_HCI_ConnSetupFilter             0x00014b90   Data           0  QCA6174_SCAQBAFM.sym ABSOLUTE
    LLM_init_Inquiry_BDADDR_List             0x00014b94   Data           0  QCA6174_SCAQBAFM.sym ABSOLUTE
    LLM_add_BDADDR_list                      0x00014b98   Data           0  QCA6174_SCAQBAFM.sym ABSOLUTE
    LLM_search_BDADDR_list                   0x00014b9c   Data           0  QCA6174_SCAQBAFM.sym ABSOLUTE
    LLM_get_BDADDR_list_Info                 0x00014ba0   Data           0  QCA6174_SCAQBAFM.sym ABSOLUTE
    LLM_set_BDADDR_list_Info                 0x00014ba4   Data           0  QCA6174_SCAQBAFM.sym ABSOLUTE
    LLM_LE_cmSendTerminateInd                0x00014ba8   Data           0  QCA6174_SCAQBAFM.sym ABSOLUTE
    LLM_LE_prepForChanMapUpdate              0x00014bac   Data           0  QCA6174_SCAQBAFM.sym ABSOLUTE
    LLM_LE_prepForConnParamUpdate            0x00014bb0   Data           0  QCA6174_SCAQBAFM.sym ABSOLUTE
    LLM_LE_prepForConnParamNego              0x00014bb4   Data           0  QCA6174_SCAQBAFM.sym ABSOLUTE
    LLM_LE_ctrlSeqHandleLocalConnParamUpdate 0x00014bb8   Data           0  QCA6174_SCAQBAFM.sym ABSOLUTE
    LLM_LE_ctrlSeqHandleLocalCHMapUpdate     0x00014bbc   Data           0  QCA6174_SCAQBAFM.sym ABSOLUTE
    LLM_LE_ctrlSeqHandleRemoteUpdate         0x00014bc0   Data           0  QCA6174_SCAQBAFM.sym ABSOLUTE
    LLM_LE_ctrlSeqHandleFeatureReqLocal      0x00014bc4   Data           0  QCA6174_SCAQBAFM.sym ABSOLUTE
    LLM_LE_ctrlSeqHandleFeatureReqRemote     0x00014bc8   Data           0  QCA6174_SCAQBAFM.sym ABSOLUTE
    LLM_LE_ctrlSeqHandleFeatureRsp           0x00014bcc   Data           0  QCA6174_SCAQBAFM.sym ABSOLUTE
    LLM_LE_ctrlSeqHandleVersionInd           0x00014bd0   Data           0  QCA6174_SCAQBAFM.sym ABSOLUTE
    LLM_LE_ctrlSeqHandleVersionReq           0x00014bd4   Data           0  QCA6174_SCAQBAFM.sym ABSOLUTE
    LLM_LE_ctrlSeqHandlePingReqLocal         0x00014bd8   Data           0  QCA6174_SCAQBAFM.sym ABSOLUTE
    LLM_LE_ctrlSeqHandlePingReqRemote        0x00014bdc   Data           0  QCA6174_SCAQBAFM.sym ABSOLUTE
    LLM_LE_ctrlSeqHandlePingRsp              0x00014be0   Data           0  QCA6174_SCAQBAFM.sym ABSOLUTE
    LLM_LE_ctrlSeqUpdateHandler              0x00014be4   Data           0  QCA6174_SCAQBAFM.sym ABSOLUTE
    LLM_LE_computeUpdateWinOffset            0x00014be8   Data           0  QCA6174_SCAQBAFM.sym ABSOLUTE
    LLM_LE_ctrlSeqInProgress                 0x00014bec   Data           0  QCA6174_SCAQBAFM.sym ABSOLUTE
    LLM_LE_MarkChannelBad                    0x00014bf0   Data           0  QCA6174_SCAQBAFM.sym ABSOLUTE
    LLM_LE_IsChannelGood                     0x00014bf4   Data           0  QCA6174_SCAQBAFM.sym ABSOLUTE
    LLM_LE_DeferredCommandEnqueue            0x00014bf8   Data           0  QCA6174_SCAQBAFM.sym ABSOLUTE
    LLM_LE_ConnParmReq_Need_Host             0x00014bfc   Data           0  QCA6174_SCAQBAFM.sym ABSOLUTE
    llm_le_connmngr_patch_hook               0x00014c00   Data           0  QCA6174_SCAQBAFM.sym ABSOLUTE
    LLM_LE_cmFSMroutines                     0x00014c04   Data           0  QCA6174_SCAQBAFM.sym ABSOLUTE
    LLM_LE_cmEvalEvent                       0x00014c24   Data           0  QCA6174_SCAQBAFM.sym ABSOLUTE
    LLM_LE_RebuildLocalChannelMap            0x00014c28   Data           0  QCA6174_SCAQBAFM.sym ABSOLUTE
    LLM_LE_UpdateAllLink                     0x00014c2c   Data           0  QCA6174_SCAQBAFM.sym ABSOLUTE
    LLM_LE_MarkChannelGood                   0x00014c30   Data           0  QCA6174_SCAQBAFM.sym ABSOLUTE
    LLM_LE_DeferredCommandDequeue            0x00014c34   Data           0  QCA6174_SCAQBAFM.sym ABSOLUTE
    LLM_LE_SendDefCmdCompleteEvent           0x00014c38   Data           0  QCA6174_SCAQBAFM.sym ABSOLUTE
    ShiftUpPoly                              0x00014c3c   Data           0  QCA6174_SCAQBAFM.sym ABSOLUTE
    ShiftDownPoly                            0x00014c40   Data           0  QCA6174_SCAQBAFM.sym ABSOLUTE
    ShiftAndXORMultLFSR                      0x00014c44   Data           0  QCA6174_SCAQBAFM.sym ABSOLUTE
    LLM_rs_mult_polynomials                  0x00014c48   Data           0  QCA6174_SCAQBAFM.sym ABSOLUTE
    LLM_rs_div_polynomials                   0x00014c4c   Data           0  QCA6174_SCAQBAFM.sym ABSOLUTE
    LLM_getEncryptionKeyRefreshClk           0x00014c50   Data           0  QCA6174_SCAQBAFM.sym ABSOLUTE
    LLM_updateEncryptionKeyRefreshClk        0x00014c54   Data           0  QCA6174_SCAQBAFM.sym ABSOLUTE
    LLM_startTransaction                     0x00014c58   Data           0  QCA6174_SCAQBAFM.sym ABSOLUTE
    LLM_procLmpRx                            0x00014c5c   Data           0  QCA6174_SCAQBAFM.sym ABSOLUTE
    LLM_lmpSequenceState2Idle                0x00014c60   Data           0  QCA6174_SCAQBAFM.sym ABSOLUTE
    LLM_initiateLMP_Authentication           0x00014c64   Data           0  QCA6174_SCAQBAFM.sym ABSOLUTE
    LLM_processLMP_aurand                    0x00014c68   Data           0  QCA6174_SCAQBAFM.sym ABSOLUTE
    LLM_requestLinkKey                       0x00014c6c   Data           0  QCA6174_SCAQBAFM.sym ABSOLUTE
    LLM_requestPIN                           0x00014c70   Data           0  QCA6174_SCAQBAFM.sym ABSOLUTE
    LLM_initiateLMP_Pairing                  0x00014c74   Data           0  QCA6174_SCAQBAFM.sym ABSOLUTE
    LLM_init_AES_CCM_cryptoIntfc_BR_EDR      0x00014c78   Data           0  QCA6174_SCAQBAFM.sym ABSOLUTE
    LLM_rxDetach                             0x00014c7c   Data           0  QCA6174_SCAQBAFM.sym ABSOLUTE
    LLM_pairingCreate_Kinit                  0x00014c80   Data           0  QCA6174_SCAQBAFM.sym ABSOLUTE
    LLM_getCombinationLinkKeyClass           0x00014c84   Data           0  QCA6174_SCAQBAFM.sym ABSOLUTE
    LLM_sendLMP_ChangeLinkKey                0x00014c88   Data           0  QCA6174_SCAQBAFM.sym ABSOLUTE
    LLM_initiateLMP_ChangeLinkKey            0x00014c8c   Data           0  QCA6174_SCAQBAFM.sym ABSOLUTE
    LLM_processLMP_ChangeLinkKey             0x00014c90   Data           0  QCA6174_SCAQBAFM.sym ABSOLUTE
    LLM_evalMasterPiconetKeySize             0x00014c94   Data           0  QCA6174_SCAQBAFM.sym ABSOLUTE
    LLM_initiateLMP_Encryption               0x00014c98   Data           0  QCA6174_SCAQBAFM.sym ABSOLUTE
    LLM_initiateLMP_EncryptionKeySizeNegotiation 0x00014c9c   Data           0  QCA6174_SCAQBAFM.sym ABSOLUTE
    LLM_initiateLMP_EncryptionPause          0x00014ca0   Data           0  QCA6174_SCAQBAFM.sym ABSOLUTE
    LLM_mapHCI_2_LMP_OOB_type                0x00014ca4   Data           0  QCA6174_SCAQBAFM.sym ABSOLUTE
    LLM_LMPSeqHlr_IDLE                       0x00014ca8   Data           0  QCA6174_SCAQBAFM.sym ABSOLUTE
    LLM_LMPSeqHlr_AUTHEN_W4_HOST_LINK_KEY    0x00014cac   Data           0  QCA6174_SCAQBAFM.sym ABSOLUTE
    LLM_LMPSeqHlr_AUTHEN_W4_SRES             0x00014cb0   Data           0  QCA6174_SCAQBAFM.sym ABSOLUTE
    LLM_LMPSeqHlr_AUTHEN_SECURE_W4_AU_RAND   0x00014cb4   Data           0  QCA6174_SCAQBAFM.sym ABSOLUTE
    LLM_LMPSeqHlr_AUTHEN_SECURE_W4_SRES      0x00014cb8   Data           0  QCA6174_SCAQBAFM.sym ABSOLUTE
    LLM_LMPSeqHlr_PAIRING_W4_PIN             0x00014cbc   Data           0  QCA6174_SCAQBAFM.sym ABSOLUTE
    LLM_LMPSeqHlr_PAIRING_W4_INIT_KEY_RESP   0x00014cc0   Data           0  QCA6174_SCAQBAFM.sym ABSOLUTE
    LLM_LMPSeqHlr_PAIRING_W4_NEW_KEY         0x00014cc4   Data           0  QCA6174_SCAQBAFM.sym ABSOLUTE
    LLM_LMPSeqHlr_PAIRING_W4_MUTUAL_AUTH_REQ 0x00014cc8   Data           0  QCA6174_SCAQBAFM.sym ABSOLUTE
    LLM_LMPSeqHlr_ENCRYPTION_W4_MASK_REQ     0x00014ccc   Data           0  QCA6174_SCAQBAFM.sym ABSOLUTE
    LLM_LMPSeqHlr_ENCRYPTION_W4_MODE         0x00014cd0   Data           0  QCA6174_SCAQBAFM.sym ABSOLUTE
    LLM_LMPSeqHlr_ENCRYPTION_KEY_SIZE_NEGOTIATION 0x00014cd4   Data           0  QCA6174_SCAQBAFM.sym ABSOLUTE
    LLM_LMPSeqHlr_ENCRYPTION_W4_START_ENCRYPTION 0x00014cd8   Data           0  QCA6174_SCAQBAFM.sym ABSOLUTE
    LLM_LMPSeqHlr_ENCRYPTION_STOP_W4_MODE    0x00014cdc   Data           0  QCA6174_SCAQBAFM.sym ABSOLUTE
    LLM_LMPSeqHlr_ENCRYPTION_STOP_W4_STOP    0x00014ce0   Data           0  QCA6174_SCAQBAFM.sym ABSOLUTE
    LLM_LMPSeqHlr_ENCRYPTION_W4_PAUSE_REQ    0x00014ce4   Data           0  QCA6174_SCAQBAFM.sym ABSOLUTE
    LLM_LMPSeqHlr_LINK_KEY_TYPE_CHANGE       0x00014ce8   Data           0  QCA6174_SCAQBAFM.sym ABSOLUTE
    LLM_LMPSeqHlr_QOS_W4_RES                 0x00014cec   Data           0  QCA6174_SCAQBAFM.sym ABSOLUTE
    LLM_LMPSeqHlr_ROLE_SWITCH_W4_LC_ROLE_SWITCH 0x00014cf0   Data           0  QCA6174_SCAQBAFM.sym ABSOLUTE
    LLM_LMPSeqHlr_ROLE_SWITCH_W4_ENCR_RESTART 0x00014cf4   Data           0  QCA6174_SCAQBAFM.sym ABSOLUTE
    LLM_LMPSeqHlr_MULTISLOT_W4_RESP          0x00014cf8   Data           0  QCA6174_SCAQBAFM.sym ABSOLUTE
    LLM_LMPSeqHlr_SPAIRING_INIT_W4_HCI_IO_CAPABILITIES 0x00014cfc   Data           0  QCA6174_SCAQBAFM.sym ABSOLUTE
    LLM_LMPSeqHlr_SPAIRING_W4_HCI_IO_CAPABILITIES 0x00014d00   Data           0  QCA6174_SCAQBAFM.sym ABSOLUTE
    LLM_LMPSeqHlr_SPAIRING_W4_LMP_IO_CAPABILITIES 0x00014d04   Data           0  QCA6174_SCAQBAFM.sym ABSOLUTE
    LLM_LMPSeqHlr_SPAIRING_INITIATE_PUBLIC_KEY 0x00014d08   Data           0  QCA6174_SCAQBAFM.sym ABSOLUTE
    LLM_LMPSeqHlr_SPAIRING_W4_PUBLIC_KEY     0x00014d0c   Data           0  QCA6174_SCAQBAFM.sym ABSOLUTE
    LLM_LMPSeqHlr_SPAIRING_AUTHEN_STAGE1     0x00014d10   Data           0  QCA6174_SCAQBAFM.sym ABSOLUTE
    LLM_LMPSeqHlr_SPAIRING_DHKEY_W4_STATUS   0x00014d14   Data           0  QCA6174_SCAQBAFM.sym ABSOLUTE
    LLM_LMPSeqHlr_SPAIRING_DHKEY_W4_DHKEY_CHECK 0x00014d18   Data           0  QCA6174_SCAQBAFM.sym ABSOLUTE
    LLM_LMPSeqHlr_rxDETACH_W4_TIMER          0x00014d1c   Data           0  QCA6174_SCAQBAFM.sym ABSOLUTE
    LLM_LMPSeqHlr_txDETACH                   0x00014d20   Data           0  QCA6174_SCAQBAFM.sym ABSOLUTE
    LLM_processLMPsequence                   0x00014d24   Data           0  QCA6174_SCAQBAFM.sym ABSOLUTE
    LLM_SECURE_EncryptionKeyReduction        0x00014d28   Data           0  QCA6174_SCAQBAFM.sym ABSOLUTE
    LLM_calculateEncryptionKey               0x00014d2c   Data           0  QCA6174_SCAQBAFM.sym ABSOLUTE
    LLM_startRemotePairing                   0x00014d30   Data           0  QCA6174_SCAQBAFM.sym ABSOLUTE
    isLMP_InQueue                            0x00014d34   Data           0  QCA6174_SCAQBAFM.sym ABSOLUTE
    LLM_handleEncrypytionModeReq             0x00014d38   Data           0  QCA6174_SCAQBAFM.sym ABSOLUTE
    LLM_doPairing                            0x00014d3c   Data           0  QCA6174_SCAQBAFM.sym ABSOLUTE
    LLM_startMasterKeyExchange               0x00014d40   Data           0  QCA6174_SCAQBAFM.sym ABSOLUTE
    LLM_startPairingSeq                      0x00014d44   Data           0  QCA6174_SCAQBAFM.sym ABSOLUTE
    LLM_startLMP_mutualAuthentication        0x00014d48   Data           0  QCA6174_SCAQBAFM.sym ABSOLUTE
    LLM_pairingAcceptLMP_Pairing             0x00014d4c   Data           0  QCA6174_SCAQBAFM.sym ABSOLUTE
    LLM_startMasterEncryption                0x00014d50   Data           0  QCA6174_SCAQBAFM.sym ABSOLUTE
    LLM_secureAuthentication_Verifier        0x00014d54   Data           0  QCA6174_SCAQBAFM.sym ABSOLUTE
    LLM_secureAuthentication_Claimant        0x00014d58   Data           0  QCA6174_SCAQBAFM.sym ABSOLUTE
    LLM_IsSeqEventAllowed                    0x00014d5c   Data           0  QCA6174_SCAQBAFM.sym ABSOLUTE
    LLM_initiateLMP_changeCurrentLinkKeyType 0x00014d60   Data           0  QCA6174_SCAQBAFM.sym ABSOLUTE
    LLM_lmpDetachPnd                         0x00014d64   Data           0  QCA6174_SCAQBAFM.sym ABSOLUTE
    LLM_lmEval_HOST_LMP_SEQ_Queue            0x00014d68   Data           0  QCA6174_SCAQBAFM.sym ABSOLUTE
    LLM_updateInitialModeParam               0x00014d6c   Data           0  QCA6174_SCAQBAFM.sym ABSOLUTE
    LLM_evalBroadcastEncryption              0x00014d70   Data           0  QCA6174_SCAQBAFM.sym ABSOLUTE
    LLM_AuthenticationNewConnectionStart     0x00014d74   Data           0  QCA6174_SCAQBAFM.sym ABSOLUTE
    LLM_calcD_Offset                         0x00014d78   Data           0  QCA6174_SCAQBAFM.sym ABSOLUTE
    LLM_SECURE_evalAllSlavesInPiconetUseAES_CCM_Encryption 0x00014d7c   Data           0  QCA6174_SCAQBAFM.sym ABSOLUTE
    LLM_procTxLMP_Timeout                    0x00014d80   Data           0  QCA6174_SCAQBAFM.sym ABSOLUTE
    LLM_procRxLMP_Timeout                    0x00014d84   Data           0  QCA6174_SCAQBAFM.sym ABSOLUTE
    LLM_stop_All_Conn_timers                 0x00014d88   Data           0  QCA6174_SCAQBAFM.sym ABSOLUTE
    LLM_restart_CONN_SETUP_TIMER             0x00014d8c   Data           0  QCA6174_SCAQBAFM.sym ABSOLUTE
    LLM_tearDownConn                         0x00014d90   Data           0  QCA6174_SCAQBAFM.sym ABSOLUTE
    LLM_addUtilityTimer                      0x00014d94   Data           0  QCA6174_SCAQBAFM.sym ABSOLUTE
    LLM_stopUtilityTimer                     0x00014d98   Data           0  QCA6174_SCAQBAFM.sym ABSOLUTE
    LLM_startUtilityTimer                    0x00014d9c   Data           0  QCA6174_SCAQBAFM.sym ABSOLUTE
    LLM_stopLMP_TO_UtilityTimer              0x00014da0   Data           0  QCA6174_SCAQBAFM.sym ABSOLUTE
    LLM_startLMP_TO_UtilityTimer             0x00014da4   Data           0  QCA6174_SCAQBAFM.sym ABSOLUTE
    LLM_stopLMP_TO                           0x00014da8   Data           0  QCA6174_SCAQBAFM.sym ABSOLUTE
    SLC_PreReset                             0x00014dac   Data           0  QCA6174_SCAQBAFM.sym ABSOLUTE
    SLC_Reset                                0x00014db0   Data           0  QCA6174_SCAQBAFM.sym ABSOLUTE
    SLC_SystemReady                          0x00014db4   Data           0  QCA6174_SCAQBAFM.sym ABSOLUTE
    BthStackInit                             0x00014db8   Data           0  QCA6174_SCAQBAFM.sym ABSOLUTE
    mp_deinit                                0x00014dbc   Data           0  QCA6174_SCAQBAFM.sym ABSOLUTE
    mp_malloc                                0x00014dc0   Data           0  QCA6174_SCAQBAFM.sym ABSOLUTE
    mp_free                                  0x00014dc4   Data           0  QCA6174_SCAQBAFM.sym ABSOLUTE
    mp_calloc                                0x00014dc8   Data           0  QCA6174_SCAQBAFM.sym ABSOLUTE
    os_strcpy                                0x00014dcc   Data           0  QCA6174_SCAQBAFM.sym ABSOLUTE
    os_strncpy                               0x00014dd0   Data           0  QCA6174_SCAQBAFM.sym ABSOLUTE
    os_strlen                                0x00014dd4   Data           0  QCA6174_SCAQBAFM.sym ABSOLUTE
    os_strncat                               0x00014dd8   Data           0  QCA6174_SCAQBAFM.sym ABSOLUTE
    valid_conn_handle                        0x00014ddc   Data           0  QCA6174_SCAQBAFM.sym ABSOLUTE
    gap_init                                 0x00014de0   Data           0  QCA6174_SCAQBAFM.sym ABSOLUTE
    gap_uninit                               0x00014de4   Data           0  QCA6174_SCAQBAFM.sym ABSOLUTE
    gap_internal_encrypt                     0x00014de8   Data           0  QCA6174_SCAQBAFM.sym ABSOLUTE
    gap_l2cap_le_signal_process              0x00014dec   Data           0  QCA6174_SCAQBAFM.sym ABSOLUTE
    gap_hci_event_data_handler               0x00014df0   Data           0  QCA6174_SCAQBAFM.sym ABSOLUTE
    gap_patch_hook                           0x00014df4   Data           0  QCA6174_SCAQBAFM.sym ABSOLUTE
    le_init                                  0x00014df8   Data           0  QCA6174_SCAQBAFM.sym ABSOLUTE
    le_uninit                                0x00014dfc   Data           0  QCA6174_SCAQBAFM.sym ABSOLUTE
    set_local_bt_addr                        0x00014e00   Data           0  QCA6174_SCAQBAFM.sym ABSOLUTE
    gap_register_user                        0x00014e04   Data           0  QCA6174_SCAQBAFM.sym ABSOLUTE
    gap_unregister_user                      0x00014e08   Data           0  QCA6174_SCAQBAFM.sym ABSOLUTE
    gap_set_property                         0x00014e0c   Data           0  QCA6174_SCAQBAFM.sym ABSOLUTE
    gap_link_status                          0x00014e10   Data           0  QCA6174_SCAQBAFM.sym ABSOLUTE
    gap_remdev_status                        0x00014e14   Data           0  QCA6174_SCAQBAFM.sym ABSOLUTE
    gap_set_passkey_internal                 0x00014e18   Data           0  QCA6174_SCAQBAFM.sym ABSOLUTE
    gap_start_discoverable_mode_internal     0x00014e1c   Data           0  QCA6174_SCAQBAFM.sym ABSOLUTE
    gap_stop_discoverable_mode_internal      0x00014e20   Data           0  QCA6174_SCAQBAFM.sym ABSOLUTE
    gap_get_remote_property                  0x00014e24   Data           0  QCA6174_SCAQBAFM.sym ABSOLUTE
    gap_update_conn_internal                 0x00014e28   Data           0  QCA6174_SCAQBAFM.sym ABSOLUTE
    gap_disconnect_conn_internal             0x00014e2c   Data           0  QCA6174_SCAQBAFM.sym ABSOLUTE
    gap_encrypt_internal                     0x00014e30   Data           0  QCA6174_SCAQBAFM.sym ABSOLUTE
    gap_bond_internal                        0x00014e34   Data           0  QCA6174_SCAQBAFM.sym ABSOLUTE
    gap_remove_bond_internal                 0x00014e38   Data           0  QCA6174_SCAQBAFM.sym ABSOLUTE
    gap_pair_event_handler                   0x00014e3c   Data           0  QCA6174_SCAQBAFM.sym ABSOLUTE
    gap_service_chanage_notify               0x00014e40   Data           0  QCA6174_SCAQBAFM.sym ABSOLUTE
    gap_client_callback                      0x00014e44   Data           0  QCA6174_SCAQBAFM.sym ABSOLUTE
    gap_conn_param_timeout                   0x00014e48   Data           0  QCA6174_SCAQBAFM.sym ABSOLUTE
    get_le_conn_from_handle                  0x00014e4c   Data           0  QCA6174_SCAQBAFM.sym ABSOLUTE
    remove_from_session_list                 0x00014e50   Data           0  QCA6174_SCAQBAFM.sym ABSOLUTE
    gap_register_service                     0x00014e54   Data           0  QCA6174_SCAQBAFM.sym ABSOLUTE
    gap_unregister_service                   0x00014e58   Data           0  QCA6174_SCAQBAFM.sym ABSOLUTE
    gap_load_config_file                     0x00014e5c   Data           0  QCA6174_SCAQBAFM.sym ABSOLUTE
    gap_bacmp                                0x00014e60   Data           0  QCA6174_SCAQBAFM.sym ABSOLUTE
    gap_bacpy                                0x00014e64   Data           0  QCA6174_SCAQBAFM.sym ABSOLUTE
    gap_check_privacy                        0x00014e68   Data           0  QCA6174_SCAQBAFM.sym ABSOLUTE
    gap_get_bonded_central_number            0x00014e6c   Data           0  QCA6174_SCAQBAFM.sym ABSOLUTE
    gap_load_bond_record                     0x00014e70   Data           0  QCA6174_SCAQBAFM.sym ABSOLUTE
    gap_save_local_info                      0x00014e74   Data           0  QCA6174_SCAQBAFM.sym ABSOLUTE
    gap_load_local_info                      0x00014e78   Data           0  QCA6174_SCAQBAFM.sym ABSOLUTE
    notify_user                              0x00014e7c   Data           0  QCA6174_SCAQBAFM.sym ABSOLUTE
    init_generic_list                        0x00014e80   Data           0  QCA6174_SCAQBAFM.sym ABSOLUTE
    release_generic_list                     0x00014e84   Data           0  QCA6174_SCAQBAFM.sym ABSOLUTE
    gap_internal_patch_hook                  0x00014e88   Data           0  QCA6174_SCAQBAFM.sym ABSOLUTE
    get_rem_ctrler_from_addr                 0x00014e8c   Data           0  QCA6174_SCAQBAFM.sym ABSOLUTE
    add_to_session_list                      0x00014e90   Data           0  QCA6174_SCAQBAFM.sym ABSOLUTE
    gap_loc_controller_init                  0x00014e94   Data           0  QCA6174_SCAQBAFM.sym ABSOLUTE
    gap_loc_controller_uninit                0x00014e98   Data           0  QCA6174_SCAQBAFM.sym ABSOLUTE
    gap_config_security_manager              0x00014e9c   Data           0  QCA6174_SCAQBAFM.sym ABSOLUTE
    gap_clear_security_manager               0x00014ea0   Data           0  QCA6174_SCAQBAFM.sym ABSOLUTE
    gap_set_local_dev_prefer_conn_param      0x00014ea4   Data           0  QCA6174_SCAQBAFM.sym ABSOLUTE
    gap_update_service_dev_name              0x00014ea8   Data           0  QCA6174_SCAQBAFM.sym ABSOLUTE
    validate_update_conn_param               0x00014eac   Data           0  QCA6174_SCAQBAFM.sym ABSOLUTE
    l2cap_get_ident                          0x00014eb0   Data           0  QCA6174_SCAQBAFM.sym ABSOLUTE
    le_l2cap_send_cmd                        0x00014eb4   Data           0  QCA6174_SCAQBAFM.sym ABSOLUTE
    l2cap_le_update_param_rsp                0x00014eb8   Data           0  QCA6174_SCAQBAFM.sym ABSOLUTE
    gap_register_client                      0x00014ebc   Data           0  QCA6174_SCAQBAFM.sym ABSOLUTE
    gap_unregister_client                    0x00014ec0   Data           0  QCA6174_SCAQBAFM.sym ABSOLUTE
    get_type_from_addr                       0x00014ec4   Data           0  QCA6174_SCAQBAFM.sym ABSOLUTE
    gap_check_security                       0x00014ec8   Data           0  QCA6174_SCAQBAFM.sym ABSOLUTE
    gap_check_service_change                 0x00014ecc   Data           0  QCA6174_SCAQBAFM.sym ABSOLUTE
    string_to_array                          0x00014ed0   Data           0  QCA6174_SCAQBAFM.sym ABSOLUTE
    gap_clear_bond_record                    0x00014ed4   Data           0  QCA6174_SCAQBAFM.sym ABSOLUTE
    gap_save_bond_record                     0x00014ed8   Data           0  QCA6174_SCAQBAFM.sym ABSOLUTE
    gap_load_bond_record_by_dev              0x00014edc   Data           0  QCA6174_SCAQBAFM.sym ABSOLUTE
    gap_get_conn_security                    0x00014ee0   Data           0  QCA6174_SCAQBAFM.sym ABSOLUTE
    gap_set_tx_power_internal                0x00014ee4   Data           0  QCA6174_SCAQBAFM.sym ABSOLUTE
    gap_peri_configure_adv_data              0x00014ee8   Data           0  QCA6174_SCAQBAFM.sym ABSOLUTE
    gap_peri_configure_adv_params            0x00014eec   Data           0  QCA6174_SCAQBAFM.sym ABSOLUTE
    gap_configure_disc_mode                  0x00014ef0   Data           0  QCA6174_SCAQBAFM.sym ABSOLUTE
    gap_per_start_advertise                  0x00014ef4   Data           0  QCA6174_SCAQBAFM.sym ABSOLUTE
    gap_discovery_mode_timeout               0x00014ef8   Data           0  QCA6174_SCAQBAFM.sym ABSOLUTE
    gap_peri_private_addr_timeout            0x00014efc   Data           0  QCA6174_SCAQBAFM.sym ABSOLUTE
    gap_peri_handle_disconnected             0x00014f00   Data           0  QCA6174_SCAQBAFM.sym ABSOLUTE
    gap_peri_handle_conn_updated             0x00014f04   Data           0  QCA6174_SCAQBAFM.sym ABSOLUTE
    gap_peri_handle_generic_event            0x00014f08   Data           0  QCA6174_SCAQBAFM.sym ABSOLUTE
    gap_peri_complete_adv_task               0x00014f0c   Data           0  QCA6174_SCAQBAFM.sym ABSOLUTE
    gap_peri_idle_callback                   0x00014f10   Data           0  QCA6174_SCAQBAFM.sym ABSOLUTE
    gap_peri_advting_callback                0x00014f14   Data           0  QCA6174_SCAQBAFM.sym ABSOLUTE
    gap_configure_peripheral                 0x00014f18   Data           0  QCA6174_SCAQBAFM.sym ABSOLUTE
    gap_per_stop_advertise                   0x00014f1c   Data           0  QCA6174_SCAQBAFM.sym ABSOLUTE
    gap_peri_callback                        0x00014f20   Data           0  QCA6174_SCAQBAFM.sym ABSOLUTE
    gatt_register_profile_services           0x00014f24   Data           0  QCA6174_SCAQBAFM.sym ABSOLUTE
    gatt_unregister_profile_services         0x00014f28   Data           0  QCA6174_SCAQBAFM.sym ABSOLUTE
    gatt_update                              0x00014f2c   Data           0  QCA6174_SCAQBAFM.sym ABSOLUTE
    gatt_register_client_callback            0x00014f30   Data           0  QCA6174_SCAQBAFM.sym ABSOLUTE
    gatt_unregister_client_callback          0x00014f34   Data           0  QCA6174_SCAQBAFM.sym ABSOLUTE
    gatt_register_server_callback_internal   0x00014f38   Data           0  QCA6174_SCAQBAFM.sym ABSOLUTE
    gatt_unregister_server_callback_internal 0x00014f3c   Data           0  QCA6174_SCAQBAFM.sym ABSOLUTE
    gatt_accept_write_req                    0x00014f40   Data           0  QCA6174_SCAQBAFM.sym ABSOLUTE
    gatt_accept_read_req                     0x00014f44   Data           0  QCA6174_SCAQBAFM.sym ABSOLUTE
    gatt_reject_req                          0x00014f48   Data           0  QCA6174_SCAQBAFM.sym ABSOLUTE
    gatt_server_clear_oplist                 0x00014f4c   Data           0  QCA6174_SCAQBAFM.sym ABSOLUTE
    should_relay_to_upper_layer              0x00014f50   Data           0  QCA6174_SCAQBAFM.sym ABSOLUTE
    relay_reset_session_state                0x00014f54   Data           0  QCA6174_SCAQBAFM.sym ABSOLUTE
    gatt_server_process_relay_request_timeout 0x00014f58   Data           0  QCA6174_SCAQBAFM.sym ABSOLUTE
    gatt_server_process_timeout              0x00014f5c   Data           0  QCA6174_SCAQBAFM.sym ABSOLUTE
    gatt_server_cancel_timer                 0x00014f60   Data           0  QCA6174_SCAQBAFM.sym ABSOLUTE
    gatt_find_server_session                 0x00014f64   Data           0  QCA6174_SCAQBAFM.sym ABSOLUTE
    gatt_server_patch_hook                   0x00014f68   Data           0  QCA6174_SCAQBAFM.sym ABSOLUTE
    gatt_server_start_timer                  0x00014f6c   Data           0  QCA6174_SCAQBAFM.sym ABSOLUTE
    gatt_server_create_timer                 0x00014f70   Data           0  QCA6174_SCAQBAFM.sym ABSOLUTE
    gatt_server_close_timer                  0x00014f74   Data           0  QCA6174_SCAQBAFM.sym ABSOLUTE
    gatt_server_process_packets              0x00014f78   Data           0  QCA6174_SCAQBAFM.sym ABSOLUTE
    gatt_server_accept_write_req             0x00014f7c   Data           0  QCA6174_SCAQBAFM.sym ABSOLUTE
    gatt_server_accept_read_req              0x00014f80   Data           0  QCA6174_SCAQBAFM.sym ABSOLUTE
    gatt_server_reject_req                   0x00014f84   Data           0  QCA6174_SCAQBAFM.sym ABSOLUTE
    swap_bdaddr                              0x00014f88   Data           0  QCA6174_SCAQBAFM.sym ABSOLUTE
    hci_wrap_get_addr                        0x00014f8c   Data           0  QCA6174_SCAQBAFM.sym ABSOLUTE
    hci_wrap_get_handle                      0x00014f90   Data           0  QCA6174_SCAQBAFM.sym ABSOLUTE
    get_conn_from_handle                     0x00014f94   Data           0  QCA6174_SCAQBAFM.sym ABSOLUTE
    add_connection_to_table                  0x00014f98   Data           0  QCA6174_SCAQBAFM.sym ABSOLUTE
    delete_connection_to_table               0x00014f9c   Data           0  QCA6174_SCAQBAFM.sym ABSOLUTE
    store_le_hci_loc_feature                 0x00014fa0   Data           0  QCA6174_SCAQBAFM.sym ABSOLUTE
    store_le_hci_buffer_size                 0x00014fa4   Data           0  QCA6174_SCAQBAFM.sym ABSOLUTE
    store_le_hci_support_state               0x00014fa8   Data           0  QCA6174_SCAQBAFM.sym ABSOLUTE
    store_le_hci_whitelist_size              0x00014fac   Data           0  QCA6174_SCAQBAFM.sym ABSOLUTE
    clear_all_scan_command_ctx               0x00014fb0   Data           0  QCA6174_SCAQBAFM.sym ABSOLUTE
    le_hci_alloc                             0x00014fb4   Data           0  QCA6174_SCAQBAFM.sym ABSOLUTE
    le_hci_dealloc                           0x00014fb8   Data           0  QCA6174_SCAQBAFM.sym ABSOLUTE
    le_hci_init                              0x00014fbc   Data           0  QCA6174_SCAQBAFM.sym ABSOLUTE
    le_hci_uninit                            0x00014fc0   Data           0  QCA6174_SCAQBAFM.sym ABSOLUTE
    le_hci_register_handler                  0x00014fc4   Data           0  QCA6174_SCAQBAFM.sym ABSOLUTE
    le_hci_deregister_handler                0x00014fc8   Data           0  QCA6174_SCAQBAFM.sym ABSOLUTE
    hci_read_tx_power                        0x00014fcc   Data           0  QCA6174_SCAQBAFM.sym ABSOLUTE
    hci_read_rx_power                        0x00014fd0   Data           0  QCA6174_SCAQBAFM.sym ABSOLUTE
    hci_set_le_event_mask                    0x00014fd4   Data           0  QCA6174_SCAQBAFM.sym ABSOLUTE
    hci_read_le_buf_size                     0x00014fd8   Data           0  QCA6174_SCAQBAFM.sym ABSOLUTE
    hci_read_local_bt_addr                   0x00014fdc   Data           0  QCA6174_SCAQBAFM.sym ABSOLUTE
    hci_set_le_random_address                0x00014fe0   Data           0  QCA6174_SCAQBAFM.sym ABSOLUTE
    hci_set_le_adv_param                     0x00014fe4   Data           0  QCA6174_SCAQBAFM.sym ABSOLUTE
    hci_set_le_adv_data                      0x00014fe8   Data           0  QCA6174_SCAQBAFM.sym ABSOLUTE
    hci_set_le_scan_resp_data                0x00014fec   Data           0  QCA6174_SCAQBAFM.sym ABSOLUTE
    hci_set_adv_enable                       0x00014ff0   Data           0  QCA6174_SCAQBAFM.sym ABSOLUTE
    le_hci_disconnect                        0x00014ff4   Data           0  QCA6174_SCAQBAFM.sym ABSOLUTE
    hci_set_channel_map                      0x00014ff8   Data           0  QCA6174_SCAQBAFM.sym ABSOLUTE
    hci_read_channel_map                     0x00014ffc   Data           0  QCA6174_SCAQBAFM.sym ABSOLUTE
    hci_LTK_req_reply                        0x00015000   Data           0  QCA6174_SCAQBAFM.sym ABSOLUTE
    hci_LTK_req_negative_reply               0x00015004   Data           0  QCA6174_SCAQBAFM.sym ABSOLUTE
    hci_wrap_global_handler                  0x00015008   Data           0  QCA6174_SCAQBAFM.sym ABSOLUTE
    store_controller_addr                    0x0001500c   Data           0  QCA6174_SCAQBAFM.sym ABSOLUTE
    adp_alloc                                0x00015010   Data           0  QCA6174_SCAQBAFM.sym ABSOLUTE
    adp_dealloc                              0x00015014   Data           0  QCA6174_SCAQBAFM.sym ABSOLUTE
    adp_init                                 0x00015018   Data           0  QCA6174_SCAQBAFM.sym ABSOLUTE
    adp_uninit                               0x0001501c   Data           0  QCA6174_SCAQBAFM.sym ABSOLUTE
    Ath_Gap_Init_Hci                         0x00015020   Data           0  QCA6174_SCAQBAFM.sym ABSOLUTE
    Ath_Gap_Init_Stack                       0x00015024   Data           0  QCA6174_SCAQBAFM.sym ABSOLUTE
    wipower_AddService                       0x00015028   Data           0  QCA6174_SCAQBAFM.sym ABSOLUTE
    wipower_SetParameter                     0x0001502c   Data           0  QCA6174_SCAQBAFM.sym ABSOLUTE
    wipower_PruAlertNotify                   0x00015030   Data           0  QCA6174_SCAQBAFM.sym ABSOLUTE
    wipower_GetAttributeTable                0x00015034   Data           0  QCA6174_SCAQBAFM.sym ABSOLUTE
    crc_16_calc                              0x00015038   Data           0  QCA6174_SCAQBAFM.sym ABSOLUTE
    crc_16_step                              0x0001503c   Data           0  QCA6174_SCAQBAFM.sym ABSOLUTE
    SynthFrame8SB                            0x00015040   Data           0  QCA6174_SCAQBAFM.sym ABSOLUTE
    SynthFrame4SB                            0x0001504c   Data           0  QCA6174_SCAQBAFM.sym ABSOLUTE
    PLCInit                                  0x00015058   Data           0  QCA6174_SCAQBAFM.sym ABSOLUTE
    PLC_AMDF                                 0x0001505c   Data           0  QCA6174_SCAQBAFM.sym ABSOLUTE
    DarPLC                                   0x00015060   Data           0  QCA6174_SCAQBAFM.sym ABSOLUTE
    PLCMain                                  0x00015064   Data           0  QCA6174_SCAQBAFM.sym ABSOLUTE
    ANT_DataPathInit                         0x00015068   Data           0  QCA6174_SCAQBAFM.sym ABSOLUTE
    ANT_DataPathTxToHost                     0x0001506c   Data           0  QCA6174_SCAQBAFM.sym ABSOLUTE
    ANT_DataPathQueueTx                      0x00015070   Data           0  QCA6174_SCAQBAFM.sym ABSOLUTE
    SendAntDataFlowEvent                     0x00015074   Data           0  QCA6174_SCAQBAFM.sym ABSOLUTE
    ANT_DataPathHandleCommand                0x00015078   Data           0  QCA6174_SCAQBAFM.sym ABSOLUTE
    ANT_DataPathHandleData                   0x0001507c   Data           0  QCA6174_SCAQBAFM.sym ABSOLUTE
    ANT_DataPathSetQueuedBurstMode           0x00015080   Data           0  QCA6174_SCAQBAFM.sym ABSOLUTE
    ANT_DataPathHandleANTEvent               0x00015084   Data           0  QCA6174_SCAQBAFM.sym ABSOLUTE
    ANT_DataPathResetEventHandler            0x00015088   Data           0  QCA6174_SCAQBAFM.sym ABSOLUTE
    ANT_DataPathSetTxQueueBufferingConfig    0x0001508c   Data           0  QCA6174_SCAQBAFM.sym ABSOLUTE
    ANT_DataPathGetTxQueueBufferingConfig    0x00015090   Data           0  QCA6174_SCAQBAFM.sym ABSOLUTE
    ANT_DataPathSetEventFilter               0x00015094   Data           0  QCA6174_SCAQBAFM.sym ABSOLUTE
    ANT_DataPathGetEventFilter               0x00015098   Data           0  QCA6174_SCAQBAFM.sym ABSOLUTE
    GAP_HandleEvent                          0x0001509c   Data           0  QCA6174_SCAQBAFM.sym ABSOLUTE
    GAP_HandleCommandComplete                0x000150a0   Data           0  QCA6174_SCAQBAFM.sym ABSOLUTE
    GAP_HandleCommandStatus                  0x000150a4   Data           0  QCA6174_SCAQBAFM.sym ABSOLUTE
    GAP_HandleNumCompleted                   0x000150a8   Data           0  QCA6174_SCAQBAFM.sym ABSOLUTE
    GAP_HandleLeEvent                        0x000150ac   Data           0  QCA6174_SCAQBAFM.sym ABSOLUTE
    GAP_HandleResetComplete                  0x000150b0   Data           0  QCA6174_SCAQBAFM.sym ABSOLUTE
    GAP_InitRadio                            0x000150b4   Data           0  QCA6174_SCAQBAFM.sym ABSOLUTE
    GAP_WriteScanEnable                      0x000150b8   Data           0  QCA6174_SCAQBAFM.sym ABSOLUTE
    GAP_HandleWriteScanEnableComplete        0x000150bc   Data           0  QCA6174_SCAQBAFM.sym ABSOLUTE
    GAP_WritePageScanActivity                0x000150c0   Data           0  QCA6174_SCAQBAFM.sym ABSOLUTE
    GAP_HandleWritePageScanActivityComplete  0x000150c4   Data           0  QCA6174_SCAQBAFM.sym ABSOLUTE
    GAP_ConnectionRequest                    0x000150c8   Data           0  QCA6174_SCAQBAFM.sym ABSOLUTE
    GAP_AcceptConnection                     0x000150cc   Data           0  QCA6174_SCAQBAFM.sym ABSOLUTE
    GAP_RejectConnection                     0x000150d0   Data           0  QCA6174_SCAQBAFM.sym ABSOLUTE
    GAP_AdvertisingReport                    0x000150d4   Data           0  QCA6174_SCAQBAFM.sym ABSOLUTE
    GAP_ConnectionComplete                   0x000150d8   Data           0  QCA6174_SCAQBAFM.sym ABSOLUTE
    GAP_LeConnectionComplete                 0x000150dc   Data           0  QCA6174_SCAQBAFM.sym ABSOLUTE
    GAP_LinkKeyRequest                       0x000150e0   Data           0  QCA6174_SCAQBAFM.sym ABSOLUTE
    GAP_LinkKeyReply                         0x000150e4   Data           0  QCA6174_SCAQBAFM.sym ABSOLUTE
    GAP_EncryptionChange                     0x000150e8   Data           0  QCA6174_SCAQBAFM.sym ABSOLUTE
    GAP_HandleRoleChange                     0x000150ec   Data           0  QCA6174_SCAQBAFM.sym ABSOLUTE
    GAP_HandleModeChange                     0x000150f0   Data           0  QCA6174_SCAQBAFM.sym ABSOLUTE
    GAP_DisconnectComplete                   0x000150f4   Data           0  QCA6174_SCAQBAFM.sym ABSOLUTE
    GAP_Reset                                0x000150f8   Data           0  QCA6174_SCAQBAFM.sym ABSOLUTE
    L2CAP_HandleAcl                          0x000150fc   Data           0  QCA6174_SCAQBAFM.sym ABSOLUTE
    L2CAP_HandleData                         0x00015100   Data           0  QCA6174_SCAQBAFM.sym ABSOLUTE
    L2CAP_HandleSignalling                   0x00015104   Data           0  QCA6174_SCAQBAFM.sym ABSOLUTE
    L2CAP_HandleHIDControlData               0x00015108   Data           0  QCA6174_SCAQBAFM.sym ABSOLUTE
    L2CAP_HandleHIDInterruptData             0x0001510c   Data           0  QCA6174_SCAQBAFM.sym ABSOLUTE
    L2CAP_HandleUnexpectedData               0x00015110   Data           0  QCA6174_SCAQBAFM.sym ABSOLUTE
    L2CAP_HandleConnectionRequest            0x00015114   Data           0  QCA6174_SCAQBAFM.sym ABSOLUTE
    L2CAP_SendConnectionResponse             0x00015118   Data           0  QCA6174_SCAQBAFM.sym ABSOLUTE
    L2CAP_HandleConfigureRequest             0x0001511c   Data           0  QCA6174_SCAQBAFM.sym ABSOLUTE
    L2CAP_SendConfigureResponse              0x00015120   Data           0  QCA6174_SCAQBAFM.sym ABSOLUTE
    L2CAP_SendConfigureRequest               0x00015124   Data           0  QCA6174_SCAQBAFM.sym ABSOLUTE
    L2CAP_HandleConfigureResponse            0x00015128   Data           0  QCA6174_SCAQBAFM.sym ABSOLUTE
    L2CAP_HandleDisconnectionRequest         0x0001512c   Data           0  QCA6174_SCAQBAFM.sym ABSOLUTE
    L2CAP_SendDisconnectionResponse          0x00015130   Data           0  QCA6174_SCAQBAFM.sym ABSOLUTE
    L2CAP_HandleHIDHandshake                 0x00015134   Data           0  QCA6174_SCAQBAFM.sym ABSOLUTE
    L2CAP_GetRequestID                       0x00015138   Data           0  QCA6174_SCAQBAFM.sym ABSOLUTE
    LLM_SPAIRING_getPrivateKey               0x0001513c   Data           0  QCA6174_SCAQBAFM.sym ABSOLUTE
    LLM_SPAIRING_calcPublicKey               0x00015140   Data           0  QCA6174_SCAQBAFM.sym ABSOLUTE
    LLM_SPAIRING_dhKey                       0x00015144   Data           0  QCA6174_SCAQBAFM.sym ABSOLUTE
    LLM_g                                    0x00015148   Data           0  QCA6174_SCAQBAFM.sym ABSOLUTE
    LLM_HMAC_SHA_256                         0x0001514c   Data           0  QCA6174_SCAQBAFM.sym ABSOLUTE
    LLM_h3                                   0x00015150   Data           0  QCA6174_SCAQBAFM.sym ABSOLUTE
    LLM_h4                                   0x00015154   Data           0  QCA6174_SCAQBAFM.sym ABSOLUTE
    LLM_h5                                   0x00015158   Data           0  QCA6174_SCAQBAFM.sym ABSOLUTE
    LLM_f1                                   0x0001515c   Data           0  QCA6174_SCAQBAFM.sym ABSOLUTE
    LLM_f2                                   0x00015160   Data           0  QCA6174_SCAQBAFM.sym ABSOLUTE
    LLM_f3                                   0x00015164   Data           0  QCA6174_SCAQBAFM.sym ABSOLUTE
    LLM_SECURE_getAuthenticationConfimation  0x00015168   Data           0  QCA6174_SCAQBAFM.sym ABSOLUTE
    LLM_SECURE_calculateEncryptionKey        0x0001516c   Data           0  QCA6174_SCAQBAFM.sym ABSOLUTE
    LLM_SPAIRING_PassKeyEntry_Init           0x00015170   Data           0  QCA6174_SCAQBAFM.sym ABSOLUTE
    LLM_SPAIRING_handle_LMP_keypress_notification_req 0x00015174   Data           0  QCA6174_SCAQBAFM.sym ABSOLUTE
    LLM_SPAIRING_initiate_LMP_simple_pairing_confirm 0x00015178   Data           0  QCA6174_SCAQBAFM.sym ABSOLUTE
    att_init                                 0x0001517c   Data           0  QCA6174_SCAQBAFM.sym ABSOLUTE
    att_uninit                               0x00015180   Data           0  QCA6174_SCAQBAFM.sym ABSOLUTE
    att_send                                 0x00015184   Data           0  QCA6174_SCAQBAFM.sym ABSOLUTE
    att_send_notify                          0x00015188   Data           0  QCA6174_SCAQBAFM.sym ABSOLUTE
    att_send_indicate                        0x0001518c   Data           0  QCA6174_SCAQBAFM.sym ABSOLUTE
    att_send_find_information_rsp            0x00015190   Data           0  QCA6174_SCAQBAFM.sym ABSOLUTE
    att_send_read_rsp                        0x00015194   Data           0  QCA6174_SCAQBAFM.sym ABSOLUTE
    att_send_error_rsp                       0x00015198   Data           0  QCA6174_SCAQBAFM.sym ABSOLUTE
    att_send_read_by_group_type_rsp          0x0001519c   Data           0  QCA6174_SCAQBAFM.sym ABSOLUTE
    att_send_read_by_type_rsp                0x000151a0   Data           0  QCA6174_SCAQBAFM.sym ABSOLUTE
    att_send_find_by_type_value_rsp          0x000151a4   Data           0  QCA6174_SCAQBAFM.sym ABSOLUTE
    att_send_write_rsp                       0x000151a8   Data           0  QCA6174_SCAQBAFM.sym ABSOLUTE
    att_valid_command                        0x000151ac   Data           0  QCA6174_SCAQBAFM.sym ABSOLUTE
    let_initialize                           0x000151b0   Data           0  QCA6174_SCAQBAFM.sym ABSOLUTE
    le_os_init                               0x000151b4   Data           0  QCA6174_SCAQBAFM.sym ABSOLUTE
    le_os_deinit                             0x000151b8   Data           0  QCA6174_SCAQBAFM.sym ABSOLUTE
    bdacpy                                   0x000151bc   Data           0  QCA6174_SCAQBAFM.sym ABSOLUTE
    bacmp                                    0x000151c0   Data           0  QCA6174_SCAQBAFM.sym ABSOLUTE
    baswap_1                                 0x000151c4   Data           0  QCA6174_SCAQBAFM.sym ABSOLUTE
    os_create_timer                          0x000151c8   Data           0  QCA6174_SCAQBAFM.sym ABSOLUTE
    os_start_timer                           0x000151cc   Data           0  QCA6174_SCAQBAFM.sym ABSOLUTE
    os_set_timer                             0x000151d0   Data           0  QCA6174_SCAQBAFM.sym ABSOLUTE
    os_cancel_timer                          0x000151d4   Data           0  QCA6174_SCAQBAFM.sym ABSOLUTE
    os_reset_timer                           0x000151d8   Data           0  QCA6174_SCAQBAFM.sym ABSOLUTE
    os_close_timer                           0x000151dc   Data           0  QCA6174_SCAQBAFM.sym ABSOLUTE
    gatt_return_ctx                          0x000151e0   Data           0  QCA6174_SCAQBAFM.sym ABSOLUTE
    gatt_internal_client_callback            0x000151e4   Data           0  QCA6174_SCAQBAFM.sym ABSOLUTE
    gatt_promote_le_uuid32                   0x000151e8   Data           0  QCA6174_SCAQBAFM.sym ABSOLUTE
    gatt_lock                                0x000151ec   Data           0  QCA6174_SCAQBAFM.sym ABSOLUTE
    gatt_unlock                              0x000151f0   Data           0  QCA6174_SCAQBAFM.sym ABSOLUTE
    gatt_init                                0x000151f4   Data           0  QCA6174_SCAQBAFM.sym ABSOLUTE
    gatt_uninit                              0x000151f8   Data           0  QCA6174_SCAQBAFM.sym ABSOLUTE
    gatt_le_uuid_cmp                         0x000151fc   Data           0  QCA6174_SCAQBAFM.sym ABSOLUTE
    gatt_get_attribute_by_handle             0x00015200   Data           0  QCA6174_SCAQBAFM.sym ABSOLUTE
    gatt_basic_le_uuid_cmp                   0x00015204   Data           0  QCA6174_SCAQBAFM.sym ABSOLUTE
    gatts_return_ctx                         0x00015208   Data           0  QCA6174_SCAQBAFM.sym ABSOLUTE
    gatts_lock                               0x0001520c   Data           0  QCA6174_SCAQBAFM.sym ABSOLUTE
    gatts_unlock                             0x00015210   Data           0  QCA6174_SCAQBAFM.sym ABSOLUTE
    gatts_gatt_server_callback               0x00015214   Data           0  QCA6174_SCAQBAFM.sym ABSOLUTE
    gap_user_callback                        0x00015218   Data           0  QCA6174_SCAQBAFM.sym ABSOLUTE
    gatts_init                               0x0001521c   Data           0  QCA6174_SCAQBAFM.sym ABSOLUTE
    gatts_uninit                             0x00015220   Data           0  QCA6174_SCAQBAFM.sym ABSOLUTE
    le_l2cap_init                            0x00015224   Data           0  QCA6174_SCAQBAFM.sym ABSOLUTE
    le_l2cap_uninit                          0x00015228   Data           0  QCA6174_SCAQBAFM.sym ABSOLUTE
    le_l2cap_register                        0x0001522c   Data           0  QCA6174_SCAQBAFM.sym ABSOLUTE
    le_l2cap_unregister                      0x00015230   Data           0  QCA6174_SCAQBAFM.sym ABSOLUTE
    l2cap_wrap_send_data                     0x00015234   Data           0  QCA6174_SCAQBAFM.sym ABSOLUTE
    l2cap_wrap_global_handler                0x00015238   Data           0  QCA6174_SCAQBAFM.sym ABSOLUTE
    hci_l2cap_handler                        0x0001523c   Data           0  QCA6174_SCAQBAFM.sym ABSOLUTE
    le_l2cap_send                            0x00015240   Data           0  QCA6174_SCAQBAFM.sym ABSOLUTE
    l2hci_init_memory                        0x00015244   Data           0  QCA6174_SCAQBAFM.sym ABSOLUTE
    l2hci_deinit_memory                      0x00015248   Data           0  QCA6174_SCAQBAFM.sym ABSOLUTE
    sm_generate_ir_and_er                    0x0001524c   Data           0  QCA6174_SCAQBAFM.sym ABSOLUTE
    sm_set_config                            0x00015250   Data           0  QCA6174_SCAQBAFM.sym ABSOLUTE
    sm_clear_config                          0x00015254   Data           0  QCA6174_SCAQBAFM.sym ABSOLUTE
    sm_init                                  0x00015258   Data           0  QCA6174_SCAQBAFM.sym ABSOLUTE
    sm_deinit                                0x0001525c   Data           0  QCA6174_SCAQBAFM.sym ABSOLUTE
    sm_encryption_request                    0x00015260   Data           0  QCA6174_SCAQBAFM.sym ABSOLUTE
    sm_pair                                  0x00015264   Data           0  QCA6174_SCAQBAFM.sym ABSOLUTE
    sm_unpair                                0x00015268   Data           0  QCA6174_SCAQBAFM.sym ABSOLUTE
    sm_get_ltk_by_ediv                       0x0001526c   Data           0  QCA6174_SCAQBAFM.sym ABSOLUTE
    sm_generate_resolvable_addr              0x00015270   Data           0  QCA6174_SCAQBAFM.sym ABSOLUTE
    sm_set_passkey                           0x00015274   Data           0  QCA6174_SCAQBAFM.sym ABSOLUTE
    sm_notify_encryption_state               0x00015278   Data           0  QCA6174_SCAQBAFM.sym ABSOLUTE
    sm_l2cap_callback                        0x0001527c   Data           0  QCA6174_SCAQBAFM.sym ABSOLUTE
    sm_os_init                               0x00015280   Data           0  QCA6174_SCAQBAFM.sym ABSOLUTE
    sm_os_deinit                             0x00015284   Data           0  QCA6174_SCAQBAFM.sym ABSOLUTE
    sm_os_lock                               0x00015288   Data           0  QCA6174_SCAQBAFM.sym ABSOLUTE
    sm_os_unlock                             0x0001528c   Data           0  QCA6174_SCAQBAFM.sym ABSOLUTE
    sm_os_swap_bytes                         0x00015290   Data           0  QCA6174_SCAQBAFM.sym ABSOLUTE
    sm_os_get_rand                           0x00015294   Data           0  QCA6174_SCAQBAFM.sym ABSOLUTE
    Command_BurstMessageProcess              0x00015298   Data           0  QCA6174_SCAQBAFM.sym ABSOLUTE
    Command_SerialMessageProcess             0x0001529c   Data           0  QCA6174_SCAQBAFM.sym ABSOLUTE
    Command_ResponseMessage                  0x000152a0   Data           0  QCA6174_SCAQBAFM.sym ABSOLUTE
    ATT_HandleData                           0x000152a4   Data           0  QCA6174_SCAQBAFM.sym ABSOLUTE
    ATT_HandleErrorRsp                       0x000152a8   Data           0  QCA6174_SCAQBAFM.sym ABSOLUTE
    ATT_HandleNotification                   0x000152ac   Data           0  QCA6174_SCAQBAFM.sym ABSOLUTE
    HID_SetProtocol                          0x000152b0   Data           0  QCA6174_SCAQBAFM.sym ABSOLUTE
    mpy_accum                                0x000152b4   Data           0  QCA6174_SCAQBAFM.sym ABSOLUTE
    mpy_accum_dbl                            0x000152b8   Data           0  QCA6174_SCAQBAFM.sym ABSOLUTE
    big_mpyP                                 0x000152bc   Data           0  QCA6174_SCAQBAFM.sym ABSOLUTE
    big_adjustP                              0x000152c0   Data           0  QCA6174_SCAQBAFM.sym ABSOLUTE
    big_1wd_mpy                              0x000152c4   Data           0  QCA6174_SCAQBAFM.sym ABSOLUTE
    big_add                                  0x000152c8   Data           0  QCA6174_SCAQBAFM.sym ABSOLUTE
    big_addP                                 0x000152cc   Data           0  QCA6174_SCAQBAFM.sym ABSOLUTE
    big_sub                                  0x000152d0   Data           0  QCA6174_SCAQBAFM.sym ABSOLUTE
    big_subP                                 0x000152d4   Data           0  QCA6174_SCAQBAFM.sym ABSOLUTE
    big_cmp                                  0x000152d8   Data           0  QCA6174_SCAQBAFM.sym ABSOLUTE
    big_precise_reduce                       0x000152dc   Data           0  QCA6174_SCAQBAFM.sym ABSOLUTE
    big_halve                                0x000152e0   Data           0  QCA6174_SCAQBAFM.sym ABSOLUTE
    big_halveP                               0x000152e4   Data           0  QCA6174_SCAQBAFM.sym ABSOLUTE
    big_is_zero                              0x000152e8   Data           0  QCA6174_SCAQBAFM.sym ABSOLUTE
    big_is_one                               0x000152ec   Data           0  QCA6174_SCAQBAFM.sym ABSOLUTE
    big_divide                               0x000152f0   Data           0  QCA6174_SCAQBAFM.sym ABSOLUTE
    big_triple                               0x000152f4   Data           0  QCA6174_SCAQBAFM.sym ABSOLUTE
    toJacobian                               0x000152f8   Data           0  QCA6174_SCAQBAFM.sym ABSOLUTE
    toAffine                                 0x000152fc   Data           0  QCA6174_SCAQBAFM.sym ABSOLUTE
    pointDouble                              0x00015300   Data           0  QCA6174_SCAQBAFM.sym ABSOLUTE
    pointAdd                                 0x00015304   Data           0  QCA6174_SCAQBAFM.sym ABSOLUTE
    pointMpyP                                0x00015308   Data           0  QCA6174_SCAQBAFM.sym ABSOLUTE
    in_curveP                                0x0001530c   Data           0  QCA6174_SCAQBAFM.sym ABSOLUTE
    ECDH_generate                            0x00015310   Data           0  QCA6174_SCAQBAFM.sym ABSOLUTE
    ECDH_derive_pt                           0x00015314   Data           0  QCA6174_SCAQBAFM.sym ABSOLUTE
    ECDH_select_curve_P192                   0x00015318   Data           0  QCA6174_SCAQBAFM.sym ABSOLUTE
    ECDH_select_curve_P256                   0x0001531c   Data           0  QCA6174_SCAQBAFM.sym ABSOLUTE
    os_create_lock                           0x00015320   Data           0  QCA6174_SCAQBAFM.sym ABSOLUTE
    os_close_lock                            0x00015324   Data           0  QCA6174_SCAQBAFM.sym ABSOLUTE
    os_lock                                  0x00015328   Data           0  QCA6174_SCAQBAFM.sym ABSOLUTE
    os_unlock                                0x0001532c   Data           0  QCA6174_SCAQBAFM.sym ABSOLUTE
    os_get_rand                              0x00015330   Data           0  QCA6174_SCAQBAFM.sym ABSOLUTE
    gatts_process_disconn_comp_event         0x00015334   Data           0  QCA6174_SCAQBAFM.sym ABSOLUTE
    get_request_data                         0x00015338   Data           0  QCA6174_SCAQBAFM.sym ABSOLUTE
    free_service                             0x0001533c   Data           0  QCA6174_SCAQBAFM.sym ABSOLUTE
    get_service_in_handle_range              0x00015340   Data           0  QCA6174_SCAQBAFM.sym ABSOLUTE
    gatts_server_process_link_disconn        0x00015344   Data           0  QCA6174_SCAQBAFM.sym ABSOLUTE
    gatts_deregister_all_user_service        0x00015348   Data           0  QCA6174_SCAQBAFM.sym ABSOLUTE
    add_l2cap_header                         0x0001534c   Data           0  QCA6174_SCAQBAFM.sym ABSOLUTE
    get_connected_channel                    0x00015350   Data           0  QCA6174_SCAQBAFM.sym ABSOLUTE
    get_unconnected_channel                  0x00015354   Data           0  QCA6174_SCAQBAFM.sym ABSOLUTE
    add_connected_channel                    0x00015358   Data           0  QCA6174_SCAQBAFM.sym ABSOLUTE
    delete_disconnected_channel              0x0001535c   Data           0  QCA6174_SCAQBAFM.sym ABSOLUTE
    sm_e_func                                0x00015360   Data           0  QCA6174_SCAQBAFM.sym ABSOLUTE
    sm_leftshift_onebit                      0x00015364   Data           0  QCA6174_SCAQBAFM.sym ABSOLUTE
    sm_xor_128                               0x00015368   Data           0  QCA6174_SCAQBAFM.sym ABSOLUTE
    sm_d1_func                               0x0001536c   Data           0  QCA6174_SCAQBAFM.sym ABSOLUTE
    sm_s1_func                               0x00015370   Data           0  QCA6174_SCAQBAFM.sym ABSOLUTE
    sm_c1_func                               0x00015374   Data           0  QCA6174_SCAQBAFM.sym ABSOLUTE
    Auth_SetNetworkAddress                   0x00015378   Data           0  QCA6174_SCAQBAFM.sym ABSOLUTE
    ISR_Log                                  0x0001537c   Data           0  QCA6174_SCAQBAFM.sym ABSOLUTE
    PFAL_DBG_debugLastReset                  0x0001541c   Data           0  QCA6174_SCAQBAFM.sym ABSOLUTE
    PFAL_DBG_PreInit_LogInfo                 0x00015428   Data           0  QCA6174_SCAQBAFM.sym ABSOLUTE
    Buf_VStrForced                           0x0001582c   Data           0  QCA6174_SCAQBAFM.sym ABSOLUTE
    Buf_VStrFault                            0x000158f4   Data           0  QCA6174_SCAQBAFM.sym ABSOLUTE
    prediction_time                          0x00015978   Data           0  QCA6174_SCAQBAFM.sym ABSOLUTE
    MCI_QoSState                             0x00015990   Data           0  QCA6174_SCAQBAFM.sym ABSOLUTE
    MCI_SniffMap                             0x000159a8   Data           0  QCA6174_SCAQBAFM.sym ABSOLUTE
    MCI_SCOMap                               0x00015b18   Data           0  QCA6174_SCAQBAFM.sym ABSOLUTE
    CalCoexMsg                               0x00015c88   Data           0  QCA6174_SCAQBAFM.sym ABSOLUTE
    coex_mci_para                            0x00015c98   Data           0  QCA6174_SCAQBAFM.sym ABSOLUTE
    schedule_current_info                    0x00015cbc   Data           0  QCA6174_SCAQBAFM.sym ABSOLUTE
    gs_coex_mws_sync_info                    0x00015cd0   Data           0  QCA6174_SCAQBAFM.sym ABSOLUTE
    gs_mws_state                             0x00015dec   Data           0  QCA6174_SCAQBAFM.sym ABSOLUTE
    PFAL_GPIO_FunctionLookupTbl              0x00015df8   Data           0  QCA6174_SCAQBAFM.sym ABSOLUTE
    PFAL_GPIO_FunctionConfigTbl              0x00015ed0   Data           0  QCA6174_SCAQBAFM.sym ABSOLUTE
    PFAL_IM_NVIC_Priority                    0x00015f3c   Data           0  QCA6174_SCAQBAFM.sym ABSOLUTE
    PFAL_FS_Info                             0x00015fb0   Data           0  QCA6174_SCAQBAFM.sym ABSOLUTE
    COEX_Data                                0x0001612c   Data           0  QCA6174_SCAQBAFM.sym ABSOLUTE
    MCI_Data                                 0x000161b0   Data           0  QCA6174_SCAQBAFM.sym ABSOLUTE
    gPRUIData                                0x00016870   Data           0  QCA6174_SCAQBAFM.sym ABSOLUTE
    gHidIdleKBD                              0x0001689c   Data           0  QCA6174_SCAQBAFM.sym ABSOLUTE
    DFU_Cookie                               0x000168ac   Data           0  QCA6174_SCAQBAFM.sym ABSOLUTE
    gDDBGlobalRecord                         0x000168d0   Data           0  QCA6174_SCAQBAFM.sym ABSOLUTE
    txParam                                  0x00016992   Data           0  QCA6174_SCAQBAFM.sym ABSOLUTE
    WIP_LE_STACK_MemPoolObj                  0x000169ac   Data           0  QCA6174_SCAQBAFM.sym ABSOLUTE
    WIP_LE_STACK_FileSystemInfo              0x00016a00   Data           0  QCA6174_SCAQBAFM.sym ABSOLUTE
    USB_TXP_HIF_Callback                     0x00016a98   Data           0  QCA6174_SCAQBAFM.sym ABSOLUTE
    bt_eps                                   0x00016aa4   Data           0  QCA6174_SCAQBAFM.sym ABSOLUTE
    static_sco_pkt                           0x00016ab8   Data           0  QCA6174_SCAQBAFM.sym ABSOLUTE
    static_tx_sco_frag0                      0x00016b38   Data           0  QCA6174_SCAQBAFM.sym ABSOLUTE
    static_tx_sco_frag1                      0x00016b78   Data           0  QCA6174_SCAQBAFM.sym ABSOLUTE
    static_tx_sco_frag2                      0x00016bb8   Data           0  QCA6174_SCAQBAFM.sym ABSOLUTE
    static_rx_sco_frag0                      0x00016bf8   Data           0  QCA6174_SCAQBAFM.sym ABSOLUTE
    static_rx_sco_frag1                      0x00016c78   Data           0  QCA6174_SCAQBAFM.sym ABSOLUTE
    static_rx_sco_frag2                      0x00016cf8   Data           0  QCA6174_SCAQBAFM.sym ABSOLUTE
    a4wpPtuStaticParam                       0x00016d78   Data           0  QCA6174_SCAQBAFM.sym ABSOLUTE
    a4wpPruStaticParam                       0x00016d8a   Data           0  QCA6174_SCAQBAFM.sym ABSOLUTE
    a4wpPruDynamicParam                      0x00016d9e   Data           0  QCA6174_SCAQBAFM.sym ABSOLUTE
    PFAL_PROC_DelayBodyRAM                   0x000170d0   Data           0  QCA6174_SCAQBAFM.sym ABSOLUTE
    PFAL_DBG_IOPSetup                        0x000170d6   Data           0  QCA6174_SCAQBAFM.sym ABSOLUTE
    PATCHED_UART_baudrate                    0x000170da   Data           0  QCA6174_SCAQBAFM.sym ABSOLUTE
    PFAL_SYS_TOP_BootConfig                  0x000170db   Data           0  QCA6174_SCAQBAFM.sym ABSOLUTE
    PFAL_DBG_ResetDebug                      0x000170e0   Data           0  QCA6174_SCAQBAFM.sym ABSOLUTE
    PFAL_SYS_TOP_DSet                        0x000170ec   Data           0  QCA6174_SCAQBAFM.sym ABSOLUTE
    PFAL_SYS_TOP_BootPatch                   0x000172ec   Data           0  QCA6174_SCAQBAFM.sym ABSOLUTE
    gPatchFile                               0x00017458   Data           0  QCA6174_SCAQBAFM.sym ABSOLUTE
    gPatchFile_V2_0                          0x00017474   Data           0  QCA6174_SCAQBAFM.sym ABSOLUTE
    gRamInfo                                 0x0001748c   Data           0  QCA6174_SCAQBAFM.sym ABSOLUTE
    gSignature                               0x00017498   Data           0  QCA6174_SCAQBAFM.sym ABSOLUTE
    PFAL_DBG_CoreDumpInfo                    0x000175bc   Data           0  QCA6174_SCAQBAFM.sym ABSOLUTE
    gUsbGlobalData                           0x00017b28   Data           0  QCA6174_SCAQBAFM.sym ABSOLUTE
    Image$$PATCH_SSRAM$$Base                 0x0001deb0   Number         0  patch_PFAL_DBG_hci_vendor.o(.data)
    gIsNVMUpdated                            0x0001deb0   Data           1  patch_PFAL_DBG_hci_vendor.o(.data)
    g_Cfg_LE_Quick_Connect_Feature_Control   0x0001deb1   Data           2  patch_PFAL_DBG_hci_vendor.o(.data)
    Cfg_NVM_Version                          0x0001deb4   Data           2  patch_PFAL_DBG_hci_vendor.o(.data)
    g_Cfg_BT_Extended_Local_Features_Control 0x0001deb8   Data           8  patch_PFAL_DBG_hci_vendor.o(.data)
    PFAL_DBG_CoreDumpInfo_2                  0x0001dec0   Data           4  patch_PFAL_DBG.o(.data)
    didADCCalRun                             0x0001dec4   Data           1  patch_PFAL_RM_HW_EXT.o(.data)
    PFAL_RM_HW_EXT_RBIAS_CODE                0x0001dec8   Data           4  patch_PFAL_RM_HW_EXT.o(.data)
    PFAL_RM_HW_EXT_CAP_BIN                   0x0001decc   Data           4  patch_PFAL_RM_HW_EXT.o(.data)
    gbIsTempOffsetOTPBurned                  0x0001ded0   Data           1  patch_PFAL_SYS_EDL.o(.data)
    Image$$PATCH_SSRAM$$ZI$$Base             0x0001ded4   Number         0  anon$$obj.o(linker$$defined$$symbols)
    patch_entry                              0x0001feb1   Thumb Code   162  rampatch_main.o(ENTRY_POINT)
    Long Thumb to Thumb Veneer to __aeabi_memclr4 0x0001ffb1   Thumb Code    12  anon$$obj.o(Veneer$$Code)
    Long Thumb to Thumb Veneer to __aeabi_memcpy4 0x0001ffbd   Thumb Code    12  anon$$obj.o(Veneer$$Code)
    Long Thumb to Thumb Veneer to PFAL_SYS_TOP_IsBTMode 0x0001ffc9   Thumb Code    12  anon$$obj.o(Veneer$$Code)
    Long Thumb to Thumb Veneer to __2printf  0x0001ffd5   Thumb Code    12  anon$$obj.o(Veneer$$Code)
    Long Thumb to Thumb Veneer to PFAL_OTP_Open 0x0001ffe1   Thumb Code    12  anon$$obj.o(Veneer$$Code)
    Long Thumb to Thumb Veneer to PFAL_OTP_Close 0x0001ffed   Thumb Code    12  anon$$obj.o(Veneer$$Code)
    patch_PFAL_TLV_Process                   0x0001fff9   Thumb Code    28  patch_PFAL_DBG_hci_vendor.o(.text)
    PFAL_DBG_LE_GetCapabilities              0x00020015   Thumb Code    58  patch_PFAL_DBG_hci_vendor.o(.text)
    patch_HCI_VendorCommand                  0x0002004f   Thumb Code   558  patch_PFAL_DBG_hci_vendor.o(.text)
    patch_CFG_HandleVariableConfigParameter  0x0002027d   Thumb Code    58  patch_PFAL_DBG_hci_vendor.o(.text)
    PFAL_DBG_LE_BS_SetFeatureEnable          0x000202b7   Thumb Code    10  patch_PFAL_DBG_hci_vendor.o(.text)
    PFAL_DBG_LE_BS_SetStorageParameters      0x000202c1   Thumb Code    10  patch_PFAL_DBG_hci_vendor.o(.text)
    PFAL_DBG_LE_BS_SetScanParameters         0x000202cb   Thumb Code    10  patch_PFAL_DBG_hci_vendor.o(.text)
    PFAL_DBG_LE_BS_ReadResults               0x000202d5   Thumb Code    10  patch_PFAL_DBG_hci_vendor.o(.text)
    PFAL_DBG_LE_BS_StartScan                 0x000202df   Thumb Code     2  patch_PFAL_DBG_hci_vendor.o(.text)
    PFAL_DBG_hci_vendor_patch_apply          0x000202e1   Thumb Code    44  patch_PFAL_DBG_hci_vendor.o(.text)
    patch_PFAL_RM_RUN_BT_STARTUP_CALIBRATIONS 0x00020421   Thumb Code    56  patch_PFAL_RM_HW.o(.text)
    patch_PFAL_RM_HW_getTxNMOSSVTCorner      0x00020459   Thumb Code    56  patch_PFAL_RM_HW.o(.text)
    patch_PFAL_RM_HW_getMOMCoarseFineCorner_MOM_Cap 0x00020491   Thumb Code   120  patch_PFAL_RM_HW.o(.text)
    patch_PFAL_RM_HW_getMOMCoarseFineCorner_Cbin 0x00020509   Thumb Code   100  patch_PFAL_RM_HW.o(.text)
    patch_PFAL_RM_HW_getProcessCodes         0x0002056d   Thumb Code    30  patch_PFAL_RM_HW.o(.text)
    patch_PFAL_RM_HW_StartUpCal_ProcessCornerDiscovery 0x0002058b   Thumb Code   162  patch_PFAL_RM_HW.o(.text)
    patch_PFAL_RM_HW_Setup_TempCalibration   0x0002062d   Thumb Code   120  patch_PFAL_RM_HW.o(.text)
    patch_PFAL_RM_HW_32BitBoundaryCheckWithResult_noSymShift_Signed 0x000206a5   Thumb Code    72  patch_PFAL_RM_HW.o(.text)
    patch_PFAL_RM_WakeInit                   0x000206ed   Thumb Code    40  patch_PFAL_RM_HW.o(.text)
    PFAL_RM_HW_patch_apply                   0x00020715   Thumb Code    26  patch_PFAL_RM_HW.o(.text)
    patch_PFAL_RM_HW_StartUpCal_RxRadioCalibration 0x000207d1   Thumb Code   130  patch_PFAL_RM_HW_EXT.o(.text)
    patch_PFAL_RM_HW_EXT_GetCapBin           0x00020853   Thumb Code    52  patch_PFAL_RM_HW_EXT.o(.text)
    patch_PFAL_RM_HW_StartUpCal_ADC_RES_Tuning_Calibration 0x00020887   Thumb Code   456  patch_PFAL_RM_HW_EXT.o(.text)
    PFAL_RM_HW_EXT_patch_apply               0x00020a4f   Thumb Code    14  patch_PFAL_RM_HW_EXT.o(.text)
    patch_PFAL_SYS_EDL_getTempCalOffset      0x00020abd   Thumb Code   184  patch_PFAL_SYS_EDL.o(.text)
    patch_PFAL_SYS_EDL_Read_RawTempCodeOffset 0x00020b75   Thumb Code    46  patch_PFAL_SYS_EDL.o(.text)
    patch_PFAL_SYS_EDL_TempCalOffsetCalc     0x00020ba3   Thumb Code    60  patch_PFAL_SYS_EDL.o(.text)
    patch_PFAL_SYS_EDL_Rome_TempCal          0x00020bdf   Thumb Code    36  patch_PFAL_SYS_EDL.o(.text)
    patch_PFAL_SYS_EDL_SendCalibrationDatalog 0x00020c03   Thumb Code   132  patch_PFAL_SYS_EDL.o(.text)
    patch_PFAL_SYS_EDL_ProcessCommand        0x00020c87   Thumb Code    90  patch_PFAL_SYS_EDL.o(.text)
    patch_PFAL_SYS_EDL_SendStatus            0x00020ce1   Thumb Code    36  patch_PFAL_SYS_EDL.o(.text)
    patch_USB_Initialize                     0x00020d05   Thumb Code    36  patch_PFAL_SYS_EDL.o(.text)
    PFAL_SYS_EDL_patch_apply                 0x00020d29   Thumb Code    32  patch_PFAL_SYS_EDL.o(.text)
    patch_LLM_EPTM_handleStop                0x00020df9   Thumb Code    22  patch_llm_eptm.o(.text)
    LLM_eptm_patch_apply                     0x00020e0f   Thumb Code     8  patch_llm_eptm.o(.text)
    abort                                    0x00020e2d   Thumb Code    16  abort.o(.text)
    __rt_SIGABRT                             0x00020e3d   Thumb Code    12  defsig_abrt_outer.o(.text)
    __rt_SIGABRT_inner                       0x00020e49   Thumb Code    14  defsig_abrt_inner.o(.text)
    Long Thumb to Thumb Veneer to rom_PFAL_TLV_Process 0x00020e79   Thumb Code    12  anon$$obj.o(Veneer$$Code)
    Long Thumb to Thumb Veneer to PFAL_SYS_TOP_SetBTInterface 0x00020e85   Thumb Code    12  anon$$obj.o(Veneer$$Code)
    Long Thumb to Thumb Veneer to rom_HCI_VendorCommand 0x00020e91   Thumb Code    12  anon$$obj.o(Veneer$$Code)
    Long Thumb to Thumb Veneer to rom_CFG_HandleVariableConfigParameter 0x00020e9d   Thumb Code    12  anon$$obj.o(Veneer$$Code)
    Long Thumb to Thumb Veneer to rom_PFAL_RM_RUN_BT_STARTUP_CALIBRATIONS 0x00020ea9   Thumb Code    12  anon$$obj.o(Veneer$$Code)
    Long Thumb to Thumb Veneer to __aeabi_lasr 0x00020eb5   Thumb Code    12  anon$$obj.o(Veneer$$Code)
    Long Thumb to Thumb Veneer to __aeabi_llsl 0x00020ec1   Thumb Code    12  anon$$obj.o(Veneer$$Code)
    Long Thumb to Thumb Veneer to rom_PFAL_RM_WakeInit 0x00020ecd   Thumb Code    12  anon$$obj.o(Veneer$$Code)
    Long Thumb to Thumb Veneer to rom_PFAL_RM_HW_StartUpCal_RxRadioCalibration 0x00020ed9   Thumb Code    12  anon$$obj.o(Veneer$$Code)
    Long Thumb to Thumb Veneer to __ARM_common_ll_mulss 0x00020ee5   Thumb Code    12  anon$$obj.o(Veneer$$Code)
    Long Thumb to Thumb Veneer to rom_PFAL_SYS_EDL_Rome_TempCal 0x00020ef1   Thumb Code    12  anon$$obj.o(Veneer$$Code)
    Long Thumb to Thumb Veneer to rom_PFAL_SYS_EDL_ProcessCommand 0x00020efd   Thumb Code    12  anon$$obj.o(Veneer$$Code)
    Long Thumb to Thumb Veneer to PFAL_SYS_TOP_SetBTMode 0x00020f09   Thumb Code    12  anon$$obj.o(Veneer$$Code)
    Long Thumb to Thumb Veneer to rom_PFAL_SYS_EDL_SendStatus 0x00020f15   Thumb Code    12  anon$$obj.o(Veneer$$Code)
    Long Thumb to Thumb Veneer to rom_USB_Initialize 0x00020f21   Thumb Code    12  anon$$obj.o(Veneer$$Code)
    Long Thumb to Thumb Veneer to _sys_exit  0x00020f2d   Thumb Code    12  anon$$obj.o(Veneer$$Code)
    Long Thumb to Thumb Veneer to __sig_exit 0x00020f39   Thumb Code    12  anon$$obj.o(Veneer$$Code)
    Long Thumb to Thumb Veneer to __default_signal_display 0x00020f45   Thumb Code    12  anon$$obj.o(Veneer$$Code)
    gBuildDate                               0x00020f50   Data          12  rampatch_main.o(.constdata)
    gBuildTime                               0x00020f5c   Data           9  rampatch_main.o(.constdata)
    gBuildLabel                              0x00020f65   Data          32  rampatch_main.o(.constdata)
    Load$$PATCH_SSRAM$$Base                  0x00020f88   Number         0  anon$$obj.o ABSOLUTE
    ROM_Vectors                              0x10000000   Data           0  QCA6174_SCAQBAFM.sym ABSOLUTE
    PFAL_UART_IOP_SETUP_PGM                  0x100000c0   Data           0  QCA6174_SCAQBAFM.sym ABSOLUTE
    PFAL_UART_IOP_TX_PGM                     0x100000e8   Data           0  QCA6174_SCAQBAFM.sym ABSOLUTE
    PFAL_UART_IOP_RX_PGM                     0x10000300   Data           0  QCA6174_SCAQBAFM.sym ABSOLUTE
    PFAL_ACI_MONO_IOP_PGM                    0x100005cc   Data           0  QCA6174_SCAQBAFM.sym ABSOLUTE
    PFAL_VOICE_COPROCESSOR_IOP_PGM           0x10000754   Data           0  QCA6174_SCAQBAFM.sym ABSOLUTE
    _printf_percent                          0x100008c1   Thumb Code     0  QCA6174_SCAQBAFM.sym ABSOLUTE
    _printf_n                                0x100008c3   Thumb Code     0  QCA6174_SCAQBAFM.sym ABSOLUTE
    _printf_p                                0x100008cd   Thumb Code     0  QCA6174_SCAQBAFM.sym ABSOLUTE
    _printf_f                                0x100008d7   Thumb Code     0  QCA6174_SCAQBAFM.sym ABSOLUTE
    _printf_e                                0x100008e1   Thumb Code     0  QCA6174_SCAQBAFM.sym ABSOLUTE
    _printf_g                                0x100008eb   Thumb Code     0  QCA6174_SCAQBAFM.sym ABSOLUTE
    _printf_a                                0x100008f5   Thumb Code     0  QCA6174_SCAQBAFM.sym ABSOLUTE
    _printf_ll                               0x100008ff   Thumb Code     0  QCA6174_SCAQBAFM.sym ABSOLUTE
    _printf_i                                0x10000909   Thumb Code     0  QCA6174_SCAQBAFM.sym ABSOLUTE
    _printf_d                                0x10000913   Thumb Code     0  QCA6174_SCAQBAFM.sym ABSOLUTE
    _printf_u                                0x1000091d   Thumb Code     0  QCA6174_SCAQBAFM.sym ABSOLUTE
    _printf_o                                0x10000927   Thumb Code     0  QCA6174_SCAQBAFM.sym ABSOLUTE
    _printf_x                                0x10000931   Thumb Code     0  QCA6174_SCAQBAFM.sym ABSOLUTE
    _printf_lli                              0x1000093b   Thumb Code     0  QCA6174_SCAQBAFM.sym ABSOLUTE
    _printf_lld                              0x10000945   Thumb Code     0  QCA6174_SCAQBAFM.sym ABSOLUTE
    _printf_llu                              0x1000094f   Thumb Code     0  QCA6174_SCAQBAFM.sym ABSOLUTE
    _printf_llo                              0x10000959   Thumb Code     0  QCA6174_SCAQBAFM.sym ABSOLUTE
    _printf_llx                              0x10000963   Thumb Code     0  QCA6174_SCAQBAFM.sym ABSOLUTE
    _printf_l                                0x1000096d   Thumb Code     0  QCA6174_SCAQBAFM.sym ABSOLUTE
    _printf_c                                0x10000977   Thumb Code     0  QCA6174_SCAQBAFM.sym ABSOLUTE
    _printf_s                                0x10000981   Thumb Code     0  QCA6174_SCAQBAFM.sym ABSOLUTE
    _printf_lc                               0x1000098b   Thumb Code     0  QCA6174_SCAQBAFM.sym ABSOLUTE
    _printf_ls                               0x10000995   Thumb Code     0  QCA6174_SCAQBAFM.sym ABSOLUTE
    _printf_percent_end                      0x1000099f   Thumb Code     0  QCA6174_SCAQBAFM.sym ABSOLUTE
    __rt_lib_init_heap_2                     0x100009a3   Thumb Code     0  QCA6174_SCAQBAFM.sym ABSOLUTE
    __rt_lib_init_lc_ctype_2                 0x100009a3   Thumb Code     0  QCA6174_SCAQBAFM.sym ABSOLUTE
    __rt_lib_init_lc_numeric_2               0x100009a3   Thumb Code     0  QCA6174_SCAQBAFM.sym ABSOLUTE
    __asm___19_synthesis_sbc_o_i_i_01a7e561__arm_copy_32aligned_backwards_40_halfwords 0x100009a5   Thumb Code     0  QCA6174_SCAQBAFM.sym ABSOLUTE
    __asm___19_synthesis_sbc_o_i_i_01a7e561__arm_copy_32aligned_backwards_72_halfwords 0x100009bb   Thumb Code     0  QCA6174_SCAQBAFM.sym ABSOLUTE
    __asm___19_synthesis_sbc_o_i_i_01a7e561__arm_copy_32aligned_backwards_104_halfwords 0x100009d9   Thumb Code     0  QCA6174_SCAQBAFM.sym ABSOLUTE
    __asm___18_analysis_sbc_o_i_i_4621dfd5__arm_copy_32aligned_backwards_40_halfwords 0x10000a05   Thumb Code     0  QCA6174_SCAQBAFM.sym ABSOLUTE
    __asm___18_analysis_sbc_o_i_i_4621dfd5__arm_copy_32aligned_backwards_72_halfwords 0x10000a1b   Thumb Code     0  QCA6174_SCAQBAFM.sym ABSOLUTE
    __asm___18_analysis_sbc_o_i_i_4621dfd5__arm_copy_32aligned_backwards_104_halfwords 0x10000a39   Thumb Code     0  QCA6174_SCAQBAFM.sym ABSOLUTE
    __aeabi_memcpy4                          0x10000a65   Thumb Code     0  QCA6174_SCAQBAFM.sym ABSOLUTE
    __aeabi_memcpy8                          0x10000a65   Thumb Code     0  QCA6174_SCAQBAFM.sym ABSOLUTE
    PFAL_PROC_Init                           0x10000a9d   Thumb Code     0  QCA6174_SCAQBAFM.sym ABSOLUTE
    _maybe_terminate_alloc                   0x10000a9d   Thumb Code     0  QCA6174_SCAQBAFM.sym ABSOLUTE
    rom_PFAL_PROC_FifoReadBlock              0x10000aaf   Thumb Code     0  QCA6174_SCAQBAFM.sym ABSOLUTE
    rom_PFAL_PROC_FifoWriteBlock             0x10000af9   Thumb Code     0  QCA6174_SCAQBAFM.sym ABSOLUTE
    rom_PFAL_PROC_CRC32                      0x10000b3d   Thumb Code     0  QCA6174_SCAQBAFM.sym ABSOLUTE
    rom_PFAL_PROC_rand16                     0x10000b83   Thumb Code     0  QCA6174_SCAQBAFM.sym ABSOLUTE
    rom_PFAL_PROC_Uint16Msb                  0x10000bb3   Thumb Code     0  QCA6174_SCAQBAFM.sym ABSOLUTE
    rom_PFAL_PROC_Uint16Lsb                  0x10000bb7   Thumb Code     0  QCA6174_SCAQBAFM.sym ABSOLUTE
    rom_PFAL_PROC_Uint32Byte3                0x10000bbb   Thumb Code     0  QCA6174_SCAQBAFM.sym ABSOLUTE
    rom_PFAL_PROC_Uint32Byte2                0x10000bbf   Thumb Code     0  QCA6174_SCAQBAFM.sym ABSOLUTE
    rom_PFAL_PROC_Uint32Byte1                0x10000bc5   Thumb Code     0  QCA6174_SCAQBAFM.sym ABSOLUTE
    rom_PFAL_PROC_Uint32Byte0                0x10000bcb   Thumb Code     0  QCA6174_SCAQBAFM.sym ABSOLUTE
    HardFault_Handler                        0x10000be1   Thumb Code     0  QCA6174_SCAQBAFM.sym ABSOLUTE
    BusFault_Handler                         0x10000bf7   Thumb Code     0  QCA6174_SCAQBAFM.sym ABSOLUTE
    ExceptionReset_Hook                      0x10000c0d   Thumb Code     0  QCA6174_SCAQBAFM.sym ABSOLUTE
    arm_cos_q15                              0x10000c59   Thumb Code     0  QCA6174_SCAQBAFM.sym ABSOLUTE
    arm_sin_q15                              0x10000d19   Thumb Code     0  QCA6174_SCAQBAFM.sym ABSOLUTE
    mod_exp                                  0x10000dd9   Thumb Code     0  QCA6174_SCAQBAFM.sym ABSOLUTE
    secmath_BIGINT_modexp                    0x10000fa1   Thumb Code     0  QCA6174_SCAQBAFM.sym ABSOLUTE
    montmul_ref                              0x10001009   Thumb Code     0  QCA6174_SCAQBAFM.sym ABSOLUTE
    montmul_one_ref                          0x100010f3   Thumb Code     0  QCA6174_SCAQBAFM.sym ABSOLUTE
    compare                                  0x10001195   Thumb Code     0  QCA6174_SCAQBAFM.sym ABSOLUTE
    increment                                0x100011c1   Thumb Code     0  QCA6174_SCAQBAFM.sym ABSOLUTE
    decrement                                0x100011ef   Thumb Code     0  QCA6174_SCAQBAFM.sym ABSOLUTE
    negate                                   0x1000121d   Thumb Code     0  QCA6174_SCAQBAFM.sym ABSOLUTE
    sub                                      0x10001253   Thumb Code     0  QCA6174_SCAQBAFM.sym ABSOLUTE
    add                                      0x10001289   Thumb Code     0  QCA6174_SCAQBAFM.sym ABSOLUTE
    addition                                 0x100012bd   Thumb Code     0  QCA6174_SCAQBAFM.sym ABSOLUTE
    find_MSB32                               0x100012f1   Thumb Code     0  QCA6174_SCAQBAFM.sym ABSOLUTE
    find_bn_MSB                              0x1000131d   Thumb Code     0  QCA6174_SCAQBAFM.sym ABSOLUTE
    inverse32                                0x1000137b   Thumb Code     0  QCA6174_SCAQBAFM.sym ABSOLUTE
    right_shift                              0x1000139f   Thumb Code     0  QCA6174_SCAQBAFM.sym ABSOLUTE
    mult_base_mod_m                          0x10001597   Thumb Code     0  QCA6174_SCAQBAFM.sym ABSOLUTE
    mult_R_mod_m                             0x10001681   Thumb Code     0  QCA6174_SCAQBAFM.sym ABSOLUTE
    secmath_BIGINT_read_unsigned_bin         0x10001785   Thumb Code     0  QCA6174_SCAQBAFM.sym ABSOLUTE
    ce_rsa_exptmod                           0x100017df   Thumb Code     0  QCA6174_SCAQBAFM.sym ABSOLUTE
    ce_rsa_sign_hash                         0x10001963   Thumb Code     0  QCA6174_SCAQBAFM.sym ABSOLUTE
    ce_rsa_verify_signature                  0x10001a49   Thumb Code     0  QCA6174_SCAQBAFM.sym ABSOLUTE
    ce_util_count_bits                       0x10001b7b   Thumb Code     0  QCA6174_SCAQBAFM.sym ABSOLUTE
    ce_util_count_bytes                      0x10001bc1   Thumb Code     0  QCA6174_SCAQBAFM.sym ABSOLUTE
    ce_util_init_s_bigint                    0x10001c15   Thumb Code     0  QCA6174_SCAQBAFM.sym ABSOLUTE
    ce_util_free_s_bigint                    0x10001c3f   Thumb Code     0  QCA6174_SCAQBAFM.sym ABSOLUTE
    ce_util_reverse_str                      0x10001c4d   Thumb Code     0  QCA6174_SCAQBAFM.sym ABSOLUTE
    ce_util_cmp                              0x10001c6b   Thumb Code     0  QCA6174_SCAQBAFM.sym ABSOLUTE
    ce_util_cmp_d                            0x10001ce1   Thumb Code     0  QCA6174_SCAQBAFM.sym ABSOLUTE
    ce_util_to_unsigned_bin                  0x10001d1f   Thumb Code     0  QCA6174_SCAQBAFM.sym ABSOLUTE
    ce_util_read_unsigned_bin                0x10001d67   Thumb Code     0  QCA6174_SCAQBAFM.sym ABSOLUTE
    ce_util_replace_zeros                    0x10001d6f   Thumb Code     0  QCA6174_SCAQBAFM.sym ABSOLUTE
    secrsa_memset                            0x10001da7   Thumb Code     0  QCA6174_SCAQBAFM.sym ABSOLUTE
    ce_pkcs1_v1_5_padding_encode             0x10001dbd   Thumb Code     0  QCA6174_SCAQBAFM.sym ABSOLUTE
    ce_pkcs1_v1_5_padding_decode             0x10001eed   Thumb Code     0  QCA6174_SCAQBAFM.sym ABSOLUTE
    i2osp                                    0x10001f6b   Thumb Code     0  QCA6174_SCAQBAFM.sym ABSOLUTE
    ce_pkcs1_mgf1                            0x10001f8b   Thumb Code     0  QCA6174_SCAQBAFM.sym ABSOLUTE
    ce_pkcs1_oaep_padding_encode             0x10002089   Thumb Code     0  QCA6174_SCAQBAFM.sym ABSOLUTE
    ce_pkcs1_oaep_padding_decode             0x100022bf   Thumb Code     0  QCA6174_SCAQBAFM.sym ABSOLUTE
    ce_pkcs1_pss_padding_encode              0x1000248f   Thumb Code     0  QCA6174_SCAQBAFM.sym ABSOLUTE
    ce_pkcs1_pss_padding_verify              0x10002635   Thumb Code     0  QCA6174_SCAQBAFM.sym ABSOLUTE
    rom_PFAL_DBG_InitLoggerVars              0x100027d5   Thumb Code     0  QCA6174_SCAQBAFM.sym ABSOLUTE
    rom_PFAL_DBG_UART_Init                   0x1000280f   Thumb Code     0  QCA6174_SCAQBAFM.sym ABSOLUTE
    rom_PFAL_DBG_UART_Write                  0x1000286b   Thumb Code     0  QCA6174_SCAQBAFM.sym ABSOLUTE
    rom_PFAL_DBG_ActivateLoggerPort          0x1000292d   Thumb Code     0  QCA6174_SCAQBAFM.sym ABSOLUTE
    rom_PFAL_DBG_DeactivateLoggerPort        0x1000292f   Thumb Code     0  QCA6174_SCAQBAFM.sym ABSOLUTE
    rom_PFAL_DBG_SaveContext                 0x10002931   Thumb Code     0  QCA6174_SCAQBAFM.sym ABSOLUTE
    rom_PFAL_DBG_DumpContext                 0x100029b1   Thumb Code     0  QCA6174_SCAQBAFM.sym ABSOLUTE
    rom_PFAL_DBG_ForceEDL                    0x10002aa9   Thumb Code     0  QCA6174_SCAQBAFM.sym ABSOLUTE
    rom_PFAL_DBG_SaveReason_TriggerReset     0x10002ac3   Thumb Code     0  QCA6174_SCAQBAFM.sym ABSOLUTE
    PFAL_DBG_ISR_Log_Var                     0x10002aff   Thumb Code     0  QCA6174_SCAQBAFM.sym ABSOLUTE
    PFAL_DBG_ISR_Log_Str                     0x10002b21   Thumb Code     0  QCA6174_SCAQBAFM.sym ABSOLUTE
    rom_PFAL_DBG_Fault                       0x10002b43   Thumb Code     0  QCA6174_SCAQBAFM.sym ABSOLUTE
    rom_PFAL_DBG_UART_Reset                  0x10002dd5   Thumb Code     0  QCA6174_SCAQBAFM.sym ABSOLUTE
    rom_PFAL_DBG_EXCEPTION_DumpMemory        0x10002e3d   Thumb Code     0  QCA6174_SCAQBAFM.sym ABSOLUTE
    rom_PFAL_DBG_BootToEDL                   0x10002eef   Thumb Code     0  QCA6174_SCAQBAFM.sym ABSOLUTE
    rom_PFAL_DBG_ActivityInit                0x10002f35   Thumb Code     0  QCA6174_SCAQBAFM.sym ABSOLUTE
    rom_PFAL_DBG_ActivitySet                 0x10002f61   Thumb Code     0  QCA6174_SCAQBAFM.sym ABSOLUTE
    rom_PFAL_DBG_ActivityClear               0x10002f79   Thumb Code     0  QCA6174_SCAQBAFM.sym ABSOLUTE
    rom_PFAL_DBG_SetLedState                 0x10002f91   Thumb Code     0  QCA6174_SCAQBAFM.sym ABSOLUTE
    rom_PFAL_DBG_ActivityStateEval           0x10002fc9   Thumb Code     0  QCA6174_SCAQBAFM.sym ABSOLUTE
    rom_PFAL_DBG_ActivityTimer               0x10003017   Thumb Code     0  QCA6174_SCAQBAFM.sym ABSOLUTE
    rom_PFAL_DBG_ProfileInit                 0x1000303f   Thumb Code     0  QCA6174_SCAQBAFM.sym ABSOLUTE
    rom_PFAL_DBG_SetDebugFunctions           0x10003041   Thumb Code     0  QCA6174_SCAQBAFM.sym ABSOLUTE
    PFAL_DBG_ResetReasonInit                 0x10003059   Thumb Code     0  QCA6174_SCAQBAFM.sym ABSOLUTE
    rom_PFAL_DBG_ResetReasonSet              0x100030b3   Thumb Code     0  QCA6174_SCAQBAFM.sym ABSOLUTE
    rom_PFAL_DBG_ISR_LogMsg                  0x100030c3   Thumb Code     0  QCA6174_SCAQBAFM.sym ABSOLUTE
    rom_PFAL_DBG_ISR_DumpLog                 0x10003255   Thumb Code     0  QCA6174_SCAQBAFM.sym ABSOLUTE
    PFAL_ISR_LogReset                        0x100034f1   Thumb Code     0  QCA6174_SCAQBAFM.sym ABSOLUTE
    rom_PFAL_DBG_ISR_DumpTopology            0x1000352b   Thumb Code     0  QCA6174_SCAQBAFM.sym ABSOLUTE
    PFAL_DBG_ISR_Log_VarX                    0x10003eaf   Thumb Code     0  QCA6174_SCAQBAFM.sym ABSOLUTE
    PFAL_DBG_ISR_Log_HexDump                 0x10003ed1   Thumb Code     0  QCA6174_SCAQBAFM.sym ABSOLUTE
    rom_PFAL_DBG_AllocMem                    0x10003ef9   Thumb Code     0  QCA6174_SCAQBAFM.sym ABSOLUTE
    rom_PFAL_DBG_Log_HexDump                 0x10003f15   Thumb Code     0  QCA6174_SCAQBAFM.sym ABSOLUTE
    rom_PFAL_DBG_Log_VStr                    0x10003fcf   Thumb Code     0  QCA6174_SCAQBAFM.sym ABSOLUTE
    rom_PFAL_DBG_Log_Var                     0x1000408b   Thumb Code     0  QCA6174_SCAQBAFM.sym ABSOLUTE
    rom_PFAL_DBG_Log_CStr                    0x10004339   Thumb Code     0  QCA6174_SCAQBAFM.sym ABSOLUTE
    rom_PFAL_DBG_Log_Packet                  0x1000433b   Thumb Code     0  QCA6174_SCAQBAFM.sym ABSOLUTE
    rom_PFAL_DBG_Log_VStrForced              0x100043e9   Thumb Code     0  QCA6174_SCAQBAFM.sym ABSOLUTE
    rom_PFAL_DBG_CheckStacks                 0x10004453   Thumb Code     0  QCA6174_SCAQBAFM.sym ABSOLUTE
    rom_PFAL_DBG_DisplayStacks               0x10004589   Thumb Code     0  QCA6174_SCAQBAFM.sym ABSOLUTE
    fputc                                    0x100048a7   Thumb Code     0  QCA6174_SCAQBAFM.sym ABSOLUTE
    rom_PFAL_LC_loadBurstTimers              0x10004929   Thumb Code     0  QCA6174_SCAQBAFM.sym ABSOLUTE
    rom_PFAL_LC_LE_loadBurstTimers           0x10004955   Thumb Code     0  QCA6174_SCAQBAFM.sym ABSOLUTE
    rom_PFAL_LC_Stop                         0x10004983   Thumb Code     0  QCA6174_SCAQBAFM.sym ABSOLUTE
    rom_PFAL_LC_Init                         0x100049b3   Thumb Code     0  QCA6174_SCAQBAFM.sym ABSOLUTE
    rom_PFAL_LC_Clk_N_GetInteger             0x10004ad3   Thumb Code     0  QCA6174_SCAQBAFM.sym ABSOLUTE
    rom_PFAL_LC_Clk_N_GetFull                0x10004add   Thumb Code     0  QCA6174_SCAQBAFM.sym ABSOLUTE
    rom_PFAL_LC_Clk_Calc_Full                0x10004aed   Thumb Code     0  QCA6174_SCAQBAFM.sym ABSOLUTE
    rom_PFAL_LC_Clk_Calc_Integer             0x10004b05   Thumb Code     0  QCA6174_SCAQBAFM.sym ABSOLUTE
    rom_PFAL_LC_Clk_A_GetInteger             0x10004b17   Thumb Code     0  QCA6174_SCAQBAFM.sym ABSOLUTE
    rom_PFAL_LC_Clk_Calc_SlotOffset          0x10004b21   Thumb Code     0  QCA6174_SCAQBAFM.sym ABSOLUTE
    rom_PFAL_LC_Clk_Add                      0x10004b87   Thumb Code     0  QCA6174_SCAQBAFM.sym ABSOLUTE
    rom_PFAL_LC_Clk_Subtract                 0x10004bb5   Thumb Code     0  QCA6174_SCAQBAFM.sym ABSOLUTE
    rom_PFAL_LC_Clk_Sign_Inverse             0x10004bdb   Thumb Code     0  QCA6174_SCAQBAFM.sym ABSOLUTE
    rom_PFAL_LC_Clk_2_NxtFrame               0x10004bed   Thumb Code     0  QCA6174_SCAQBAFM.sym ABSOLUTE
    rom_PFAL_LC_Clk_Convert_Ticks_Clock      0x10004c0f   Thumb Code     0  QCA6174_SCAQBAFM.sym ABSOLUTE
    rom_PFAL_LC_getCapturedClk               0x10004c27   Thumb Code     0  QCA6174_SCAQBAFM.sym ABSOLUTE
    rom_PFAL_LC_INT0_ISR                     0x10004c33   Thumb Code     0  QCA6174_SCAQBAFM.sym ABSOLUTE
    rom_PFAL_LC_INT0_Handler                 0x10004c81   Thumb Code     0  QCA6174_SCAQBAFM.sym ABSOLUTE
    rom_PFAL_LC_INT1_ISR                     0x10004cbf   Thumb Code     0  QCA6174_SCAQBAFM.sym ABSOLUTE
    rom_PFAL_LC_INT1_Handler                 0x10004de5   Thumb Code     0  QCA6174_SCAQBAFM.sym ABSOLUTE
    rom_PFAL_LC_IM_Connect                   0x10004e23   Thumb Code     0  QCA6174_SCAQBAFM.sym ABSOLUTE
    rom_PFAL_LC_FSYNC_ISR                    0x10004e49   Thumb Code     0  QCA6174_SCAQBAFM.sym ABSOLUTE
    rom_PFAL_LC_ContextFrame_PAGE_ID         0x10004e7d   Thumb Code     0  QCA6174_SCAQBAFM.sym ABSOLUTE
    rom_PFAL_LC_ContextFrame_PAGE_FHS        0x10004ef5   Thumb Code     0  QCA6174_SCAQBAFM.sym ABSOLUTE
    rom_PFAL_LC_ContextTx_PAGE_ID            0x10004f25   Thumb Code     0  QCA6174_SCAQBAFM.sym ABSOLUTE
    rom_PFAL_LC_ContextTx_PAGE_FHS           0x10004f55   Thumb Code     0  QCA6174_SCAQBAFM.sym ABSOLUTE
    rom_PFAL_LC_ContextTx_PAGE_POLL          0x10004f91   Thumb Code     0  QCA6174_SCAQBAFM.sym ABSOLUTE
    rom_PFAL_LC_BuildLLRPacket               0x10004fbf   Thumb Code     0  QCA6174_SCAQBAFM.sym ABSOLUTE
    rom_PFAL_LC_GetLLRMsgType                0x100050c1   Thumb Code     0  QCA6174_SCAQBAFM.sym ABSOLUTE
    rom_PFAL_LC_HandleLLRPacket              0x1000513b   Thumb Code     0  QCA6174_SCAQBAFM.sym ABSOLUTE
    rom_PFAL_LC_ContextRx_NONE               0x1000539f   Thumb Code     0  QCA6174_SCAQBAFM.sym ABSOLUTE
    rom_PFAL_LC_ContextRx_PAGE_ID            0x100053bb   Thumb Code     0  QCA6174_SCAQBAFM.sym ABSOLUTE
    rom_PFAL_LC_ContextRx_PAGE_FHS           0x100053ed   Thumb Code     0  QCA6174_SCAQBAFM.sym ABSOLUTE
    rom_PFAL_LC_ContextFrame_CONN_MASTER     0x1000542f   Thumb Code     0  QCA6174_SCAQBAFM.sym ABSOLUTE
    rom_PFAL_LC_ContextFrame_CONN_SLAVE      0x1000547f   Thumb Code     0  QCA6174_SCAQBAFM.sym ABSOLUTE
    rom_PFAL_LC_ContextFrame_SEMI_CONN       0x100054cd   Thumb Code     0  QCA6174_SCAQBAFM.sym ABSOLUTE
    rom_PFAL_LC_ContextRx_CONN_MASTER        0x10005553   Thumb Code     0  QCA6174_SCAQBAFM.sym ABSOLUTE
    rom_PFAL_LC_ContextTx_CONN_MASTER        0x100055d9   Thumb Code     0  QCA6174_SCAQBAFM.sym ABSOLUTE
    rom_PFAL_LC_ContextTx_UNPARK_SLAVE       0x10005629   Thumb Code     0  QCA6174_SCAQBAFM.sym ABSOLUTE
    rom_PFAL_LC_ContextRx_CONN_SLAVE         0x1000565b   Thumb Code     0  QCA6174_SCAQBAFM.sym ABSOLUTE
    rom_PFAL_LC_ContextFrame_INQUIRY         0x10005661   Thumb Code     0  QCA6174_SCAQBAFM.sym ABSOLUTE
    rom_PFAL_LC_ContextTx_INQUIRY            0x1000579d   Thumb Code     0  QCA6174_SCAQBAFM.sym ABSOLUTE
    rom_PFAL_LC_ContextRx_INQUIRY            0x100057c5   Thumb Code     0  QCA6174_SCAQBAFM.sym ABSOLUTE
    rom_PFAL_LC_ContextRx_INQUIRY_EXT_DATA   0x10005809   Thumb Code     0  QCA6174_SCAQBAFM.sym ABSOLUTE
    rom_PFAL_LC_ContextFrame_RSW2M_TDD       0x1000585f   Thumb Code     0  QCA6174_SCAQBAFM.sym ABSOLUTE
    rom_PFAL_LC_ContextFrame_RSW2M_PSW       0x100058ab   Thumb Code     0  QCA6174_SCAQBAFM.sym ABSOLUTE
    rom_PFAL_LC_ContextFrame_RSW2S_TDD       0x100058b5   Thumb Code     0  QCA6174_SCAQBAFM.sym ABSOLUTE
    rom_PFAL_LC_ContextFrame_RSW2S_PSW       0x100058ff   Thumb Code     0  QCA6174_SCAQBAFM.sym ABSOLUTE
    rom_PFAL_LC_ContextTx_RSW2M              0x1000595f   Thumb Code     0  QCA6174_SCAQBAFM.sym ABSOLUTE
    rom_PFAL_LC_ContextRx_RSW2M_ID           0x100059af   Thumb Code     0  QCA6174_SCAQBAFM.sym ABSOLUTE
    rom_PFAL_LC_writeBdAddr                  0x10005a05   Thumb Code     0  QCA6174_SCAQBAFM.sym ABSOLUTE
    rom_PFAL_LC_procTxFHSCommon              0x10005a29   Thumb Code     0  QCA6174_SCAQBAFM.sym ABSOLUTE
    rom_PFAL_LC_procRxFHSCommon              0x10005abd   Thumb Code     0  QCA6174_SCAQBAFM.sym ABSOLUTE
    rom_PFAL_LC_procRxFHS                    0x10005b39   Thumb Code     0  QCA6174_SCAQBAFM.sym ABSOLUTE
    rom_PFAL_LC_procRxFHS_Switch             0x10005b53   Thumb Code     0  QCA6174_SCAQBAFM.sym ABSOLUTE
    rom_PFAL_LC_procRxFHSInqResp             0x10005c35   Thumb Code     0  QCA6174_SCAQBAFM.sym ABSOLUTE
    rom_PFAL_LC_putFHSPktConnection          0x10005ced   Thumb Code     0  QCA6174_SCAQBAFM.sym ABSOLUTE
    rom_PFAL_LC_putFHSPktInquiryResponse     0x10005d5b   Thumb Code     0  QCA6174_SCAQBAFM.sym ABSOLUTE
    rom_PFAL_LC_putFHSPktRoleSwitch          0x10005dad   Thumb Code     0  QCA6174_SCAQBAFM.sym ABSOLUTE
    rom_PFAL_LC_putPOLLPacket                0x10005e09   Thumb Code     0  QCA6174_SCAQBAFM.sym ABSOLUTE
    rom_PFAL_LC_writeTxPktHdr                0x10005e39   Thumb Code     0  QCA6174_SCAQBAFM.sym ABSOLUTE
    rom_PFAL_LC_writeTxPayloadHeader         0x10005e7b   Thumb Code     0  QCA6174_SCAQBAFM.sym ABSOLUTE
    rom_PFAL_LC_getRxPacketHeader            0x10005e89   Thumb Code     0  QCA6174_SCAQBAFM.sym ABSOLUTE
    rom_PFAL_LC_procRxACLPayloadHdr          0x10005eaf   Thumb Code     0  QCA6174_SCAQBAFM.sym ABSOLUTE
    rom_PFAL_LC_writeEncrKey                 0x10005ef3   Thumb Code     0  QCA6174_SCAQBAFM.sym ABSOLUTE
    rom_PFAL_LC_ContextFrame_PSCAN           0x10005f4f   Thumb Code     0  QCA6174_SCAQBAFM.sym ABSOLUTE
    rom_PFAL_LC_ContextFrame_PAGE_SCAN_RESPONSE 0x10005fb7   Thumb Code     0  QCA6174_SCAQBAFM.sym ABSOLUTE
    rom_PFAL_LC_ContextTx_PSCAN              0x10005fdf   Thumb Code     0  QCA6174_SCAQBAFM.sym ABSOLUTE
    rom_PFAL_LC_ContextRx_PSCAN              0x100060cf   Thumb Code     0  QCA6174_SCAQBAFM.sym ABSOLUTE
    rom_PFAL_LC_ContextRx_LPPSCAN            0x10006109   Thumb Code     0  QCA6174_SCAQBAFM.sym ABSOLUTE
    rom_PFAL_LC_ContextFrame_PSCAN_FHS       0x10006143   Thumb Code     0  QCA6174_SCAQBAFM.sym ABSOLUTE
    rom_PFAL_LC_ContextRx_PSCAN_FHS          0x10006157   Thumb Code     0  QCA6174_SCAQBAFM.sym ABSOLUTE
    rom_PFAL_LC_ContextTx_PSCAN_FHS          0x10006197   Thumb Code     0  QCA6174_SCAQBAFM.sym ABSOLUTE
    rom_PFAL_LC_ContextFrame_INQUIRY_SCAN    0x100061c5   Thumb Code     0  QCA6174_SCAQBAFM.sym ABSOLUTE
    rom_PFAL_LC_ContextFrame_INQUIRY_SCAN_RESPONSE 0x1000622b   Thumb Code     0  QCA6174_SCAQBAFM.sym ABSOLUTE
    rom_PFAL_LC_ContextRx_INQUIRY_SCAN       0x10006251   Thumb Code     0  QCA6174_SCAQBAFM.sym ABSOLUTE
    rom_PFAL_LC_ContextTx_INQUIRY_SCAN       0x10006285   Thumb Code     0  QCA6174_SCAQBAFM.sym ABSOLUTE
    rom_PFAL_LC_ContextTx_EXT_INQUIRY_RES    0x100062ab   Thumb Code     0  QCA6174_SCAQBAFM.sym ABSOLUTE
    rom_PFAL_LC_ContextTx_SYNC_TRAIN         0x100062d1   Thumb Code     0  QCA6174_SCAQBAFM.sym ABSOLUTE
    rom_PFAL_WriteSyncTrainPacket            0x10006315   Thumb Code     0  QCA6174_SCAQBAFM.sym ABSOLUTE
    rom_PFAL_LC_ContextTx_LINKLESS_BC        0x10006377   Thumb Code     0  QCA6174_SCAQBAFM.sym ABSOLUTE
    rom_PFAL_LC_ContextRx_ASSOCIATION        0x100063b7   Thumb Code     0  QCA6174_SCAQBAFM.sym ABSOLUTE
    rom_PFAL_LC_ContextTx_ASSOCIATION        0x100063ff   Thumb Code     0  QCA6174_SCAQBAFM.sym ABSOLUTE
    rom_PFAL_LC_ContextFrame_SYNC_TRAIN_SCAN 0x1000644b   Thumb Code     0  QCA6174_SCAQBAFM.sym ABSOLUTE
    rom_PFAL_LC_ContextRx_SYNC_TRAIN_SCAN    0x1000646f   Thumb Code     0  QCA6174_SCAQBAFM.sym ABSOLUTE
    rom_PFAL_LC_ContextFrame_DATA_SCAN       0x10006559   Thumb Code     0  QCA6174_SCAQBAFM.sym ABSOLUTE
    rom_PFAL_LC_ContextRx_DATA_SCAN          0x100065dd   Thumb Code     0  QCA6174_SCAQBAFM.sym ABSOLUTE
    rom_PFAL_LC_ContextRx_MEASURE_RSSI       0x1000661f   Thumb Code     0  QCA6174_SCAQBAFM.sym ABSOLUTE
    rom_PFAL_LC_ContextRx_CHAN_ASSESSMENT    0x1000669f   Thumb Code     0  QCA6174_SCAQBAFM.sym ABSOLUTE
    rom_PFAL_LC_ContextRx_PROC_CHAN_ASSESSMENT 0x100066c3   Thumb Code     0  QCA6174_SCAQBAFM.sym ABSOLUTE
    rom_PFAL_LC_testSetRxSlotOptions         0x100066ef   Thumb Code     0  QCA6174_SCAQBAFM.sym ABSOLUTE
    rom_PFAL_LC_testSetTxSlotOptions         0x1000672d   Thumb Code     0  QCA6174_SCAQBAFM.sym ABSOLUTE
    rom_PFAL_LC_setScrambleFECOptions        0x1000676b   Thumb Code     0  QCA6174_SCAQBAFM.sym ABSOLUTE
    rom_PFAL_LC_setHoppingOptions            0x10006785   Thumb Code     0  QCA6174_SCAQBAFM.sym ABSOLUTE
    rom_PFAL_LC_RxRssiDbmGet                 0x1000679b   Thumb Code     0  QCA6174_SCAQBAFM.sym ABSOLUTE
    rom_PFAL_LC_ResizeBBPackets              0x100067af   Thumb Code     0  QCA6174_SCAQBAFM.sym ABSOLUTE
    rom_PFAL_LC_InitRxBuffers                0x100067cd   Thumb Code     0  QCA6174_SCAQBAFM.sym ABSOLUTE
    rom_PFAL_LC_PeekRxLmpPayload             0x100068ed   Thumb Code     0  QCA6174_SCAQBAFM.sym ABSOLUTE
    rom_PFAL_LC_PeekNextRxAclPayload         0x1000690b   Thumb Code     0  QCA6174_SCAQBAFM.sym ABSOLUTE
    rom_PFAL_LC_GetRxLmpFMB                  0x10006937   Thumb Code     0  QCA6174_SCAQBAFM.sym ABSOLUTE
    rom_PFAL_LC_GetNextRxAclFMB              0x10006a55   Thumb Code     0  QCA6174_SCAQBAFM.sym ABSOLUTE
    rom_PFAL_LC_procConfigDUT_TESTER_xSCO_Rx 0x10006a9b   Thumb Code     0  QCA6174_SCAQBAFM.sym ABSOLUTE
    rom_PFAL_LC_procAclTxLoopBack            0x10006b37   Thumb Code     0  QCA6174_SCAQBAFM.sym ABSOLUTE
    rom_PFAL_LC_procRxL2cap                  0x10006b89   Thumb Code     0  QCA6174_SCAQBAFM.sym ABSOLUTE
    rom_PFAL_LC_procRx_EPTM                  0x10006ca5   Thumb Code     0  QCA6174_SCAQBAFM.sym ABSOLUTE
    rom_PFAL_LC_EPTM_procRxQueue_4_BitErrors 0x10006def   Thumb Code     0  QCA6174_SCAQBAFM.sym ABSOLUTE
    rom_PFAL_LC_ContextTx_ContinuousPayloadSetup 0x10007071   Thumb Code     0  QCA6174_SCAQBAFM.sym ABSOLUTE
    rom_PFAL_LC_ContextTx_BurstPacketSetup   0x1000709b   Thumb Code     0  QCA6174_SCAQBAFM.sym ABSOLUTE
    rom_PFAL_LC_ContextTx_Continuous         0x10007149   Thumb Code     0  QCA6174_SCAQBAFM.sym ABSOLUTE
    rom_PFAL_LC_ContextTx_Burst              0x100071df   Thumb Code     0  QCA6174_SCAQBAFM.sym ABSOLUTE
    rom_PFAL_LC_LE_ContextTx_Continuous      0x100072a7   Thumb Code     0  QCA6174_SCAQBAFM.sym ABSOLUTE
    rom_PFAL_LC_SetLoopbackMode              0x100073ad   Thumb Code     0  QCA6174_SCAQBAFM.sym ABSOLUTE
    rom_PFAL_LC_GetLoopbackMode              0x100073b3   Thumb Code     0  QCA6174_SCAQBAFM.sym ABSOLUTE
    rom_PFAL_LC_ExtendedInquiryCheck         0x100073b9   Thumb Code     0  QCA6174_SCAQBAFM.sym ABSOLUTE
    rom_PFAL_LC_procRxExtInqData             0x100073d9   Thumb Code     0  QCA6174_SCAQBAFM.sym ABSOLUTE
    rom_PFAL_LC_SetExtInqFirstHalfSlotRx     0x10007479   Thumb Code     0  QCA6174_SCAQBAFM.sym ABSOLUTE
    rom_PFAL_LC_GetExtInqFirstHalfSlotRx     0x1000747f   Thumb Code     0  QCA6174_SCAQBAFM.sym ABSOLUTE
    rom_PFAL_LC_SetExtAccessFunctions        0x10007485   Thumb Code     0  QCA6174_SCAQBAFM.sym ABSOLUTE
    PFAL_LC_LE_writeCRCInit                  0x1000749b   Thumb Code     0  QCA6174_SCAQBAFM.sym ABSOLUTE
    rom_PFAL_LC_ContextFrame_LE_SCAN         0x100074af   Thumb Code     0  QCA6174_SCAQBAFM.sym ABSOLUTE
    rom_PFAL_LC_ContextRx_LE_SCAN            0x100074c5   Thumb Code     0  QCA6174_SCAQBAFM.sym ABSOLUTE
    rom_PFAL_LC_ContextRx_LE_TEST_RX_SCAN    0x1000750f   Thumb Code     0  QCA6174_SCAQBAFM.sym ABSOLUTE
    rom_PFAL_LC_ContextRx_LE_SCAN_SCAN_REQ   0x1000754b   Thumb Code     0  QCA6174_SCAQBAFM.sym ABSOLUTE
    rom_PFAL_LC_ContextRx_LE_ADVERTISE       0x10007585   Thumb Code     0  QCA6174_SCAQBAFM.sym ABSOLUTE
    rom_PFAL_LC_ContextRx_LE_CONN_SLAVE_SYNC 0x100075bf   Thumb Code     0  QCA6174_SCAQBAFM.sym ABSOLUTE
    rom_PFAL_LC_ContextRx_LE_CONN_SLAVE      0x100075ff   Thumb Code     0  QCA6174_SCAQBAFM.sym ABSOLUTE
    rom_PFAL_LC_ContextRx_LE_CONN_MASTER     0x10007639   Thumb Code     0  QCA6174_SCAQBAFM.sym ABSOLUTE
    rom_PFAL_LC_ContextFrame_LE_ADVERTISE    0x10007673   Thumb Code     0  QCA6174_SCAQBAFM.sym ABSOLUTE
    rom_PFAL_LC_ContextFrame_LE_CONN         0x1000768f   Thumb Code     0  QCA6174_SCAQBAFM.sym ABSOLUTE
    rom_PFAL_LC_ContextFrame_LE_TEST         0x100076c9   Thumb Code     0  QCA6174_SCAQBAFM.sym ABSOLUTE
    rom_PFAL_LC_ContextTx_LE_TEST_TX         0x1000770d   Thumb Code     0  QCA6174_SCAQBAFM.sym ABSOLUTE
    rom_PFAL_LC_ContextTx_LE_ADVERTISE       0x10007747   Thumb Code     0  QCA6174_SCAQBAFM.sym ABSOLUTE
    rom_PFAL_LC_ContextTx_LE_CONN            0x10007819   Thumb Code     0  QCA6174_SCAQBAFM.sym ABSOLUTE
    rom_PFAL_LC_ContextTx_LE_SCAN_ACTIVE     0x10007849   Thumb Code     0  QCA6174_SCAQBAFM.sym ABSOLUTE
    rom_PFAL_LC_LE_putAdvPacket              0x10007871   Thumb Code     0  QCA6174_SCAQBAFM.sym ABSOLUTE
    rom_PFAL_LC_LE_putScanReqPacket          0x10007977   Thumb Code     0  QCA6174_SCAQBAFM.sym ABSOLUTE
    rom_PFAL_LC_LE_putScanRspPacket          0x10007a07   Thumb Code     0  QCA6174_SCAQBAFM.sym ABSOLUTE
    rom_PFAL_LC_LE_putConnectReqPacket       0x10007aa7   Thumb Code     0  QCA6174_SCAQBAFM.sym ABSOLUTE
    rom_PFAL_LC_LE_putConnParmsInConnectReqPacket 0x10007b0f   Thumb Code     0  QCA6174_SCAQBAFM.sym ABSOLUTE
    rom_PFAL_LC_LE_writeAdvChanPDU_Hdr       0x10007b61   Thumb Code     0  QCA6174_SCAQBAFM.sym ABSOLUTE
    rom_PFAL_LC_LE_writeDataChanPDU_Hdr      0x10007b77   Thumb Code     0  QCA6174_SCAQBAFM.sym ABSOLUTE
    rom_PFAL_LC_LE_writeTestTxPacket         0x10007b93   Thumb Code     0  QCA6174_SCAQBAFM.sym ABSOLUTE
    rom_PFAL_LC_LE_writeTestModePDU_Hdr      0x10007ca9   Thumb Code     0  QCA6174_SCAQBAFM.sym ABSOLUTE
    rom_PFAL_LC_LE_procRxAdvChanHeader       0x10007cb3   Thumb Code     0  QCA6174_SCAQBAFM.sym ABSOLUTE
    rom_PFAL_LC_LE_getAdvPayloadPtr          0x10007cc1   Thumb Code     0  QCA6174_SCAQBAFM.sym ABSOLUTE
    rom_PFAL_LC_LE_procRxAdvPayload          0x10007ccf   Thumb Code     0  QCA6174_SCAQBAFM.sym ABSOLUTE
    rom_PFAL_LC_LE_procRxAdvConnectReqAdd    0x10007cef   Thumb Code     0  QCA6174_SCAQBAFM.sym ABSOLUTE
    rom_PFAL_LC_LE_GetRxUlpFMB               0x10007d09   Thumb Code     0  QCA6174_SCAQBAFM.sym ABSOLUTE
    rom_PFAL_LC_LE_setAdvertisingChannel     0x10007d3d   Thumb Code     0  QCA6174_SCAQBAFM.sym ABSOLUTE
    rom_PFAL_LC_LE_procRxDataChan_PDUheader  0x10007d55   Thumb Code     0  QCA6174_SCAQBAFM.sym ABSOLUTE
    rom_PFAL_LC_LE_getDataChan               0x10007d8b   Thumb Code     0  QCA6174_SCAQBAFM.sym ABSOLUTE
    rom_PFAL_LC_LE_setDataChannel            0x10007da9   Thumb Code     0  QCA6174_SCAQBAFM.sym ABSOLUTE
    rom_PFAL_LC_LE_computeClockOffset        0x10007dc5   Thumb Code     0  QCA6174_SCAQBAFM.sym ABSOLUTE
    rom_PFAL_LC_LE_EnableRxHwTestMode        0x10007de9   Thumb Code     0  QCA6174_SCAQBAFM.sym ABSOLUTE
    rom_PFAL_LC_LE_DisableRxHwTestMode       0x10007e77   Thumb Code     0  QCA6174_SCAQBAFM.sym ABSOLUTE
    rom_PFAL_LC_ANT_writeTestTxPacket        0x10007ea7   Thumb Code     0  QCA6174_SCAQBAFM.sym ABSOLUTE
    rom_PFAL_LC_ANT_exitANTMode              0x10007edd   Thumb Code     0  QCA6174_SCAQBAFM.sym ABSOLUTE
    rom_PFAL_LC_ContextFrame_ANT             0x10007eff   Thumb Code     0  QCA6174_SCAQBAFM.sym ABSOLUTE
    rom_PFAL_LC_ContextTx_ANT_TX             0x10007f21   Thumb Code     0  QCA6174_SCAQBAFM.sym ABSOLUTE
    rom_PFAL_LC_ContextRx_ANT_RX_SCAN        0x10007f5d   Thumb Code     0  QCA6174_SCAQBAFM.sym ABSOLUTE
    rom_PFAL_LC_SET_ENCR_CNTRL_CRYPTO_W_MIC_ENABLE 0x10007faf   Thumb Code     0  QCA6174_SCAQBAFM.sym ABSOLUTE
    sha256_hash_free_ctx                     0x10008079   Thumb Code     0  QCA6174_SCAQBAFM.sym ABSOLUTE
    sha256_hash_final                        0x1000807d   Thumb Code     0  QCA6174_SCAQBAFM.sym ABSOLUTE
    sha256_hash_update                       0x1000808d   Thumb Code     0  QCA6174_SCAQBAFM.sym ABSOLUTE
    sha256_hash_init                         0x10008097   Thumb Code     0  QCA6174_SCAQBAFM.sym ABSOLUTE
    sha256_hash                              0x100080ad   Thumb Code     0  QCA6174_SCAQBAFM.sym ABSOLUTE
    sha256_prng_getdata                      0x100080e5   Thumb Code     0  QCA6174_SCAQBAFM.sym ABSOLUTE
    OS_CPU_SR_Save                           0x100080ed   Thumb Code     0  QCA6174_SCAQBAFM.sym ABSOLUTE
    OS_CPU_SR_Restore                        0x100080f5   Thumb Code     0  QCA6174_SCAQBAFM.sym ABSOLUTE
    OS_CPU_WFI                               0x100080fb   Thumb Code     0  QCA6174_SCAQBAFM.sym ABSOLUTE
    OSStartHighRdy                           0x100080ff   Thumb Code     0  QCA6174_SCAQBAFM.sym ABSOLUTE
    OSCtxSw                                  0x1000811f   Thumb Code     0  QCA6174_SCAQBAFM.sym ABSOLUTE
    OSIntCtxSw                               0x10008127   Thumb Code     0  QCA6174_SCAQBAFM.sym ABSOLUTE
    OS_CPU_PendSVHandler                     0x1000812f   Thumb Code     0  QCA6174_SCAQBAFM.sym ABSOLUTE
    rom_OSTaskIdleHook                       0x100081a5   Thumb Code     0  QCA6174_SCAQBAFM.sym ABSOLUTE
    OSTaskReturnHook                         0x100081b5   Thumb Code     0  QCA6174_SCAQBAFM.sym ABSOLUTE
    OSTaskStkInit                            0x100081b7   Thumb Code     0  QCA6174_SCAQBAFM.sym ABSOLUTE
    OS_CPU_SysTickHandler                    0x1000821b   Thumb Code     0  QCA6174_SCAQBAFM.sym ABSOLUTE
    OS_CPU_SysTickClkFreq                    0x10008223   Thumb Code     0  QCA6174_SCAQBAFM.sym ABSOLUTE
    OS_CPU_SysTickInit                       0x10008227   Thumb Code     0  QCA6174_SCAQBAFM.sym ABSOLUTE
    rom_PFAL_STMR_Handler                    0x10008279   Thumb Code     0  QCA6174_SCAQBAFM.sym ABSOLUTE
    rom_PFAL_STMR_Open                       0x100082bd   Thumb Code     0  QCA6174_SCAQBAFM.sym ABSOLUTE
    rom_PFAL_STMR_ConvertToTicks             0x100082df   Thumb Code     0  QCA6174_SCAQBAFM.sym ABSOLUTE
    rom_PFAL_STMR_Start                      0x100082fb   Thumb Code     0  QCA6174_SCAQBAFM.sym ABSOLUTE
    rom_PFAL_STMR_GetElapsedTicks            0x10008329   Thumb Code     0  QCA6174_SCAQBAFM.sym ABSOLUTE
    Reset_Handler                            0x10008369   Thumb Code     0  QCA6174_SCAQBAFM.sym ABSOLUTE
    PFAL_DBG_SaveARMRegs                     0x10008421   Thumb Code     0  QCA6174_SCAQBAFM.sym ABSOLUTE
    NMI_Handler                              0x10008447   Thumb Code     0  QCA6174_SCAQBAFM.sym ABSOLUTE
    MemManage_Handler                        0x1000844b   Thumb Code     0  QCA6174_SCAQBAFM.sym ABSOLUTE
    UsageFault_Handler                       0x1000844f   Thumb Code     0  QCA6174_SCAQBAFM.sym ABSOLUTE
    SVC_Handler                              0x10008451   Thumb Code     0  QCA6174_SCAQBAFM.sym ABSOLUTE
    DebugMon_Handler                         0x10008453   Thumb Code     0  QCA6174_SCAQBAFM.sym ABSOLUTE
    PendSV_Handler                           0x10008455   Thumb Code     0  QCA6174_SCAQBAFM.sym ABSOLUTE
    SysTick_Handler                          0x10008457   Thumb Code     0  QCA6174_SCAQBAFM.sym ABSOLUTE
    DUMMY_IRQHandler                         0x10008459   Thumb Code     0  QCA6174_SCAQBAFM.sym ABSOLUTE
    PFAL_SYS_TOP_Init                        0x100084c9   Thumb Code     0  QCA6174_SCAQBAFM.sym ABSOLUTE
    PFAL_SYS_TOP_IsOTPProgrammed             0x100084ed   Thumb Code     0  QCA6174_SCAQBAFM.sym ABSOLUTE
    rom_PFAL_SYS_TOP_IsWiPowerFastbootEnabled 0x10008505   Thumb Code     0  QCA6174_SCAQBAFM.sym ABSOLUTE
    rom_PFAL_SYS_TOP_IsBootModeWiPower       0x10008523   Thumb Code     0  QCA6174_SCAQBAFM.sym ABSOLUTE
    rom_PFAL_SYS_TOP_IsCoexMCIEnable         0x10008543   Thumb Code     0  QCA6174_SCAQBAFM.sym ABSOLUTE
    PFAL_SYS_TOP_IsPatchEnabled              0x10008565   Thumb Code     0  QCA6174_SCAQBAFM.sym ABSOLUTE
    PFAL_SYS_TOP_LoadPatch                   0x10008587   Thumb Code     0  QCA6174_SCAQBAFM.sym ABSOLUTE
    PFAL_SYS_TOP_IsDebugMode                 0x10008699   Thumb Code     0  QCA6174_SCAQBAFM.sym ABSOLUTE
    PFAL_SYS_TOP_IsTestMode                  0x100086bd   Thumb Code     0  QCA6174_SCAQBAFM.sym ABSOLUTE
    PFAL_SYS_TOP_IsBTMode                    0x100086e1   Thumb Code     0  QCA6174_SCAQBAFM.sym ABSOLUTE
    PFAL_SYS_TOP_SetBTMode                   0x1000871d   Thumb Code     0  QCA6174_SCAQBAFM.sym ABSOLUTE
    PFAL_SYS_TOP_SetBTInterface              0x10008755   Thumb Code     0  QCA6174_SCAQBAFM.sym ABSOLUTE
    PFAL_SYS_TOP_HCI_UART                    0x1000875b   Thumb Code     0  QCA6174_SCAQBAFM.sym ABSOLUTE
    rom_PFAL_SYS_TOP_WLAN_SDIO               0x10008791   Thumb Code     0  QCA6174_SCAQBAFM.sym ABSOLUTE
    PFAL_SYS_TOP_CONFIG_AUTOBAUD             0x100087ab   Thumb Code     0  QCA6174_SCAQBAFM.sym ABSOLUTE
    PFAL_SYS_TOP_GetRefType                  0x100087c3   Thumb Code     0  QCA6174_SCAQBAFM.sym ABSOLUTE
    rom_PFAL_SYS_TOP_IsEmulation             0x100087e7   Thumb Code     0  QCA6174_SCAQBAFM.sym ABSOLUTE
    PFAL_UART_RxD_ForceEDL                   0x100087ff   Thumb Code     0  QCA6174_SCAQBAFM.sym ABSOLUTE
    rom_PFAL_SYS_TOP_IsRMPhyMode             0x10008803   Thumb Code     0  QCA6174_SCAQBAFM.sym ABSOLUTE
    rom_PFAL_SYS_TOP_GetUSBDebugMask         0x1000881b   Thumb Code     0  QCA6174_SCAQBAFM.sym ABSOLUTE
    rom_PFAL_SYS_TOP_LoadDSet                0x100088a5   Thumb Code     0  QCA6174_SCAQBAFM.sym ABSOLUTE
    rom_PFAL_SYS_TOP_StoreToOTP              0x10008987   Thumb Code     0  QCA6174_SCAQBAFM.sym ABSOLUTE
    rom_PFAL_SYS_TOP_StoreToNVM              0x100089df   Thumb Code     0  QCA6174_SCAQBAFM.sym ABSOLUTE
    PFAL_SYS_TOP_RecoverFromES               0x10008a69   Thumb Code     0  QCA6174_SCAQBAFM.sym ABSOLUTE
    rom_PFAL_SYS_TOP_IsTuffeloSoC            0x10008af1   Thumb Code     0  QCA6174_SCAQBAFM.sym ABSOLUTE
    rom_PFAL_UART_Rx_Handler                 0x10008c79   Thumb Code     0  QCA6174_SCAQBAFM.sym ABSOLUTE
    rom_PFAL_UART_Tx_Handler                 0x10008cb7   Thumb Code     0  QCA6174_SCAQBAFM.sym ABSOLUTE
    rom_PFAL_UART_Er_Handler                 0x10008cf5   Thumb Code     0  QCA6174_SCAQBAFM.sym ABSOLUTE
    rom_PFAL_IM_TIMER_2_INT_Handler          0x10008d33   Thumb Code     0  QCA6174_SCAQBAFM.sym ABSOLUTE
    PFAL_UART_Init                           0x10008d71   Thumb Code     0  QCA6174_SCAQBAFM.sym ABSOLUTE
    PFAL_UART_Reset                          0x10008e77   Thumb Code     0  QCA6174_SCAQBAFM.sym ABSOLUTE
    PFAL_UART_Write                          0x10008f1f   Thumb Code     0  QCA6174_SCAQBAFM.sym ABSOLUTE
    PFAL_UART_SleepPreProcess                0x10008fe5   Thumb Code     0  QCA6174_SCAQBAFM.sym ABSOLUTE
    PFAL_UART_DeepSleepEnter                 0x100090f9   Thumb Code     0  QCA6174_SCAQBAFM.sym ABSOLUTE
    PFAL_UART_DeepSleepExit                  0x10009191   Thumb Code     0  QCA6174_SCAQBAFM.sym ABSOLUTE
    rom_PFAL_UART_SetCTS_Mode                0x10009225   Thumb Code     0  QCA6174_SCAQBAFM.sym ABSOLUTE
    PFAL_VOICE_UART_Start                    0x10009241   Thumb Code     0  QCA6174_SCAQBAFM.sym ABSOLUTE
    PFAL_VOICE_UART_Stop                     0x10009269   Thumb Code     0  QCA6174_SCAQBAFM.sym ABSOLUTE
    PFAL_VOICE_UART_Is_Ready                 0x10009273   Thumb Code     0  QCA6174_SCAQBAFM.sym ABSOLUTE
    PFAL_VOICE_UART_Is_Busy_in_Sending       0x10009277   Thumb Code     0  QCA6174_SCAQBAFM.sym ABSOLUTE
    PFAL_VOICE_UART_Get_Transport_Hdr_Size   0x1000927b   Thumb Code     0  QCA6174_SCAQBAFM.sym ABSOLUTE
    PFAL_VOICE_UART_Get_SCO_Payload_Size     0x1000927f   Thumb Code     0  QCA6174_SCAQBAFM.sym ABSOLUTE
    PFAL_VOICE_UART_Start_To_Send_SCO_Pkt    0x10009283   Thumb Code     0  QCA6174_SCAQBAFM.sym ABSOLUTE
    rom_PFAL_VOICE_UART_Fill_Rx_SCO_Buff     0x1000929f   Thumb Code     0  QCA6174_SCAQBAFM.sym ABSOLUTE
    rom_PFAL_UART_Rx_ISR                     0x10009309   Thumb Code     0  QCA6174_SCAQBAFM.sym ABSOLUTE
    rom_PFAL_UART_Tx_ISR                     0x10009489   Thumb Code     0  QCA6174_SCAQBAFM.sym ABSOLUTE
    rom_PFAL_UART_Error_ISR                  0x100095a9   Thumb Code     0  QCA6174_SCAQBAFM.sym ABSOLUTE
    rom_PFAL_UART_HandlePacketFromHost       0x10009713   Thumb Code     0  QCA6174_SCAQBAFM.sym ABSOLUTE
    PFAL_UART_LogData                        0x100097a5   Thumb Code     0  QCA6174_SCAQBAFM.sym ABSOLUTE
    rom_PFAL_UART_Activate                   0x100097f5   Thumb Code     0  QCA6174_SCAQBAFM.sym ABSOLUTE
    rom_PFAL_UART_Deactivate                 0x100097ff   Thumb Code     0  QCA6174_SCAQBAFM.sym ABSOLUTE
    rom_PFAL_UART_EXT_WAKE_ISR               0x10009819   Thumb Code     0  QCA6174_SCAQBAFM.sym ABSOLUTE
    rom_PFAL_UART_fillRxLL                   0x10009873   Thumb Code     0  QCA6174_SCAQBAFM.sym ABSOLUTE
    rom_PFAL_UART_fillTxLL                   0x10009b03   Thumb Code     0  QCA6174_SCAQBAFM.sym ABSOLUTE
    rom_PFAL_UART_InitRxActiveState          0x10009c6d   Thumb Code     0  QCA6174_SCAQBAFM.sym ABSOLUTE
    rom_PFAL_UART_GetBaudRateFromNVM         0x10009d6b   Thumb Code     0  QCA6174_SCAQBAFM.sym ABSOLUTE
    rom_PFAL_UART_Setup                      0x10009dad   Thumb Code     0  QCA6174_SCAQBAFM.sym ABSOLUTE
    rom_PFAL_UART_ResetBaud                  0x10009e65   Thumb Code     0  QCA6174_SCAQBAFM.sym ABSOLUTE
    rom_PFAL_UART_HW_wait4Tx                 0x10009ea3   Thumb Code     0  QCA6174_SCAQBAFM.sym ABSOLUTE
    rom_PFAL_UART_IOMUX                      0x10009ead   Thumb Code     0  QCA6174_SCAQBAFM.sym ABSOLUTE
    rom_PFAL_UART_extChg2newClk_BAUD         0x10009eb3   Thumb Code     0  QCA6174_SCAQBAFM.sym ABSOLUTE
    rom_PFAL_UART_SIBS_SendSignalingByte     0x10009ef7   Thumb Code     0  QCA6174_SCAQBAFM.sym ABSOLUTE
    rom_PFAL_UART_SIBS_VoteRxWake            0x10009f29   Thumb Code     0  QCA6174_SCAQBAFM.sym ABSOLUTE
    rom_PFAL_UART_SIBS_TxIdle                0x10009f3f   Thumb Code     0  QCA6174_SCAQBAFM.sym ABSOLUTE
    rom_PFAL_UART_SIBS_TxWakeAckRcvd         0x10009f6d   Thumb Code     0  QCA6174_SCAQBAFM.sym ABSOLUTE
    rom_PFAL_UART_SIBS_TxTimeout             0x10009fa3   Thumb Code     0  QCA6174_SCAQBAFM.sym ABSOLUTE
    rom_PFAL_UART_SIBS_TxRequest             0x10009fd1   Thumb Code     0  QCA6174_SCAQBAFM.sym ABSOLUTE
    rom_PFAL_UART_SIBS_RxWake                0x10009ffb   Thumb Code     0  QCA6174_SCAQBAFM.sym ABSOLUTE
    rom_PFAL_UART_SIBS_RxWakeInt             0x1000a025   Thumb Code     0  QCA6174_SCAQBAFM.sym ABSOLUTE
    rom_PFAL_UART_SIBS_RxTimeout             0x1000a045   Thumb Code     0  QCA6174_SCAQBAFM.sym ABSOLUTE
    rom_PFAL_UART_SIBS_RxSleep               0x1000a05f   Thumb Code     0  QCA6174_SCAQBAFM.sym ABSOLUTE
    rom_PFAL_UART_SIBS_ExtWakeISR            0x1000a07f   Thumb Code     0  QCA6174_SCAQBAFM.sym ABSOLUTE
    rom_PFAL_UART_SIBS_TimeoutIsr            0x1000a0b5   Thumb Code     0  QCA6174_SCAQBAFM.sym ABSOLUTE
    rom_PFAL_UART_SIBS_StartTimer            0x1000a11f   Thumb Code     0  QCA6174_SCAQBAFM.sym ABSOLUTE
    rom_PFAL_UART_SIBS_StopTimer             0x1000a1a1   Thumb Code     0  QCA6174_SCAQBAFM.sym ABSOLUTE
    PFAL_UART_WriteEventImmediate            0x1000a1c1   Thumb Code     0  QCA6174_SCAQBAFM.sym ABSOLUTE
    rom_CFG_SYS_Init                         0x1000a2d1   Thumb Code     0  QCA6174_SCAQBAFM.sym ABSOLUTE
    rom_CFG_SYS_GetConfigParameterInfo       0x1000a2e1   Thumb Code     0  QCA6174_SCAQBAFM.sym ABSOLUTE
    rom_CFG_SYS_GetTagEntry                  0x1000a50b   Thumb Code     0  QCA6174_SCAQBAFM.sym ABSOLUTE
    rom_WIP_VTXP_HandOffToHost               0x1000a591   Thumb Code     0  QCA6174_SCAQBAFM.sym ABSOLUTE
    rom_WIP_VTXP_HandOffToVirtualTxp         0x1000a599   Thumb Code     0  QCA6174_SCAQBAFM.sym ABSOLUTE
    rom_WIP_VTXP_Write                       0x1000a5a1   Thumb Code     0  QCA6174_SCAQBAFM.sym ABSOLUTE
    rom_WIP_VTXP_SendReset                   0x1000a5af   Thumb Code     0  QCA6174_SCAQBAFM.sym ABSOLUTE
    rom_WIP_VTXP_SendCommand                 0x1000a5c3   Thumb Code     0  QCA6174_SCAQBAFM.sym ABSOLUTE
    rom_WIP_VTXP_SendAclDataFromBleStack     0x1000a605   Thumb Code     0  QCA6174_SCAQBAFM.sym ABSOLUTE
    rom_WIP_VTXP_SendEventToBleStack         0x1000a64d   Thumb Code     0  QCA6174_SCAQBAFM.sym ABSOLUTE
    rom_WIP_VTXP_SendAclDataToBleStack       0x1000a653   Thumb Code     0  QCA6174_SCAQBAFM.sym ABSOLUTE
    rom_WIP_VTXP_A4WP_SetCurrentLimit        0x1000a659   Thumb Code     0  QCA6174_SCAQBAFM.sym ABSOLUTE
    rom_WIP_VTXP_A4WP_SetChargeOutput        0x1000a679   Thumb Code     0  QCA6174_SCAQBAFM.sym ABSOLUTE
    rom_WIP_VTXP_A4WP_EnableAlertNotify      0x1000a699   Thumb Code     0  QCA6174_SCAQBAFM.sym ABSOLUTE
    rom_WIP_VTXP_A4WP_EnableDataNotify       0x1000a6b9   Thumb Code     0  QCA6174_SCAQBAFM.sym ABSOLUTE
    rom_WIP_VTXP_A4WP_EnablePowerApplyNotify 0x1000a6d9   Thumb Code     0  QCA6174_SCAQBAFM.sym ABSOLUTE
    rom_WIP_VTXP_A4WP_GetCurrentLimit        0x1000a707   Thumb Code     0  QCA6174_SCAQBAFM.sym ABSOLUTE
    rom_WIP_VTXP_A4WP_GetChargeOutput        0x1000a71f   Thumb Code     0  QCA6174_SCAQBAFM.sym ABSOLUTE
    rom_PackA4wpCommandHeader                0x1000a737   Thumb Code     0  QCA6174_SCAQBAFM.sym ABSOLUTE
    rom_WIP_VTXP_HandlePacketIn              0x1000a74f   Thumb Code     0  QCA6174_SCAQBAFM.sym ABSOLUTE
    rom_WIP_VTXP_GetTxpMsgAtomic             0x1000a7df   Thumb Code     0  QCA6174_SCAQBAFM.sym ABSOLUTE
    rom_WIP_DBG_LogDbgData                   0x1000a85d   Thumb Code     0  QCA6174_SCAQBAFM.sym ABSOLUTE
    rom_WIP_DBG_SendDbgEvent                 0x1000a917   Thumb Code     0  QCA6174_SCAQBAFM.sym ABSOLUTE
    rom_WIP_DBG_DeInitMem                    0x1000a987   Thumb Code     0  QCA6174_SCAQBAFM.sym ABSOLUTE
    rom_WIP_DBG_SendEventViaDbgChannel       0x1000a9a3   Thumb Code     0  QCA6174_SCAQBAFM.sym ABSOLUTE
    rom_WIP_DBG_SendCommandCompleteEventViaDbgChannel 0x1000aa13   Thumb Code     0  QCA6174_SCAQBAFM.sym ABSOLUTE
    rom_WIP_DBG_GetNextLogEvent              0x1000aa6b   Thumb Code     0  QCA6174_SCAQBAFM.sym ABSOLUTE
    WIP_DBG_print                            0x1000aa7d   Thumb Code     0  QCA6174_SCAQBAFM.sym ABSOLUTE
    rom_PFAL_COEX_MCI_Get_Starttime          0x1000aaf9   Thumb Code     0  QCA6174_SCAQBAFM.sym ABSOLUTE
    rom_PFAL_COEX_MCI_Update_Check           0x1000ab29   Thumb Code     0  QCA6174_SCAQBAFM.sym ABSOLUTE
    rom_PFAL_COEX_MCI_Notify                 0x1000abc1   Thumb Code     0  QCA6174_SCAQBAFM.sym ABSOLUTE
    rom_PFAL_COEX_MCI_Clean_Para             0x1000abc5   Thumb Code     0  QCA6174_SCAQBAFM.sym ABSOLUTE
    rom_PFAL_COEX_MCI_PRIO_SET               0x1000abf3   Thumb Code     0  QCA6174_SCAQBAFM.sym ABSOLUTE
    rom_PFAL_COEX_MCI_CONTMSG_SET            0x1000ac7f   Thumb Code     0  QCA6174_SCAQBAFM.sym ABSOLUTE
    rom_PFAL_COEX_MCI_Next_Job               0x1000acd1   Thumb Code     0  QCA6174_SCAQBAFM.sym ABSOLUTE
    rom_PFAL_COEX_MCI_Next_JobCat_Proc       0x1000ad0d   Thumb Code     0  QCA6174_SCAQBAFM.sym ABSOLUTE
    rom_MCI_Schd_Master_Predict              0x1000adbd   Thumb Code     0  QCA6174_SCAQBAFM.sym ABSOLUTE
    rom_MCI_Schd_Slave_Predict               0x1000ae3f   Thumb Code     0  QCA6174_SCAQBAFM.sym ABSOLUTE
    rom_MCI_Schd_Update                      0x1000ae99   Thumb Code     0  QCA6174_SCAQBAFM.sym ABSOLUTE
    rom_MCI_Schd_Alloc_Free_Item             0x1000aee3   Thumb Code     0  QCA6174_SCAQBAFM.sym ABSOLUTE
    rom_MCI_Schd_Force_Alloc_Tail_Item       0x1000af61   Thumb Code     0  QCA6174_SCAQBAFM.sym ABSOLUTE
    rom_MCI_Schd_Delete_Expire               0x1000af8b   Thumb Code     0  QCA6174_SCAQBAFM.sym ABSOLUTE
    rom_MCI_Schd_Check_Pos                   0x1000b0cb   Thumb Code     0  QCA6174_SCAQBAFM.sym ABSOLUTE
    rom_MCI_Schd_Update_Msg                  0x1000b197   Thumb Code     0  QCA6174_SCAQBAFM.sym ABSOLUTE
    rom_MCI_Schd_Insert_Msg                  0x1000b1c1   Thumb Code     0  QCA6174_SCAQBAFM.sym ABSOLUTE
    rom_MCI_Schd_Get_Resend_Max              0x1000b233   Thumb Code     0  QCA6174_SCAQBAFM.sym ABSOLUTE
    rom_MCI_Schd_Resend_Check_Set            0x1000b237   Thumb Code     0  QCA6174_SCAQBAFM.sym ABSOLUTE
    rom_MCI_Schd_Resend_Msg                  0x1000b239   Thumb Code     0  QCA6174_SCAQBAFM.sym ABSOLUTE
    rom_MCI_Schd_Do_Resend                   0x1000b24f   Thumb Code     0  QCA6174_SCAQBAFM.sym ABSOLUTE
    rom_MCI_Schd_CheckTag                    0x1000b2a7   Thumb Code     0  QCA6174_SCAQBAFM.sym ABSOLUTE
    rom_MCI_Schd_Gen_Entry                   0x1000b2e1   Thumb Code     0  QCA6174_SCAQBAFM.sym ABSOLUTE
    rom_MCI_Schd_Send_Msg                    0x1000b331   Thumb Code     0  QCA6174_SCAQBAFM.sym ABSOLUTE
    rom_MCI_Schd_Flush_Msg                   0x1000b427   Thumb Code     0  QCA6174_SCAQBAFM.sym ABSOLUTE
    rom_MCI_Schd_Insert_Msg_Old              0x1000b5f3   Thumb Code     0  QCA6174_SCAQBAFM.sym ABSOLUTE
    rom_MCI_Schd_Page                        0x1000ba85   Thumb Code     0  QCA6174_SCAQBAFM.sym ABSOLUTE
    rom_MCI_Schd_Inq                         0x1000bb97   Thumb Code     0  QCA6174_SCAQBAFM.sym ABSOLUTE
    rom_MCI_Schd_CHANASSESS                  0x1000bbe5   Thumb Code     0  QCA6174_SCAQBAFM.sym ABSOLUTE
    rom_MCI_Schd_PSCAN_POLL                  0x1000bc83   Thumb Code     0  QCA6174_SCAQBAFM.sym ABSOLUTE
    rom_MCI_Schd_PSCAN_FHS                   0x1000bccf   Thumb Code     0  QCA6174_SCAQBAFM.sym ABSOLUTE
    rom_MCI_Schd_PSCAN                       0x1000bd1b   Thumb Code     0  QCA6174_SCAQBAFM.sym ABSOLUTE
    rom_MCI_Schd_ISCAN                       0x1000bd3b   Thumb Code     0  QCA6174_SCAQBAFM.sym ABSOLUTE
    rom_MCI_Submit_Sched_Msg                 0x1000bd5b   Thumb Code     0  QCA6174_SCAQBAFM.sym ABSOLUTE
    rom_PFAL_COEX_MCI_Schd_Next_Frame        0x1000bdcd   Thumb Code     0  QCA6174_SCAQBAFM.sym ABSOLUTE
    rom_MCI_Schd_xSCO_Send_Body              0x1000bdcf   Thumb Code     0  QCA6174_SCAQBAFM.sym ABSOLUTE
    rom_MCI_Schd_Send_Body                   0x1000bed5   Thumb Code     0  QCA6174_SCAQBAFM.sym ABSOLUTE
    rom_MCI_Schd_Sniff_Send_Body             0x1000bf95   Thumb Code     0  QCA6174_SCAQBAFM.sym ABSOLUTE
    rom_MCI_Schd_LE_ADV                      0x1000c02b   Thumb Code     0  QCA6174_SCAQBAFM.sym ABSOLUTE
    rom_MCI_Schd_LE_SCAN                     0x1000c099   Thumb Code     0  QCA6174_SCAQBAFM.sym ABSOLUTE
    rom_MCI_Schd_LE_INITIATOR                0x1000c0b9   Thumb Code     0  QCA6174_SCAQBAFM.sym ABSOLUTE
    rom_MCI_Schd_LE_DATA                     0x1000c0d9   Thumb Code     0  QCA6174_SCAQBAFM.sym ABSOLUTE
    rom_MCI_Msg_Queue_Free                   0x1000c187   Thumb Code     0  QCA6174_SCAQBAFM.sym ABSOLUTE
    rom_MCI_Empty_Tx_Queue                   0x1000c1b7   Thumb Code     0  QCA6174_SCAQBAFM.sym ABSOLUTE
    rom_MCI_Tx_Msg_Enqueue                   0x1000c1ff   Thumb Code     0  QCA6174_SCAQBAFM.sym ABSOLUTE
    rom_MCI_Enqueue_Msg                      0x1000c23b   Thumb Code     0  QCA6174_SCAQBAFM.sym ABSOLUTE
    rom_MCI_Send_Queued_Msg                  0x1000c2db   Thumb Code     0  QCA6174_SCAQBAFM.sym ABSOLUTE
    rom_MCI_Tx_Msg_Dequeue                   0x1000c30f   Thumb Code     0  QCA6174_SCAQBAFM.sym ABSOLUTE
    rom_MCI_Msg_Queue_Alloc                  0x1000c34f   Thumb Code     0  QCA6174_SCAQBAFM.sym ABSOLUTE
    rom_MCI_GPM_Queue_Overflow_Handle        0x1000c3a9   Thumb Code     0  QCA6174_SCAQBAFM.sym ABSOLUTE
    rom_PFAL_COEX_MCI_TxScanUpdate           0x1000c3b7   Thumb Code     0  QCA6174_SCAQBAFM.sym ABSOLUTE
    rom_PFAL_COEX_MCI_TxConnUpdate           0x1000c4c9   Thumb Code     0  QCA6174_SCAQBAFM.sym ABSOLUTE
    rom_PFAL_COEX_MCI_TxBTSystemReset        0x1000c595   Thumb Code     0  QCA6174_SCAQBAFM.sym ABSOLUTE
    rom_MCI_Parse_Gpm                        0x1000c5ed   Thumb Code     0  QCA6174_SCAQBAFM.sym ABSOLUTE
    rom_MCI_ProcessStatusReq                 0x1000c60d   Thumb Code     0  QCA6174_SCAQBAFM.sym ABSOLUTE
    rom_PFAL_COEX_MCI_ProfileRemove          0x1000c7c9   Thumb Code     0  QCA6174_SCAQBAFM.sym ABSOLUTE
    rom_PFAL_COEX_MCI_ProfileAdd             0x1000c839   Thumb Code     0  QCA6174_SCAQBAFM.sym ABSOLUTE
    rom_MCI_UpdateTopology                   0x1000c891   Thumb Code     0  QCA6174_SCAQBAFM.sym ABSOLUTE
    rom_MCI_ProcessVersionReq                0x1000cab1   Thumb Code     0  QCA6174_SCAQBAFM.sym ABSOLUTE
    rom_MCI_TxDebugGPM                       0x1000caf5   Thumb Code     0  QCA6174_SCAQBAFM.sym ABSOLUTE
    rom_MCI_TxVersionReq                     0x1000cb35   Thumb Code     0  QCA6174_SCAQBAFM.sym ABSOLUTE
    rom_MCI_TxStatusReq                      0x1000cb6b   Thumb Code     0  QCA6174_SCAQBAFM.sym ABSOLUTE
    rom_MCI_TxWlanBTPrio                     0x1000cbc1   Thumb Code     0  QCA6174_SCAQBAFM.sym ABSOLUTE
    rom_MCI_SendSchedTriggerResp             0x1000cc01   Thumb Code     0  QCA6174_SCAQBAFM.sym ABSOLUTE
    rom_MCI_TxSchedMsgTrigRsp                0x1000ccbb   Thumb Code     0  QCA6174_SCAQBAFM.sym ABSOLUTE
    rom_MCI_ReplyRXSSLowerThresholdToWLAN    0x1000cd0d   Thumb Code     0  QCA6174_SCAQBAFM.sym ABSOLUTE
    rom_PFAL_COEX_MCI_TxScanActivity         0x1000cd87   Thumb Code     0  QCA6174_SCAQBAFM.sym ABSOLUTE
    rom_PFAL_COEX_MCI_Update_Scan_Bit_Map    0x1000ce07   Thumb Code     0  QCA6174_SCAQBAFM.sym ABSOLUTE
    rom_MCI_Queue_Overflow_GPM               0x1000ce5b   Thumb Code     0  QCA6174_SCAQBAFM.sym ABSOLUTE
    rom_MCI_Scans_Upadate                    0x1000ce9f   Thumb Code     0  QCA6174_SCAQBAFM.sym ABSOLUTE
    rom_MCI_SetRXSSLowerThreshold            0x1000cf1f   Thumb Code     0  QCA6174_SCAQBAFM.sym ABSOLUTE
    rom_MCI_ProcessWLANChan                  0x1000cf39   Thumb Code     0  QCA6174_SCAQBAFM.sym ABSOLUTE
    rom_MCI_ProcessSchedInfoTrigger          0x1000cf41   Thumb Code     0  QCA6174_SCAQBAFM.sym ABSOLUTE
    rom_MCI_ProcessRecievedGPM               0x1000cf87   Thumb Code     0  QCA6174_SCAQBAFM.sym ABSOLUTE
    rom_PFAL_IM_MCI_INT_Handler              0x1000d11b   Thumb Code     0  QCA6174_SCAQBAFM.sym ABSOLUTE
    rom_PFAL_IM_BT_MCI_POWER_INT_Handler     0x1000d159   Thumb Code     0  QCA6174_SCAQBAFM.sym ABSOLUTE
    rom_PFAL_COEX_MCI_Connect                0x1000d205   Thumb Code     0  QCA6174_SCAQBAFM.sym ABSOLUTE
    rom_PFAL_COEX_MCI_Init                   0x1000d22b   Thumb Code     0  QCA6174_SCAQBAFM.sym ABSOLUTE
    rom_PFAL_COEX_MCI_Send_Remote_Reset_Msg  0x1000d3e3   Thumb Code     0  QCA6174_SCAQBAFM.sym ABSOLUTE
    rom_MCI_SendRemoteResetIfWarranted       0x1000d415   Thumb Code     0  QCA6174_SCAQBAFM.sym ABSOLUTE
    rom_MCI_UpdateLinkStatus                 0x1000d439   Thumb Code     0  QCA6174_SCAQBAFM.sym ABSOLUTE
    rom_PFAL_COEX_MCI_UpdatePerformanceState 0x1000d483   Thumb Code     0  QCA6174_SCAQBAFM.sym ABSOLUTE
    rom_MCI_IsA2DPLinkCritical               0x1000d515   Thumb Code     0  QCA6174_SCAQBAFM.sym ABSOLUTE
    rom_PFAL_COEX_MCI_UpdatexSCOMapActivity  0x1000d53b   Thumb Code     0  QCA6174_SCAQBAFM.sym ABSOLUTE
    rom_PFAL_COEX_MCI_UpdatexSCOMap          0x1000d565   Thumb Code     0  QCA6174_SCAQBAFM.sym ABSOLUTE
    rom_PFAL_COEX_MCI_UpdateSniffMapActivity 0x1000d599   Thumb Code     0  QCA6174_SCAQBAFM.sym ABSOLUTE
    rom_PFAL_COEX_MCI_UpdateSniffMap         0x1000d5c3   Thumb Code     0  QCA6174_SCAQBAFM.sym ABSOLUTE
    rom_PFAL_COEX_MCI_UpdateQoSMap           0x1000d6c1   Thumb Code     0  QCA6174_SCAQBAFM.sym ABSOLUTE
    rom_MCI_IsSniffCritical                  0x1000d713   Thumb Code     0  QCA6174_SCAQBAFM.sym ABSOLUTE
    rom_MCI_IsxSCOCritical                   0x1000d76d   Thumb Code     0  QCA6174_SCAQBAFM.sym ABSOLUTE
    rom_MCI_IsACLLinkCritical                0x1000d85f   Thumb Code     0  QCA6174_SCAQBAFM.sym ABSOLUTE
    rom_PFAL_COEX_MCI_TrackPageScanInterval  0x1000d8af   Thumb Code     0  QCA6174_SCAQBAFM.sym ABSOLUTE
    rom_MCI_IsPageScanCritical               0x1000d8bd   Thumb Code     0  QCA6174_SCAQBAFM.sym ABSOLUTE
    rom_MCI_IsInqScanCritical                0x1000d8e1   Thumb Code     0  QCA6174_SCAQBAFM.sym ABSOLUTE
    rom_MCI_Schd_Readjust_Prio               0x1000d8f3   Thumb Code     0  QCA6174_SCAQBAFM.sym ABSOLUTE
    rom_MCI_SCO_Prio_Convert                 0x1000d91b   Thumb Code     0  QCA6174_SCAQBAFM.sym ABSOLUTE
    rom_MCI_ACL_Prio_Convert                 0x1000d9d5   Thumb Code     0  QCA6174_SCAQBAFM.sym ABSOLUTE
    rom_MCI_Prio_Convert                     0x1000da75   Thumb Code     0  QCA6174_SCAQBAFM.sym ABSOLUTE
    rom_PFAL_COEX_MCI_CAL_Notify             0x1000dc53   Thumb Code     0  QCA6174_SCAQBAFM.sym ABSOLUTE
    PFAL_COEX_MCI_BT_CAL_Request_TX          0x1000dcf9   Thumb Code     0  QCA6174_SCAQBAFM.sym ABSOLUTE
    rom_PFAL_COEX_MCI_BT_CAL_Grant_TX        0x1000dd63   Thumb Code     0  QCA6174_SCAQBAFM.sym ABSOLUTE
    rom_PFAL_COEX_MCI_BT_CAL_Done_TX         0x1000ddbb   Thumb Code     0  QCA6174_SCAQBAFM.sym ABSOLUTE
    rom_PFAL_COEX_MCI_CHECK_WLAN_CAL_GRANT   0x1000de35   Thumb Code     0  QCA6174_SCAQBAFM.sym ABSOLUTE
    rom_PFAL_COEX_MCI_TX_REQ                 0x1000de65   Thumb Code     0  QCA6174_SCAQBAFM.sym ABSOLUTE
    rom_PFAL_COEX_MCI_RX_REQ                 0x1000dea7   Thumb Code     0  QCA6174_SCAQBAFM.sym ABSOLUTE
    rom_PFAL_COEX_MCI_Handle_Pend_Msg        0x1000dee9   Thumb Code     0  QCA6174_SCAQBAFM.sym ABSOLUTE
    rom_PFAL_COEX_MCI_Schedule_MSG_Check     0x1000e049   Thumb Code     0  QCA6174_SCAQBAFM.sym ABSOLUTE
    rom_PFAL_COEX_MCI_Send_Schedule_MSG      0x1000e1a5   Thumb Code     0  QCA6174_SCAQBAFM.sym ABSOLUTE
    rom_PFAL_COEX_MCI_Prediction_Thread      0x1000e21b   Thumb Code     0  QCA6174_SCAQBAFM.sym ABSOLUTE
    rom_PFAL_COEX_MCI_Prediction             0x1000e23f   Thumb Code     0  QCA6174_SCAQBAFM.sym ABSOLUTE
    rom_PFAL_COEX_MCI_Schedule               0x1000e4f3   Thumb Code     0  QCA6174_SCAQBAFM.sym ABSOLUTE
    rom_PFAL_COEX_MCI_Wake_Up                0x1000e85d   Thumb Code     0  QCA6174_SCAQBAFM.sym ABSOLUTE
    rom_PFAL_COEX_MCI_Sleep                  0x1000e8ad   Thumb Code     0  QCA6174_SCAQBAFM.sym ABSOLUTE
    rom_PFAL_COEX_MCI_INFO_Copy              0x1000e959   Thumb Code     0  QCA6174_SCAQBAFM.sym ABSOLUTE
    rom_PFAL_COEX_MCI_Find_MSG_Before        0x1000e9d5   Thumb Code     0  QCA6174_SCAQBAFM.sym ABSOLUTE
    rom_PFAL_COEX_MCI_SetOsInit              0x1000eac1   Thumb Code     0  QCA6174_SCAQBAFM.sym ABSOLUTE
    rom_PFAL_RM_HW_CoexistenceGrantRequestMCI 0x1000eafb   Thumb Code     0  QCA6174_SCAQBAFM.sym ABSOLUTE
    rom_PFAL_COEX_MCI_ANT2CP_Activity        0x1000ec15   Thumb Code     0  QCA6174_SCAQBAFM.sym ABSOLUTE
    rom_PFAL_COEX_MWS_ProcRxMsg              0x1000ed3d   Thumb Code     0  QCA6174_SCAQBAFM.sym ABSOLUTE
    rom_PFAL_COEX_MWS_Disable_Algorithm      0x1000ed41   Thumb Code     0  QCA6174_SCAQBAFM.sym ABSOLUTE
    rom_PFAL_COEX_MWS_ProcBandInfo           0x1000ee01   Thumb Code     0  QCA6174_SCAQBAFM.sym ABSOLUTE
    rom_PFAL_COEX_MWS_Proc_Frame_Timing      0x1000efcf   Thumb Code     0  QCA6174_SCAQBAFM.sym ABSOLUTE
    rom_PFAL_COEX_MWS_Calc_SWITCH_Time       0x1000eff5   Thumb Code     0  QCA6174_SCAQBAFM.sym ABSOLUTE
    rom_PFAL_COEX_MWS_Proc_Frame_Boundary_ISR 0x1000f02d   Thumb Code     0  QCA6174_SCAQBAFM.sym ABSOLUTE
    rom_PFAL_COEX_MWS_Get_TargetCLK          0x1000f077   Thumb Code     0  QCA6174_SCAQBAFM.sym ABSOLUTE
    rom_PFAL_COEX_MWS_Calc_Delta             0x1000f0c9   Thumb Code     0  QCA6174_SCAQBAFM.sym ABSOLUTE
    rom_PFAL_COEX_MWS_NOCONN_SET_CLOCK_OFFSET 0x1000f25b   Thumb Code     0  QCA6174_SCAQBAFM.sym ABSOLUTE
    rom_PFAL_COEX_MWS_SET_DriftPerFrame      0x1000f26b   Thumb Code     0  QCA6174_SCAQBAFM.sym ABSOLUTE
    rom_PFAL_COEX_MWS_MASTER_ADJ_CLOCK_OFFSET 0x1000f277   Thumb Code     0  QCA6174_SCAQBAFM.sym ABSOLUTE
    rom_PFAL_COEX_MWS_Pwr_Backoff_Init       0x1000f2fd   Thumb Code     0  QCA6174_SCAQBAFM.sym ABSOLUTE
    rom_PFAL_COEX_MWS_Pwr_Backoff_Calc_TXFER 0x1000f363   Thumb Code     0  QCA6174_SCAQBAFM.sym ABSOLUTE
    rom_PFAL_COEX_MWS_Pwr_Backoff_TxPwrLimit_Default 0x1000f3a3   Thumb Code     0  QCA6174_SCAQBAFM.sym ABSOLUTE
    rom_SLC_Timestamp_getArrival             0x1000f3db   Thumb Code     0  QCA6174_SCAQBAFM.sym ABSOLUTE
    rom_PFLA_COEX_MWS_A2DP_Pwr_Backoff_Calculation 0x1000f405   Thumb Code     0  QCA6174_SCAQBAFM.sym ABSOLUTE
    rom_PFLA_COEX_MWS_eSCO_Pwr_Backoff_Calculation 0x1000f4fd   Thumb Code     0  QCA6174_SCAQBAFM.sym ABSOLUTE
    rom_PFAL_COEX_MWS_Pwr_Backoff_Timer_handler 0x1000f58b   Thumb Code     0  QCA6174_SCAQBAFM.sym ABSOLUTE
    rom_PFAL_COEX_MWS_timer_handle           0x1000f5c5   Thumb Code     0  QCA6174_SCAQBAFM.sym ABSOLUTE
    rom_PFAL_COEX_MWS_timer2_handle          0x1000f5ed   Thumb Code     0  QCA6174_SCAQBAFM.sym ABSOLUTE
    rom_PFAL_COEX_MWS_Pwr_Backoff_Proc       0x1000f5ef   Thumb Code     0  QCA6174_SCAQBAFM.sym ABSOLUTE
    rom_PFAL_COEX_MWS_BtGetLteSubFrame       0x1000f5f9   Thumb Code     0  QCA6174_SCAQBAFM.sym ABSOLUTE
    rom_PFAL_COEX_MWS_UpdateEscoTxpower      0x1000f5fd   Thumb Code     0  QCA6174_SCAQBAFM.sym ABSOLUTE
    PFAL_COEX_MWS_TimerCallback              0x1000f60d   Thumb Code     0  QCA6174_SCAQBAFM.sym ABSOLUTE
    rom_PFAL_COEX_MWS_BtTxPwrLimit           0x1000f611   Thumb Code     0  QCA6174_SCAQBAFM.sym ABSOLUTE
    rom_PFAL_COEX_MWS_BtTxRequest            0x1000f69d   Thumb Code     0  QCA6174_SCAQBAFM.sym ABSOLUTE
    rom_PFAL_COEX_MWS_updateAFHMap_4_LTEchan 0x1000f6c1   Thumb Code     0  QCA6174_SCAQBAFM.sym ABSOLUTE
    rom_PFAL_COEX_MWS_HandleLteChanMapUpdate 0x1000f6fb   Thumb Code     0  QCA6174_SCAQBAFM.sym ABSOLUTE
    rom_PFAL_COEX_MWS_GetLteChannel          0x1000f723   Thumb Code     0  QCA6174_SCAQBAFM.sym ABSOLUTE
    rom_LLM_MWS_CP_handleSetLinkPolicySettings 0x1000f72f   Thumb Code     0  QCA6174_SCAQBAFM.sym ABSOLUTE
    rom_LLM_MWS_CP_handleRoleSwitch2Master   0x1000f775   Thumb Code     0  QCA6174_SCAQBAFM.sym ABSOLUTE
    rom_MWS_Block_Master_Role_Switch         0x1000f78d   Thumb Code     0  QCA6174_SCAQBAFM.sym ABSOLUTE
    rom_MWS_Perform_Role_Switch_2_Master     0x1000f7c3   Thumb Code     0  QCA6174_SCAQBAFM.sym ABSOLUTE
    rom_wci2_type2_route_received_msg        0x1000f83f   Thumb Code     0  QCA6174_SCAQBAFM.sym ABSOLUTE
    rom_wci2_encode_send_sync_req            0x1000f8a1   Thumb Code     0  QCA6174_SCAQBAFM.sym ABSOLUTE
    rom_wci2_decode_sync_req                 0x1000f913   Thumb Code     0  QCA6174_SCAQBAFM.sym ABSOLUTE
    rom_wci2_sync_resp_encode_send           0x1000f987   Thumb Code     0  QCA6174_SCAQBAFM.sym ABSOLUTE
    rom_wci2_decode_sync_resp                0x1000f9d5   Thumb Code     0  QCA6174_SCAQBAFM.sym ABSOLUTE
    rom_wci2_decode_tech_update_req          0x1000fa13   Thumb Code     0  QCA6174_SCAQBAFM.sym ABSOLUTE
    rom_wci2_decode_state_ind                0x1000fa5b   Thumb Code     0  QCA6174_SCAQBAFM.sym ABSOLUTE
    rom_PFAL_COEX_MWS_State_Reset            0x1000fb21   Thumb Code     0  QCA6174_SCAQBAFM.sym ABSOLUTE
    rom_PFAL_COEX_MWS_DEBUG_PrintfBitMap     0x1000fb3f   Thumb Code     0  QCA6174_SCAQBAFM.sym ABSOLUTE
    rom_PFAL_COEX_MWS_AFH_UnitTest           0x1000fb9f   Thumb Code     0  QCA6174_SCAQBAFM.sym ABSOLUTE
    rom_PF_OS_Init                           0x1000fbe9   Thumb Code     0  QCA6174_SCAQBAFM.sym ABSOLUTE
    rom_PF_OS_StartTasks                     0x1000fc49   Thumb Code     0  QCA6174_SCAQBAFM.sym ABSOLUTE
    rom_PF_OS_EnableTask                     0x1000fcc9   Thumb Code     0  QCA6174_SCAQBAFM.sym ABSOLUTE
    rom_PF_OS_SystemPreReset                 0x1000fcd7   Thumb Code     0  QCA6174_SCAQBAFM.sym ABSOLUTE
    rom_PF_OS_SystemReset                    0x1000fd31   Thumb Code     0  QCA6174_SCAQBAFM.sym ABSOLUTE
    rom_PF_OS_SystemReady                    0x1000fdbd   Thumb Code     0  QCA6174_SCAQBAFM.sym ABSOLUTE
    rom_PF_OS_DisableScheduling              0x1000fdf9   Thumb Code     0  QCA6174_SCAQBAFM.sym ABSOLUTE
    rom_PF_OS_EnableScheduling               0x1000fe01   Thumb Code     0  QCA6174_SCAQBAFM.sym ABSOLUTE
    rom_PF_OS_InitFMBPool                    0x1000fe09   Thumb Code     0  QCA6174_SCAQBAFM.sym ABSOLUTE
    rom_PF_OS_AllocMem                       0x1000fef7   Thumb Code     0  QCA6174_SCAQBAFM.sym ABSOLUTE
    rom_PF_OS_FreeMem                        0x1000ffb3   Thumb Code     0  QCA6174_SCAQBAFM.sym ABSOLUTE
    rom_PF_OS_EnqueueMsgEx                   0x1001006f   Thumb Code     0  QCA6174_SCAQBAFM.sym ABSOLUTE
    rom_PF_OS_EnqueueMsgEx_LIFO              0x100100af   Thumb Code     0  QCA6174_SCAQBAFM.sym ABSOLUTE
    rom_PF_OS_EnqueueQueueEx                 0x100100ed   Thumb Code     0  QCA6174_SCAQBAFM.sym ABSOLUTE
    rom_PF_OS_DequeueMsgEx                   0x1001013d   Thumb Code     0  QCA6174_SCAQBAFM.sym ABSOLUTE
    rom_PF_OS_DequeueMsgExAt                 0x10010179   Thumb Code     0  QCA6174_SCAQBAFM.sym ABSOLUTE
    rom_PF_OS_GetQueueLenEx                  0x10010207   Thumb Code     0  QCA6174_SCAQBAFM.sym ABSOLUTE
    rom_PF_OS_PeekMsgEx                      0x10010243   Thumb Code     0  QCA6174_SCAQBAFM.sym ABSOLUTE
    rom_PF_OS_FreeAllQueueMsgEx              0x10010289   Thumb Code     0  QCA6174_SCAQBAFM.sym ABSOLUTE
    rom_PF_OS_FreeNQueueMsgEx                0x100102f3   Thumb Code     0  QCA6174_SCAQBAFM.sym ABSOLUTE
    rom_PF_OS_StartTimer                     0x1001039d   Thumb Code     0  QCA6174_SCAQBAFM.sym ABSOLUTE
    rom_PF_OS_StopTimer                      0x10010563   Thumb Code     0  QCA6174_SCAQBAFM.sym ABSOLUTE
    rom_PF_OS_TimerEnabled                   0x100105ef   Thumb Code     0  QCA6174_SCAQBAFM.sym ABSOLUTE
    rom_PF_OS_ProcessTimer                   0x10010629   Thumb Code     0  QCA6174_SCAQBAFM.sym ABSOLUTE
    rom_PF_OS_DequeueTimer                   0x10010711   Thumb Code     0  QCA6174_SCAQBAFM.sym ABSOLUTE
    rom_PF_OS_Sleep                          0x10010781   Thumb Code     0  QCA6174_SCAQBAFM.sym ABSOLUTE
    rom_PF_OS_InitMalloc                     0x10010819   Thumb Code     0  QCA6174_SCAQBAFM.sym ABSOLUTE
    __rt_heap_extend                         0x10010827   Thumb Code     0  QCA6174_SCAQBAFM.sym ABSOLUTE
    PF_OS_ZeroHeap                           0x1001082b   Thumb Code     0  QCA6174_SCAQBAFM.sym ABSOLUTE
    rom_PF_OS_Malloc                         0x10010849   Thumb Code     0  QCA6174_SCAQBAFM.sym ABSOLUTE
    rom_PF_OS_MallocWordAligned              0x100108ad   Thumb Code     0  QCA6174_SCAQBAFM.sym ABSOLUTE
    rom_PF_PROC_DelayMS                      0x1001093d   Thumb Code     0  QCA6174_SCAQBAFM.sym ABSOLUTE
    rom_HCI_SendStatus                       0x10010961   Thumb Code     0  QCA6174_SCAQBAFM.sym ABSOLUTE
    rom_HCI_SendTLVStatus                    0x100109b1   Thumb Code     0  QCA6174_SCAQBAFM.sym ABSOLUTE
    rom_HCI_SendVersionString                0x100109ff   Thumb Code     0  QCA6174_SCAQBAFM.sym ABSOLUTE
    rom_HCI_SendVersionInteger               0x10010a6d   Thumb Code     0  QCA6174_SCAQBAFM.sym ABSOLUTE
    rom_HCI_VSSet_VariableRegParameter       0x10010b0b   Thumb Code     0  QCA6174_SCAQBAFM.sym ABSOLUTE
    rom_HCI_VS_ReadVersionInfo               0x10010bdb   Thumb Code     0  QCA6174_SCAQBAFM.sym ABSOLUTE
    rom_HCI_VS_ReadActiveRssi                0x10010c71   Thumb Code     0  QCA6174_SCAQBAFM.sym ABSOLUTE
    rom_HCI_Process_VSC_Write_DDB_Key_Entry  0x10010ded   Thumb Code     0  QCA6174_SCAQBAFM.sym ABSOLUTE
    rom_HCI_Process_VSC_Read_DDB_Key_Entry_By_Index 0x10010eaf   Thumb Code     0  QCA6174_SCAQBAFM.sym ABSOLUTE
    rom_HCI_Process_VSC_Read_DDB_Key_Entry   0x10010f5d   Thumb Code     0  QCA6174_SCAQBAFM.sym ABSOLUTE
    rom_HCI_Process_VSC_Delete_DDB_Key_Entry 0x10010ff1   Thumb Code     0  QCA6174_SCAQBAFM.sym ABSOLUTE
    rom_HCI_Process_VSC_Delete_All_DDB_Key_Entry 0x10011013   Thumb Code     0  QCA6174_SCAQBAFM.sym ABSOLUTE
    rom_HCI_Process_VSC_BdAddrWriteCmd       0x10011033   Thumb Code     0  QCA6174_SCAQBAFM.sym ABSOLUTE
    rom_HCI_Process_VSC_SetFeatureBit        0x100110fd   Thumb Code     0  QCA6174_SCAQBAFM.sym ABSOLUTE
    rom_HCI_Process_VSC_ConfigGpio           0x10011163   Thumb Code     0  QCA6174_SCAQBAFM.sym ABSOLUTE
    rom_HCI_Process_VSC_ReadGpio             0x10011245   Thumb Code     0  QCA6174_SCAQBAFM.sym ABSOLUTE
    rom_HCI_Process_VSC_ReadPSdata           0x100112d1   Thumb Code     0  QCA6174_SCAQBAFM.sym ABSOLUTE
    rom_HCI_Process_VSC_WritePSdata          0x100113d7   Thumb Code     0  QCA6174_SCAQBAFM.sym ABSOLUTE
    rom_HCI_VendorCommand                    0x100114b3   Thumb Code     0  QCA6174_SCAQBAFM.sym ABSOLUTE
    rom_PFAL_DBG_SendVSEventWithData         0x10012543   Thumb Code     0  QCA6174_SCAQBAFM.sym ABSOLUTE
    rom_HCI_sendDebugEventPacket             0x10012577   Thumb Code     0  QCA6174_SCAQBAFM.sym ABSOLUTE
    rom_CFG_HandleVariableConfigParameter    0x100125cf   Thumb Code     0  QCA6174_SCAQBAFM.sym ABSOLUTE
    rom_PFAL_NVM_Parse                       0x100125fb   Thumb Code     0  QCA6174_SCAQBAFM.sym ABSOLUTE
    rom_PFAL_TLV_Start                       0x10012689   Thumb Code     0  QCA6174_SCAQBAFM.sym ABSOLUTE
    rom_PFAL_TLV_Continue                    0x1001272d   Thumb Code     0  QCA6174_SCAQBAFM.sym ABSOLUTE
    rom_PFAL_TLV_Done                        0x10012907   Thumb Code     0  QCA6174_SCAQBAFM.sym ABSOLUTE
    rom_PFAL_TLV_Process                     0x10012a03   Thumb Code     0  QCA6174_SCAQBAFM.sym ABSOLUTE
    rom_PFAL_DBG_IsMemoryAccessible          0x10012abd   Thumb Code     0  QCA6174_SCAQBAFM.sym ABSOLUTE
    rom_PFAL_ConfigureModulationPowerLevelOverride 0x10012ad3   Thumb Code     0  QCA6174_SCAQBAFM.sym ABSOLUTE
    rom_PFAL_ConfigureExtendedModulationPowerLevelOverride 0x10012b3f   Thumb Code     0  QCA6174_SCAQBAFM.sym ABSOLUTE
    rom_PFAL_MemAccess_Command               0x10012bad   Thumb Code     0  QCA6174_SCAQBAFM.sym ABSOLUTE
    rom_HCI_SendUploadResponse               0x100130cb   Thumb Code     0  QCA6174_SCAQBAFM.sym ABSOLUTE
    PFAL_DBG_BluetoothPageCancel             0x100131cb   Thumb Code     0  QCA6174_SCAQBAFM.sym ABSOLUTE
    PFAL_DBG_BluetoothReadRSSI_Linear        0x100131f7   Thumb Code     0  QCA6174_SCAQBAFM.sym ABSOLUTE
    PFAL_DBG_BluetoothWriteRSSI_Threshold    0x10013213   Thumb Code     0  QCA6174_SCAQBAFM.sym ABSOLUTE
    PFAL_DBG_BluetoothLEReadADWhiteListSize  0x10013293   Thumb Code     0  QCA6174_SCAQBAFM.sym ABSOLUTE
    PFAL_DBG_BluetoothLEClearADWhiteList     0x100132bb   Thumb Code     0  QCA6174_SCAQBAFM.sym ABSOLUTE
    PFAL_DBG_BluetoothLEAddADWhiteList       0x100132fb   Thumb Code     0  QCA6174_SCAQBAFM.sym ABSOLUTE
    PFAL_DBG_BluetoothLERemoveADWhiteList    0x1001340d   Thumb Code     0  QCA6174_SCAQBAFM.sym ABSOLUTE
    PFAL_DBG_BluetoothReadRSSI_Threshold     0x10013473   Thumb Code     0  QCA6174_SCAQBAFM.sym ABSOLUTE
    rom_PFAL_DBG_Bluetooth_sendRSSI_ThresholdEvent 0x100134ed   Thumb Code     0  QCA6174_SCAQBAFM.sym ABSOLUTE
    PFAL_DBG_BluetoothEnableRSSI_Threshold   0x1001352b   Thumb Code     0  QCA6174_SCAQBAFM.sym ABSOLUTE
    PFAL_DBG_Bluetooth_NoFunc                0x100135bf   Thumb Code     0  QCA6174_SCAQBAFM.sym ABSOLUTE
    PFAL_DBG_BluetoothReadEncryptionKeySize  0x100135c1   Thumb Code     0  QCA6174_SCAQBAFM.sym ABSOLUTE
    rom_PFAL_DBG_VS_InstallAppCmdCallback    0x1001361f   Thumb Code     0  QCA6174_SCAQBAFM.sym ABSOLUTE
    rom_PFAL_DBG_VS_GetBufferForTagReturnEvent 0x10013625   Thumb Code     0  QCA6174_SCAQBAFM.sym ABSOLUTE
    rom_PFAL_DBG_HostLogCtrl                 0x1001363d   Thumb Code     0  QCA6174_SCAQBAFM.sym ABSOLUTE
    PFAL_DBG_LEAdvPCFEnable                  0x10013675   Thumb Code     0  QCA6174_SCAQBAFM.sym ABSOLUTE
    PFAL_DBG_LEAdvPCFFeatureSelection        0x100136b3   Thumb Code     0  QCA6174_SCAQBAFM.sym ABSOLUTE
    PFAL_DBG_LEAdvPCFBroadcasterAddr         0x100137a9   Thumb Code     0  QCA6174_SCAQBAFM.sym ABSOLUTE
    PFAL_DBG_LEAdvPCFServiceUUID             0x100138af   Thumb Code     0  QCA6174_SCAQBAFM.sym ABSOLUTE
    PFAL_DBG_LEAdvPCFServiceSolicitationUUID 0x10013a6d   Thumb Code     0  QCA6174_SCAQBAFM.sym ABSOLUTE
    PFAL_DBG_LEAdvPCFLocalName               0x10013a6f   Thumb Code     0  QCA6174_SCAQBAFM.sym ABSOLUTE
    PFAL_DBG_LEAdvPCFManufacturerData        0x10013b63   Thumb Code     0  QCA6174_SCAQBAFM.sym ABSOLUTE
    PFAL_DBG_LEAdvPCFServiceData             0x10013b65   Thumb Code     0  QCA6174_SCAQBAFM.sym ABSOLUTE
    PFAL_DBG_LE_PrivacyAddDevice             0x10013b67   Thumb Code     0  QCA6174_SCAQBAFM.sym ABSOLUTE
    PFAL_DBG_LE_PrivacyRemoveDevice          0x10013b71   Thumb Code     0  QCA6174_SCAQBAFM.sym ABSOLUTE
    PFAL_DBG_LE_PrivacyClearList             0x10013b7b   Thumb Code     0  QCA6174_SCAQBAFM.sym ABSOLUTE
    PFAL_DBG_LE_PrivacyReadListSize          0x10013b85   Thumb Code     0  QCA6174_SCAQBAFM.sym ABSOLUTE
    PFAL_DBG_LE_PrivacyWritePrimaryIRK       0x10013b8f   Thumb Code     0  QCA6174_SCAQBAFM.sym ABSOLUTE
    PFAL_DBG_LE_PrivacyReadPeerRPA           0x10013b99   Thumb Code     0  QCA6174_SCAQBAFM.sym ABSOLUTE
    PFAL_DBG_LE_PrivacyReadLocalRPA          0x10013ba3   Thumb Code     0  QCA6174_SCAQBAFM.sym ABSOLUTE
    rom_TempReverseWriteByteArray            0x10013c09   Thumb Code     0  QCA6174_SCAQBAFM.sym ABSOLUTE
    rom_PFAL_LC_CRYPTO_WriteKeyReverseOrder  0x10013c27   Thumb Code     0  QCA6174_SCAQBAFM.sym ABSOLUTE
    rom_PFAL_LC_CRYPTO_WriteEncKeyRegsReverseOrder 0x10013c35   Thumb Code     0  QCA6174_SCAQBAFM.sym ABSOLUTE
    rom_PFAL_LC_CRYPTO_Platform_Init         0x10013c51   Thumb Code     0  QCA6174_SCAQBAFM.sym ABSOLUTE
    PFAL_CRYPTO_GetRxStatus_LE               0x10013c99   Thumb Code     0  QCA6174_SCAQBAFM.sym ABSOLUTE
    PFAL_CRYPTO_GetRxStatus_BR_EDR           0x10013caf   Thumb Code     0  QCA6174_SCAQBAFM.sym ABSOLUTE
    PFAL_LC_CRYPTO_Dummy                     0x10013cd5   Thumb Code     0  QCA6174_SCAQBAFM.sym ABSOLUTE
    rom_PFAL_GPIO_Init                       0x10013d0d   Thumb Code     0  QCA6174_SCAQBAFM.sym ABSOLUTE
    rom_PFAL_GPIO_Mux                        0x10013db5   Thumb Code     0  QCA6174_SCAQBAFM.sym ABSOLUTE
    rom_PFAL_GPIO_SetDirection               0x10013e6b   Thumb Code     0  QCA6174_SCAQBAFM.sym ABSOLUTE
    rom_PFAL_GPIO_ConfigureInterrupt         0x10013ea7   Thumb Code     0  QCA6174_SCAQBAFM.sym ABSOLUTE
    rom_PFAL_GPIO_SetInterruptLevel          0x10013efb   Thumb Code     0  QCA6174_SCAQBAFM.sym ABSOLUTE
    rom_PFAL_GPIO_EnableInterrupt            0x10013f41   Thumb Code     0  QCA6174_SCAQBAFM.sym ABSOLUTE
    rom_PFAL_GPIO_DisableInterrupt           0x10013f65   Thumb Code     0  QCA6174_SCAQBAFM.sym ABSOLUTE
    rom_PFAL_GPIO_InterruptActive            0x10013f8b   Thumb Code     0  QCA6174_SCAQBAFM.sym ABSOLUTE
    rom_PFAL_GPIO_IsAllocatedMask            0x10013fb1   Thumb Code     0  QCA6174_SCAQBAFM.sym ABSOLUTE
    __toggle                                 0x10014035   Thumb Code     0  QCA6174_SCAQBAFM.sym ABSOLUTE
    rom_PFAL_GPIO_AUDIO_IO_Mux               0x10014059   Thumb Code     0  QCA6174_SCAQBAFM.sym ABSOLUTE
    rom_PFAL_GPIO_SPI_IO_Mux                 0x1001434f   Thumb Code     0  QCA6174_SCAQBAFM.sym ABSOLUTE
    rom_PFAL_GPIO_I2C_IO_Mux                 0x10014401   Thumb Code     0  QCA6174_SCAQBAFM.sym ABSOLUTE
    rom_PFAL_GPIO_DBG_UART_IO_Mux            0x100144a5   Thumb Code     0  QCA6174_SCAQBAFM.sym ABSOLUTE
    rom_PFAL_GPIO_HCI_UART_IO_Mux            0x10014535   Thumb Code     0  QCA6174_SCAQBAFM.sym ABSOLUTE
    rom_PFAL_GPIO_OWI_UART_IO_Mux            0x10014545   Thumb Code     0  QCA6174_SCAQBAFM.sym ABSOLUTE
    rom_PFAL_GPIO_OWI_CheckPinState          0x100145b1   Thumb Code     0  QCA6174_SCAQBAFM.sym ABSOLUTE
    rom_PFAL_GPIO_OWI_WakeIntConfig          0x100145d7   Thumb Code     0  QCA6174_SCAQBAFM.sym ABSOLUTE
    rom_PFAL_GPIO_LTE_COEX_IO_Mux            0x100145d9   Thumb Code     0  QCA6174_SCAQBAFM.sym ABSOLUTE
    rom_PFAL_IM_Init                         0x10014635   Thumb Code     0  QCA6174_SCAQBAFM.sym ABSOLUTE
    rom_PFAL_IM_Connect                      0x10014653   Thumb Code     0  QCA6174_SCAQBAFM.sym ABSOLUTE
    rom_PFAL_IM_ENABLE_IRQ_INT               0x100146af   Thumb Code     0  QCA6174_SCAQBAFM.sym ABSOLUTE
    rom_PFAL_IM_DISABLE_IRQ_INT              0x10014705   Thumb Code     0  QCA6174_SCAQBAFM.sym ABSOLUTE
    rom_PFAL_IM_ENABLE_MASK_IRQ_INT          0x1001475d   Thumb Code     0  QCA6174_SCAQBAFM.sym ABSOLUTE
    rom_PFAL_IM_DISABLE_MASK_IRQ_INT         0x100147a9   Thumb Code     0  QCA6174_SCAQBAFM.sym ABSOLUTE
    rom_PFAL_IM_READ_IRQ_ENABLE              0x100147f5   Thumb Code     0  QCA6174_SCAQBAFM.sym ABSOLUTE
    PFAL_IM_EnableNVIC                       0x1001483b   Thumb Code     0  QCA6174_SCAQBAFM.sym ABSOLUTE
    PFAL_IM_DisableNVIC                      0x10014885   Thumb Code     0  QCA6174_SCAQBAFM.sym ABSOLUTE
    rom_PFAL_IM_RESTORE_PRI_IRQ_INT          0x100148cd   Thumb Code     0  QCA6174_SCAQBAFM.sym ABSOLUTE
    rom_PFAL_LC_Start                        0x10014939   Thumb Code     0  QCA6174_SCAQBAFM.sym ABSOLUTE
    rom_PFAL_LC_hlstSLC_ContextSwitch        0x10014961   Thumb Code     0  QCA6174_SCAQBAFM.sym ABSOLUTE
    rom_PFAL_LC_AbortFrame                   0x10014b4d   Thumb Code     0  QCA6174_SCAQBAFM.sym ABSOLUTE
    rom_PFAL_LC_hlstMConnEntry               0x10014b7b   Thumb Code     0  QCA6174_SCAQBAFM.sym ABSOLUTE
    rom_PFAL_LC_hlstMConnSyncEval            0x10014b93   Thumb Code     0  QCA6174_SCAQBAFM.sym ABSOLUTE
    rom_PFAL_LC_hlstMConnRxHdr1              0x10014c09   Thumb Code     0  QCA6174_SCAQBAFM.sym ABSOLUTE
    rom_PFAL_LC_hlstMConnRxHdr2              0x10014cdd   Thumb Code     0  QCA6174_SCAQBAFM.sym ABSOLUTE
    rom_PFAL_LC_hlstMConnRxHdrDone           0x10014dd1   Thumb Code     0  QCA6174_SCAQBAFM.sym ABSOLUTE
    rom_PFAL_LC_hlstMConnRxSlot              0x10014e5f   Thumb Code     0  QCA6174_SCAQBAFM.sym ABSOLUTE
    rom_PFAL_LC_hlstMConnTxSlot              0x10014f93   Thumb Code     0  QCA6174_SCAQBAFM.sym ABSOLUTE
    rom_PFAL_LC_hlstMConnSkipTx              0x10015289   Thumb Code     0  QCA6174_SCAQBAFM.sym ABSOLUTE
    rom_PFAL_LC_hlstMConnDummy5              0x100152ab   Thumb Code     0  QCA6174_SCAQBAFM.sym ABSOLUTE
    rom_PFAL_LC_hlstMConnSkipRx              0x10015345   Thumb Code     0  QCA6174_SCAQBAFM.sym ABSOLUTE
    rom_PFAL_LC_hlstEBCASync                 0x10015377   Thumb Code     0  QCA6174_SCAQBAFM.sym ABSOLUTE
    rom_PFAL_LC_hlstEBCAEntry                0x100153b3   Thumb Code     0  QCA6174_SCAQBAFM.sym ABSOLUTE
    rom_PFAL_LC_hlstEBCADone                 0x10015589   Thumb Code     0  QCA6174_SCAQBAFM.sym ABSOLUTE
    rom_PFAL_LC_hlstMConnDummy2              0x100155e9   Thumb Code     0  QCA6174_SCAQBAFM.sym ABSOLUTE
    rom_PFAL_LC_hlstMContextSwitchLC         0x100157cd   Thumb Code     0  QCA6174_SCAQBAFM.sym ABSOLUTE
    rom_PFAL_LC_hlstIDScanSync               0x1001582f   Thumb Code     0  QCA6174_SCAQBAFM.sym ABSOLUTE
    rom_PFAL_LC_hlstIDScanEntry              0x1001585b   Thumb Code     0  QCA6174_SCAQBAFM.sym ABSOLUTE
    rom_PFAL_LC_hlstIDScanRxSearch           0x10015983   Thumb Code     0  QCA6174_SCAQBAFM.sym ABSOLUTE
    rom_PFAL_LC_hlstIDScanWaitPreSlot        0x10015a91   Thumb Code     0  QCA6174_SCAQBAFM.sym ABSOLUTE
    rom_PFAL_LC_hlstIDScanWaitLC             0x10015c25   Thumb Code     0  QCA6174_SCAQBAFM.sym ABSOLUTE
    rom_PFAL_LC_hlstIDScanWaitRx             0x10015c8d   Thumb Code     0  QCA6174_SCAQBAFM.sym ABSOLUTE
    rom_PFAL_LC_hlstIDScanWaitExtTx          0x10015cc3   Thumb Code     0  QCA6174_SCAQBAFM.sym ABSOLUTE
    rom_PFAL_LC_hlstIDScanAssocNotifyWaitPreSlotRx 0x10015ce7   Thumb Code     0  QCA6174_SCAQBAFM.sym ABSOLUTE
    rom_PFAL_LC_hlstIDScanAssocNotifyWaitRx  0x10015d0b   Thumb Code     0  QCA6174_SCAQBAFM.sym ABSOLUTE
    rom_PFAL_LC_hlstIDScanAssocNotifyRxHdr   0x10015d6f   Thumb Code     0  QCA6174_SCAQBAFM.sym ABSOLUTE
    rom_PFAL_LC_hlstIDScanAssocNotifyTx      0x10015e03   Thumb Code     0  QCA6174_SCAQBAFM.sym ABSOLUTE
    rom_PFAL_LC_hlstSConnSleep               0x10015e97   Thumb Code     0  QCA6174_SCAQBAFM.sym ABSOLUTE
    rom_PFAL_LC_hlstSConnEntry               0x10015eb9   Thumb Code     0  QCA6174_SCAQBAFM.sym ABSOLUTE
    rom_PFAL_LC_hlstSConnSyncSetup           0x10015ed1   Thumb Code     0  QCA6174_SCAQBAFM.sym ABSOLUTE
    rom_PFAL_LC_hlstSConnSync                0x10015f29   Thumb Code     0  QCA6174_SCAQBAFM.sym ABSOLUTE
    rom_PFAL_LC_hlstSConnSkipTxD             0x10015f61   Thumb Code     0  QCA6174_SCAQBAFM.sym ABSOLUTE
    rom_PFAL_LC_hlstSConnSkipTx              0x1001605d   Thumb Code     0  QCA6174_SCAQBAFM.sym ABSOLUTE
    rom_PFAL_LC_hlstSConnSyncRx              0x1001607f   Thumb Code     0  QCA6174_SCAQBAFM.sym ABSOLUTE
    rom_PFAL_LC_hlstSConnEnterRxAck          0x1001615b   Thumb Code     0  QCA6174_SCAQBAFM.sym ABSOLUTE
    rom_PFAL_LC_hlstSConnEnterRx             0x100161b1   Thumb Code     0  QCA6174_SCAQBAFM.sym ABSOLUTE
    rom_PFAL_LC_hlstSConnRxHdr1              0x1001622f   Thumb Code     0  QCA6174_SCAQBAFM.sym ABSOLUTE
    rom_PFAL_LC_hlstSConnRxHdr2              0x100162e7   Thumb Code     0  QCA6174_SCAQBAFM.sym ABSOLUTE
    rom_PFAL_LC_hlstSConnRxHdrDone           0x1001635b   Thumb Code     0  QCA6174_SCAQBAFM.sym ABSOLUTE
    rom_PFAL_LC_hlstSConnSwitchOnPreslot     0x100163c7   Thumb Code     0  QCA6174_SCAQBAFM.sym ABSOLUTE
    rom_PFAL_LC_hlstSConnRxSlot              0x100163e5   Thumb Code     0  QCA6174_SCAQBAFM.sym ABSOLUTE
    rom_PFAL_LC_hlstSConnDummy               0x100164df   Thumb Code     0  QCA6174_SCAQBAFM.sym ABSOLUTE
    rom_PFAL_LC_hlstSConnTxSlot              0x100166ad   Thumb Code     0  QCA6174_SCAQBAFM.sym ABSOLUTE
    rom_PFAL_LC_hlstSConnTxPreSlot           0x100167b3   Thumb Code     0  QCA6174_SCAQBAFM.sym ABSOLUTE
    rom_PFAL_LC_hlstSConnTxLC                0x10016943   Thumb Code     0  QCA6174_SCAQBAFM.sym ABSOLUTE
    rom_PFAL_LC_hlstDataScanEntry            0x10016993   Thumb Code     0  QCA6174_SCAQBAFM.sym ABSOLUTE
    rom_PFAL_LC_hlstDataScanSync             0x100169c9   Thumb Code     0  QCA6174_SCAQBAFM.sym ABSOLUTE
    rom_PFAL_LC_hlstDataScanScan             0x10016a93   Thumb Code     0  QCA6174_SCAQBAFM.sym ABSOLUTE
    rom_PFAL_LC_hlstDataScanRetry            0x10016c1b   Thumb Code     0  QCA6174_SCAQBAFM.sym ABSOLUTE
    rom_PFAL_LC_hlstDataScanReSync           0x10016cdf   Thumb Code     0  QCA6174_SCAQBAFM.sym ABSOLUTE
    rom_PFAL_LC_hlstDataScanNotAlive         0x10016e3d   Thumb Code     0  QCA6174_SCAQBAFM.sym ABSOLUTE
    rom_PFAL_LC_hlstPageTriggerSense         0x10016e81   Thumb Code     0  QCA6174_SCAQBAFM.sym ABSOLUTE
    rom_PFAL_LC_hlstPageTriggerTx            0x10016ed3   Thumb Code     0  QCA6174_SCAQBAFM.sym ABSOLUTE
    rom_PFAL_LC_hlstPageTriggerDone          0x10016f2b   Thumb Code     0  QCA6174_SCAQBAFM.sym ABSOLUTE
    rom_PFAL_LC_hlstTrigScan                 0x10017023   Thumb Code     0  QCA6174_SCAQBAFM.sym ABSOLUTE
    rom_PFAL_LC_hlstTrigScanDone             0x10017063   Thumb Code     0  QCA6174_SCAQBAFM.sym ABSOLUTE
    PFAL_LC_hlstLE_ExitLE                    0x10017117   Thumb Code     0  QCA6174_SCAQBAFM.sym ABSOLUTE
    rom_PFAL_LC_hlstLE_TxSyncEval            0x10017295   Thumb Code     0  QCA6174_SCAQBAFM.sym ABSOLUTE
    rom_PFAL_LC_hlstLE_DataScanEntry         0x100173ed   Thumb Code     0  QCA6174_SCAQBAFM.sym ABSOLUTE
    rom_PFAL_LC_hlstLE_DataScanSync          0x10017431   Thumb Code     0  QCA6174_SCAQBAFM.sym ABSOLUTE
    rom_PFAL_LC_hlstLE_DataScanScan          0x100175bb   Thumb Code     0  QCA6174_SCAQBAFM.sym ABSOLUTE
    rom_PFAL_LC_State_LE_setAbortFlag        0x1001789b   Thumb Code     0  QCA6174_SCAQBAFM.sym ABSOLUTE
    rom_PFAL_LC_State_LE_checkAbortFlag      0x100178a1   Thumb Code     0  QCA6174_SCAQBAFM.sym ABSOLUTE
    rom_PFAL_LC_hlstLE_Rx                    0x100178a7   Thumb Code     0  QCA6174_SCAQBAFM.sym ABSOLUTE
    rom_PFAL_LC_hlstLE_Tx                    0x10017a8d   Thumb Code     0  QCA6174_SCAQBAFM.sym ABSOLUTE
    rom_PFAL_LC_hlstLE_TestModeEntry         0x10017c69   Thumb Code     0  QCA6174_SCAQBAFM.sym ABSOLUTE
    rom_PFAL_LC_hlstLE_TestModeActive        0x10017cc3   Thumb Code     0  QCA6174_SCAQBAFM.sym ABSOLUTE
    rom_PFAL_LC_hlstLE_TestModeRxScan        0x10017d45   Thumb Code     0  QCA6174_SCAQBAFM.sym ABSOLUTE
    rom_PFAL_LC_hlstLE_TestModeRx            0x10017db5   Thumb Code     0  QCA6174_SCAQBAFM.sym ABSOLUTE
    rom_PFAL_LC_LE_exitTestMode              0x10017e43   Thumb Code     0  QCA6174_SCAQBAFM.sym ABSOLUTE
    rom_PFAL_LC_hlstANT_FrameEntry           0x10017e93   Thumb Code     0  QCA6174_SCAQBAFM.sym ABSOLUTE
    rom_PFAL_LC_hlstANT_FrameRxScan          0x10017f09   Thumb Code     0  QCA6174_SCAQBAFM.sym ABSOLUTE
    rom_PFAL_LC_hlstANT_FrameSyncEval        0x10018011   Thumb Code     0  QCA6174_SCAQBAFM.sym ABSOLUTE
    rom_PFAL_LC_hlstANT_FrameTxRx            0x1001815f   Thumb Code     0  QCA6174_SCAQBAFM.sym ABSOLUTE
    rom_PFAL_LC_hlstANT_RescheduleEntry      0x1001822b   Thumb Code     0  QCA6174_SCAQBAFM.sym ABSOLUTE
    rom_PFAL_LC_hlstANT_RescheduleExit       0x10018279   Thumb Code     0  QCA6174_SCAQBAFM.sym ABSOLUTE
    rom_PFAL_LC_hlstSyncTrainScanEntry       0x100182bd   Thumb Code     0  QCA6174_SCAQBAFM.sym ABSOLUTE
    rom_PFAL_LC_hlstSyncTrainScanSync        0x100182e9   Thumb Code     0  QCA6174_SCAQBAFM.sym ABSOLUTE
    rom_PFAL_LC_hlstSyncTrainScanScan        0x100184d1   Thumb Code     0  QCA6174_SCAQBAFM.sym ABSOLUTE
    rom_PFAL_LC_hlstSyncTrainScanDone        0x10018547   Thumb Code     0  QCA6174_SCAQBAFM.sym ABSOLUTE
    rom_PFAL_LC_State_patch_hook             0x100185db   Thumb Code     0  QCA6174_SCAQBAFM.sym ABSOLUTE
    rom_PFAL_OS_Init                         0x10018641   Thumb Code     0  QCA6174_SCAQBAFM.sym ABSOLUTE
    PFAL_OS_CreateTask                       0x1001864f   Thumb Code     0  QCA6174_SCAQBAFM.sym ABSOLUTE
    rom_PFAL_OS_SignalEvent                  0x10018691   Thumb Code     0  QCA6174_SCAQBAFM.sym ABSOLUTE
    rom_PFAL_OS_WaitEvents                   0x10018701   Thumb Code     0  QCA6174_SCAQBAFM.sym ABSOLUTE
    rom_PFAL_OS_CreateSemas                  0x10018747   Thumb Code     0  QCA6174_SCAQBAFM.sym ABSOLUTE
    rom_PFAL_OS_AcceptSema                   0x10018777   Thumb Code     0  QCA6174_SCAQBAFM.sym ABSOLUTE
    rom_PFAL_OS_GrabSema                     0x10018785   Thumb Code     0  QCA6174_SCAQBAFM.sym ABSOLUTE
    rom_PFAL_OS_ReleaseSema                  0x10018797   Thumb Code     0  QCA6174_SCAQBAFM.sym ABSOLUTE
    OS_EventSignalAllTasks                   0x100187a5   Thumb Code     0  QCA6174_SCAQBAFM.sym ABSOLUTE
    rom_PFAL_OS_EnableInterrupts             0x100187c9   Thumb Code     0  QCA6174_SCAQBAFM.sym ABSOLUTE
    rom_PFAL_OS_DisableInterrupts            0x100187dd   Thumb Code     0  QCA6174_SCAQBAFM.sym ABSOLUTE
    rom_PFAL_PATCH_SetHeader                 0x10018815   Thumb Code     0  QCA6174_SCAQBAFM.sym ABSOLUTE
    PFAL_PATCH_SetHeaderv2                   0x100188a3   Thumb Code     0  QCA6174_SCAQBAFM.sym ABSOLUTE
    PFAL_PATCH_HashUpdatev2                  0x10018969   Thumb Code     0  QCA6174_SCAQBAFM.sym ABSOLUTE
    PFAL_PATCH_RsaVerification               0x10018989   Thumb Code     0  QCA6174_SCAQBAFM.sym ABSOLUTE
    rom_PFAL_PATCH_Attach                    0x100189dd   Thumb Code     0  QCA6174_SCAQBAFM.sym ABSOLUTE
    rom_PFAL_PATCH_GlobalDataInit            0x10018ac7   Thumb Code     0  QCA6174_SCAQBAFM.sym ABSOLUTE
    rom_PFAL_PATCH_Apply                     0x10018b33   Thumb Code     0  QCA6174_SCAQBAFM.sym ABSOLUTE
    rom_PFAL_PATCH_SetRegion                 0x10018b9f   Thumb Code     0  QCA6174_SCAQBAFM.sym ABSOLUTE
    rom_PFAL_PATCH_GetVersion                0x10018baf   Thumb Code     0  QCA6174_SCAQBAFM.sym ABSOLUTE
    rom_PFAL_PATCH_GetLength                 0x10018bb5   Thumb Code     0  QCA6174_SCAQBAFM.sym ABSOLUTE
    rom_PFAL_PATCH_LoadFromNVM               0x10018bbb   Thumb Code     0  QCA6174_SCAQBAFM.sym ABSOLUTE
    PFAL_PATCH_LoadFromNVMv2                 0x10018f0f   Thumb Code     0  QCA6174_SCAQBAFM.sym ABSOLUTE
    rom_PFAL_PATCH_StoreToNVM                0x10018fd1   Thumb Code     0  QCA6174_SCAQBAFM.sym ABSOLUTE
    OS_TaskIdle                              0x100191d5   Thumb Code     0  QCA6174_SCAQBAFM.sym ABSOLUTE
    OS_MemClr                                0x10019205   Thumb Code     0  QCA6174_SCAQBAFM.sym ABSOLUTE
    OSInit                                   0x10019219   Thumb Code     0  QCA6174_SCAQBAFM.sym ABSOLUTE
    OSIntEnter                               0x100192d9   Thumb Code     0  QCA6174_SCAQBAFM.sym ABSOLUTE
    OSIntExit                                0x100192ed   Thumb Code     0  QCA6174_SCAQBAFM.sym ABSOLUTE
    OSSchedLock                              0x1001935d   Thumb Code     0  QCA6174_SCAQBAFM.sym ABSOLUTE
    OS_Sched                                 0x10019397   Thumb Code     0  QCA6174_SCAQBAFM.sym ABSOLUTE
    OSSchedUnlock                            0x100193f5   Thumb Code     0  QCA6174_SCAQBAFM.sym ABSOLUTE
    OSStart                                  0x10019447   Thumb Code     0  QCA6174_SCAQBAFM.sym ABSOLUTE
    OSTimeTick                               0x10019479   Thumb Code     0  QCA6174_SCAQBAFM.sym ABSOLUTE
    OSVersion                                0x10019543   Thumb Code     0  QCA6174_SCAQBAFM.sym ABSOLUTE
    OS_EventTaskRemove                       0x10019549   Thumb Code     0  QCA6174_SCAQBAFM.sym ABSOLUTE
    OS_EventTaskRdy                          0x10019565   Thumb Code     0  QCA6174_SCAQBAFM.sym ABSOLUTE
    OS_EventTaskWait                         0x100195ed   Thumb Code     0  QCA6174_SCAQBAFM.sym ABSOLUTE
    OS_EventWaitListInit                     0x10019627   Thumb Code     0  QCA6174_SCAQBAFM.sym ABSOLUTE
    OS_MemCopy                               0x1001963b   Thumb Code     0  QCA6174_SCAQBAFM.sym ABSOLUTE
    OS_StrLen                                0x10019651   Thumb Code     0  QCA6174_SCAQBAFM.sym ABSOLUTE
    OS_TCBInit                               0x10019669   Thumb Code     0  QCA6174_SCAQBAFM.sym ABSOLUTE
    rom_PFAL_RM_initCfg                      0x10019745   Thumb Code     0  QCA6174_SCAQBAFM.sym ABSOLUTE
    rom_PFAL_RM_initTxCfg_EDR                0x1001974b   Thumb Code     0  QCA6174_SCAQBAFM.sym ABSOLUTE
    rom_PFAL_RM_Platform_Wake                0x1001974d   Thumb Code     0  QCA6174_SCAQBAFM.sym ABSOLUTE
    rom_PFAL_RM_Platform_PriorToSleep        0x10019757   Thumb Code     0  QCA6174_SCAQBAFM.sym ABSOLUTE
    rom_PFAL_RM_initCfgToPlatform            0x10019767   Thumb Code     0  QCA6174_SCAQBAFM.sym ABSOLUTE
    rom_PFAL_RM_radioDeInit                  0x1001979b   Thumb Code     0  QCA6174_SCAQBAFM.sym ABSOLUTE
    rom_PFAL_RM_radioWakeup                  0x100197e3   Thumb Code     0  QCA6174_SCAQBAFM.sym ABSOLUTE
    rom_PFAL_RM_progRegInit                  0x10019801   Thumb Code     0  QCA6174_SCAQBAFM.sym ABSOLUTE
    rom_PFAL_RM_setTxPower2GFSK_DEFAULT      0x100198cd   Thumb Code     0  QCA6174_SCAQBAFM.sym ABSOLUTE
    rom_PFAL_RM_setModemTempCalIndexMapping  0x100198cf   Thumb Code     0  QCA6174_SCAQBAFM.sym ABSOLUTE
    rom_PFAL_RM_filterCalibrationCode        0x100198f1   Thumb Code     0  QCA6174_SCAQBAFM.sym ABSOLUTE
    rom_PFAL_RM_temperaturePeriodicCalibration 0x1001990d   Thumb Code     0  QCA6174_SCAQBAFM.sym ABSOLUTE
    rom_PFAL_RM_tempRead_UpdateIdxValues     0x1001994d   Thumb Code     0  QCA6174_SCAQBAFM.sym ABSOLUTE
    rom_PFAL_RM_tempUpdateShadow4Sleep       0x10019a77   Thumb Code     0  QCA6174_SCAQBAFM.sym ABSOLUTE
    rom_PFAL_RM_tempUpdateShadow2HWRegisters 0x10019c31   Thumb Code     0  QCA6174_SCAQBAFM.sym ABSOLUTE
    rom_PFAL_RM_tempUpdateHWRegisters        0x10019cd3   Thumb Code     0  QCA6174_SCAQBAFM.sym ABSOLUTE
    rom_PFAL_RM_temperatureSensorIndexCalc   0x10019d23   Thumb Code     0  QCA6174_SCAQBAFM.sym ABSOLUTE
    rom_PFAL_RM_temperatureTxCoarseIndexTableUpdate 0x10019d73   Thumb Code     0  QCA6174_SCAQBAFM.sym ABSOLUTE
    rom_PFAL_RM_temperatureTxFineIndexTableUpdate 0x10019e0d   Thumb Code     0  QCA6174_SCAQBAFM.sym ABSOLUTE
    rom_PFAL_RM_temperatureRxCoarseIndexTableUpdate 0x10019e51   Thumb Code     0  QCA6174_SCAQBAFM.sym ABSOLUTE
    rom_PFAL_RM_temperatureRxCoarseIndexTableUpdate_part1 0x10019e63   Thumb Code     0  QCA6174_SCAQBAFM.sym ABSOLUTE
    rom_PFAL_RM_temperatureRxCoarseIndexTableUpdate_part2 0x10019f25   Thumb Code     0  QCA6174_SCAQBAFM.sym ABSOLUTE
    rom_PFAL_RM_temperatureRxFineIndexTableUpdate 0x10019f9d   Thumb Code     0  QCA6174_SCAQBAFM.sym ABSOLUTE
    rom_PFAL_RM_tempCalWait4NewData          0x1001a02d   Thumb Code     0  QCA6174_SCAQBAFM.sym ABSOLUTE
    rom_PFAL_RM_CalculateCorrelatorThreshold_BREDR 0x1001a067   Thumb Code     0  QCA6174_SCAQBAFM.sym ABSOLUTE
    rom_PFAL_RM_CalculateCorrelatorThreshold_LE 0x1001a225   Thumb Code     0  QCA6174_SCAQBAFM.sym ABSOLUTE
    rom_PFAL_RM_CalculateCorrelatorThreshold_ANT 0x1001a3d5   Thumb Code     0  QCA6174_SCAQBAFM.sym ABSOLUTE
    rom_PFAL_RM_initLLMPowerLevelIndexMapping 0x1001a5a9   Thumb Code     0  QCA6174_SCAQBAFM.sym ABSOLUTE
    rom_PFAL_RM_updateSSBI2_PVC_table        0x1001a62f   Thumb Code     0  QCA6174_SCAQBAFM.sym ABSOLUTE
    rom_PFAL_RM_rx_Write_SyncInfo            0x1001a64d   Thumb Code     0  QCA6174_SCAQBAFM.sym ABSOLUTE
    rom_PFAL_RM_rx_Write_RX_AGC_PDIFF_REF    0x1001a6dd   Thumb Code     0  QCA6174_SCAQBAFM.sym ABSOLUTE
    rom_PFAL_RM_disableHalfChannelTune       0x1001a6e3   Thumb Code     0  QCA6174_SCAQBAFM.sym ABSOLUTE
    rom_PFAL_RM_restoreHalfChannelTune       0x1001a6f7   Thumb Code     0  QCA6174_SCAQBAFM.sym ABSOLUTE
    rom_PFAL_RM_tx_Write_PowerCfgInfo        0x1001a705   Thumb Code     0  QCA6174_SCAQBAFM.sym ABSOLUTE
    rom_PFAL_RM_tx_Write_ModulationInfo      0x1001a719   Thumb Code     0  QCA6174_SCAQBAFM.sym ABSOLUTE
    rom_PFAL_RM_configureAnt                 0x1001a731   Thumb Code     0  QCA6174_SCAQBAFM.sym ABSOLUTE
    rom_PFAL_RM_BT_SSBI_Access               0x1001a797   Thumb Code     0  QCA6174_SCAQBAFM.sym ABSOLUTE
    rom_BT_SSBI_Peek                         0x1001a7ef   Thumb Code     0  QCA6174_SCAQBAFM.sym ABSOLUTE
    rom_BT_SSBI_Poke                         0x1001a817   Thumb Code     0  QCA6174_SCAQBAFM.sym ABSOLUTE
    rom_PFAL_TRANSPORT_Protected_SSBI_Peek   0x1001a837   Thumb Code     0  QCA6174_SCAQBAFM.sym ABSOLUTE
    rom_PFAL_TRANSPORT_Protected_SSBI_Poke   0x1001a87f   Thumb Code     0  QCA6174_SCAQBAFM.sym ABSOLUTE
    rom_PFAL_RM_SSBI_Init                    0x1001a8bf   Thumb Code     0  QCA6174_SCAQBAFM.sym ABSOLUTE
    rom_PFAL_RM_setTxLUT                     0x1001a8d9   Thumb Code     0  QCA6174_SCAQBAFM.sym ABSOLUTE
    rom_PFAL_RM_Platform_Config              0x1001a9dd   Thumb Code     0  QCA6174_SCAQBAFM.sym ABSOLUTE
    rom_PFAL_RM_RUN_BT_STARTUP_CALIBRATIONS  0x1001aacf   Thumb Code     0  QCA6174_SCAQBAFM.sym ABSOLUTE
    rom_PFAL_RM_HW_Restore_TxDcCalGainRegisters 0x1001ae65   Thumb Code     0  QCA6174_SCAQBAFM.sym ABSOLUTE
    rom_PFAL_RM_HW_RestoreShadow_TxDcCalGainRegisters 0x1001afdd   Thumb Code     0  QCA6174_SCAQBAFM.sym ABSOLUTE
    rom_PFAL_RM_HW_Restore_RxRSBCalRegisters 0x1001b135   Thumb Code     0  QCA6174_SCAQBAFM.sym ABSOLUTE
    rom_PFAL_RM_HW_RestoreShadow_RxRSBCalRegisters 0x1001b229   Thumb Code     0  QCA6174_SCAQBAFM.sym ABSOLUTE
    rom_PFAL_RM_HW_Setup_TempCalibration     0x1001b3b3   Thumb Code     0  QCA6174_SCAQBAFM.sym ABSOLUTE
    rom_PFAL_RM_HW_Configure_BT_Cal_Analog   0x1001b417   Thumb Code     0  QCA6174_SCAQBAFM.sym ABSOLUTE
    rom_PFAL_RM_HW_StartUpCal_ProcessCornerDiscovery 0x1001b483   Thumb Code     0  QCA6174_SCAQBAFM.sym ABSOLUTE
    rom_PFAL_RM_HW_StartUpCal_TxRadioCalibration 0x1001b561   Thumb Code     0  QCA6174_SCAQBAFM.sym ABSOLUTE
    rom_PFAL_RM_HW_StartUpCal_ModemTxDcCalibration 0x1001b64d   Thumb Code     0  QCA6174_SCAQBAFM.sym ABSOLUTE
    rom_PFAL_RM_HW_EvaluateElapsedTime       0x1001b973   Thumb Code     0  QCA6174_SCAQBAFM.sym ABSOLUTE
    rom_PFAL_RM_HW_CheckAvailableCalTime     0x1001b9e1   Thumb Code     0  QCA6174_SCAQBAFM.sym ABSOLUTE
    rom_PFAL_RM_HW_InitializePowerLevelLUTs  0x1001ba2b   Thumb Code     0  QCA6174_SCAQBAFM.sym ABSOLUTE
    rom_PFAL_RM_HW_Disable_TX_DC_and_DC_RSB_Mode 0x1001baa1   Thumb Code     0  QCA6174_SCAQBAFM.sym ABSOLUTE
    rom_PFAL_RM_HW_Save_TxDcCalGainRegisters 0x1001bacf   Thumb Code     0  QCA6174_SCAQBAFM.sym ABSOLUTE
    rom_PFAL_RM_HW_Clear_TxDcCalGainRegisters 0x1001bcc1   Thumb Code     0  QCA6174_SCAQBAFM.sym ABSOLUTE
    rom_PFAL_RM_HW_Configure_Tx_Rx_Analog_TxDcCal 0x1001bdd9   Thumb Code     0  QCA6174_SCAQBAFM.sym ABSOLUTE
    rom_PFAL_RM_HW_Configure_Tx_Modem_TxDcCal 0x1001beb7   Thumb Code     0  QCA6174_SCAQBAFM.sym ABSOLUTE
    rom_PFAL_RM_HW_Configure_Rx_Modem_TxDcCal 0x1001bee1   Thumb Code     0  QCA6174_SCAQBAFM.sym ABSOLUTE
    rom_PFAL_RM_HW_Measure_DC_Metrics_TxDcCal 0x1001bfd3   Thumb Code     0  QCA6174_SCAQBAFM.sym ABSOLUTE
    rom_PFAL_RM_HW_StartUpCal_TxRSBCalibration 0x1001c13f   Thumb Code     0  QCA6174_SCAQBAFM.sym ABSOLUTE
    rom_PFAL_RM_HW_Configure_Tx_Rx_Analog_TxRSBCal 0x1001c3a3   Thumb Code     0  QCA6174_SCAQBAFM.sym ABSOLUTE
    rom_PFAL_RM_HW_Configure_Tx_Modem_TxRSBCal 0x1001c47f   Thumb Code     0  QCA6174_SCAQBAFM.sym ABSOLUTE
    rom_PFAL_RM_HW_Configure_Rx_Modem_TxRSBCal 0x1001c4a9   Thumb Code     0  QCA6174_SCAQBAFM.sym ABSOLUTE
    rom_PFAL_RM_HW_StartUpCal_RxRSBCalibration 0x1001c61b   Thumb Code     0  QCA6174_SCAQBAFM.sym ABSOLUTE
    rom_PFAL_RM_HW_StartUpCal_ChannelCalibration 0x1001c8cd   Thumb Code     0  QCA6174_SCAQBAFM.sym ABSOLUTE
    rom_PFAL_RM_HW_Rx_DC_Filter_IQ_Corr_Tx_DacInterf 0x1001c903   Thumb Code     0  QCA6174_SCAQBAFM.sym ABSOLUTE
    rom_PFAL_RM_HW_Measure_Power_Metrics     0x1001c977   Thumb Code     0  QCA6174_SCAQBAFM.sym ABSOLUTE
    rom_PFAL_RM_HW_Compute_R                 0x1001cadb   Thumb Code     0  QCA6174_SCAQBAFM.sym ABSOLUTE
    rom_PFAL_RM_HW_Set_Tx_IQ_Cor_Coeffs      0x1001cb2b   Thumb Code     0  QCA6174_SCAQBAFM.sym ABSOLUTE
    rom_PFAL_RM_HW_Set_Rx_Analog_Phase_Shift 0x1001cb63   Thumb Code     0  QCA6174_SCAQBAFM.sym ABSOLUTE
    rom_PFAL_RM_HW_Set_Rx_Analog_GM_TIA_and_ADC_Gains 0x1001cb8d   Thumb Code     0  QCA6174_SCAQBAFM.sym ABSOLUTE
    rom_PFAL_RM_HW_GainLineup                0x1001cc9d   Thumb Code     0  QCA6174_SCAQBAFM.sym ABSOLUTE
    rom_PFAL_RM_HW_Measure_DC_Metrics        0x1001ccab   Thumb Code     0  QCA6174_SCAQBAFM.sym ABSOLUTE
    rom_PFAL_RM_HW_Compute_Gain_Phase_IMB_Parameters 0x1001cd77   Thumb Code     0  QCA6174_SCAQBAFM.sym ABSOLUTE
    rom_PFAL_RM_HW_Compute_Rx_IQ_Corr        0x1001d091   Thumb Code     0  QCA6174_SCAQBAFM.sym ABSOLUTE
    rom_PFAL_RM_HW_Compute_Tx_IQ_Corr        0x1001d1b9   Thumb Code     0  QCA6174_SCAQBAFM.sym ABSOLUTE
    rom_PFAL_RM_HW_Combine_Tx_Coeffs         0x1001d2df   Thumb Code     0  QCA6174_SCAQBAFM.sym ABSOLUTE
    rom_PFAL_RM_HW_Set_Rx_IQ_Cor_Coeffs      0x1001d339   Thumb Code     0  QCA6174_SCAQBAFM.sym ABSOLUTE
    rom_PFAL_RM_HW_CoexGrantMCI_CB           0x1001d453   Thumb Code     0  QCA6174_SCAQBAFM.sym ABSOLUTE
    rom_PFAL_RM_HW_Store_Registers_RxRSBCal  0x1001d467   Thumb Code     0  QCA6174_SCAQBAFM.sym ABSOLUTE
    rom_PFAL_RM_HW_Configure_Tx_Rx_Analog_RxRSBCal 0x1001d53f   Thumb Code     0  QCA6174_SCAQBAFM.sym ABSOLUTE
    rom_PFAL_RM_HW_Configure_Tx_Modem_RxRSBCal 0x1001d767   Thumb Code     0  QCA6174_SCAQBAFM.sym ABSOLUTE
    rom_PFAL_RM_HW_Configure_Rx_Modem_RxRSBCal 0x1001d879   Thumb Code     0  QCA6174_SCAQBAFM.sym ABSOLUTE
    rom_PFAL_RM_HW_fixLongSettlingTime_LoopbackPath 0x1001db51   Thumb Code     0  QCA6174_SCAQBAFM.sym ABSOLUTE
    rom_PFAL_RM_HW_RxModemControl            0x1001db9d   Thumb Code     0  QCA6174_SCAQBAFM.sym ABSOLUTE
    rom_PFAL_RM_HW_TxModemControl            0x1001dbeb   Thumb Code     0  QCA6174_SCAQBAFM.sym ABSOLUTE
    rom_PFAL_RM_HW_PowerMetricsControl       0x1001dd09   Thumb Code     0  QCA6174_SCAQBAFM.sym ABSOLUTE
    rom_PFAL_RM_HW_DCMetricsControl          0x1001dd35   Thumb Code     0  QCA6174_SCAQBAFM.sym ABSOLUTE
    rom_PFAL_RM_HW_Set_DC_I_Tx               0x1001dd61   Thumb Code     0  QCA6174_SCAQBAFM.sym ABSOLUTE
    rom_PFAL_RM_HW_Set_DC_Q_Tx               0x1001dd8f   Thumb Code     0  QCA6174_SCAQBAFM.sym ABSOLUTE
    rom_PFAL_RM_HW_Turn_OFF_SLNA             0x1001ddbd   Thumb Code     0  QCA6174_SCAQBAFM.sym ABSOLUTE
    rom_PFAL_RM_HW_FixedPointAdd             0x1001dde7   Thumb Code     0  QCA6174_SCAQBAFM.sym ABSOLUTE
    rom_PFAL_RM_HW_FixedPointSubtract        0x1001de2b   Thumb Code     0  QCA6174_SCAQBAFM.sym ABSOLUTE
    rom_PFAL_RM_HW_Round_Signed              0x1001de6f   Thumb Code     0  QCA6174_SCAQBAFM.sym ABSOLUTE
    rom_PFAL_RM_HW_Round_Unsigned            0x1001de8f   Thumb Code     0  QCA6174_SCAQBAFM.sym ABSOLUTE
    rom_PFAL_RM_HW_32BitBoundaryCheckWithResult_Round_Signed 0x1001dea3   Thumb Code     0  QCA6174_SCAQBAFM.sym ABSOLUTE
    rom_PFAL_RM_HW_32BitBoundaryCheckWithResult_Signed 0x1001df11   Thumb Code     0  QCA6174_SCAQBAFM.sym ABSOLUTE
    rom_PFAL_RM_HW_32BitBoundaryCheckWithResult_Unsigned 0x1001df73   Thumb Code     0  QCA6174_SCAQBAFM.sym ABSOLUTE
    rom_PFAL_RM_HW_COS                       0x1001dfa9   Thumb Code     0  QCA6174_SCAQBAFM.sym ABSOLUTE
    rom_PFAL_RM_HW_SIN                       0x1001dfc9   Thumb Code     0  QCA6174_SCAQBAFM.sym ABSOLUTE
    rom_PFAL_RM_HW_ReadPackedBits            0x1001dfe9   Thumb Code     0  QCA6174_SCAQBAFM.sym ABSOLUTE
    rom_PFAL_RM_HW_ValidateRegisterReadSignedValue 0x1001e02b   Thumb Code     0  QCA6174_SCAQBAFM.sym ABSOLUTE
    rom_PFAL_RM_RX_Get_Normalized_RSSI_Rome  0x1001e035   Thumb Code     0  QCA6174_SCAQBAFM.sym ABSOLUTE
    rom_PFAL_RM_RX_Get_Normalized_RSSI_Iris  0x1001e12b   Thumb Code     0  QCA6174_SCAQBAFM.sym ABSOLUTE
    rom_PFAL_IM_BT_LPO_CAL_DONE_INT_Handler  0x1001e14d   Thumb Code     0  QCA6174_SCAQBAFM.sym ABSOLUTE
    rom_PFAL_IM_WAKE_INT_Handler             0x1001e1db   Thumb Code     0  QCA6174_SCAQBAFM.sym ABSOLUTE
    rom_PFAL_SLEEP_Init                      0x1001e23d   Thumb Code     0  QCA6174_SCAQBAFM.sym ABSOLUTE
    rom_PFAL_SLEEP_StartClockCalibration     0x1001e2dd   Thumb Code     0  QCA6174_SCAQBAFM.sym ABSOLUTE
    rom_PFAL_SLEEP_PreProcessing             0x1001e2fb   Thumb Code     0  QCA6174_SCAQBAFM.sym ABSOLUTE
    rom_PFAL_SLEEP_EnterNap                  0x1001e379   Thumb Code     0  QCA6174_SCAQBAFM.sym ABSOLUTE
    rom_PFAL_SLEEP_StartWakeupTimer          0x1001e3b1   Thumb Code     0  QCA6174_SCAQBAFM.sym ABSOLUTE
    rom_PFAL_SLEEP_SaveContext               0x1001e3f7   Thumb Code     0  QCA6174_SCAQBAFM.sym ABSOLUTE
    rom_PFAL_SLEEP_RestoreContext            0x1001e409   Thumb Code     0  QCA6174_SCAQBAFM.sym ABSOLUTE
    rom_PFAL_SLEEP_EnterDeepSleep            0x1001e433   Thumb Code     0  QCA6174_SCAQBAFM.sym ABSOLUTE
    rom_PFAL_SLEEP_WakeInterruptConnect      0x1001e62f   Thumb Code     0  QCA6174_SCAQBAFM.sym ABSOLUTE
    PFAL_SYS_RefTypeToFreq                   0x1001e655   Thumb Code     0  QCA6174_SCAQBAFM.sym ABSOLUTE
    rom_PFAL_SYS_programClockRegs_4_RefFrequency 0x1001e665   Thumb Code     0  QCA6174_SCAQBAFM.sym ABSOLUTE
    rom_PFAL_SYS_SoCInit                     0x1001e6f5   Thumb Code     0  QCA6174_SCAQBAFM.sym ABSOLUTE
    PFAL_FASTBOOT_LC_ISR                     0x1001e71d   Thumb Code     0  QCA6174_SCAQBAFM.sym ABSOLUTE
    PFAL_FASTBOOT_LC_Handler                 0x1001e7a9   Thumb Code     0  QCA6174_SCAQBAFM.sym ABSOLUTE
    FASTBOOT_SYSTICK_HOOK                    0x1001e7ab   Thumb Code     0  QCA6174_SCAQBAFM.sym ABSOLUTE
    PFAL_WiPower_ReadNVM                     0x1001e7c1   Thumb Code     0  QCA6174_SCAQBAFM.sym ABSOLUTE
    PFAL_SYS_WiPower_Init                    0x1001e825   Thumb Code     0  QCA6174_SCAQBAFM.sym ABSOLUTE
    PFAL_WiPower_FastBoot                    0x1001e8a1   Thumb Code     0  QCA6174_SCAQBAFM.sym ABSOLUTE
    PFAL_SYS_Start                           0x1001ec9d   Thumb Code     0  QCA6174_SCAQBAFM.sym ABSOLUTE
    PFAL_SYS_ResetInit                       0x1001ee01   Thumb Code     0  QCA6174_SCAQBAFM.sym ABSOLUTE
    rom_PFAL_SYS_PostResetInit               0x1001ee03   Thumb Code     0  QCA6174_SCAQBAFM.sym ABSOLUTE
    PFAL_SYS_PreInit                         0x1001ee67   Thumb Code     0  QCA6174_SCAQBAFM.sym ABSOLUTE
    PFAL_SYS_Init                            0x1001ee85   Thumb Code     0  QCA6174_SCAQBAFM.sym ABSOLUTE
    rom_PFAL_SYS_SetWakeCacheSetting         0x1001ef83   Thumb Code     0  QCA6174_SCAQBAFM.sym ABSOLUTE
    rom_PFAL_SYS_WakeInit                    0x1001ef89   Thumb Code     0  QCA6174_SCAQBAFM.sym ABSOLUTE
    rom_PFAL_SYS_Reset                       0x1001f00d   Thumb Code     0  QCA6174_SCAQBAFM.sym ABSOLUTE
    rom_PFAL_SYS_HaltSystemInterrupts        0x1001f01b   Thumb Code     0  QCA6174_SCAQBAFM.sym ABSOLUTE
    rom_PFAL_PROC_HandleProcessorException   0x1001f039   Thumb Code     0  QCA6174_SCAQBAFM.sym ABSOLUTE
    PFAL_SYS_writePatch                      0x1001f0d1   Thumb Code     0  QCA6174_SCAQBAFM.sym ABSOLUTE
    rom_PFAL_SYS_readPatch                   0x1001f0e9   Thumb Code     0  QCA6174_SCAQBAFM.sym ABSOLUTE
    rom_PFAL_SYS_isPatchAvailable            0x1001f111   Thumb Code     0  QCA6174_SCAQBAFM.sym ABSOLUTE
    rom_PFAL_SYS_programRmClockRegs          0x1001f129   Thumb Code     0  QCA6174_SCAQBAFM.sym ABSOLUTE
    rom_PFAL_SYS_initClocks                  0x1001f147   Thumb Code     0  QCA6174_SCAQBAFM.sym ABSOLUTE
    rom_PFAL_SYS_InitBBClk                   0x1001f15b   Thumb Code     0  QCA6174_SCAQBAFM.sym ABSOLUTE
    rom_PFAL_SYS_progClkUsingFreqSelection   0x1001f19f   Thumb Code     0  QCA6174_SCAQBAFM.sym ABSOLUTE
    rom_PFAL_SYS_requestPowerMode            0x1001f1c9   Thumb Code     0  QCA6174_SCAQBAFM.sym ABSOLUTE
    rom_PFAL_SYS_GPIO_POWERUP_WAKE_ISR       0x1001f367   Thumb Code     0  QCA6174_SCAQBAFM.sym ABSOLUTE
    rom_PFAL_SYS_GPIO_POWERDOWN_WAKE_ISR     0x1001f3c1   Thumb Code     0  QCA6174_SCAQBAFM.sym ABSOLUTE
    PFAL_SYS_OWI_POWERUP_INT_Handler         0x1001f417   Thumb Code     0  QCA6174_SCAQBAFM.sym ABSOLUTE
    PFAL_SYS_OWI_POWERDOWN_INT_Handler       0x1001f455   Thumb Code     0  QCA6174_SCAQBAFM.sym ABSOLUTE
    rom_PFAL_SYS_EnableOWIWakeupInt          0x1001f493   Thumb Code     0  QCA6174_SCAQBAFM.sym ABSOLUTE
    rom_PFAL_SYS_DisableOWIWakeupInt         0x1001f561   Thumb Code     0  QCA6174_SCAQBAFM.sym ABSOLUTE
    rom_PFAL_SYS_FreqToRefType               0x1001f625   Thumb Code     0  QCA6174_SCAQBAFM.sym ABSOLUTE
    rom_PFAL_SYS_ClockRegWrite               0x1001f63f   Thumb Code     0  QCA6174_SCAQBAFM.sym ABSOLUTE
    rom_PFAL_SYS_programClockRegs            0x1001f647   Thumb Code     0  QCA6174_SCAQBAFM.sym ABSOLUTE
    rom_PFAL_SYS_DFU_Start                   0x1001f735   Thumb Code     0  QCA6174_SCAQBAFM.sym ABSOLUTE
    PFAL_SYS_EDL                             0x1001f763   Thumb Code     0  QCA6174_SCAQBAFM.sym ABSOLUTE
    rom_PFAL_SYS_EDL_Start                   0x1001f83b   Thumb Code     0  QCA6174_SCAQBAFM.sym ABSOLUTE
    rom_PFAL_SYS_EDL_UART_fillRxLL           0x1001f9c1   Thumb Code     0  QCA6174_SCAQBAFM.sym ABSOLUTE
    rom_PFAL_SYS_EDL_ProcessCommand          0x1001fb07   Thumb Code     0  QCA6174_SCAQBAFM.sym ABSOLUTE
    rom_PFAL_SYS_EDL_SendStatus              0x1002054f   Thumb Code     0  QCA6174_SCAQBAFM.sym ABSOLUTE
    rom_PFAL_SYS_EDL_SendTLVStatus           0x10020577   Thumb Code     0  QCA6174_SCAQBAFM.sym ABSOLUTE
    rom_PFAL_SYS_EDL_SendVersionInteger      0x10020599   Thumb Code     0  QCA6174_SCAQBAFM.sym ABSOLUTE
    rom_PFAL_SYS_EDL_SendUploadResponse      0x100205ed   Thumb Code     0  QCA6174_SCAQBAFM.sym ABSOLUTE
    rom_PFAL_SYS_EDL_SendVersion             0x1002063f   Thumb Code     0  QCA6174_SCAQBAFM.sym ABSOLUTE
    rom_PFAL_SYS_EDL_SendPeek16Response      0x10020685   Thumb Code     0  QCA6174_SCAQBAFM.sym ABSOLUTE
    rom_PFAL_SYS_EDL_SendCalibrationDatalog  0x100206ef   Thumb Code     0  QCA6174_SCAQBAFM.sym ABSOLUTE
    rom_PFAL_SYS_EDL_HandleSSBIPeek          0x10020763   Thumb Code     0  QCA6174_SCAQBAFM.sym ABSOLUTE
    rom_PFAL_SYS_EDL_HandleSSBIPoke          0x100207b9   Thumb Code     0  QCA6174_SCAQBAFM.sym ABSOLUTE
    rom_PFAL_SYS_EDL_SendEvent               0x10020809   Thumb Code     0  QCA6174_SCAQBAFM.sym ABSOLUTE
    rom_PFAL_SYS_EDL_SuperEDL_Init           0x1002085f   Thumb Code     0  QCA6174_SCAQBAFM.sym ABSOLUTE
    rom_PFAL_SYS_EDL_Rome_TempCal            0x100209af   Thumb Code     0  QCA6174_SCAQBAFM.sym ABSOLUTE
    rom_PFAL_SYS_EDL_TempCalOffsetCalc       0x10020b29   Thumb Code     0  QCA6174_SCAQBAFM.sym ABSOLUTE
    rom_PFAL_SYS_EDL_LPPS                    0x10020c11   Thumb Code     0  QCA6174_SCAQBAFM.sym ABSOLUTE
    rom_PFAL_SYS_EDL_LPPS_BIST               0x10020eb7   Thumb Code     0  QCA6174_SCAQBAFM.sym ABSOLUTE
    rom_PFAL_SYS_EDL_Rx_BERT_Disable_and_Status 0x10021041   Thumb Code     0  QCA6174_SCAQBAFM.sym ABSOLUTE
    rom_PFAL_SYS_EDL_Rx_BERT_Setup           0x1002108f   Thumb Code     0  QCA6174_SCAQBAFM.sym ABSOLUTE
    rom_PFAL_SYS_EDL_Rx_BERT                 0x1002115f   Thumb Code     0  QCA6174_SCAQBAFM.sym ABSOLUTE
    rom_PFAL_SYS_EDL_hciReset                0x10021409   Thumb Code     0  QCA6174_SCAQBAFM.sym ABSOLUTE
    rom_PFAL_SYS_EDL_MemBist                 0x10021431   Thumb Code     0  QCA6174_SCAQBAFM.sym ABSOLUTE
    rom_PFAL_SYS_EDL_RAMBist                 0x10021461   Thumb Code     0  QCA6174_SCAQBAFM.sym ABSOLUTE
    rom_PFAL_SYS_EDL_ROMBist                 0x1002146d   Thumb Code     0  QCA6174_SCAQBAFM.sym ABSOLUTE
    rom_PFAL_SYS_EDL_NapTest                 0x100214bf   Thumb Code     0  QCA6174_SCAQBAFM.sym ABSOLUTE
    rom_PFAL_SYS_EDL_SleepTest               0x100214ff   Thumb Code     0  QCA6174_SCAQBAFM.sym ABSOLUTE
    rom_PFAL_SYS_EDL_PCMLoopback             0x100215e7   Thumb Code     0  QCA6174_SCAQBAFM.sym ABSOLUTE
    rom_PFAL_UART_IOP_Init                   0x10021855   Thumb Code     0  QCA6174_SCAQBAFM.sym ABSOLUTE
    rom_PFAL_UART_IOP_RunSetup               0x10021887   Thumb Code     0  QCA6174_SCAQBAFM.sym ABSOLUTE
    rom_PFAL_UART_IOP_RunTxRx                0x100218c5   Thumb Code     0  QCA6174_SCAQBAFM.sym ABSOLUTE
    rom_PFAL_UART_CalculateBaudRegisters     0x1002195b   Thumb Code     0  QCA6174_SCAQBAFM.sym ABSOLUTE
    rom_PFAL_UART_CalculateRefClk            0x10021983   Thumb Code     0  QCA6174_SCAQBAFM.sym ABSOLUTE
    rom_PFAL_IM_BTC_CLKN_CMPR0_INT_Handler   0x100219b9   Thumb Code     0  QCA6174_SCAQBAFM.sym ABSOLUTE
    rom_PFAL_IM_BTC_CLKN_CMPR1_INT_Handler   0x100219f7   Thumb Code     0  QCA6174_SCAQBAFM.sym ABSOLUTE
    rom_PFAL_IM_ACI_TX_INT_Handler           0x10021a35   Thumb Code     0  QCA6174_SCAQBAFM.sym ABSOLUTE
    rom_PFAL_VOICE_Init                      0x10021a73   Thumb Code     0  QCA6174_SCAQBAFM.sym ABSOLUTE
    rom_PFAL_VOICE_UpdateSettings            0x10021ab3   Thumb Code     0  QCA6174_SCAQBAFM.sym ABSOLUTE
    rom_PFAL_VOICE_AllocChan                 0x10021abd   Thumb Code     0  QCA6174_SCAQBAFM.sym ABSOLUTE
    rom_PFAL_VOICE_FreeChan                  0x10021ac5   Thumb Code     0  QCA6174_SCAQBAFM.sym ABSOLUTE
    rom_PFAL_VOICE_UpdateChan                0x10021acd   Thumb Code     0  QCA6174_SCAQBAFM.sym ABSOLUTE
    rom_PFAL_VOICE_StopChan                  0x10021adb   Thumb Code     0  QCA6174_SCAQBAFM.sym ABSOLUTE
    rom_PFAL_VOICE_AudioSpkrISR              0x10021ae3   Thumb Code     0  QCA6174_SCAQBAFM.sym ABSOLUTE
    rom_PFAL_VOICE_AudioMicISR               0x10021aeb   Thumb Code     0  QCA6174_SCAQBAFM.sym ABSOLUTE
    rom_PFAL_VOICE_SetupNextAudioSpkrInterrupt 0x10021af3   Thumb Code     0  QCA6174_SCAQBAFM.sym ABSOLUTE
    rom_PFAL_VOICE_SetupNextAudioMicInterrupt 0x10021ba9   Thumb Code     0  QCA6174_SCAQBAFM.sym ABSOLUTE
    rom_PFAL_VOICE_RxErroneousDataProcess    0x10021c5f   Thumb Code     0  QCA6174_SCAQBAFM.sym ABSOLUTE
    rom_PFAL_VOICE_BasebandProcessingNonRT   0x10021d55   Thumb Code     0  QCA6174_SCAQBAFM.sym ABSOLUTE
    rom_PFAL_VOICE_ScoTxData                 0x10021d57   Thumb Code     0  QCA6174_SCAQBAFM.sym ABSOLUTE
    rom_PFAL_VOICE_ScoRxData                 0x10021d5f   Thumb Code     0  QCA6174_SCAQBAFM.sym ABSOLUTE
    rom_PFAL_VOICE_ScoRxDataNotify           0x10021d67   Thumb Code     0  QCA6174_SCAQBAFM.sym ABSOLUTE
    rom_PFAL_VOICE_ErroneousDataProcess1Packet 0x10021d6f   Thumb Code     0  QCA6174_SCAQBAFM.sym ABSOLUTE
    rom_PFAL_VOICE_ErroneousDataProcess2Packets 0x10021e15   Thumb Code     0  QCA6174_SCAQBAFM.sym ABSOLUTE
    rom_PFAL_VOICE_ErroneousDataProcess3Packets 0x10021e3d   Thumb Code     0  QCA6174_SCAQBAFM.sym ABSOLUTE
    rom_PFAL_VOICE_LogData                   0x10021f8b   Thumb Code     0  QCA6174_SCAQBAFM.sym ABSOLUTE
    rom_PFAL_VOICE_setHandoffPending         0x1002211b   Thumb Code     0  QCA6174_SCAQBAFM.sym ABSOLUTE
    rom_PFAL_VOICE_doResourceHandoff         0x10022157   Thumb Code     0  QCA6174_SCAQBAFM.sym ABSOLUTE
    rom_PFAL_VOICE_ScoTxSilence              0x10022189   Thumb Code     0  QCA6174_SCAQBAFM.sym ABSOLUTE
    rom_PFAL_VOICE_GetResourceOwner          0x100221b3   Thumb Code     0  QCA6174_SCAQBAFM.sym ABSOLUTE
    rom_PFAL_VOICE_GetResourceContender      0x100221b9   Thumb Code     0  QCA6174_SCAQBAFM.sym ABSOLUTE
    rom_PFAL_VOICE_SetLoopbackMode           0x100221c1   Thumb Code     0  QCA6174_SCAQBAFM.sym ABSOLUTE
    rom_PFAL_VOICE_GetLoopbackMode           0x100221c7   Thumb Code     0  QCA6174_SCAQBAFM.sym ABSOLUTE
    rom_HCI_SCO_Is_Flowcontrol_Enabled       0x10022275   Thumb Code     0  QCA6174_SCAQBAFM.sym ABSOLUTE
    rom_PFAL_VOICE_HCI_SCO_Init_Buffs        0x10022279   Thumb Code     0  QCA6174_SCAQBAFM.sym ABSOLUTE
    PFAL_VOICE_HCI_SCO_Start                 0x100222f1   Thumb Code     0  QCA6174_SCAQBAFM.sym ABSOLUTE
    PFAL_VOICE_HCI_SCO_Stop                  0x1002230d   Thumb Code     0  QCA6174_SCAQBAFM.sym ABSOLUTE
    PFAL_VOICE_HCI_SCO_Is_Ready              0x1002231f   Thumb Code     0  QCA6174_SCAQBAFM.sym ABSOLUTE
    PFAL_VOICE_HCI_SCO_Get_Throughput_Unit   0x10022327   Thumb Code     0  QCA6174_SCAQBAFM.sym ABSOLUTE
    PFAL_VOICE_HCI_SCO_Get_Sample_Size       0x1002234b   Thumb Code     0  QCA6174_SCAQBAFM.sym ABSOLUTE
    rom_PFAL_VOICE_HCI_SCO_Set_Conn_Handle   0x10022351   Thumb Code     0  QCA6174_SCAQBAFM.sym ABSOLUTE
    PFAL_VOICE_HCI_SCO_Get_Sink_Sample_Count 0x10022357   Thumb Code     0  QCA6174_SCAQBAFM.sym ABSOLUTE
    PFAL_VOICE_HCI_SCO_Get_Sink_Free_Space   0x1002239b   Thumb Code     0  QCA6174_SCAQBAFM.sym ABSOLUTE
    PFAL_VOICE_HCI_SCO_Get_Empty_Smpl_Buff_from_Sink 0x100223b5   Thumb Code     0  QCA6174_SCAQBAFM.sym ABSOLUTE
    PFAL_VOICE_HCI_SCO_Return_Smpl_with_Status_to_Sink 0x10022431   Thumb Code     0  QCA6174_SCAQBAFM.sym ABSOLUTE
    rom_PFAL_VOICE_HCI_SCO_Update_Free_Host_Rx_Buff_Cnt 0x10022491   Thumb Code     0  QCA6174_SCAQBAFM.sym ABSOLUTE
    PFAL_VOICE_HCI_SCO_Get_SCO_Pkt_from_Source 0x10022497   Thumb Code     0  QCA6174_SCAQBAFM.sym ABSOLUTE
    PFAL_VOICE_HCI_SCO_Return_Emp_SCO_Buff_to_Source 0x100224e3   Thumb Code     0  QCA6174_SCAQBAFM.sym ABSOLUTE
    PFAL_VOICE_HCI_SCO_Get_Source_Sample_Count 0x100224ff   Thumb Code     0  QCA6174_SCAQBAFM.sym ABSOLUTE
    PFAL_VOICE_HCI_SCO_Get_Samples_from_Source 0x10022539   Thumb Code     0  QCA6174_SCAQBAFM.sym ABSOLUTE
    PFAL_VOICE_HCI_SCO_Return_Emp_Smpl_Buff_to_Source 0x100225dd   Thumb Code     0  QCA6174_SCAQBAFM.sym ABSOLUTE
    PFAL_VOICE_HCI_SCO_Get_Emp_SCO_Buff_from_Sink 0x10022627   Thumb Code     0  QCA6174_SCAQBAFM.sym ABSOLUTE
    PFAL_VOICE_HCI_SCO_Return_SCO_Pkt_to_Sink 0x100226bd   Thumb Code     0  QCA6174_SCAQBAFM.sym ABSOLUTE
    PFAL_VOICE_HCI_SCO_Fill_TxBuffs          0x10022729   Thumb Code     0  QCA6174_SCAQBAFM.sym ABSOLUTE
    PFAL_VOICE_HCI_SCO_Fill_RxBuffs          0x10022751   Thumb Code     0  QCA6174_SCAQBAFM.sym ABSOLUTE
    rom_PFAL_VOICE_HCI_SCO_Config            0x1002277b   Thumb Code     0  QCA6174_SCAQBAFM.sym ABSOLUTE
    rom_PFAL_VOICE_HCI_SCO_Set_Payload_Size  0x100227a5   Thumb Code     0  QCA6174_SCAQBAFM.sym ABSOLUTE
    rom_PFAL_VOICE_HCI_SCO_Set_Transport     0x100227bd   Thumb Code     0  QCA6174_SCAQBAFM.sym ABSOLUTE
    rom_PFAL_VOICE_HCI_SCO_Init              0x100227d5   Thumb Code     0  QCA6174_SCAQBAFM.sym ABSOLUTE
    PFAL_OTP_Open                            0x10022825   Thumb Code     0  QCA6174_SCAQBAFM.sym ABSOLUTE
    PFAL_OTP_Close                           0x10022845   Thumb Code     0  QCA6174_SCAQBAFM.sym ABSOLUTE
    PFAL_OTP_Read                            0x1002284d   Thumb Code     0  QCA6174_SCAQBAFM.sym ABSOLUTE
    rom_PFAL_OTP_Write                       0x10022871   Thumb Code     0  QCA6174_SCAQBAFM.sym ABSOLUTE
    rom_PFAL_FS_SetDevFunctions              0x10022895   Thumb Code     0  QCA6174_SCAQBAFM.sym ABSOLUTE
    rom_PFAL_FS_FileName2ID                  0x1002289b   Thumb Code     0  QCA6174_SCAQBAFM.sym ABSOLUTE
    rom_PFAL_FS_LoadFsInfo                   0x100228bd   Thumb Code     0  QCA6174_SCAQBAFM.sym ABSOLUTE
    rom_PFAL_FS_Recycle                      0x10022a5b   Thumb Code     0  QCA6174_SCAQBAFM.sym ABSOLUTE
    rom_PFAL_FS_DataBlkAligned               0x10022b25   Thumb Code     0  QCA6174_SCAQBAFM.sym ABSOLUTE
    rom_PFAL_FS_GetFreeMem                   0x10022b43   Thumb Code     0  QCA6174_SCAQBAFM.sym ABSOLUTE
    rom_PFAL_FS_Init                         0x10022bdb   Thumb Code     0  QCA6174_SCAQBAFM.sym ABSOLUTE
    rom_PFAL_FS_CreateFile                   0x10022db7   Thumb Code     0  QCA6174_SCAQBAFM.sym ABSOLUTE
    rom_PFAL_FS_OpenFile                     0x10022f33   Thumb Code     0  QCA6174_SCAQBAFM.sym ABSOLUTE
    rom_PFAL_FS_GetFileLen                   0x10022fd1   Thumb Code     0  QCA6174_SCAQBAFM.sym ABSOLUTE
    rom_PFAL_FS_WriteFile                    0x1002301f   Thumb Code     0  QCA6174_SCAQBAFM.sym ABSOLUTE
    rom_PFAL_FS_ReadFile                     0x100233b1   Thumb Code     0  QCA6174_SCAQBAFM.sym ABSOLUTE
    rom_PFAL_FS_CloseFile                    0x10023517   Thumb Code     0  QCA6174_SCAQBAFM.sym ABSOLUTE
    rom_PFAL_FS_DeleteFile                   0x1002359b   Thumb Code     0  QCA6174_SCAQBAFM.sym ABSOLUTE
    rom_PFAL_FS_Format                       0x1002360d   Thumb Code     0  QCA6174_SCAQBAFM.sym ABSOLUTE
    rom_CFG_BT_Init                          0x100238e5   Thumb Code     0  QCA6174_SCAQBAFM.sym ABSOLUTE
    rom_CFG_BT_GetConfigParameterInfo        0x100238f3   Thumb Code     0  QCA6174_SCAQBAFM.sym ABSOLUTE
    rom_CFG_BT_GetTagEntry                   0x10023a1b   Thumb Code     0  QCA6174_SCAQBAFM.sym ABSOLUTE
    rom_CFG_Voice_Init                       0x10023a69   Thumb Code     0  QCA6174_SCAQBAFM.sym ABSOLUTE
    rom_CFG_Voice_GetConfigParameterInfo     0x10023a77   Thumb Code     0  QCA6174_SCAQBAFM.sym ABSOLUTE
    rom_CFG_Voice_GetTagEntry                0x10023ab7   Thumb Code     0  QCA6174_SCAQBAFM.sym ABSOLUTE
    rom_PF_OS_AllocateStaticFMB              0x10023acd   Thumb Code     0  QCA6174_SCAQBAFM.sym ABSOLUTE
    rom_PF_DBG_Init                          0x10023c75   Thumb Code     0  QCA6174_SCAQBAFM.sym ABSOLUTE
    rom_PF_DBG_InitHW                        0x10023c7b   Thumb Code     0  QCA6174_SCAQBAFM.sym ABSOLUTE
    rom_PF_DBG_StartLogger                   0x10023c8f   Thumb Code     0  QCA6174_SCAQBAFM.sym ABSOLUTE
    rom_PF_DBG_LogTransmitQueuedData         0x10023cb1   Thumb Code     0  QCA6174_SCAQBAFM.sym ABSOLUTE
    rom_PF_DBG_LogEnqueueData                0x10023d03   Thumb Code     0  QCA6174_SCAQBAFM.sym ABSOLUTE
    rom_PF_DBG_LogEnqueueHdr                 0x10023d21   Thumb Code     0  QCA6174_SCAQBAFM.sym ABSOLUTE
    rom_PF_DBG_SendLogEventToHost            0x10023d65   Thumb Code     0  QCA6174_SCAQBAFM.sym ABSOLUTE
    rom_BKGD_init                            0x10023e49   Thumb Code     0  QCA6174_SCAQBAFM.sym ABSOLUTE
    rom_BKGD_SystemReady                     0x10023e73   Thumb Code     0  QCA6174_SCAQBAFM.sym ABSOLUTE
    rom_BKGD_PreReset                        0x10023ecf   Thumb Code     0  QCA6174_SCAQBAFM.sym ABSOLUTE
    rom_BKGD_Reset                           0x10023eef   Thumb Code     0  QCA6174_SCAQBAFM.sym ABSOLUTE
    rom_BKGD_TimerPeriodEval                 0x10023f0d   Thumb Code     0  QCA6174_SCAQBAFM.sym ABSOLUTE
    rom_BKGD_ActivityFreqSet                 0x10023f65   Thumb Code     0  QCA6174_SCAQBAFM.sym ABSOLUTE
    BKGD_ProcTimer_BACKGROUND_DISPLAY        0x10023fa1   Thumb Code     0  QCA6174_SCAQBAFM.sym ABSOLUTE
    rom_BKGD_ProcE_DATA_READY                0x10024039   Thumb Code     0  QCA6174_SCAQBAFM.sym ABSOLUTE
    rom_BKGD_DisplayData                     0x10024059   Thumb Code     0  QCA6174_SCAQBAFM.sym ABSOLUTE
    rom_BKGD_DisplayDataLL                   0x1002407d   Thumb Code     0  QCA6174_SCAQBAFM.sym ABSOLUTE
    rom_BKGD_LogData                         0x1002478d   Thumb Code     0  QCA6174_SCAQBAFM.sym ABSOLUTE
    rom_BKGD_InitSDBloggerCounters           0x1002484d   Thumb Code     0  QCA6174_SCAQBAFM.sym ABSOLUTE
    rom_BKGD_DisplayDataUL                   0x10024885   Thumb Code     0  QCA6174_SCAQBAFM.sym ABSOLUTE
    BKGD_ProcE_EVAL_CHAN_CLASS               0x10024887   Thumb Code     0  QCA6174_SCAQBAFM.sym ABSOLUTE
    rom_HCI_ProcE_LL2HCI_ACL_MSG             0x100248c9   Thumb Code     0  QCA6174_SCAQBAFM.sym ABSOLUTE
    rom_HCI_GetNextAclPkt                    0x100248dd   Thumb Code     0  QCA6174_SCAQBAFM.sym ABSOLUTE
    rom_HCI_FindValidAclPkt                  0x100249a3   Thumb Code     0  QCA6174_SCAQBAFM.sym ABSOLUTE
    rom_HCI_ProcQ_HOST_CMD_RX                0x100249e3   Thumb Code     0  QCA6174_SCAQBAFM.sym ABSOLUTE
    rom_HCI_ProcessResetCommand              0x10024d8b   Thumb Code     0  QCA6174_SCAQBAFM.sym ABSOLUTE
    rom_HCI_ProcQ_HOST_EXT_RX_A              0x10024e73   Thumb Code     0  QCA6174_SCAQBAFM.sym ABSOLUTE
    rom_HCI_ProcQ_HOST_SCO_RX                0x10024e9b   Thumb Code     0  QCA6174_SCAQBAFM.sym ABSOLUTE
    rom_HCI_ProcE_CMD_BUF_OVERFLOW           0x10024eb9   Thumb Code     0  QCA6174_SCAQBAFM.sym ABSOLUTE
    rom_HCI_ProcE_ACL_BUF_OVERFLOW           0x10024edb   Thumb Code     0  QCA6174_SCAQBAFM.sym ABSOLUTE
    rom_HCI_ProcE_SCO_BUF_OVERFLOW           0x10024f23   Thumb Code     0  QCA6174_SCAQBAFM.sym ABSOLUTE
    rom_HCI_ProcE_DATA_FROM_HOST_READY       0x10024f45   Thumb Code     0  QCA6174_SCAQBAFM.sym ABSOLUTE
    rom_HCI_ProcE_RESET_RANDOM_SEED_COMPLETE 0x10024f55   Thumb Code     0  QCA6174_SCAQBAFM.sym ABSOLUTE
    rom_HCI_ProcE_DATA_TO_HOST_READY         0x10024f57   Thumb Code     0  QCA6174_SCAQBAFM.sym ABSOLUTE
    rom_HCI_ProcE_ANT_CMD_FROM_HOST_READY    0x10024f79   Thumb Code     0  QCA6174_SCAQBAFM.sym ABSOLUTE
    rom_HCI_ProcE_ANT_EVENT_TO_HOST_READY    0x10024f89   Thumb Code     0  QCA6174_SCAQBAFM.sym ABSOLUTE
    rom_HCI_ProcE_ANT_DATA_FROM_HOST_READY   0x10024f9d   Thumb Code     0  QCA6174_SCAQBAFM.sym ABSOLUTE
    rom_HCI_ProcE_ANT_DATA_TO_HOST_READY     0x10024fad   Thumb Code     0  QCA6174_SCAQBAFM.sym ABSOLUTE
    rom_HCI_ProcE_TXP_UPDATE                 0x10024fc1   Thumb Code     0  QCA6174_SCAQBAFM.sym ABSOLUTE
    rom_HCI_ProcE_TXP_EVENT                  0x10024fc7   Thumb Code     0  QCA6174_SCAQBAFM.sym ABSOLUTE
    rom_UpdateFlowControlData                0x10024fd5   Thumb Code     0  QCA6174_SCAQBAFM.sym ABSOLUTE
    rom_HCI_InitFlowVariables                0x10025055   Thumb Code     0  QCA6174_SCAQBAFM.sym ABSOLUTE
    rom_HCI_init                             0x1002505f   Thumb Code     0  QCA6174_SCAQBAFM.sym ABSOLUTE
    rom_HCI_LocalInit                        0x1002507b   Thumb Code     0  QCA6174_SCAQBAFM.sym ABSOLUTE
    rom_HCI_FreeQueues                       0x100250a3   Thumb Code     0  QCA6174_SCAQBAFM.sym ABSOLUTE
    rom_HCI_SystemReady                      0x100250ef   Thumb Code     0  QCA6174_SCAQBAFM.sym ABSOLUTE
    rom_HCI_PerformSystemReadyProcessing     0x1002510f   Thumb Code     0  QCA6174_SCAQBAFM.sym ABSOLUTE
    rom_HCI_SendNumCompletedPacketsEvent     0x10025265   Thumb Code     0  QCA6174_SCAQBAFM.sym ABSOLUTE
    rom_HandleLocalLoopbackACL               0x100252a7   Thumb Code     0  QCA6174_SCAQBAFM.sym ABSOLUTE
    rom_HCI_ProcessHostACL_RX                0x100252d1   Thumb Code     0  QCA6174_SCAQBAFM.sym ABSOLUTE
    HCI_ProcTimer_UTILITY                    0x1002549d   Thumb Code     0  QCA6174_SCAQBAFM.sym ABSOLUTE
    HCI_ProcTimer_TXP                        0x100254b1   Thumb Code     0  QCA6174_SCAQBAFM.sym ABSOLUTE
    rom_HCI_ConfigureScoPackets              0x100254bf   Thumb Code     0  QCA6174_SCAQBAFM.sym ABSOLUTE
    rom_HCI_SetLocalName                     0x100254c7   Thumb Code     0  QCA6174_SCAQBAFM.sym ABSOLUTE
    HCI_ProcTimer_UL_A                       0x100254cd   Thumb Code     0  QCA6174_SCAQBAFM.sym ABSOLUTE
    rom_HCI_ProcE_A2DP_PAUSE_COMPLETE        0x100254db   Thumb Code     0  QCA6174_SCAQBAFM.sym ABSOLUTE
    SHA256_Init                              0x10025541   Thumb Code     0  QCA6174_SCAQBAFM.sym ABSOLUTE
    SHA256_Transform                         0x10025577   Thumb Code     0  QCA6174_SCAQBAFM.sym ABSOLUTE
    SHA256_Update                            0x10025747   Thumb Code     0  QCA6174_SCAQBAFM.sym ABSOLUTE
    SHA256_Final                             0x10025811   Thumb Code     0  QCA6174_SCAQBAFM.sym ABSOLUTE
    SHA256_End                               0x100258f7   Thumb Code     0  QCA6174_SCAQBAFM.sym ABSOLUTE
    SHA256_Data                              0x10025961   Thumb Code     0  QCA6174_SCAQBAFM.sym ABSOLUTE
    rom_LLM_ETPM_handleProdTestRequest       0x100259b5   Thumb Code     0  QCA6174_SCAQBAFM.sym ABSOLUTE
    rom_LLM_EPTM_handleRxBurstCfg            0x100259f9   Thumb Code     0  QCA6174_SCAQBAFM.sym ABSOLUTE
    rom_LLM_EPTM_handleSeqStartControl       0x10025a05   Thumb Code     0  QCA6174_SCAQBAFM.sym ABSOLUTE
    LLM_EPTM_handleStartControl              0x10025c6d   Thumb Code     0  QCA6174_SCAQBAFM.sym ABSOLUTE
    rom_LLM_EPTM_RxBurstEndEvent             0x10025f75   Thumb Code     0  QCA6174_SCAQBAFM.sym ABSOLUTE
    LLM_EPTM_handleStartContinuousTx         0x10025f7f   Thumb Code     0  QCA6174_SCAQBAFM.sym ABSOLUTE
    LLM_EPTM_handleStop                      0x10025fd9   Thumb Code     0  QCA6174_SCAQBAFM.sym ABSOLUTE
    LLM_EPTM_handleReturnTestStats           0x10025fe3   Thumb Code     0  QCA6174_SCAQBAFM.sym ABSOLUTE
    rom_LLM_EPTM_handleStartLEBurstTx        0x10026167   Thumb Code     0  QCA6174_SCAQBAFM.sym ABSOLUTE
    rom_LLM_EPTM_ProcSeqRxConfigState        0x1002617d   Thumb Code     0  QCA6174_SCAQBAFM.sym ABSOLUTE
    rom_LLM_EPTM_InitSeqTxRxState            0x100261d5   Thumb Code     0  QCA6174_SCAQBAFM.sym ABSOLUTE
    rom_LLM_EPTM_UpdateSeqTxPkt              0x100261f7   Thumb Code     0  QCA6174_SCAQBAFM.sym ABSOLUTE
    rom_LLM_EPTM_SeqTx2NullPkt               0x1002632f   Thumb Code     0  QCA6174_SCAQBAFM.sym ABSOLUTE
    rom_LLM_EPTM_SeqTx2NextStatePkt          0x10026347   Thumb Code     0  QCA6174_SCAQBAFM.sym ABSOLUTE
    rom_LLM_EPTM_SeqRx2NullPkt               0x10026387   Thumb Code     0  QCA6174_SCAQBAFM.sym ABSOLUTE
    rom_LLM_EPTM_SeqRxNullPktRxStateCheck    0x100263e3   Thumb Code     0  QCA6174_SCAQBAFM.sym ABSOLUTE
    rom_LLM_EPTM_SeqRx2NextStatePkt          0x1002644d   Thumb Code     0  QCA6174_SCAQBAFM.sym ABSOLUTE
    rom_LLM_EPTM_SeqRxProcRxHdrAccOnly       0x100264ed   Thumb Code     0  QCA6174_SCAQBAFM.sym ABSOLUTE
    rom_LLM_EPTM_SeqRxProcRxHdr              0x10026517   Thumb Code     0  QCA6174_SCAQBAFM.sym ABSOLUTE
    rom_LLM_EPTM_SeqRxProcRxCrc              0x10026591   Thumb Code     0  QCA6174_SCAQBAFM.sym ABSOLUTE
    rom_LLM_EPTM_SeqRxProcRxPld              0x100265cd   Thumb Code     0  QCA6174_SCAQBAFM.sym ABSOLUTE
    rom_LLM_EPTM_SeqRxProcLERxPld            0x10026661   Thumb Code     0  QCA6174_SCAQBAFM.sym ABSOLUTE
    rom_LLM_EPTM_SeqRxProcRxPldCrcErr        0x100266bb   Thumb Code     0  QCA6174_SCAQBAFM.sym ABSOLUTE
    rom_LLM_EPTM_SeqRxIncrRxPkt              0x1002674f   Thumb Code     0  QCA6174_SCAQBAFM.sym ABSOLUTE
    rom_LLM_EPTM_SeqRxReturnStats            0x100267d5   Thumb Code     0  QCA6174_SCAQBAFM.sym ABSOLUTE
    rom_CountOne                             0x1002689b   Thumb Code     0  QCA6174_SCAQBAFM.sym ABSOLUTE
    rom_BitErrCalc                           0x100268ad   Thumb Code     0  QCA6174_SCAQBAFM.sym ABSOLUTE
    rom_LLM_cmdSLC_StartSynchronizationTrain 0x10026901   Thumb Code     0  QCA6174_SCAQBAFM.sym ABSOLUTE
    rom_LLM_cmdSLC_StartLinklessBroadcasts   0x10026a05   Thumb Code     0  QCA6174_SCAQBAFM.sym ABSOLUTE
    rom_LLM_LinklessBroadcastUpdateAfhMap    0x10026b8f   Thumb Code     0  QCA6174_SCAQBAFM.sym ABSOLUTE
    rom_LLM_SyncTrainComplete                0x10026c13   Thumb Code     0  QCA6174_SCAQBAFM.sym ABSOLUTE
    rom_LLM_WriteLinklessBroadcastData       0x10026c5f   Thumb Code     0  QCA6174_SCAQBAFM.sym ABSOLUTE
    rom_LLM_cmdSLC_WriteSynchronizationTrainParameters 0x10026e6f   Thumb Code     0  QCA6174_SCAQBAFM.sym ABSOLUTE
    rom_LLM_cmdSLC_SetTriggeredClockCapture  0x10026eb9   Thumb Code     0  QCA6174_SCAQBAFM.sym ABSOLUTE
    rom_LLM_SelectBestFitBasicRatePacketType 0x10026f39   Thumb Code     0  QCA6174_SCAQBAFM.sym ABSOLUTE
    rom_LLM_ReserveLinklessLtAddr            0x10026f8d   Thumb Code     0  QCA6174_SCAQBAFM.sym ABSOLUTE
    rom_LLM_SlavePageResponseTimeoutEvent    0x10026fc1   Thumb Code     0  QCA6174_SCAQBAFM.sym ABSOLUTE
    rom_LLM_InquiryRspTxNotify               0x10026fe9   Thumb Code     0  QCA6174_SCAQBAFM.sym ABSOLUTE
    rom_LLM_TriggeredClockCaptureEvent       0x10027027   Thumb Code     0  QCA6174_SCAQBAFM.sym ABSOLUTE
    rom_LLM_HandleAssociationEvent           0x100270c7   Thumb Code     0  QCA6174_SCAQBAFM.sym ABSOLUTE
    rom_LLM_cmdSLC_SetCCARecoveryMode        0x100270d1   Thumb Code     0  QCA6174_SCAQBAFM.sym ABSOLUTE
    rom_LLM_InitLinklessBC                   0x10027165   Thumb Code     0  QCA6174_SCAQBAFM.sym ABSOLUTE
    rom_LLM_SynchronizationTrainScan         0x1002725f   Thumb Code     0  QCA6174_SCAQBAFM.sym ABSOLUTE
    rom_LLM_SyncTrainScanComplete            0x100273e9   Thumb Code     0  QCA6174_SCAQBAFM.sym ABSOLUTE
    rom_LLM_SyncTrainReceivedEvent           0x10027483   Thumb Code     0  QCA6174_SCAQBAFM.sym ABSOLUTE
    rom_LLM_evalSyncTrainScanReqQ            0x1002751d   Thumb Code     0  QCA6174_SCAQBAFM.sym ABSOLUTE
    rom_PF_LC_putDefaultPacket               0x100275b5   Thumb Code     0  QCA6174_SCAQBAFM.sym ABSOLUTE
    rom_PF_RM_RxAgcSetGainResetRssi          0x10027629   Thumb Code     0  QCA6174_SCAQBAFM.sym ABSOLUTE
    rom_PF_RM_ReadRssi                       0x1002762f   Thumb Code     0  QCA6174_SCAQBAFM.sym ABSOLUTE
    rom_PF_RM_updateAverageRSSI              0x10027639   Thumb Code     0  QCA6174_SCAQBAFM.sym ABSOLUTE
    rom_PF_RM_RssiCalc                       0x1002764f   Thumb Code     0  QCA6174_SCAQBAFM.sym ABSOLUTE
    rom_PF_SLEEP_Idle                        0x100276a5   Thumb Code     0  QCA6174_SCAQBAFM.sym ABSOLUTE
    rom_PF_TXP_Init                          0x1002773d   Thumb Code     0  QCA6174_SCAQBAFM.sym ABSOLUTE
    rom_PF_TXP_HostDataReady                 0x10027763   Thumb Code     0  QCA6174_SCAQBAFM.sym ABSOLUTE
    rom_PF_TXP_HostDataReady_By_Type         0x100277f9   Thumb Code     0  QCA6174_SCAQBAFM.sym ABSOLUTE
    rom_PF_TXP_GetNextSerializedMsg          0x100278ab   Thumb Code     0  QCA6174_SCAQBAFM.sym ABSOLUTE
    rom_PF_TXP_GetNextSerializedMsg_By_Type  0x1002794b   Thumb Code     0  QCA6174_SCAQBAFM.sym ABSOLUTE
    rom_PF_TXP_EventTxDone                   0x100279bf   Thumb Code     0  QCA6174_SCAQBAFM.sym ABSOLUTE
    rom_SLC_AFH_HandleInstant                0x10027a79   Thumb Code     0  QCA6174_SCAQBAFM.sym ABSOLUTE
    rom_SLC_AFH_init                         0x10027acd   Thumb Code     0  QCA6174_SCAQBAFM.sym ABSOLUTE
    rom_SLC_AFH_reset                        0x10027b15   Thumb Code     0  QCA6174_SCAQBAFM.sym ABSOLUTE
    rom_SLC_AFH_checkChanAssessmentIncomplete 0x10027b21   Thumb Code     0  QCA6174_SCAQBAFM.sym ABSOLUTE
    rom_SLC_AFH_setHopChanAssessment         0x10027b57   Thumb Code     0  QCA6174_SCAQBAFM.sym ABSOLUTE
    rom_SLC_AFH_setHopDualBCAChanAssessment  0x10027b9d   Thumb Code     0  QCA6174_SCAQBAFM.sym ABSOLUTE
    rom_SLC_AFH_setupRxCmdChanAssessment     0x10027be3   Thumb Code     0  QCA6174_SCAQBAFM.sym ABSOLUTE
    rom_SLC_AFH_completeDualBCAChanAssessment 0x10027bf3   Thumb Code     0  QCA6174_SCAQBAFM.sym ABSOLUTE
    rom_SLC_AFH_completeChanAssessment       0x10027d17   Thumb Code     0  QCA6174_SCAQBAFM.sym ABSOLUTE
    rom_SLC_AFH_completeEBCAChanAssessment   0x10027def   Thumb Code     0  QCA6174_SCAQBAFM.sym ABSOLUTE
    SLC_HlrEnter_ChanAssessment              0x10027e0f   Thumb Code     0  QCA6174_SCAQBAFM.sym ABSOLUTE
    SLC_HlrTxProc_ChanAssessment             0x10027e47   Thumb Code     0  QCA6174_SCAQBAFM.sym ABSOLUTE
    SLC_HlrRxSetup_ChanAssessment            0x10027e53   Thumb Code     0  QCA6174_SCAQBAFM.sym ABSOLUTE
    SLC_HlrRxProcHdr_ChanAssessment          0x10027e65   Thumb Code     0  QCA6174_SCAQBAFM.sym ABSOLUTE
    rom_SLC_AFH_updatePERMetrics             0x10027f33   Thumb Code     0  QCA6174_SCAQBAFM.sym ABSOLUTE
    rom_SLC_AFH_updatePERMetricsSCOError     0x10027f8f   Thumb Code     0  QCA6174_SCAQBAFM.sym ABSOLUTE
    rom_SLC_AFH_updatePERMetricsLE           0x10027fbd   Thumb Code     0  QCA6174_SCAQBAFM.sym ABSOLUTE
    rom_SLC_initDUT                          0x10028011   Thumb Code     0  QCA6174_SCAQBAFM.sym ABSOLUTE
    rom_SLC_resetTestBlock                   0x10028037   Thumb Code     0  QCA6174_SCAQBAFM.sym ABSOLUTE
    rom_SLC_testTerminateTestMode            0x10028075   Thumb Code     0  QCA6174_SCAQBAFM.sym ABSOLUTE
    rom_SLC_resetDUT                         0x10028099   Thumb Code     0  QCA6174_SCAQBAFM.sym ABSOLUTE
    rom_SLC_EPTM_testParseControlMessage     0x100280bb   Thumb Code     0  QCA6174_SCAQBAFM.sym ABSOLUTE
    rom_SLC_EPTM_testParseSeqControlMessage  0x100281b1   Thumb Code     0  QCA6174_SCAQBAFM.sym ABSOLUTE
    rom_SLC_EPTM_testParseNextSeqControlMessage 0x100282c7   Thumb Code     0  QCA6174_SCAQBAFM.sym ABSOLUTE
    rom_SLC_testParseTestControlMessage      0x10028305   Thumb Code     0  QCA6174_SCAQBAFM.sym ABSOLUTE
    rom_SLC_testSetConfiguration             0x100283c9   Thumb Code     0  QCA6174_SCAQBAFM.sym ABSOLUTE
    rom_SLC_testConfigureModeSwitch          0x100284e5   Thumb Code     0  QCA6174_SCAQBAFM.sym ABSOLUTE
    rom_SLC_testTriggerCheck                 0x100285ed   Thumb Code     0  QCA6174_SCAQBAFM.sym ABSOLUTE
    rom_SLC_testCreateTestPacket             0x10028601   Thumb Code     0  QCA6174_SCAQBAFM.sym ABSOLUTE
    rom_SLC_testgetBuffers                   0x10028663   Thumb Code     0  QCA6174_SCAQBAFM.sym ABSOLUTE
    rom_SLC_testFreeIcbbuffers               0x100286fb   Thumb Code     0  QCA6174_SCAQBAFM.sym ABSOLUTE
    rom_SLC_testGenPRBS9                     0x1002872d   Thumb Code     0  QCA6174_SCAQBAFM.sym ABSOLUTE
    rom_SLC_testWhitenMessage                0x10028763   Thumb Code     0  QCA6174_SCAQBAFM.sym ABSOLUTE
    rom_SLC_TestTxLMP                        0x10028781   Thumb Code     0  QCA6174_SCAQBAFM.sym ABSOLUTE
    rom_SLC_TestTxData                       0x100287e9   Thumb Code     0  QCA6174_SCAQBAFM.sym ABSOLUTE
    rom_SLC_TestTxLoopBack                   0x10028abb   Thumb Code     0  QCA6174_SCAQBAFM.sym ABSOLUTE
    rom_SLC_testGetTestPattern               0x10028d93   Thumb Code     0  QCA6174_SCAQBAFM.sym ABSOLUTE
    rom_SLC_dututils_patch_hook              0x10028de1   Thumb Code     0  QCA6174_SCAQBAFM.sym ABSOLUTE
    SLC_HlrTxProc_NONE                       0x10028e05   Thumb Code     0  QCA6174_SCAQBAFM.sym ABSOLUTE
    rom_SLC_proc_xSCO_Frame_No_Rx            0x10028e13   Thumb Code     0  QCA6174_SCAQBAFM.sym ABSOLUTE
    rom_SLC_Flush_getFlushClk                0x10028e19   Thumb Code     0  QCA6174_SCAQBAFM.sym ABSOLUTE
    rom_SLC_Flush_getFlushInfo               0x10028e5d   Thumb Code     0  QCA6174_SCAQBAFM.sym ABSOLUTE
    rom_SLC_Flush_eval_Tx_FlushTimer         0x10028e91   Thumb Code     0  QCA6174_SCAQBAFM.sym ABSOLUTE
    rom_SLC_Flush_procRx_ACL_U_ACK           0x10028ed1   Thumb Code     0  QCA6174_SCAQBAFM.sym ABSOLUTE
    SLC_HlrTxProc_CONN_LT_ACL                0x10028f19   Thumb Code     0  QCA6174_SCAQBAFM.sym ABSOLUTE
    SLC_HlrTxProc_CONN_LT_SCO                0x100294d7   Thumb Code     0  QCA6174_SCAQBAFM.sym ABSOLUTE
    SLC_HlrTxProc_CONN_LT_eSCO               0x10029a1f   Thumb Code     0  QCA6174_SCAQBAFM.sym ABSOLUTE
    SLC_HlrTxProc_UNPARK_MASTER              0x10029cff   Thumb Code     0  QCA6174_SCAQBAFM.sym ABSOLUTE
    SLC_HlrTxProc_UNPARK_SLAVE               0x10029d07   Thumb Code     0  QCA6174_SCAQBAFM.sym ABSOLUTE
    SLC_HlrTxProc_INQUIRY                    0x10029d0b   Thumb Code     0  QCA6174_SCAQBAFM.sym ABSOLUTE
    SLC_HlrTxProc_PAGE_ID                    0x10029d33   Thumb Code     0  QCA6174_SCAQBAFM.sym ABSOLUTE
    SLC_HlrTxProc_PAGE_FHS                   0x10029d5b   Thumb Code     0  QCA6174_SCAQBAFM.sym ABSOLUTE
    SLC_HlrTxProc_PAGE_POLL                  0x10029d79   Thumb Code     0  QCA6174_SCAQBAFM.sym ABSOLUTE
    SLC_HlrTxProc_BROADCAST                  0x10029d99   Thumb Code     0  QCA6174_SCAQBAFM.sym ABSOLUTE
    SLC_HlrTxProc_PSCAN_ID                   0x10029f61   Thumb Code     0  QCA6174_SCAQBAFM.sym ABSOLUTE
    SLC_HlrTxProc_PSCAN_FHS                  0x1002a095   Thumb Code     0  QCA6174_SCAQBAFM.sym ABSOLUTE
    SLC_procRxPayload                        0x1002a199   Thumb Code     0  QCA6174_SCAQBAFM.sym ABSOLUTE
    SLC_HlrTxProc_PSCAN_POLL                 0x1002a24f   Thumb Code     0  QCA6174_SCAQBAFM.sym ABSOLUTE
    SLC_HlrTxProc_ISCAN                      0x1002a28f   Thumb Code     0  QCA6174_SCAQBAFM.sym ABSOLUTE
    SLC_HlrRxSetup_NONE                      0x1002a319   Thumb Code     0  QCA6174_SCAQBAFM.sym ABSOLUTE
    SLC_HlrRxSetup_BROADCAST                 0x1002a32d   Thumb Code     0  QCA6174_SCAQBAFM.sym ABSOLUTE
    SLC_HlrRxSetup_CONN                      0x1002a371   Thumb Code     0  QCA6174_SCAQBAFM.sym ABSOLUTE
    SLC_HlrRxSetup_CONN_eSCO                 0x1002a45d   Thumb Code     0  QCA6174_SCAQBAFM.sym ABSOLUTE
    rom_SLC_HlrEnter_DATA_SCAN               0x1002a5bf   Thumb Code     0  QCA6174_SCAQBAFM.sym ABSOLUTE
    rom_SLC_HlrRxSetup_DATA_SCAN             0x1002a5cf   Thumb Code     0  QCA6174_SCAQBAFM.sym ABSOLUTE
    SLC_HlrRxSetup_ACCESS_WINDOW_MASTER      0x1002a67b   Thumb Code     0  QCA6174_SCAQBAFM.sym ABSOLUTE
    SLC_HlrRxSetup_INQUIRY                   0x1002a67f   Thumb Code     0  QCA6174_SCAQBAFM.sym ABSOLUTE
    SLC_HlrRxSetup_PAGE_ID                   0x1002a6a5   Thumb Code     0  QCA6174_SCAQBAFM.sym ABSOLUTE
    SLC_HlrRxSetup_PAGE_FHS                  0x1002a6c9   Thumb Code     0  QCA6174_SCAQBAFM.sym ABSOLUTE
    SLC_HlrRxSetup_LPPSCAN_ID                0x1002a6e9   Thumb Code     0  QCA6174_SCAQBAFM.sym ABSOLUTE
    SLC_HlrRxSetup_PSCAN_ID                  0x1002a71b   Thumb Code     0  QCA6174_SCAQBAFM.sym ABSOLUTE
    SLC_HlrRxSetup_PSCAN_FHS                 0x1002a749   Thumb Code     0  QCA6174_SCAQBAFM.sym ABSOLUTE
    SLC_HlrRxSetup_ISCAN                     0x1002a75f   Thumb Code     0  QCA6174_SCAQBAFM.sym ABSOLUTE
    SLC_HlrRxProcHdr_NONE                    0x1002a7c1   Thumb Code     0  QCA6174_SCAQBAFM.sym ABSOLUTE
    SLC_HlrRxProcHdr_CONN                    0x1002a7c5   Thumb Code     0  QCA6174_SCAQBAFM.sym ABSOLUTE
    rom_SLC_BB_Service_Rx_Update             0x1002ab7d   Thumb Code     0  QCA6174_SCAQBAFM.sym ABSOLUTE
    rom_SLC_HlrRxProcHdr_ACK                 0x1002ac01   Thumb Code     0  QCA6174_SCAQBAFM.sym ABSOLUTE
    SLC_HlrRxProcHdr_SNIFF_MASTER            0x1002ad2d   Thumb Code     0  QCA6174_SCAQBAFM.sym ABSOLUTE
    SLC_HlrRxProcHdr_ACCESS_WINDOW_MASTER    0x1002aed7   Thumb Code     0  QCA6174_SCAQBAFM.sym ABSOLUTE
    SLC_HlrRxProcHdr_UNPARK_SLAVE            0x1002aedb   Thumb Code     0  QCA6174_SCAQBAFM.sym ABSOLUTE
    SLC_HlrRxProcHdr_INQUIRY                 0x1002aedf   Thumb Code     0  QCA6174_SCAQBAFM.sym ABSOLUTE
    SLC_HlrRxProcHdr_PAGE_ID                 0x1002af7d   Thumb Code     0  QCA6174_SCAQBAFM.sym ABSOLUTE
    SLC_HlrRxProcHdr_PAGE_FHS                0x1002b047   Thumb Code     0  QCA6174_SCAQBAFM.sym ABSOLUTE
    SLC_HlrRxProcHdr_PAGE_POLL               0x1002b0bb   Thumb Code     0  QCA6174_SCAQBAFM.sym ABSOLUTE
    SLC_HlrRxProcHdr_PSCAN_ID                0x1002b1ad   Thumb Code     0  QCA6174_SCAQBAFM.sym ABSOLUTE
    SLC_HlrRxProcHdr_LPPSCAN_ID              0x1002b23f   Thumb Code     0  QCA6174_SCAQBAFM.sym ABSOLUTE
    SLC_HlrRxProcHdr_PSCAN_FHS               0x1002b2b9   Thumb Code     0  QCA6174_SCAQBAFM.sym ABSOLUTE
    SLC_HlrRxProcArq_PSCAN_FHS               0x1002b3d3   Thumb Code     0  QCA6174_SCAQBAFM.sym ABSOLUTE
    SLC_HlrRxProcHdr_ISCAN                   0x1002b47d   Thumb Code     0  QCA6174_SCAQBAFM.sym ABSOLUTE
    SLC_HlrRxProcArq_CONN                    0x1002b4b7   Thumb Code     0  QCA6174_SCAQBAFM.sym ABSOLUTE
    SLC_HlrRxProcArq_ACCESS_WINDOW_MASTER    0x1002b4c9   Thumb Code     0  QCA6174_SCAQBAFM.sym ABSOLUTE
    SLC_HlrRxProcArq_UNPARK_SLAVE            0x1002b4cb   Thumb Code     0  QCA6174_SCAQBAFM.sym ABSOLUTE
    SLC_HlrRxProcArq_NONE                    0x1002b4cd   Thumb Code     0  QCA6174_SCAQBAFM.sym ABSOLUTE
    SLC_HlrRxProcArq_INQUIRY                 0x1002b4cf   Thumb Code     0  QCA6174_SCAQBAFM.sym ABSOLUTE
    SLC_HlrRxProcArq_PAGE                    0x1002b53b   Thumb Code     0  QCA6174_SCAQBAFM.sym ABSOLUTE
    SLC_HlrRxProcArq_DUT                     0x1002b557   Thumb Code     0  QCA6174_SCAQBAFM.sym ABSOLUTE
    SLC_HlrRxProcNonRT_NONE                  0x1002b65b   Thumb Code     0  QCA6174_SCAQBAFM.sym ABSOLUTE
    SLC_HlrRxProcNonRT_INQUIRY               0x1002b65d   Thumb Code     0  QCA6174_SCAQBAFM.sym ABSOLUTE
    SLC_HlrRxProcCONN                        0x1002b6e3   Thumb Code     0  QCA6174_SCAQBAFM.sym ABSOLUTE
    SLC_HlrRxProcNonRT_CONN                  0x1002b841   Thumb Code     0  QCA6174_SCAQBAFM.sym ABSOLUTE
    SLC_HlrRxProcNonRT_PAGE                  0x1002b8ff   Thumb Code     0  QCA6174_SCAQBAFM.sym ABSOLUTE
    SLC_HlrEnter_CONN_SLAVE                  0x1002b965   Thumb Code     0  QCA6174_SCAQBAFM.sym ABSOLUTE
    SLC_HlrEnter_CONN_MASTER                 0x1002b99f   Thumb Code     0  QCA6174_SCAQBAFM.sym ABSOLUTE
    SLC_HlrEnter_NONE                        0x1002b9cb   Thumb Code     0  QCA6174_SCAQBAFM.sym ABSOLUTE
    SLC_HlrEnter_INQUIRY                     0x1002b9fd   Thumb Code     0  QCA6174_SCAQBAFM.sym ABSOLUTE
    SLC_HlrEnter_PAGE_ID                     0x1002ba03   Thumb Code     0  QCA6174_SCAQBAFM.sym ABSOLUTE
    SLC_HlrEnter_PAGE_FHS                    0x1002ba09   Thumb Code     0  QCA6174_SCAQBAFM.sym ABSOLUTE
    SLC_HlrEnter_ISCAN                       0x1002ba0f   Thumb Code     0  QCA6174_SCAQBAFM.sym ABSOLUTE
    SLC_HlrEnter_PSCAN_ID                    0x1002ba29   Thumb Code     0  QCA6174_SCAQBAFM.sym ABSOLUTE
    rom_SLC_HlrEnter_IDSCAN                  0x1002ba61   Thumb Code     0  QCA6174_SCAQBAFM.sym ABSOLUTE
    SLC_HlrEnter_LPPSCAN_ID                  0x1002ba97   Thumb Code     0  QCA6174_SCAQBAFM.sym ABSOLUTE
    SLC_HlrEnter_PSCAN_FHS                   0x1002bacf   Thumb Code     0  QCA6174_SCAQBAFM.sym ABSOLUTE
    rom_SLC_HlrEnter_PSCAN_POLL              0x1002bad5   Thumb Code     0  QCA6174_SCAQBAFM.sym ABSOLUTE
    rom_SLC_HlrEnter_DUT                     0x1002bae5   Thumb Code     0  QCA6174_SCAQBAFM.sym ABSOLUTE
    SLC_HlrEnter_EPTM_M                      0x1002bb07   Thumb Code     0  QCA6174_SCAQBAFM.sym ABSOLUTE
    SLC_HlrEnter_EPTM_CONN_ESTAB_M           0x1002bb33   Thumb Code     0  QCA6174_SCAQBAFM.sym ABSOLUTE
    SLC_HlrEnter_EPTM_CONN_ESTAB_S           0x1002bb93   Thumb Code     0  QCA6174_SCAQBAFM.sym ABSOLUTE
    rom_SLC_HlrEnter_CONN_SLAVE_SCO          0x1002bbe3   Thumb Code     0  QCA6174_SCAQBAFM.sym ABSOLUTE
    SLC_HlrEnter_CONN_SLAVE_ESCO             0x1002bbe5   Thumb Code     0  QCA6174_SCAQBAFM.sym ABSOLUTE
    rom_SLC_getRxPacketFLOW                  0x1002bbe7   Thumb Code     0  QCA6174_SCAQBAFM.sym ABSOLUTE
    rom_SLC_getRxPayloadFLOW                 0x1002bd0b   Thumb Code     0  QCA6174_SCAQBAFM.sym ABSOLUTE
    rom_SLC_initRxFifoProcs                  0x1002bd35   Thumb Code     0  QCA6174_SCAQBAFM.sym ABSOLUTE
    SLC_HlrRxProcNonRT_CONN_S                0x1002bd6d   Thumb Code     0  QCA6174_SCAQBAFM.sym ABSOLUTE
    SLC_HlrRxProcNonRT_ACCESS_WINDOW_MASTER  0x1002bd9d   Thumb Code     0  QCA6174_SCAQBAFM.sym ABSOLUTE
    rom_SLC_HlrRxProcNonRT_UNPARK_TO_MASTER  0x1002bd9f   Thumb Code     0  QCA6174_SCAQBAFM.sym ABSOLUTE
    SLC_HlrRxProcNonRT_PARK_BEACON_SLAVE     0x1002bda9   Thumb Code     0  QCA6174_SCAQBAFM.sym ABSOLUTE
    SLC_HlrRxProcNonRT_UNPARK_TO_SLAVE       0x1002bdab   Thumb Code     0  QCA6174_SCAQBAFM.sym ABSOLUTE
    rom_SLC_MasterTrackingInit               0x1002bdad   Thumb Code     0  QCA6174_SCAQBAFM.sym ABSOLUTE
    rom_SLC_MasterTrackingCalc               0x1002bdf5   Thumb Code     0  QCA6174_SCAQBAFM.sym ABSOLUTE
    rom_SLC_MasterTrackingDriftCalc          0x1002be97   Thumb Code     0  QCA6174_SCAQBAFM.sym ABSOLUTE
    rom_SLC_MasterTrackingApply              0x1002bf5f   Thumb Code     0  QCA6174_SCAQBAFM.sym ABSOLUTE
    rom_SLC_BroadcastAdd                     0x1002c07d   Thumb Code     0  QCA6174_SCAQBAFM.sym ABSOLUTE
    rom_SLC_BroadcastDelete                  0x1002c161   Thumb Code     0  QCA6174_SCAQBAFM.sym ABSOLUTE
    rom_SLC_isValidMasterTxConn              0x1002c22d   Thumb Code     0  QCA6174_SCAQBAFM.sym ABSOLUTE
    rom_SLC_isValidSlaveTxConn               0x1002c2b3   Thumb Code     0  QCA6174_SCAQBAFM.sym ABSOLUTE
    rom_SLC_procSlaveRxNonCrit               0x1002c32f   Thumb Code     0  QCA6174_SCAQBAFM.sym ABSOLUTE
    rom_SLC_FreeICB                          0x1002c3f3   Thumb Code     0  QCA6174_SCAQBAFM.sym ABSOLUTE
    rom_SLC_FreeLMP                          0x1002c437   Thumb Code     0  QCA6174_SCAQBAFM.sym ABSOLUTE
    rom_SLC_getNumMemBlk                     0x1002c489   Thumb Code     0  QCA6174_SCAQBAFM.sym ABSOLUTE
    rom_SLC_UpdateHostDataPacketLength       0x1002c4b1   Thumb Code     0  QCA6174_SCAQBAFM.sym ABSOLUTE
    rom_SLC_CalcAclMaxRxMemBlocks            0x1002c4ef   Thumb Code     0  QCA6174_SCAQBAFM.sym ABSOLUTE
    SLC_HlrEnter_DUT_CONN                    0x1002c631   Thumb Code     0  QCA6174_SCAQBAFM.sym ABSOLUTE
    SLC_HlrTxProc_DUT_CONN                   0x1002c639   Thumb Code     0  QCA6174_SCAQBAFM.sym ABSOLUTE
    SLC_HlrTxProc_DUT_TX                     0x1002c641   Thumb Code     0  QCA6174_SCAQBAFM.sym ABSOLUTE
    SLC_HlrRxProcHdr_DUT                     0x1002c857   Thumb Code     0  QCA6174_SCAQBAFM.sym ABSOLUTE
    rom_SLC_procRxPayload_DUT                0x1002cb77   Thumb Code     0  QCA6174_SCAQBAFM.sym ABSOLUTE
    SLC_HlrRxSetup_DUT                       0x1002cc0d   Thumb Code     0  QCA6174_SCAQBAFM.sym ABSOLUTE
    SLC_HlrRxProcNonRT_DUT                   0x1002cc47   Thumb Code     0  QCA6174_SCAQBAFM.sym ABSOLUTE
    SLC_HlrTxProc_EPTM_CONN_ESTAB            0x1002cc6f   Thumb Code     0  QCA6174_SCAQBAFM.sym ABSOLUTE
    SLC_HlrTxProc_EPTM_CONN_ESTAB_S          0x1002d059   Thumb Code     0  QCA6174_SCAQBAFM.sym ABSOLUTE
    SLC_HlrTxProc_EPTM_TEST                  0x1002d0db   Thumb Code     0  QCA6174_SCAQBAFM.sym ABSOLUTE
    SLC_HlrTxProc_EPTM_TEST_M                0x1002d161   Thumb Code     0  QCA6174_SCAQBAFM.sym ABSOLUTE
    SLC_HlrRxSetup_EPTM_TEST                 0x1002d1b5   Thumb Code     0  QCA6174_SCAQBAFM.sym ABSOLUTE
    SLC_HlrRxSetup_EPTM_TEST_S               0x1002d1e5   Thumb Code     0  QCA6174_SCAQBAFM.sym ABSOLUTE
    SLC_HlrRxSetup_LE_TEST_RX                0x1002d25d   Thumb Code     0  QCA6174_SCAQBAFM.sym ABSOLUTE
    SLC_HlrRxSetup_LE_EPTM_TEST              0x1002d281   Thumb Code     0  QCA6174_SCAQBAFM.sym ABSOLUTE
    rom_SLC_HlrRxProcHdr_EPTM                0x1002d2bd   Thumb Code     0  QCA6174_SCAQBAFM.sym ABSOLUTE
    SLC_HlrRxProcHdr_EPTM_M_CONN_ESTAB       0x1002d415   Thumb Code     0  QCA6174_SCAQBAFM.sym ABSOLUTE
    SLC_HlrRxProcHdr_EPTM_M_TEST             0x1002d437   Thumb Code     0  QCA6174_SCAQBAFM.sym ABSOLUTE
    SLC_HlrRxProcHdr_EPTM_S                  0x1002d45b   Thumb Code     0  QCA6174_SCAQBAFM.sym ABSOLUTE
    SLC_HlrRxProcArq_EPTM_CONN_ESTAB         0x1002d4bd   Thumb Code     0  QCA6174_SCAQBAFM.sym ABSOLUTE
    SLC_HlrRxProcArq_EPTM_TEST               0x1002d615   Thumb Code     0  QCA6174_SCAQBAFM.sym ABSOLUTE
    rom_SLC_procRxPayload_EPTM_TEST          0x1002d667   Thumb Code     0  QCA6174_SCAQBAFM.sym ABSOLUTE
    SLC_HlrRxProcNonRT_EPTM_CONN_ESTAB       0x1002d7a7   Thumb Code     0  QCA6174_SCAQBAFM.sym ABSOLUTE
    SLC_HlrRxProcNonRT_EPTM_TEST_M           0x1002d7cb   Thumb Code     0  QCA6174_SCAQBAFM.sym ABSOLUTE
    SLC_HlrRxProcNonRT_EPTM_TEST_S           0x1002d7d9   Thumb Code     0  QCA6174_SCAQBAFM.sym ABSOLUTE
    SLC_HlrEnter_RSW_TDD_2_MASTER            0x1002d7e7   Thumb Code     0  QCA6174_SCAQBAFM.sym ABSOLUTE
    SLC_HlrEnter_RSW_PSW_2_MASTER            0x1002d895   Thumb Code     0  QCA6174_SCAQBAFM.sym ABSOLUTE
    SLC_HlrEnter_RSW_TDD_2_SLAVE             0x1002d89b   Thumb Code     0  QCA6174_SCAQBAFM.sym ABSOLUTE
    SLC_HlrEnter_RSW_PSW_2_SLAVE             0x1002d8a5   Thumb Code     0  QCA6174_SCAQBAFM.sym ABSOLUTE
    SLC_HlrTxProc_RSW2M_FHS                  0x1002d8d9   Thumb Code     0  QCA6174_SCAQBAFM.sym ABSOLUTE
    SLC_HlrTxProc_RSW2M_POLL                 0x1002d911   Thumb Code     0  QCA6174_SCAQBAFM.sym ABSOLUTE
    SLC_HlrRxSetup_RSW2M                     0x1002d95d   Thumb Code     0  QCA6174_SCAQBAFM.sym ABSOLUTE
    SLC_HlrRxProcHdr_RSW2M_FHS_ACK           0x1002d979   Thumb Code     0  QCA6174_SCAQBAFM.sym ABSOLUTE
    SLC_HlrRxProcHdr_RSW2M_POLL_ACK          0x1002da79   Thumb Code     0  QCA6174_SCAQBAFM.sym ABSOLUTE
    SLC_HlrTxProc_RSW2S_FHS_ACK              0x1002db65   Thumb Code     0  QCA6174_SCAQBAFM.sym ABSOLUTE
    SLC_HlrRxProcArq_RSW2S_FHS               0x1002dbe7   Thumb Code     0  QCA6174_SCAQBAFM.sym ABSOLUTE
    SLC_HlrTxProc_RSW2S_POLL_ACK             0x1002dc33   Thumb Code     0  QCA6174_SCAQBAFM.sym ABSOLUTE
    SLC_HlrRxProcHdr_RSW2S_POLL              0x1002ddc5   Thumb Code     0  QCA6174_SCAQBAFM.sym ABSOLUTE
    SLC_HlrRxProcHdr_CONN_LT_ACL             0x1002de21   Thumb Code     0  QCA6174_SCAQBAFM.sym ABSOLUTE
    SLC_HlrRxProcHdr_CONN_LT_BROADCAST       0x1002e1c5   Thumb Code     0  QCA6174_SCAQBAFM.sym ABSOLUTE
    SLC_HlrRxProcArq_CONN_LT_ACL             0x1002e219   Thumb Code     0  QCA6174_SCAQBAFM.sym ABSOLUTE
    SLC_HlrRxProcHdr_CONN_LT_eSCO            0x1002e469   Thumb Code     0  QCA6174_SCAQBAFM.sym ABSOLUTE
    SLC_HlrRxProcArq_CONN_LT_eSCO            0x1002e507   Thumb Code     0  QCA6174_SCAQBAFM.sym ABSOLUTE
    SLC_HlrRxProcArq_CONN_LT_BROADCAST       0x1002e65f   Thumb Code     0  QCA6174_SCAQBAFM.sym ABSOLUTE
    SLC_HlrRxProcHdr_CONN_HDR_ERROR          0x1002e6df   Thumb Code     0  QCA6174_SCAQBAFM.sym ABSOLUTE
    SLC_HlrRxProcHdr_CONN_INVALID_LTADDR     0x1002e779   Thumb Code     0  QCA6174_SCAQBAFM.sym ABSOLUTE
    rom_SLC_HlrRxProcHdr_CONN_NONE           0x1002e801   Thumb Code     0  QCA6174_SCAQBAFM.sym ABSOLUTE
    SLC_HlrRxProcArq_CONN_NONE               0x1002e805   Thumb Code     0  QCA6174_SCAQBAFM.sym ABSOLUTE
    SLC_HlrRxProcNonRT_CONN_NONE             0x1002e80d   Thumb Code     0  QCA6174_SCAQBAFM.sym ABSOLUTE
    SLC_HlrRxSetup_TrigScan                  0x1002e80f   Thumb Code     0  QCA6174_SCAQBAFM.sym ABSOLUTE
    SLC_HlrRxProcHdr_TrigScan                0x1002e883   Thumb Code     0  QCA6174_SCAQBAFM.sym ABSOLUTE
    SLC_HlrEnter_Page_LLR                    0x1002e947   Thumb Code     0  QCA6174_SCAQBAFM.sym ABSOLUTE
    SLC_HlrRxSetup_Page_LLR                  0x1002e983   Thumb Code     0  QCA6174_SCAQBAFM.sym ABSOLUTE
    SLC_HlrRxProcHdr_Page_LLR                0x1002e9d5   Thumb Code     0  QCA6174_SCAQBAFM.sym ABSOLUTE
    SLC_HlrTxProc_Page_LLR                   0x1002eb73   Thumb Code     0  QCA6174_SCAQBAFM.sym ABSOLUTE
    SLC_HlrExit_Page_LLR                     0x1002ebed   Thumb Code     0  QCA6174_SCAQBAFM.sym ABSOLUTE
    SLC_HlrEnter_SEMI_CONN                   0x1002ec1b   Thumb Code     0  QCA6174_SCAQBAFM.sym ABSOLUTE
    SLC_HlrTxProc_SEMI_CONN                  0x1002ec6d   Thumb Code     0  QCA6174_SCAQBAFM.sym ABSOLUTE
    SLC_HlrRxSetup_SEMI_CONN                 0x1002ede1   Thumb Code     0  QCA6174_SCAQBAFM.sym ABSOLUTE
    SLC_HlrRxProcHdr_SEMI_CONN               0x1002ee2d   Thumb Code     0  QCA6174_SCAQBAFM.sym ABSOLUTE
    SLC_HlrRxProcArq_SEMI_CONN               0x1002f121   Thumb Code     0  QCA6174_SCAQBAFM.sym ABSOLUTE
    SLC_HlrRxProcNonRT_SEMI_CONN             0x1002f24f   Thumb Code     0  QCA6174_SCAQBAFM.sym ABSOLUTE
    SLC_HlrEnter_TESTER_CONN                 0x1002f2cb   Thumb Code     0  QCA6174_SCAQBAFM.sym ABSOLUTE
    SLC_HlrTxProc_TESTER_CONN                0x1002f2cd   Thumb Code     0  QCA6174_SCAQBAFM.sym ABSOLUTE
    SLC_HlrTxProc_TESTER_TX                  0x1002f2d1   Thumb Code     0  QCA6174_SCAQBAFM.sym ABSOLUTE
    SLC_HlrRxProcHdr_TESTER                  0x1002f2d5   Thumb Code     0  QCA6174_SCAQBAFM.sym ABSOLUTE
    SLC_HlrRxSetup_TESTER                    0x1002f2d9   Thumb Code     0  QCA6174_SCAQBAFM.sym ABSOLUTE
    SLC_HlrRxProcNonRT_TESTER                0x1002f2dd   Thumb Code     0  QCA6174_SCAQBAFM.sym ABSOLUTE
    SLC_HlrRxProcArq_TESTER                  0x1002f2df   Thumb Code     0  QCA6174_SCAQBAFM.sym ABSOLUTE
    SLC_HlrEnter_EXT_INQ                     0x1002f2e1   Thumb Code     0  QCA6174_SCAQBAFM.sym ABSOLUTE
    SLC_HlrTxProc_EXT_INQ                    0x1002f2e3   Thumb Code     0  QCA6174_SCAQBAFM.sym ABSOLUTE
    SLC_HlrRxSetup_EXT_INQ                   0x1002f2f9   Thumb Code     0  QCA6174_SCAQBAFM.sym ABSOLUTE
    rom_SLC_extendedInquiryRxOk              0x1002f339   Thumb Code     0  QCA6174_SCAQBAFM.sym ABSOLUTE
    SLC_HlrRxProcHdr_EXT_INQ                 0x1002f399   Thumb Code     0  QCA6174_SCAQBAFM.sym ABSOLUTE
    SLC_HlrRxProcArq_EXT_INQ                 0x1002f403   Thumb Code     0  QCA6174_SCAQBAFM.sym ABSOLUTE
    SLC_HlrRxProcNonRT_EXT_INQ               0x1002f451   Thumb Code     0  QCA6174_SCAQBAFM.sym ABSOLUTE
    SLC_HlrEnter_EXT_INQ_RES                 0x1002f4b9   Thumb Code     0  QCA6174_SCAQBAFM.sym ABSOLUTE
    SLC_HlrTxProc_EXT_INQ_RES                0x1002f4bb   Thumb Code     0  QCA6174_SCAQBAFM.sym ABSOLUTE
    SLC_HlrRxSetup_EXT_INQ_RES               0x1002f725   Thumb Code     0  QCA6174_SCAQBAFM.sym ABSOLUTE
    SLC_HlrRxProcHdr_EXT_INQ_RES             0x1002f729   Thumb Code     0  QCA6174_SCAQBAFM.sym ABSOLUTE
    SLC_HlrRxProcArq_EXT_INQ_RES             0x1002f72d   Thumb Code     0  QCA6174_SCAQBAFM.sym ABSOLUTE
    SLC_HlrRxProcNonRT_EXT_INQ_RES           0x1002f72f   Thumb Code     0  QCA6174_SCAQBAFM.sym ABSOLUTE
    rom_SLC_putInquiryResults                0x1002f731   Thumb Code     0  QCA6174_SCAQBAFM.sym ABSOLUTE
    rom_SLC_allocExtendedInquiryResultEventMem 0x1002f771   Thumb Code     0  QCA6174_SCAQBAFM.sym ABSOLUTE
    rom_SLC_extendedInquiryResponseOk        0x1002f7cd   Thumb Code     0  QCA6174_SCAQBAFM.sym ABSOLUTE
    SLC_HlrExit_NONE                         0x1002f865   Thumb Code     0  QCA6174_SCAQBAFM.sym ABSOLUTE
    rom_SLC_adjustPollingInterval            0x1002f867   Thumb Code     0  QCA6174_SCAQBAFM.sym ABSOLUTE
    SLC_HlrTxProc_SYNC_TRAIN                 0x1002f8d7   Thumb Code     0  QCA6174_SCAQBAFM.sym ABSOLUTE
    SLC_HlrRxSetup_SYNC_TRAIN                0x1002f957   Thumb Code     0  QCA6174_SCAQBAFM.sym ABSOLUTE
    SLC_HlrTxProc_LINKLESS_BC                0x1002f98f   Thumb Code     0  QCA6174_SCAQBAFM.sym ABSOLUTE
    SLC_HlrRxSetup_LINKLESS_BC               0x1002fa47   Thumb Code     0  QCA6174_SCAQBAFM.sym ABSOLUTE
    SLC_HlrEnter_ASSOCIATION                 0x1002fa6d   Thumb Code     0  QCA6174_SCAQBAFM.sym ABSOLUTE
    SLC_HlrTxProc_ASSOCIATION                0x1002fa6f   Thumb Code     0  QCA6174_SCAQBAFM.sym ABSOLUTE
    SLC_HlrRxSetup_ASSOCIATION               0x1002fb69   Thumb Code     0  QCA6174_SCAQBAFM.sym ABSOLUTE
    SLC_HlrRxProcHdr_ASSOCIATION             0x1002fb9f   Thumb Code     0  QCA6174_SCAQBAFM.sym ABSOLUTE
    SLC_HlrRxProcArq_ASSOCIATION             0x1002fbe9   Thumb Code     0  QCA6174_SCAQBAFM.sym ABSOLUTE
    SLC_HlrRxProcNonRT_ASSOCIATION           0x1002fc31   Thumb Code     0  QCA6174_SCAQBAFM.sym ABSOLUTE
    SLC_HlrEnter_SYNC_TRAIN_SCAN             0x1002fc9d   Thumb Code     0  QCA6174_SCAQBAFM.sym ABSOLUTE
    SLC_HlrRxSetup_SYNC_TRAIN_SCAN           0x1002fcb7   Thumb Code     0  QCA6174_SCAQBAFM.sym ABSOLUTE
    SLC_HlrRxProcHdr_SYNC_TRAIN_SCAN         0x1002fccd   Thumb Code     0  QCA6174_SCAQBAFM.sym ABSOLUTE
    SLC_HlrRxProcArq_SYNC_TRAIN_SCAN         0x1002fd6f   Thumb Code     0  QCA6174_SCAQBAFM.sym ABSOLUTE
    SLC_HlrRxProcNonRT_SYNC_TRAIN_SCAN       0x1002fdbd   Thumb Code     0  QCA6174_SCAQBAFM.sym ABSOLUTE
    SLC_HlrEnter_LE_SCAN                     0x1002ffcd   Thumb Code     0  QCA6174_SCAQBAFM.sym ABSOLUTE
    SLC_HlrTxProc_LE_SCAN_NONE               0x1002fff3   Thumb Code     0  QCA6174_SCAQBAFM.sym ABSOLUTE
    SLC_HlrTxProc_LE_SCAN_SCAN_REQ           0x1002fff7   Thumb Code     0  QCA6174_SCAQBAFM.sym ABSOLUTE
    SLC_HlrTxProc_LE_SCAN_CONNECT_REQ        0x10030017   Thumb Code     0  QCA6174_SCAQBAFM.sym ABSOLUTE
    rom_SLC_HlrRxSetup_LE_SCAN               0x10030067   Thumb Code     0  QCA6174_SCAQBAFM.sym ABSOLUTE
    SLC_HlrRxSetup_LE_SCAN_ACTIVE            0x1003009f   Thumb Code     0  QCA6174_SCAQBAFM.sym ABSOLUTE
    SLC_HlrRxSetup_LE_SCAN_PASSIVE           0x100300ab   Thumb Code     0  QCA6174_SCAQBAFM.sym ABSOLUTE
    SLC_HlrRxSetup_LE_SCAN_CONNECT           0x100300b7   Thumb Code     0  QCA6174_SCAQBAFM.sym ABSOLUTE
    SLC_HlrRxSetup_LE_SCAN_SCAN_REQ          0x100300c3   Thumb Code     0  QCA6174_SCAQBAFM.sym ABSOLUTE
    SLC_HlrRxSetup_LE_SCAN_CONNECT_REQ       0x100300e7   Thumb Code     0  QCA6174_SCAQBAFM.sym ABSOLUTE
    SLC_HlrRxProcHdr_LE_TEST_RX              0x100300f3   Thumb Code     0  QCA6174_SCAQBAFM.sym ABSOLUTE
    SLC_HlrRxProcHdr_LE_EPTM_TEST            0x1003012d   Thumb Code     0  QCA6174_SCAQBAFM.sym ABSOLUTE
    rom_SLC_LE_CheckConnectAddress           0x100301a7   Thumb Code     0  QCA6174_SCAQBAFM.sym ABSOLUTE
    SLC_HlrRxProcHdr_LE_SCAN_PASSIVE         0x100301a9   Thumb Code     0  QCA6174_SCAQBAFM.sym ABSOLUTE
    SLC_HlrRxProcHdr_LE_SCAN_ACTIVE          0x100302a5   Thumb Code     0  QCA6174_SCAQBAFM.sym ABSOLUTE
    SLC_HlrRxProcHdr_LE_SCAN_CONNECT         0x100304db   Thumb Code     0  QCA6174_SCAQBAFM.sym ABSOLUTE
    SLC_HlrRxProcArq_LE_SCAN                 0x1003064f   Thumb Code     0  QCA6174_SCAQBAFM.sym ABSOLUTE
    rom_SLC_HlrRxProcNonRT_LE_SCAN           0x10030651   Thumb Code     0  QCA6174_SCAQBAFM.sym ABSOLUTE
    SLC_HlrRxProcNonRT_LE_SCAN_PASSIVE       0x100306d5   Thumb Code     0  QCA6174_SCAQBAFM.sym ABSOLUTE
    SLC_HlrRxProcNonRT_LE_SCAN_INITIATOR     0x100306df   Thumb Code     0  QCA6174_SCAQBAFM.sym ABSOLUTE
    SLC_HlrRxProcNonRT_LE_SCAN_ACTIVE        0x100306e9   Thumb Code     0  QCA6174_SCAQBAFM.sym ABSOLUTE
    SLC_HlrRxProcNonRT_LE_SCAN_CONNECT       0x100306f3   Thumb Code     0  QCA6174_SCAQBAFM.sym ABSOLUTE
    SLC_HlrRxProcHdr_LE_SCAN_SCAN_REQ        0x100306f5   Thumb Code     0  QCA6174_SCAQBAFM.sym ABSOLUTE
    SLC_HlrRxProcArq_LE_SCAN_SCAN_REQ        0x10030851   Thumb Code     0  QCA6174_SCAQBAFM.sym ABSOLUTE
    SLC_HlrRxProcNonRT_LE_SCAN_SCAN_REQ      0x10030853   Thumb Code     0  QCA6174_SCAQBAFM.sym ABSOLUTE
    SLC_HlrRxProcHdr_LE_SCAN_CONNECT_REQ     0x10030949   Thumb Code     0  QCA6174_SCAQBAFM.sym ABSOLUTE
    SLC_HlrRxProcArq_LE_SCAN_CONNECT_REQ     0x1003094d   Thumb Code     0  QCA6174_SCAQBAFM.sym ABSOLUTE
    SLC_HlrRxProcNonRT_LE_SCAN_CONNECT_REQ   0x1003094f   Thumb Code     0  QCA6174_SCAQBAFM.sym ABSOLUTE
    rom_SLC_HlrEnter_LE_ADVERTISE            0x10030951   Thumb Code     0  QCA6174_SCAQBAFM.sym ABSOLUTE
    SLC_HlrEnter_LE_ADVERTISE_PASSIVE        0x10030977   Thumb Code     0  QCA6174_SCAQBAFM.sym ABSOLUTE
    SLC_HlrEnter_LE_ADVERTISE_ACTIVE         0x1003097f   Thumb Code     0  QCA6174_SCAQBAFM.sym ABSOLUTE
    SLC_HlrEnter_LE_ADVERTISE_DIRECTED       0x10030987   Thumb Code     0  QCA6174_SCAQBAFM.sym ABSOLUTE
    rom_SLC_HlrEnter_LE_CONN                 0x1003098f   Thumb Code     0  QCA6174_SCAQBAFM.sym ABSOLUTE
    SLC_HlrEnter_LE_CONN_SLAVE               0x100309bf   Thumb Code     0  QCA6174_SCAQBAFM.sym ABSOLUTE
    SLC_HlrEnter_LE_CONN_MASTER              0x100309c7   Thumb Code     0  QCA6174_SCAQBAFM.sym ABSOLUTE
    SLC_HlrEnter_LE_TEST_TX                  0x100309cf   Thumb Code     0  QCA6174_SCAQBAFM.sym ABSOLUTE
    SLC_HlrEnter_LE_TEST_RX                  0x10030a01   Thumb Code     0  QCA6174_SCAQBAFM.sym ABSOLUTE
    SLC_HlrEnter_LE_EPTM_TEST                0x10030a07   Thumb Code     0  QCA6174_SCAQBAFM.sym ABSOLUTE
    SLC_HlrRxProcNonRT_LE_TEST_RX            0x10030a1f   Thumb Code     0  QCA6174_SCAQBAFM.sym ABSOLUTE
    SLC_HlrRxProcNonRT_LE_EPTM_TEST          0x10030a45   Thumb Code     0  QCA6174_SCAQBAFM.sym ABSOLUTE
    SLC_HlrTxProc_LE_ADVERTISE_PASSIVE       0x10030a65   Thumb Code     0  QCA6174_SCAQBAFM.sym ABSOLUTE
    SLC_HlrTxProc_LE_ADVERTISE_ACTIVE        0x10030a75   Thumb Code     0  QCA6174_SCAQBAFM.sym ABSOLUTE
    SLC_HlrTxProc_LE_ADVERTISE_DIRECTED      0x10030a8b   Thumb Code     0  QCA6174_SCAQBAFM.sym ABSOLUTE
    SLC_HlrTxProc_LE_ADVERTISE_SCAN_RESPONSE 0x10030aa1   Thumb Code     0  QCA6174_SCAQBAFM.sym ABSOLUTE
    rom_SLC_LE_PreBuildIcb                   0x10030abb   Thumb Code     0  QCA6174_SCAQBAFM.sym ABSOLUTE
    rom_SLC_LE_BuildIcb                      0x10030c19   Thumb Code     0  QCA6174_SCAQBAFM.sym ABSOLUTE
    rom_SLC_HlrTxProc_LE_CONN_DataChan       0x10030dfb   Thumb Code     0  QCA6174_SCAQBAFM.sym ABSOLUTE
    SLC_HlrTxProc_LE_CONN_SLAVE              0x10031107   Thumb Code     0  QCA6174_SCAQBAFM.sym ABSOLUTE
    SLC_HlrTxProc_LE_CONN_MASTER             0x10031177   Thumb Code     0  QCA6174_SCAQBAFM.sym ABSOLUTE
    SLC_HlrTxProc_LE_TEST_TX                 0x10031183   Thumb Code     0  QCA6174_SCAQBAFM.sym ABSOLUTE
    SLC_HlrTxProc_LE_EPTM_TEST_DataChan      0x100311c5   Thumb Code     0  QCA6174_SCAQBAFM.sym ABSOLUTE
    SLC_HlrRxSetup_LE_ADVERTISE_PASSIVE      0x100311eb   Thumb Code     0  QCA6174_SCAQBAFM.sym ABSOLUTE
    SLC_HlrRxSetup_LE_ADVERTISE_ACTIVE       0x100312b9   Thumb Code     0  QCA6174_SCAQBAFM.sym ABSOLUTE
    SLC_HlrRxSetup_LE_ADVERTISE_DIRECTED     0x100312dd   Thumb Code     0  QCA6174_SCAQBAFM.sym ABSOLUTE
    SLC_HlrRxSetup_LE_CONN_SLAVE             0x10031301   Thumb Code     0  QCA6174_SCAQBAFM.sym ABSOLUTE
    SLC_HlrRxSetup_LE_CONN_MASTER            0x10031371   Thumb Code     0  QCA6174_SCAQBAFM.sym ABSOLUTE
    SLC_HlrRxProcHdr_LE_ADVERTISE_PASSIVE    0x100313c5   Thumb Code     0  QCA6174_SCAQBAFM.sym ABSOLUTE
    SLC_HlrRxProcArq_LE_ADVERTISE_PASSIVE    0x10031409   Thumb Code     0  QCA6174_SCAQBAFM.sym ABSOLUTE
    SLC_HlrRxProcHdr_LE_ADVERTISE_ACTIVE     0x1003140b   Thumb Code     0  QCA6174_SCAQBAFM.sym ABSOLUTE
    SLC_HlrRxProcHdr_LE_ADVERTISE_DIRECTED   0x10031593   Thumb Code     0  QCA6174_SCAQBAFM.sym ABSOLUTE
    SLC_HlrRxProcArq_LE_ADVERTISE_DIRECTED   0x10031731   Thumb Code     0  QCA6174_SCAQBAFM.sym ABSOLUTE
    SLC_HlrRxProcArq_LE_ADVERTISE_ACTIVE     0x10031733   Thumb Code     0  QCA6174_SCAQBAFM.sym ABSOLUTE
    SLC_HlrRxProcHdr_LE_CONN_SLAVE           0x10031735   Thumb Code     0  QCA6174_SCAQBAFM.sym ABSOLUTE
    SLC_HlrRxProcHdr_LE_CONN_MASTER          0x10031779   Thumb Code     0  QCA6174_SCAQBAFM.sym ABSOLUTE
    rom_SLC_RxProcHdr_LE_DataChannel         0x100317a7   Thumb Code     0  QCA6174_SCAQBAFM.sym ABSOLUTE
    SLC_HlrRxProcArq_LE_CONN_SLAVE           0x100318c1   Thumb Code     0  QCA6174_SCAQBAFM.sym ABSOLUTE
    SLC_HlrRxProcArq_LE_CONN_MASTER          0x100319a7   Thumb Code     0  QCA6174_SCAQBAFM.sym ABSOLUTE
    SLC_HlrRxProcNonRT_LE_ADVERTISE          0x10031a9d   Thumb Code     0  QCA6174_SCAQBAFM.sym ABSOLUTE
    SLC_HlrRxProcNonRT_LE_ADVERTISE_ACTIVE   0x10031a9f   Thumb Code     0  QCA6174_SCAQBAFM.sym ABSOLUTE
    SLC_HlrRxProcNonRT_LE_ADVERTISE_DIRECTED 0x10031ac9   Thumb Code     0  QCA6174_SCAQBAFM.sym ABSOLUTE
    rom_SLC_LE_procRxPayload                 0x10031af3   Thumb Code     0  QCA6174_SCAQBAFM.sym ABSOLUTE
    rom_SLC_HlrExit_LE_CONN_SLAVE            0x10031c7b   Thumb Code     0  QCA6174_SCAQBAFM.sym ABSOLUTE
    SLC_HlrExit_LE_CONN_NORMAL_SLAVE         0x10031d9f   Thumb Code     0  QCA6174_SCAQBAFM.sym ABSOLUTE
    SLC_HlrExit_LE_CONN_SETUP_SLAVE          0x10031da7   Thumb Code     0  QCA6174_SCAQBAFM.sym ABSOLUTE
    SLC_HlrExit_LE_CONN_UPDATE_SLAVE         0x10031daf   Thumb Code     0  QCA6174_SCAQBAFM.sym ABSOLUTE
    rom_SLC_HlrExit_LE_CONN_MASTER           0x10031db7   Thumb Code     0  QCA6174_SCAQBAFM.sym ABSOLUTE
    SLC_HlrExit_LE_CONN_NORMAL_MASTER        0x10031ebf   Thumb Code     0  QCA6174_SCAQBAFM.sym ABSOLUTE
    SLC_HlrExit_LE_CONN_SETUP_MASTER         0x10031ec7   Thumb Code     0  QCA6174_SCAQBAFM.sym ABSOLUTE
    SLC_HlrExit_LE_CONN_UPDATE_MASTER        0x10031ecf   Thumb Code     0  QCA6174_SCAQBAFM.sym ABSOLUTE
    SLC_HlrExit_LE_SCAN_CONNECT_REQ          0x10031ed7   Thumb Code     0  QCA6174_SCAQBAFM.sym ABSOLUTE
    rom_SLC_LE_procRxPkt                     0x10031ef3   Thumb Code     0  QCA6174_SCAQBAFM.sym ABSOLUTE
    SLC_HlrRxProcNonRT_LE_CONN_SLAVE         0x10031f7b   Thumb Code     0  QCA6174_SCAQBAFM.sym ABSOLUTE
    SLC_HlrRxProcNonRT_LE_CONN_SETUP_SLAVE   0x10032065   Thumb Code     0  QCA6174_SCAQBAFM.sym ABSOLUTE
    SLC_HlrRxProcNonRT_LE_CONN_SETUP_SUBRATE_SLAVE 0x10032135   Thumb Code     0  QCA6174_SCAQBAFM.sym ABSOLUTE
    SLC_HlrRxProcNonRT_LE_CONN_UPDATE_SLAVE  0x100321bd   Thumb Code     0  QCA6174_SCAQBAFM.sym ABSOLUTE
    SLC_HlrRxProcNonRT_LE_CONN_MASTER        0x1003227f   Thumb Code     0  QCA6174_SCAQBAFM.sym ABSOLUTE
    SLC_HlrRxProcNonRT_LE_CONN_SETUP_MASTER  0x100322c1   Thumb Code     0  QCA6174_SCAQBAFM.sym ABSOLUTE
    SLC_HlrRxProcNonRT_LE_CONN_UPDATE_MASTER 0x10032381   Thumb Code     0  QCA6174_SCAQBAFM.sym ABSOLUTE
    rom_SLC_HlrEnter_Dummy                   0x1003241f   Thumb Code     0  QCA6174_SCAQBAFM.sym ABSOLUTE
    rom_SLC_HlrTxProc_Dummy                  0x10032421   Thumb Code     0  QCA6174_SCAQBAFM.sym ABSOLUTE
    rom_SLC_HlrRxSetup_Dummy                 0x10032425   Thumb Code     0  QCA6174_SCAQBAFM.sym ABSOLUTE
    rom_SLC_HlrRxProcHdr_Dummy               0x10032429   Thumb Code     0  QCA6174_SCAQBAFM.sym ABSOLUTE
    rom_SLC_HlrRxProcArq_Dummy               0x1003242d   Thumb Code     0  QCA6174_SCAQBAFM.sym ABSOLUTE
    rom_SLC_HlrRxProcNonRT_Dummy             0x1003242f   Thumb Code     0  QCA6174_SCAQBAFM.sym ABSOLUTE
    rom_SLC_HlrExit_Dummy                    0x10032431   Thumb Code     0  QCA6174_SCAQBAFM.sym ABSOLUTE
    rom_SLC_evalRssiThreshold                0x10032433   Thumb Code     0  QCA6174_SCAQBAFM.sym ABSOLUTE
    rom_SLC_LE_putAdvReportResults           0x100324c3   Thumb Code     0  QCA6174_SCAQBAFM.sym ABSOLUTE
    rom_SLC_LE_procConnectReq                0x1003250d   Thumb Code     0  QCA6174_SCAQBAFM.sym ABSOLUTE
    rom_SLC_LE_startConnSlave                0x1003263b   Thumb Code     0  QCA6174_SCAQBAFM.sym ABSOLUTE
    rom_SLC_LE_FreeCtrlPdu                   0x10032869   Thumb Code     0  QCA6174_SCAQBAFM.sym ABSOLUTE
    rom_SLC_LE_procRxPayload_TEST            0x10032989   Thumb Code     0  QCA6174_SCAQBAFM.sym ABSOLUTE
    rom_SLC_LE_evalMoreData                  0x100329af   Thumb Code     0  QCA6174_SCAQBAFM.sym ABSOLUTE
    rom_SLC_LE_setupEncrypt                  0x100329f5   Thumb Code     0  QCA6174_SCAQBAFM.sym ABSOLUTE
    rom_SLC_LE_addDeviceToScanRspList        0x10032a19   Thumb Code     0  QCA6174_SCAQBAFM.sym ABSOLUTE
    rom_SLC_Hlr_LE_txSetup_NONE              0x10032a5d   Thumb Code     0  QCA6174_SCAQBAFM.sym ABSOLUTE
    rom_SLC_LE_StopScanConnect               0x10032a5f   Thumb Code     0  QCA6174_SCAQBAFM.sym ABSOLUTE
    rom_SLC_FrameInt_patch_hook              0x10032c19   Thumb Code     0  QCA6174_SCAQBAFM.sym ABSOLUTE
    rom_SLC_ScheduleNextInquiryScan          0x10032c95   Thumb Code     0  QCA6174_SCAQBAFM.sym ABSOLUTE
    rom_SLC_ScheduleNextPageScan             0x10032cf9   Thumb Code     0  QCA6174_SCAQBAFM.sym ABSOLUTE
    rom_SLC_ScheduleNextBCA                  0x10032d81   Thumb Code     0  QCA6174_SCAQBAFM.sym ABSOLUTE
    rom_SLC_ScheduleNextSyncTrainScan        0x10032e99   Thumb Code     0  QCA6174_SCAQBAFM.sym ABSOLUTE
    rom_SLC_ScheduleAlohaBackoff             0x10032f23   Thumb Code     0  QCA6174_SCAQBAFM.sym ABSOLUTE
    rom_SLC_ScheduleUpdatePagescanSuccess    0x10032f75   Thumb Code     0  QCA6174_SCAQBAFM.sym ABSOLUTE
    rom_SLC_ScheduleNextPiconet              0x10033017   Thumb Code     0  QCA6174_SCAQBAFM.sym ABSOLUTE
    rom_SLC_CheckSleep                       0x100332c3   Thumb Code     0  QCA6174_SCAQBAFM.sym ABSOLUTE
    rom_SLC_LoadDefaultFrameContext          0x1003338f   Thumb Code     0  QCA6174_SCAQBAFM.sym ABSOLUTE
    rom_SLC_Scheduler                        0x100333fb   Thumb Code     0  QCA6174_SCAQBAFM.sym ABSOLUTE
    rom_SLC_FrameSetup                       0x1003354d   Thumb Code     0  QCA6174_SCAQBAFM.sym ABSOLUTE
    rom_SLC_Sleep                            0x1003363f   Thumb Code     0  QCA6174_SCAQBAFM.sym ABSOLUTE
    rom_SLC_Wakeup                           0x10033687   Thumb Code     0  QCA6174_SCAQBAFM.sym ABSOLUTE
    rom_SLC_WakeupPending                    0x100336bf   Thumb Code     0  QCA6174_SCAQBAFM.sym ABSOLUTE
    rom_SLC_WriteZeroByteDM1NewIcb           0x100336d3   Thumb Code     0  QCA6174_SCAQBAFM.sym ABSOLUTE
    rom_SLC_buildPayloadFlowICB              0x100336e5   Thumb Code     0  QCA6174_SCAQBAFM.sym ABSOLUTE
    rom_SLC_PreBuild_Icb                     0x10033721   Thumb Code     0  QCA6174_SCAQBAFM.sym ABSOLUTE
    rom_SLC_PreBuild_Icb_ACL_2_3             0x10033967   Thumb Code     0  QCA6174_SCAQBAFM.sym ABSOLUTE
    SLC_BuildIcb                             0x10033c5d   Thumb Code     0  QCA6174_SCAQBAFM.sym ABSOLUTE
    SLC_BuildIcb_ACL_2_3                     0x10033f37   Thumb Code     0  QCA6174_SCAQBAFM.sym ABSOLUTE
    rom_SLC_ScheduleACLData                  0x1003420d   Thumb Code     0  QCA6174_SCAQBAFM.sym ABSOLUTE
    rom_SLC_Flush_ACL_U                      0x10034239   Thumb Code     0  QCA6174_SCAQBAFM.sym ABSOLUTE
    rom_SLC_Flush_ProcessFlush               0x100342f3   Thumb Code     0  QCA6174_SCAQBAFM.sym ABSOLUTE
    rom_SLC_SetPiconet                       0x1003465f   Thumb Code     0  QCA6174_SCAQBAFM.sym ABSOLUTE
    rom_SLC_ScheduleNextLE_Scan              0x1003471f   Thumb Code     0  QCA6174_SCAQBAFM.sym ABSOLUTE
    rom_SLC_Schedule_NextLE_Advertising      0x10034837   Thumb Code     0  QCA6174_SCAQBAFM.sym ABSOLUTE
    rom_SLC_Schedule_patch_hook              0x10034879   Thumb Code     0  QCA6174_SCAQBAFM.sym ABSOLUTE
    rom_SLC_connTaskProc                     0x100348a5   Thumb Code     0  QCA6174_SCAQBAFM.sym ABSOLUTE
    rom_SLC_onConnHdrRx                      0x10034aff   Thumb Code     0  QCA6174_SCAQBAFM.sym ABSOLUTE
    rom_SLC_initConnTask                     0x10034c47   Thumb Code     0  QCA6174_SCAQBAFM.sym ABSOLUTE
    rom_SLC_onConnStateChanged               0x10034c53   Thumb Code     0  QCA6174_SCAQBAFM.sym ABSOLUTE
    rom_SLC_onConnPriorityChanged            0x10034d1d   Thumb Code     0  QCA6174_SCAQBAFM.sym ABSOLUTE
    rom_SLC_onBroadcastTxDone                0x10034d73   Thumb Code     0  QCA6174_SCAQBAFM.sym ABSOLUTE
    rom_SLC_ConnEvalScanWindow               0x10034dc3   Thumb Code     0  QCA6174_SCAQBAFM.sym ABSOLUTE
    rom_SDB_InitData                         0x10034e71   Thumb Code     0  QCA6174_SCAQBAFM.sym ABSOLUTE
    rom_SDB_InitConnection                   0x1003514f   Thumb Code     0  QCA6174_SCAQBAFM.sym ABSOLUTE
    rom_SDB_InitActiveConnection             0x10035173   Thumb Code     0  QCA6174_SCAQBAFM.sym ABSOLUTE
    rom_SDB_InitScoConnection                0x100351b1   Thumb Code     0  QCA6174_SCAQBAFM.sym ABSOLUTE
    rom_SDB_FreePiconet                      0x100351b7   Thumb Code     0  QCA6174_SCAQBAFM.sym ABSOLUTE
    rom_SDB_PiconetBuildActiveMemberList     0x100351f7   Thumb Code     0  QCA6174_SCAQBAFM.sym ABSOLUTE
    rom_SDB_TotalBuildActiveMemberList       0x1003544f   Thumb Code     0  QCA6174_SCAQBAFM.sym ABSOLUTE
    rom_SDB_addBroadcastConnection           0x10035579   Thumb Code     0  QCA6174_SCAQBAFM.sym ABSOLUTE
    rom_SDB_allocateBroadcastConnection      0x1003564b   Thumb Code     0  QCA6174_SCAQBAFM.sym ABSOLUTE
    rom_SDB_20LogCalc                        0x1003565f   Thumb Code     0  QCA6174_SCAQBAFM.sym ABSOLUTE
    rom_SDB_GetRssiDbm                       0x1003572d   Thumb Code     0  QCA6174_SCAQBAFM.sym ABSOLUTE
    rom_SDB_parseHCI_VoiceSettings           0x1003573f   Thumb Code     0  QCA6174_SCAQBAFM.sym ABSOLUTE
    rom_SDB_parseHCI_EnhancedVoiceSettings   0x10035801   Thumb Code     0  QCA6174_SCAQBAFM.sym ABSOLUTE
    rom_SDB_buildHCI_VoiceSettings           0x100358cf   Thumb Code     0  QCA6174_SCAQBAFM.sym ABSOLUTE
    rom_SDB_calcWindowDrift                  0x1003590d   Thumb Code     0  QCA6174_SCAQBAFM.sym ABSOLUTE
    rom_SDB_calcScanACparam                  0x10035945   Thumb Code     0  QCA6174_SCAQBAFM.sym ABSOLUTE
    rom_SDB_MasterPiconetSetPolls            0x100359d7   Thumb Code     0  QCA6174_SCAQBAFM.sym ABSOLUTE
    rom_SDB_BroadcastTxDelete                0x10035a2d   Thumb Code     0  QCA6174_SCAQBAFM.sym ABSOLUTE
    rom_SDB_BroadcastTxAdd                   0x10035a37   Thumb Code     0  QCA6174_SCAQBAFM.sym ABSOLUTE
    rom_SDB_Wakeup                           0x10035a49   Thumb Code     0  QCA6174_SCAQBAFM.sym ABSOLUTE
    rom_SDB_WakeupInit                       0x10035a8d   Thumb Code     0  QCA6174_SCAQBAFM.sym ABSOLUTE
    rom_SDB_ReadStoredLinkKey                0x10035ae1   Thumb Code     0  QCA6174_SCAQBAFM.sym ABSOLUTE
    rom_SDB_WriteStoredLinkKey               0x10035b39   Thumb Code     0  QCA6174_SCAQBAFM.sym ABSOLUTE
    rom_SDB_InitPollTimer                    0x10035b8b   Thumb Code     0  QCA6174_SCAQBAFM.sym ABSOLUTE
    rom_SDB_BCH                              0x10035b91   Thumb Code     0  QCA6174_SCAQBAFM.sym ABSOLUTE
    rom_SDB_calculateParityBits              0x10035c41   Thumb Code     0  QCA6174_SCAQBAFM.sym ABSOLUTE
    rom_SDB_CalculateAccessCode              0x10035d0d   Thumb Code     0  QCA6174_SCAQBAFM.sym ABSOLUTE
    rom_SDB_getPiconetClock                  0x10035d8f   Thumb Code     0  QCA6174_SCAQBAFM.sym ABSOLUTE
    rom_SDB_addClock16_12Offset              0x10035db9   Thumb Code     0  QCA6174_SCAQBAFM.sym ABSOLUTE
    rom_SDB_getNativeClock                   0x10035dcf   Thumb Code     0  QCA6174_SCAQBAFM.sym ABSOLUTE
    rom_SDB_convertNativeClock2PiconetClock  0x10035df9   Thumb Code     0  QCA6174_SCAQBAFM.sym ABSOLUTE
    rom_SDB_convertPiconetClock2NativeClock  0x10035e15   Thumb Code     0  QCA6174_SCAQBAFM.sym ABSOLUTE
    rom_SDB_getTimingControlFlag             0x10035e31   Thumb Code     0  QCA6174_SCAQBAFM.sym ABSOLUTE
    rom_SDB_getSlotOffset                    0x10035e41   Thumb Code     0  QCA6174_SCAQBAFM.sym ABSOLUTE
    rom_SDB_getClockOffset                   0x10035e91   Thumb Code     0  QCA6174_SCAQBAFM.sym ABSOLUTE
    rom_SDB_GetRssiThresholdState            0x10035ec1   Thumb Code     0  QCA6174_SCAQBAFM.sym ABSOLUTE
    rom_SDB_isLERssiDbmValid                 0x10035ee9   Thumb Code     0  QCA6174_SCAQBAFM.sym ABSOLUTE
    rom_SDB_updateRSSI_Thresholds            0x10035f1d   Thumb Code     0  QCA6174_SCAQBAFM.sym ABSOLUTE
    rom_SDB_SetLocalName                     0x10035f65   Thumb Code     0  QCA6174_SCAQBAFM.sym ABSOLUTE
    rom_SDB_GetLocalName                     0x10035f97   Thumb Code     0  QCA6174_SCAQBAFM.sym ABSOLUTE
    rom_SDB_InitializeHciDataPools           0x10035fa1   Thumb Code     0  QCA6174_SCAQBAFM.sym ABSOLUTE
    rom_SDB_InitializeHciDataTxPool          0x10035fbd   Thumb Code     0  QCA6174_SCAQBAFM.sym ABSOLUTE
    rom_SDB_InitializeHciDataRxPool          0x10035fef   Thumb Code     0  QCA6174_SCAQBAFM.sym ABSOLUTE
    rom_SDB_InitializeHciLeDataTxPool        0x10036045   Thumb Code     0  QCA6174_SCAQBAFM.sym ABSOLUTE
    rom_SDB_ValidateRxBufferSize             0x10036079   Thumb Code     0  QCA6174_SCAQBAFM.sym ABSOLUTE
    rom_SDB_HTON_ACLpacketTypes              0x100360ad   Thumb Code     0  QCA6174_SCAQBAFM.sym ABSOLUTE
    rom_SDB_LE_InitConnection                0x100360c9   Thumb Code     0  QCA6174_SCAQBAFM.sym ABSOLUTE
    rom_SDB_LE_computeConnectionMaxFrameCount 0x100360e1   Thumb Code     0  QCA6174_SCAQBAFM.sym ABSOLUTE
    rom_SDB_LE_initRandomDeviceAddr          0x1003615d   Thumb Code     0  QCA6174_SCAQBAFM.sym ABSOLUTE
    rom_SDB_LE_copyConnParams                0x1003617f   Thumb Code     0  QCA6174_SCAQBAFM.sym ABSOLUTE
    rom_SDB_LE_InitAdvertising               0x100361fb   Thumb Code     0  QCA6174_SCAQBAFM.sym ABSOLUTE
    rom_SDB_LE_InitScan                      0x100362af   Thumb Code     0  QCA6174_SCAQBAFM.sym ABSOLUTE
    rom_SDB_addrListCreateList               0x100362f7   Thumb Code     0  QCA6174_SCAQBAFM.sym ABSOLUTE
    rom_SDB_addrListFreeList                 0x10036341   Thumb Code     0  QCA6174_SCAQBAFM.sym ABSOLUTE
    rom_SDB_addrListAdd                      0x10036357   Thumb Code     0  QCA6174_SCAQBAFM.sym ABSOLUTE
    rom_SDB_addrListClear                    0x10036415   Thumb Code     0  QCA6174_SCAQBAFM.sym ABSOLUTE
    rom_SDB_addrListRemove                   0x10036441   Thumb Code     0  QCA6174_SCAQBAFM.sym ABSOLUTE
    rom_SDB_addrListFind                     0x100364ad   Thumb Code     0  QCA6174_SCAQBAFM.sym ABSOLUTE
    rom_SDB_uuidListClear                    0x10036689   Thumb Code     0  QCA6174_SCAQBAFM.sym ABSOLUTE
    rom_SDB_uuidListFind                     0x100366b5   Thumb Code     0  QCA6174_SCAQBAFM.sym ABSOLUTE
    rom_SDB_uuidListAdd                      0x10036789   Thumb Code     0  QCA6174_SCAQBAFM.sym ABSOLUTE
    rom_SDB_uuidListRemove                   0x1003684f   Thumb Code     0  QCA6174_SCAQBAFM.sym ABSOLUTE
    rom_SDB_advPCFDataListClear              0x100368bf   Thumb Code     0  QCA6174_SCAQBAFM.sym ABSOLUTE
    rom_SDB_advPCFDataListFind               0x100368eb   Thumb Code     0  QCA6174_SCAQBAFM.sym ABSOLUTE
    rom_SDB_advPCFDataListAdd                0x1003696d   Thumb Code     0  QCA6174_SCAQBAFM.sym ABSOLUTE
    rom_SDB_advPCFDataListRemove             0x10036a43   Thumb Code     0  QCA6174_SCAQBAFM.sym ABSOLUTE
    rom_SDB_findInIRKList                    0x10036abf   Thumb Code     0  QCA6174_SCAQBAFM.sym ABSOLUTE
    rom_SDB_addToIRKList                     0x10036b03   Thumb Code     0  QCA6174_SCAQBAFM.sym ABSOLUTE
    rom_SDB_removeFromIRKList                0x10036baf   Thumb Code     0  QCA6174_SCAQBAFM.sym ABSOLUTE
    rom_SDB_clearIRKList                     0x10036c09   Thumb Code     0  QCA6174_SCAQBAFM.sym ABSOLUTE
    rom_SDB_resolvePrivateAddress            0x10036c31   Thumb Code     0  QCA6174_SCAQBAFM.sym ABSOLUTE
    rom_SDB_buildResolvablePrivateAddress    0x10036cbb   Thumb Code     0  QCA6174_SCAQBAFM.sym ABSOLUTE
    rom_SDB_LE_generateRandomAccessAddr      0x10036d23   Thumb Code     0  QCA6174_SCAQBAFM.sym ABSOLUTE
    rom_SDB_LE_accessAddrVerifyConsecutive   0x10036d39   Thumb Code     0  QCA6174_SCAQBAFM.sym ABSOLUTE
    rom_SDB_LE_accessAddrVerifyAdvHammingDist 0x10036d61   Thumb Code     0  QCA6174_SCAQBAFM.sym ABSOLUTE
    rom_SDB_LE_accessAddrVerifyDiffBytes     0x10036d81   Thumb Code     0  QCA6174_SCAQBAFM.sym ABSOLUTE
    rom_SDB_LE_accessAddrCountTransitions    0x10036d9f   Thumb Code     0  QCA6174_SCAQBAFM.sym ABSOLUTE
    rom_SDB_LE_accessAddrVerifyMaxTransitions 0x10036dd9   Thumb Code     0  QCA6174_SCAQBAFM.sym ABSOLUTE
    rom_SDB_LE_accessAddrVerifyMinTransitions 0x10036df1   Thumb Code     0  QCA6174_SCAQBAFM.sym ABSOLUTE
    rom_SDB_LE_accessAddrVerifyHammingDist   0x10036e09   Thumb Code     0  QCA6174_SCAQBAFM.sym ABSOLUTE
    rom_SDB_LE_accessAddrVerify              0x10036e49   Thumb Code     0  QCA6174_SCAQBAFM.sym ABSOLUTE
    rom_SDB_LE_getAccessAddress              0x10036e8f   Thumb Code     0  QCA6174_SCAQBAFM.sym ABSOLUTE
    rom_SDB_LE_buildAdvChannelIndexList      0x10036f4f   Thumb Code     0  QCA6174_SCAQBAFM.sym ABSOLUTE
    rom_SDB_LE_getNextAdvChannelIndex        0x10036f75   Thumb Code     0  QCA6174_SCAQBAFM.sym ABSOLUTE
    rom_SDB_CCM_initDayCounter               0x10036fb1   Thumb Code     0  QCA6174_SCAQBAFM.sym ABSOLUTE
    rom_SDB_CCM_updateDayCounter             0x10036fd1   Thumb Code     0  QCA6174_SCAQBAFM.sym ABSOLUTE
    rom_PM_Init                              0x10037071   Thumb Code     0  QCA6174_SCAQBAFM.sym ABSOLUTE
    rom_PM_SetPowerModeWithOverride          0x10037095   Thumb Code     0  QCA6174_SCAQBAFM.sym ABSOLUTE
    rom_PM_GetPowerModeSleepEnabled          0x100370bb   Thumb Code     0  QCA6174_SCAQBAFM.sym ABSOLUTE
    rom_PM_WCNXOGetConfig                    0x100370d7   Thumb Code     0  QCA6174_SCAQBAFM.sym ABSOLUTE
    rom_SendHciCommandToHciTrans             0x10037209   Thumb Code     0  QCA6174_SCAQBAFM.sym ABSOLUTE
    rom_SendHciAclDataToHciTrans             0x10037219   Thumb Code     0  QCA6174_SCAQBAFM.sym ABSOLUTE
    rom_ReceiveHciEventFromHciTrans          0x10037229   Thumb Code     0  QCA6174_SCAQBAFM.sym ABSOLUTE
    rom_ReceiveAclDataFromHciTrans           0x10037255   Thumb Code     0  QCA6174_SCAQBAFM.sym ABSOLUTE
    rom_Bth_RouterInit                       0x1003725d   Thumb Code     0  QCA6174_SCAQBAFM.sym ABSOLUTE
    rom_Bth_RouterDeinit                     0x1003726b   Thumb Code     0  QCA6174_SCAQBAFM.sym ABSOLUTE
    rom_Router_RemoveHciEvtFromHcitrans      0x10037271   Thumb Code     0  QCA6174_SCAQBAFM.sym ABSOLUTE
    rom_Router_RemoveAclDataFromHcitrans     0x100372c5   Thumb Code     0  QCA6174_SCAQBAFM.sym ABSOLUTE
    rom_Router_InsertHciCmdToHcitrans        0x10037319   Thumb Code     0  QCA6174_SCAQBAFM.sym ABSOLUTE
    rom_Router_InsertAclDataToHcitrans       0x100373af   Thumb Code     0  QCA6174_SCAQBAFM.sym ABSOLUTE
    rom_AthHciTransProcess                   0x1003743d   Thumb Code     0  QCA6174_SCAQBAFM.sym ABSOLUTE
    rom_Ath_EVM_Process                      0x10037453   Thumb Code     0  QCA6174_SCAQBAFM.sym ABSOLUTE
    rom_BthFlushHciCommandAclData            0x10037469   Thumb Code     0  QCA6174_SCAQBAFM.sym ABSOLUTE
    rom_WIP_PRU_SystemReady                  0x10037549   Thumb Code     0  QCA6174_SCAQBAFM.sym ABSOLUTE
    rom_WIP_PRU_SystemShutDown               0x10037585   Thumb Code     0  QCA6174_SCAQBAFM.sym ABSOLUTE
    rom_WIP_PRU_PeriodicTask                 0x10037595   Thumb Code     0  QCA6174_SCAQBAFM.sym ABSOLUTE
    rom_WIP_PRU_A4WP_ProcessEvents           0x100375a9   Thumb Code     0  QCA6174_SCAQBAFM.sym ABSOLUTE
    rom_A4WP_HandleDataUpdateEvent           0x100377a7   Thumb Code     0  QCA6174_SCAQBAFM.sym ABSOLUTE
    rom_A4WP_HandleAlertNotifyEvent          0x100378a5   Thumb Code     0  QCA6174_SCAQBAFM.sym ABSOLUTE
    rom_A4WP_HandlePowerApplyEvent           0x100378f3   Thumb Code     0  QCA6174_SCAQBAFM.sym ABSOLUTE
    rom_WIP_init                             0x100379c5   Thumb Code     0  QCA6174_SCAQBAFM.sym ABSOLUTE
    rom_WIP_init_module                      0x100379eb   Thumb Code     0  QCA6174_SCAQBAFM.sym ABSOLUTE
    rom_WIP_DeInit                           0x10037a0d   Thumb Code     0  QCA6174_SCAQBAFM.sym ABSOLUTE
    rom_WIP_PreReset                         0x10037a1d   Thumb Code     0  QCA6174_SCAQBAFM.sym ABSOLUTE
    rom_WIP_Reset                            0x10037a1f   Thumb Code     0  QCA6174_SCAQBAFM.sym ABSOLUTE
    rom_WIP_SystemReady                      0x10037a21   Thumb Code     0  QCA6174_SCAQBAFM.sym ABSOLUTE
    rom_WIP_ProcE_LE_STACK                   0x10037a43   Thumb Code     0  QCA6174_SCAQBAFM.sym ABSOLUTE
    rom_WIP_ProcE_VTXP_PACKET_TO_LE_STACK_READY 0x10037a49   Thumb Code     0  QCA6174_SCAQBAFM.sym ABSOLUTE
    rom_WIP_ProcE_DBG_LOG_DATA_READY         0x10037a4f   Thumb Code     0  QCA6174_SCAQBAFM.sym ABSOLUTE
    rom_BKGD_ProcE_APP_RESOURCE_CLEANUP      0x10037a7b   Thumb Code     0  QCA6174_SCAQBAFM.sym ABSOLUTE
    WIP_ProcTimer_UTILITY_A                  0x10037ab7   Thumb Code     0  QCA6174_SCAQBAFM.sym ABSOLUTE
    rom_PFAL_DMR_Init                        0x10037b7d   Thumb Code     0  QCA6174_SCAQBAFM.sym ABSOLUTE
    rom_PFAL_DMR_UpdateChannelAvoidenceSettings 0x10037ba3   Thumb Code     0  QCA6174_SCAQBAFM.sym ABSOLUTE
    rom_PFAL_DMR_RequestContinuousTxBTActive 0x10037c0d   Thumb Code     0  QCA6174_SCAQBAFM.sym ABSOLUTE
    rom_LLM_ProcE_UPDATE_CHAN_MAP_UBC        0x10037c4d   Thumb Code     0  QCA6174_SCAQBAFM.sym ABSOLUTE
    LLM_ProcTimer_UPDATE_CHAN_MAP_AFH_T1     0x10037c89   Thumb Code     0  QCA6174_SCAQBAFM.sym ABSOLUTE
    LLM_ProcTimer_UPDATE_CHAN_MAP_AFH_T2     0x10037ced   Thumb Code     0  QCA6174_SCAQBAFM.sym ABSOLUTE
    rom_PFAL_DMR_SlaveRxSetupFunc            0x10037d03   Thumb Code     0  QCA6174_SCAQBAFM.sym ABSOLUTE
    rom_PFAL_COEX_MCI_RECOVER                0x10037d4d   Thumb Code     0  QCA6174_SCAQBAFM.sym ABSOLUTE
    PFAL_COEX_MCI_ProcTimer_Main             0x10037d79   Thumb Code     0  QCA6174_SCAQBAFM.sym ABSOLUTE
    rom_MCI_CONTSetRfInfo                    0x10037da7   Thumb Code     0  QCA6174_SCAQBAFM.sym ABSOLUTE
    rom_MCI_Ser_Disable_Timestamp            0x10037ec3   Thumb Code     0  QCA6174_SCAQBAFM.sym ABSOLUTE
    rom_MCI_Deser_Disable_Timestamp          0x10037ed9   Thumb Code     0  QCA6174_SCAQBAFM.sym ABSOLUTE
    rom_PFAL_COEX_MCI_Init_Pfal_Part2        0x10037eef   Thumb Code     0  QCA6174_SCAQBAFM.sym ABSOLUTE
    rom_PFAL_COEX_MCI_Init_Pfal_Part1        0x10037ef7   Thumb Code     0  QCA6174_SCAQBAFM.sym ABSOLUTE
    rom_PFAL_COEX_MCI_Init_procedure         0x10037f37   Thumb Code     0  QCA6174_SCAQBAFM.sym ABSOLUTE
    rom_PFAL_COEX_MCI_Bootup_Sequence        0x10037f71   Thumb Code     0  QCA6174_SCAQBAFM.sym ABSOLUTE
    rom_PFAL_COEX_MCI_POWER_Isr              0x10037fb1   Thumb Code     0  QCA6174_SCAQBAFM.sym ABSOLUTE
    rom_PFAL_COEX_MCI_Isr                    0x10038001   Thumb Code     0  QCA6174_SCAQBAFM.sym ABSOLUTE
    rom_MCI_Send_Msg                         0x10038329   Thumb Code     0  QCA6174_SCAQBAFM.sym ABSOLUTE
    rom_MCI_BusRecoverySequence              0x10038535   Thumb Code     0  QCA6174_SCAQBAFM.sym ABSOLUTE
    rom_PFAL_COEX_MCI_Wake_Remote            0x100385b3   Thumb Code     0  QCA6174_SCAQBAFM.sym ABSOLUTE
    rom_MCI_Poll_Remote_Sleep_State          0x10038639   Thumb Code     0  QCA6174_SCAQBAFM.sym ABSOLUTE
    rom_MCI_Get_Remote_Sleep_State           0x10038647   Thumb Code     0  QCA6174_SCAQBAFM.sym ABSOLUTE
    rom_MCI_Set_Remote_Sleep                 0x1003864d   Thumb Code     0  QCA6174_SCAQBAFM.sym ABSOLUTE
    rom_MCI_Set_Remote_Awake                 0x10038655   Thumb Code     0  QCA6174_SCAQBAFM.sym ABSOLUTE
    rom_MCI_RTC_Sys_Wakeing                  0x1003865d   Thumb Code     0  QCA6174_SCAQBAFM.sym ABSOLUTE
    rom_MCI_RTC_Sys_Sleeping                 0x1003865f   Thumb Code     0  QCA6174_SCAQBAFM.sym ABSOLUTE
    rom_MCI_Remote_Sleeping_Int_Handle       0x10038661   Thumb Code     0  QCA6174_SCAQBAFM.sym ABSOLUTE
    rom_MCI_Remote_Waking_Int_Handle         0x10038673   Thumb Code     0  QCA6174_SCAQBAFM.sym ABSOLUTE
    rom_MCI_Remote_Req_wake_Int_Handle       0x100386f7   Thumb Code     0  QCA6174_SCAQBAFM.sym ABSOLUTE
    rom_MCI_Local_Sleeping_Handle            0x10038709   Thumb Code     0  QCA6174_SCAQBAFM.sym ABSOLUTE
    rom_MCI_Local_Waking_Handle              0x10038711   Thumb Code     0  QCA6174_SCAQBAFM.sym ABSOLUTE
    rom_MCI_Notify_Local_Status              0x1003875b   Thumb Code     0  QCA6174_SCAQBAFM.sym ABSOLUTE
    rom_PFAL_COEX_Update_Command10           0x1003876f   Thumb Code     0  QCA6174_SCAQBAFM.sym ABSOLUTE
    rom_PFAL_COEX_CONT_NACK_Abort            0x100387af   Thumb Code     0  QCA6174_SCAQBAFM.sym ABSOLUTE
    rom_MCI_Message_Done_Int_Handler         0x100387d7   Thumb Code     0  QCA6174_SCAQBAFM.sym ABSOLUTE
    rom_PFAL_COEX_MCI_InitConninfo           0x10038885   Thumb Code     0  QCA6174_SCAQBAFM.sym ABSOLUTE
    rom_PFAL_COEX_MCI_BT_Add_Handle          0x100388bd   Thumb Code     0  QCA6174_SCAQBAFM.sym ABSOLUTE
    rom_PFAL_COEX_MCI_BT_Remove_Profile_From_Node 0x1003894f   Thumb Code     0  QCA6174_SCAQBAFM.sym ABSOLUTE
    rom_PFAL_COEX_MCI_BT_Remove_Handle       0x100389c1   Thumb Code     0  QCA6174_SCAQBAFM.sym ABSOLUTE
    rom_PFAL_COEX_MCI_BT_Update_LinkStatus   0x10038a51   Thumb Code     0  QCA6174_SCAQBAFM.sym ABSOLUTE
    rom_PFAL_COEX_MCI_BT_ADD_Profile         0x10038a83   Thumb Code     0  QCA6174_SCAQBAFM.sym ABSOLUTE
    rom_PFAL_COEX_MCI_BT_Remove_Profile      0x10038ad7   Thumb Code     0  QCA6174_SCAQBAFM.sym ABSOLUTE
    rom_PFAL_COEX_MCI_Get_SCOConn            0x10038b63   Thumb Code     0  QCA6174_SCAQBAFM.sym ABSOLUTE
    rom_MCI_IS_SCO_CONN                      0x10038b87   Thumb Code     0  QCA6174_SCAQBAFM.sym ABSOLUTE
    rom_MCI_IS_ESCO_CONN                     0x10038bb5   Thumb Code     0  QCA6174_SCAQBAFM.sym ABSOLUTE
    rom_MCI_IS_SNIFF_MODE                    0x10038be3   Thumb Code     0  QCA6174_SCAQBAFM.sym ABSOLUTE
    rom_PTF_ConvertDeltaTimeStamp_toUS       0x10038bff   Thumb Code     0  QCA6174_SCAQBAFM.sym ABSOLUTE
    rom_MCI_GETCONNPROFILE                   0x10038c03   Thumb Code     0  QCA6174_SCAQBAFM.sym ABSOLUTE
    rom_MCI_GET_LINKID_CONN                  0x10038c5d   Thumb Code     0  QCA6174_SCAQBAFM.sym ABSOLUTE
    rom_MCI_GetLinkID                        0x10038cb1   Thumb Code     0  QCA6174_SCAQBAFM.sym ABSOLUTE
    rom_PFAL_COEX_MCI_Latch_CurrCLK          0x10038cb9   Thumb Code     0  QCA6174_SCAQBAFM.sym ABSOLUTE
    rom_MCI_Get_Starttime                    0x10038cdf   Thumb Code     0  QCA6174_SCAQBAFM.sym ABSOLUTE
    rom_MCI_Schd_Calc_Packet_Len             0x10038d61   Thumb Code     0  QCA6174_SCAQBAFM.sym ABSOLUTE
    rom_MCI_Schd_Conn_Calc_Packet_Len        0x10038d8d   Thumb Code     0  QCA6174_SCAQBAFM.sym ABSOLUTE
    rom_MCI_init                             0x10038eb9   Thumb Code     0  QCA6174_SCAQBAFM.sym ABSOLUTE
    rom_MCI_SystemReady                      0x10038ebb   Thumb Code     0  QCA6174_SCAQBAFM.sym ABSOLUTE
    rom_MCI_PreReset                         0x10038ebd   Thumb Code     0  QCA6174_SCAQBAFM.sym ABSOLUTE
    rom_MCI_Reset                            0x10038ebf   Thumb Code     0  QCA6174_SCAQBAFM.sym ABSOLUTE
    rom_MCI_ProcE_REQ_WAKE_MSG               0x10038ee5   Thumb Code     0  QCA6174_SCAQBAFM.sym ABSOLUTE
    rom_MCI_ProcE_REMOTE_RESET               0x10038ee7   Thumb Code     0  QCA6174_SCAQBAFM.sym ABSOLUTE
    rom_MCI_ProcE_REMOTE_VOICE_UPDATE        0x10038eed   Thumb Code     0  QCA6174_SCAQBAFM.sym ABSOLUTE
    rom_MCI_ProcE_REMOTE_SNIFF_UPDATE        0x10038f4b   Thumb Code     0  QCA6174_SCAQBAFM.sym ABSOLUTE
    rom_MCI_ProcE_REMOTE_DEVICE_WAKE         0x10038fab   Thumb Code     0  QCA6174_SCAQBAFM.sym ABSOLUTE
    rom_MCI_ProcE_LOCAL_DEVICE_WAKE          0x10038fbb   Thumb Code     0  QCA6174_SCAQBAFM.sym ABSOLUTE
    rom_MCI_ProcE_MSG_INVALID                0x10038fe7   Thumb Code     0  QCA6174_SCAQBAFM.sym ABSOLUTE
    rom_MCI_ProcE_MCI_CAL_NOTIFY_ON          0x10038fe9   Thumb Code     0  QCA6174_SCAQBAFM.sym ABSOLUTE
    rom_MCI_ProcE_MCI_CAL_NOTIFY_OFF         0x10038ff5   Thumb Code     0  QCA6174_SCAQBAFM.sym ABSOLUTE
    rom_MCI_ProcE_MCI_RECOVERY_ON            0x10038ffd   Thumb Code     0  QCA6174_SCAQBAFM.sym ABSOLUTE
    rom_MCI_ProcE_MCI_RECOVERY_OFF           0x1003900b   Thumb Code     0  QCA6174_SCAQBAFM.sym ABSOLUTE
    rom_MCI_ProcE_MCI_XSCO_SCHED_PREDICTION  0x10039013   Thumb Code     0  QCA6174_SCAQBAFM.sym ABSOLUTE
    rom_MCI_ProcE_MCI_SNIFF_SCHED_PREDICTION 0x10039015   Thumb Code     0  QCA6174_SCAQBAFM.sym ABSOLUTE
    rom_MCI_ProcE_MCI_SCHED_MSG_TRIGGER_GPM  0x10039017   Thumb Code     0  QCA6174_SCAQBAFM.sym ABSOLUTE
    rom_MCI_ProcE_MCI_RESERVED               0x10039021   Thumb Code     0  QCA6174_SCAQBAFM.sym ABSOLUTE
    MCI_ProcTimer_TIMER_1                    0x10039023   Thumb Code     0  QCA6174_SCAQBAFM.sym ABSOLUTE
    MCI_ProcTimer_TIMER_2                    0x1003902d   Thumb Code     0  QCA6174_SCAQBAFM.sym ABSOLUTE
    rom_PFAL_COEX_MWS_Get_Init_Remote_State  0x1003909d   Thumb Code     0  QCA6174_SCAQBAFM.sym ABSOLUTE
    rom_PFAL_COEX_MWS_Remote_State_Change    0x100390a1   Thumb Code     0  QCA6174_SCAQBAFM.sym ABSOLUTE
    rom_PFAL_COEX_MWS_Comm_Clk_Latch         0x100390a5   Thumb Code     0  QCA6174_SCAQBAFM.sym ABSOLUTE
    rom_PFLA_COEX_MWS_enable                 0x100390dd   Thumb Code     0  QCA6174_SCAQBAFM.sym ABSOLUTE
    rom_PFAL_COEX_MWS_HW_reset               0x100390e9   Thumb Code     0  QCA6174_SCAQBAFM.sym ABSOLUTE
    rom_PFAL_COEX_MWS_2WIRE_BaudClk_Config   0x100390f9   Thumb Code     0  QCA6174_SCAQBAFM.sym ABSOLUTE
    rom_PFAL_COEX_MWS_2WIRE_Tdm_Txfifo_Config 0x10039115   Thumb Code     0  QCA6174_SCAQBAFM.sym ABSOLUTE
    rom_PFAL_COEX_MWS_2WIRE_Tdm_Txfifo_Depth_Get 0x1003912b   Thumb Code     0  QCA6174_SCAQBAFM.sym ABSOLUTE
    rom_PFAL_COEX_MWS_2WIRE_Tdm_Txfifo_Aept_Thr_Get 0x10039137   Thumb Code     0  QCA6174_SCAQBAFM.sym ABSOLUTE
    rom_PFAL_COEX_MWS_2WIRE_Tdm_Rxfifo_Config 0x1003913f   Thumb Code     0  QCA6174_SCAQBAFM.sym ABSOLUTE
    rom_PFAL_COEX_MWS_2WIRE_Tdm_Rxfifo_Depth_Get 0x10039155   Thumb Code     0  QCA6174_SCAQBAFM.sym ABSOLUTE
    rom_PFAL_COEX_MWS_2WIRE_Tdm_Rxfifo_Aful_Thr_Get 0x10039161   Thumb Code     0  QCA6174_SCAQBAFM.sym ABSOLUTE
    rom_PFAL_COEX_MWS_2WIRE_Tdm_Rx_Mask      0x10039169   Thumb Code     0  QCA6174_SCAQBAFM.sym ABSOLUTE
    rom_PFAL_COEX_MWS_2WIRE_TDM_Txfifopush   0x1003917d   Thumb Code     0  QCA6174_SCAQBAFM.sym ABSOLUTE
    rom_PFAL_COEX_MWS_2WIRE_TDM_TxfifopushStr 0x100391bd   Thumb Code     0  QCA6174_SCAQBAFM.sym ABSOLUTE
    rom_PFAL_COEX_MWS_2WIRE_TDM_TxfifopushStr_1 0x1003922d   Thumb Code     0  QCA6174_SCAQBAFM.sym ABSOLUTE
    rom_PFAL_COEX_MWS_2WIRE_TDM_Rxfifopop    0x10039281   Thumb Code     0  QCA6174_SCAQBAFM.sym ABSOLUTE
    rom_PFAL_COEX_MWS_2WIRE_TDM_Rxfifo_PopStr 0x1003929f   Thumb Code     0  QCA6174_SCAQBAFM.sym ABSOLUTE
    rom_PFAL_COEX_MWS_2WIRE_TDM_Txfifopop_Mask 0x100392d1   Thumb Code     0  QCA6174_SCAQBAFM.sym ABSOLUTE
    rom_PFAL_COEX_MWS_2WIRE_TDM_Txfifopop    0x100392d3   Thumb Code     0  QCA6174_SCAQBAFM.sym ABSOLUTE
    rom_PFAL_COEX_MWS_2WIRE_TDM_Timeout_Set  0x100392ff   Thumb Code     0  QCA6174_SCAQBAFM.sym ABSOLUTE
    rom_PFAL_COEX_MWS_2WIRE_DirectMsg_Send   0x10039307   Thumb Code     0  QCA6174_SCAQBAFM.sym ABSOLUTE
    rom_PFAL_COEX_MWS_2WIRE_Type0_MSG_Content 0x1003931f   Thumb Code     0  QCA6174_SCAQBAFM.sym ABSOLUTE
    rom_FFAL_COEX_MWS_2WIRE_Rx_Type0_Latch   0x10039327   Thumb Code     0  QCA6174_SCAQBAFM.sym ABSOLUTE
    rom_PFAL_COEX_MWS_2WIRE_Type1_MSG_Content 0x1003932d   Thumb Code     0  QCA6174_SCAQBAFM.sym ABSOLUTE
    rom_FFAL_COEX_MWS_2WIRE_Rx_Type1_Latch   0x10039337   Thumb Code     0  QCA6174_SCAQBAFM.sym ABSOLUTE
    rom_PFAL_COEX_MWS_2WIRE_Type3_MSG_Content 0x1003933d   Thumb Code     0  QCA6174_SCAQBAFM.sym ABSOLUTE
    rom_FFAL_COEX_MWS_2WIRE_Rx_Type3_Latch   0x10039345   Thumb Code     0  QCA6174_SCAQBAFM.sym ABSOLUTE
    rom_PFAL_COEX_MWS_2WIRE_Type4_MSG_Content 0x1003934b   Thumb Code     0  QCA6174_SCAQBAFM.sym ABSOLUTE
    rom_FFAL_COEX_MWS_2WIRE_Rx_Type4_Latch   0x10039353   Thumb Code     0  QCA6174_SCAQBAFM.sym ABSOLUTE
    rom_PFAL_COEX_MWS_2WIRE_Type5_MSG_Content 0x10039359   Thumb Code     0  QCA6174_SCAQBAFM.sym ABSOLUTE
    rom_FFAL_COEX_MWS_2WIRE_Rx_Type5_Latch   0x10039363   Thumb Code     0  QCA6174_SCAQBAFM.sym ABSOLUTE
    rom_PFAL_COEX_MWS_2WIRE_Type6_MSG_Content 0x10039369   Thumb Code     0  QCA6174_SCAQBAFM.sym ABSOLUTE
    rom_FFAL_COEX_MWS_2WIRE_Rx_Type6_Latch   0x10039373   Thumb Code     0  QCA6174_SCAQBAFM.sym ABSOLUTE
    rom_PFAL_COEX_MWS_2WIRE_Type7_MSG_Content 0x10039379   Thumb Code     0  QCA6174_SCAQBAFM.sym ABSOLUTE
    rom_FFAL_COEX_MWS_2WIRE_Rx_Type7_Latch   0x10039381   Thumb Code     0  QCA6174_SCAQBAFM.sym ABSOLUTE
    rom_PFAL_COEX_MWS_2WIRE_TCM_Send         0x10039387   Thumb Code     0  QCA6174_SCAQBAFM.sym ABSOLUTE
    rom_PFAL_COEX_MWS_2WIRE_Txbreak_Mask     0x10039393   Thumb Code     0  QCA6174_SCAQBAFM.sym ABSOLUTE
    rom_PFAL_COEX_MWS_2WIRE_Rxbreak_Mask     0x100393a7   Thumb Code     0  QCA6174_SCAQBAFM.sym ABSOLUTE
    rom_PFAL_COEX_MWS_2WIRE_IsBusy           0x100393bd   Thumb Code     0  QCA6174_SCAQBAFM.sym ABSOLUTE
    rom_PFAL_COEX_MWS_2WIRE_Reset            0x100393d5   Thumb Code     0  QCA6174_SCAQBAFM.sym ABSOLUTE
    rom_PFAL_COEX_MWS_3WIRE_Reset            0x100393e5   Thumb Code     0  QCA6174_SCAQBAFM.sym ABSOLUTE
    rom_PFAL_COEX_MWS_WBCNT_Fsync_Re_Latch   0x100393f5   Thumb Code     0  QCA6174_SCAQBAFM.sym ABSOLUTE
    rom_PFAL_COEX_MWS_WBCNT_Active_Re_Latch  0x100393fb   Thumb Code     0  QCA6174_SCAQBAFM.sym ABSOLUTE
    rom_PFAL_COEX_MWS_WBCNT_Active_Fe_Latch  0x10039401   Thumb Code     0  QCA6174_SCAQBAFM.sym ABSOLUTE
    rom_PFAL_COEX_MWS_WBCNT_Tx_Re_Latch      0x10039407   Thumb Code     0  QCA6174_SCAQBAFM.sym ABSOLUTE
    rom_PFAL_COEX_MWS_WBCNT_Tx_Fe_Latch      0x1003940d   Thumb Code     0  QCA6174_SCAQBAFM.sym ABSOLUTE
    rom_PFAL_COEX_MWS_WBCNT_Rx_Re_Latch      0x10039413   Thumb Code     0  QCA6174_SCAQBAFM.sym ABSOLUTE
    rom_PFAL_COEX_MWS_WBCNT_Rx_Fe_Latch      0x10039419   Thumb Code     0  QCA6174_SCAQBAFM.sym ABSOLUTE
    rom_PFAL_COEX_MWS_Reset                  0x1003941f   Thumb Code     0  QCA6174_SCAQBAFM.sym ABSOLUTE
    rom_PFAL_COEX_MWS_Tx_Mask                0x10039431   Thumb Code     0  QCA6174_SCAQBAFM.sym ABSOLUTE
    rom_PFAL_COEX_MWS_Intf_Config            0x10039447   Thumb Code     0  QCA6174_SCAQBAFM.sym ABSOLUTE
    rom_PFAL_COEX_MWS_Intr_Enable            0x100394d5   Thumb Code     0  QCA6174_SCAQBAFM.sym ABSOLUTE
    rom_PFAL_COEX_MWS_CXM_Intr_Status_Get    0x100394db   Thumb Code     0  QCA6174_SCAQBAFM.sym ABSOLUTE
    rom_PFAL_COEX_MWS_CXM_Intr_Status_Clear  0x100394e1   Thumb Code     0  QCA6174_SCAQBAFM.sym ABSOLUTE
    rom_PFAL_COEX_MWS_Rxprio_Config          0x100394e7   Thumb Code     0  QCA6174_SCAQBAFM.sym ABSOLUTE
    rom_PFAL_COEX_MWS_Calc_IRQMask           0x10039529   Thumb Code     0  QCA6174_SCAQBAFM.sym ABSOLUTE
    rom_CXM_debug_bus_config                 0x10039621   Thumb Code     0  QCA6174_SCAQBAFM.sym ABSOLUTE
    rom_PFAL_COEX_Delay_RF_TX_LEADING_EDGE   0x10039631   Thumb Code     0  QCA6174_SCAQBAFM.sym ABSOLUTE
    rom_PFAL_COEX_MWS_Init                   0x1003963b   Thumb Code     0  QCA6174_SCAQBAFM.sym ABSOLUTE
    rom_PFAL_COEX_MWS_Proc_BT_Status         0x1003979f   Thumb Code     0  QCA6174_SCAQBAFM.sym ABSOLUTE
    rom_PFAL_COEX_MWS_Wake_Up                0x100397f9   Thumb Code     0  QCA6174_SCAQBAFM.sym ABSOLUTE
    rom_PFAL_COEX_MWS_Timer0_Conifg          0x1003981b   Thumb Code     0  QCA6174_SCAQBAFM.sym ABSOLUTE
    rom_PFAL_COEX_MWS_Timer2_Conifg          0x10039835   Thumb Code     0  QCA6174_SCAQBAFM.sym ABSOLUTE
    rom_PFAL_COEX_MWS_TxGrant_Conifg         0x1003984f   Thumb Code     0  QCA6174_SCAQBAFM.sym ABSOLUTE
    rom_PFAL_COEX_MWS_RxGrant_Conifg         0x1003989d   Thumb Code     0  QCA6174_SCAQBAFM.sym ABSOLUTE
    rom_PFAL_COEX_MWS_TxGrant_Get            0x10039979   Thumb Code     0  QCA6174_SCAQBAFM.sym ABSOLUTE
    rom_PFAL_COEX_MWS_RxGrant_Get            0x10039987   Thumb Code     0  QCA6174_SCAQBAFM.sym ABSOLUTE
    rom_PFAL_COEX_MWS_RxPrio_GET             0x10039995   Thumb Code     0  QCA6174_SCAQBAFM.sym ABSOLUTE
    PFAL_COEX_MWS_IRQ_Proc                   0x1003999d   Thumb Code     0  QCA6174_SCAQBAFM.sym ABSOLUTE
    PFAL_COEX_MWS_Timer0_IRQ_Proc            0x100399c5   Thumb Code     0  QCA6174_SCAQBAFM.sym ABSOLUTE
    PFAL_COEX_MWS_Timer1_IRQ_Proc            0x100399cf   Thumb Code     0  QCA6174_SCAQBAFM.sym ABSOLUTE
    PFAL_COEX_MWS_2WIRE_TYPE0_IRQ_Proc       0x100399d9   Thumb Code     0  QCA6174_SCAQBAFM.sym ABSOLUTE
    PFAL_COEX_MWS_2WIRE_TYPE1_IRQ_Proc       0x100399f7   Thumb Code     0  QCA6174_SCAQBAFM.sym ABSOLUTE
    PFAL_COEX_MWS_2WIRE_TYPE2_IRQ_Proc       0x10039a1d   Thumb Code     0  QCA6174_SCAQBAFM.sym ABSOLUTE
    PFAL_COEX_MWS_2WIRE_TYPE3_IRQ_Proc       0x10039a93   Thumb Code     0  QCA6174_SCAQBAFM.sym ABSOLUTE
    PFAL_COEX_MWS_2WIRE_TYPE4_IRQ_Proc       0x10039aab   Thumb Code     0  QCA6174_SCAQBAFM.sym ABSOLUTE
    PFAL_COEX_MWS_2WIRE_TYPE5_IRQ_Proc       0x10039ac3   Thumb Code     0  QCA6174_SCAQBAFM.sym ABSOLUTE
    PFAL_COEX_MWS_2WIRE_TYPE6_IRQ_Proc       0x10039adb   Thumb Code     0  QCA6174_SCAQBAFM.sym ABSOLUTE
    PFAL_COEX_MWS_2WIRE_TYPE7_IRQ_Proc       0x10039af3   Thumb Code     0  QCA6174_SCAQBAFM.sym ABSOLUTE
    rom_PFAL_COEX_MWS_IRQ_Handler            0x10039b0b   Thumb Code     0  QCA6174_SCAQBAFM.sym ABSOLUTE
    rom_PFAL_IM_BT_CXM_INT_Handler           0x10039b75   Thumb Code     0  QCA6174_SCAQBAFM.sym ABSOLUTE
    rom_PFAL_COEX_MWS_Connect                0x10039bb3   Thumb Code     0  QCA6174_SCAQBAFM.sym ABSOLUTE
    rom_PFAL_COEX_MWS_Latch_CurrCLK          0x10039bf3   Thumb Code     0  QCA6174_SCAQBAFM.sym ABSOLUTE
    rom_PFAL_COEX_MWS_2WIRE_TDM_Txfifo_Test  0x10039c19   Thumb Code     0  QCA6174_SCAQBAFM.sym ABSOLUTE
    rom_PFAL_COEX_MWS_2WIRE_TDM_Loop_Test    0x10039c5d   Thumb Code     0  QCA6174_SCAQBAFM.sym ABSOLUTE
    rom_PFAL_COEX_MWS_2WIRE_TDM_Loop_Test2   0x10039cb1   Thumb Code     0  QCA6174_SCAQBAFM.sym ABSOLUTE
    rom_PFAL_COEX_MWS_2WIRE_TDM_Loop_SingleChar_Test 0x10039d2b   Thumb Code     0  QCA6174_SCAQBAFM.sym ABSOLUTE
    rom_PFAL_COEX_MWS_2WIRE_TCM_LoopTest     0x10039dc1   Thumb Code     0  QCA6174_SCAQBAFM.sym ABSOLUTE
    rom_PFAL_COEX_MWS_2WIRE_MIDM_Test        0x10039df3   Thumb Code     0  QCA6174_SCAQBAFM.sym ABSOLUTE
    rom_PFAL_COEX_MWS_2WIRE_MIDM_Loop_Test   0x10039e19   Thumb Code     0  QCA6174_SCAQBAFM.sym ABSOLUTE
    rom_PFAL_COEX_MWS_2WIRE_MSFM_Test        0x10039e49   Thumb Code     0  QCA6174_SCAQBAFM.sym ABSOLUTE
    rom_PFAL_COEX_MWS_2WIRE_MSFM_Loop_Test   0x10039e6f   Thumb Code     0  QCA6174_SCAQBAFM.sym ABSOLUTE
    rom_PFAL_COEX_MWS_2WIRE_Type5_Test       0x10039e9f   Thumb Code     0  QCA6174_SCAQBAFM.sym ABSOLUTE
    rom_PFAL_COEX_MWS_2WIRE_Type5_Loop_Test  0x10039ec5   Thumb Code     0  QCA6174_SCAQBAFM.sym ABSOLUTE
    rom_PFAL_COEX_MWS_2WIRE_Type6_Test       0x10039ef5   Thumb Code     0  QCA6174_SCAQBAFM.sym ABSOLUTE
    rom_PFAL_COEX_MWS_2WIRE_Type6_Loop_Test  0x10039f1b   Thumb Code     0  QCA6174_SCAQBAFM.sym ABSOLUTE
    rom_PFAL_COEX_MWS_2WIRE_Type7_Test       0x10039f4b   Thumb Code     0  QCA6174_SCAQBAFM.sym ABSOLUTE
    rom_PFAL_COEX_MWS_2WIRE_Type7_Loop_Test  0x10039f71   Thumb Code     0  QCA6174_SCAQBAFM.sym ABSOLUTE
    rom_PFAL_COEX_MWS_RTSM_Send_Test         0x10039fa1   Thumb Code     0  QCA6174_SCAQBAFM.sym ABSOLUTE
    rom_PFAL_COEX_MWS_RTSM_Irq_Hdl           0x10039fd5   Thumb Code     0  QCA6174_SCAQBAFM.sym ABSOLUTE
    rom_PFAL_COEX_MWS_RTSM_Recv_Test         0x10039fdd   Thumb Code     0  QCA6174_SCAQBAFM.sym ABSOLUTE
    rom_PFAL_COEX_MWS_3WIRE_WCNPri_Toggle_Test 0x1003a029   Thumb Code     0  QCA6174_SCAQBAFM.sym ABSOLUTE
    rom_PFAL_COEX_MWS_3WIRE_Active_RE_Test   0x1003a035   Thumb Code     0  QCA6174_SCAQBAFM.sym ABSOLUTE
    rom_PFAL_COEX_MWS_3WIRE_Active_FE_Test   0x1003a03b   Thumb Code     0  QCA6174_SCAQBAFM.sym ABSOLUTE
    rom_PFAL_COEX_MWS_3WIRE_FSync_Test       0x1003a041   Thumb Code     0  QCA6174_SCAQBAFM.sym ABSOLUTE
    rom_PFAL_COEX_MWS_timer0_test            0x1003a047   Thumb Code     0  QCA6174_SCAQBAFM.sym ABSOLUTE
    rom_PFAL_COEX_MWS_timer2_test            0x1003a05f   Thumb Code     0  QCA6174_SCAQBAFM.sym ABSOLUTE
    rom_MWS_init                             0x1003a08d   Thumb Code     0  QCA6174_SCAQBAFM.sym ABSOLUTE
    rom_MWS_SystemReady                      0x1003a08f   Thumb Code     0  QCA6174_SCAQBAFM.sym ABSOLUTE
    rom_MWS_PreReset                         0x1003a091   Thumb Code     0  QCA6174_SCAQBAFM.sym ABSOLUTE
    rom_MWS_Reset                            0x1003a093   Thumb Code     0  QCA6174_SCAQBAFM.sym ABSOLUTE
    rom_MWS_ProcQ_QMI_TX_BUFFER              0x1003a0e3   Thumb Code     0  QCA6174_SCAQBAFM.sym ABSOLUTE
    rom_MWS_ProcQ_QMI_RX_BUFFER              0x1003a0e5   Thumb Code     0  QCA6174_SCAQBAFM.sym ABSOLUTE
    rom_MWS_ProcE_ROLE_SWITCH_START          0x1003a0e7   Thumb Code     0  QCA6174_SCAQBAFM.sym ABSOLUTE
    rom_MWS_ProcE_ROLE_SWITCH_SUCC           0x1003a0f7   Thumb Code     0  QCA6174_SCAQBAFM.sym ABSOLUTE
    rom_MWS_ProcE_ROLE_SWITCH_FAIL           0x1003a0f9   Thumb Code     0  QCA6174_SCAQBAFM.sym ABSOLUTE
    rom_MWS_ProcE_MWS_AWAKE                  0x1003a115   Thumb Code     0  QCA6174_SCAQBAFM.sym ABSOLUTE
    MWS_ProcTimer_TIMER_1                    0x1003a125   Thumb Code     0  QCA6174_SCAQBAFM.sym ABSOLUTE
    MWS_ProcTimer_TIMER_2                    0x1003a12b   Thumb Code     0  QCA6174_SCAQBAFM.sym ABSOLUTE
    rom_qmi_idl_next_element                 0x1003a16d   Thumb Code     0  QCA6174_SCAQBAFM.sym ABSOLUTE
    rom_qmi_idl_find_msg                     0x1003a1cf   Thumb Code     0  QCA6174_SCAQBAFM.sym ABSOLUTE
    rom_qmi_idl_decode_find_tlv              0x1003a241   Thumb Code     0  QCA6174_SCAQBAFM.sym ABSOLUTE
    rom_qmi_idl_decode_verify_mandatory      0x1003a281   Thumb Code     0  QCA6174_SCAQBAFM.sym ABSOLUTE
    rom_qmi_idl_encode_length                0x1003a29f   Thumb Code     0  QCA6174_SCAQBAFM.sym ABSOLUTE
    rom_qmi_idl_decode_element               0x1003a337   Thumb Code     0  QCA6174_SCAQBAFM.sym ABSOLUTE
    rom_qmi_idl_message_decode_v6            0x1003a8db   Thumb Code     0  QCA6174_SCAQBAFM.sym ABSOLUTE
    rom_qmi_idl_encode_element               0x1003aa7b   Thumb Code     0  QCA6174_SCAQBAFM.sym ABSOLUTE
    rom_qmi_idl_message_encode_v6            0x1003afa9   Thumb Code     0  QCA6174_SCAQBAFM.sym ABSOLUTE
    rom_qmi_idl_message_decode               0x1003b043   Thumb Code     0  QCA6174_SCAQBAFM.sym ABSOLUTE
    rom_qmi_idl_message_encode               0x1003b097   Thumb Code     0  QCA6174_SCAQBAFM.sym ABSOLUTE
    rom_qmi_idl_encode_resp_tlv              0x1003b0eb   Thumb Code     0  QCA6174_SCAQBAFM.sym ABSOLUTE
    rom_qmi_idl_get_std_resp_tlv_len         0x1003b137   Thumb Code     0  QCA6174_SCAQBAFM.sym ABSOLUTE
    rom_wci2_encode_header                   0x1003b13b   Thumb Code     0  QCA6174_SCAQBAFM.sym ABSOLUTE
    rom_wci2_decode_header                   0x1003b14d   Thumb Code     0  QCA6174_SCAQBAFM.sym ABSOLUTE
    rom_wci2_type2_frame_and_send_msg        0x1003b157   Thumb Code     0  QCA6174_SCAQBAFM.sym ABSOLUTE
    rom_PFAL_COEX_MWS_encode_and_send        0x1003b1a1   Thumb Code     0  QCA6174_SCAQBAFM.sym ABSOLUTE
    rom_PFAL_COEX_MWS_recv_decode            0x1003b285   Thumb Code     0  QCA6174_SCAQBAFM.sym ABSOLUTE
    rom_PF_SYS_Init                          0x1003b2b9   Thumb Code     0  QCA6174_SCAQBAFM.sym ABSOLUTE
    rom_PF_SYS_EnableTasks                   0x1003b301   Thumb Code     0  QCA6174_SCAQBAFM.sym ABSOLUTE
    rom_PFAL_ACI_Mono_Alloc                  0x1003b34d   Thumb Code     0  QCA6174_SCAQBAFM.sym ABSOLUTE
    rom_PFAL_ACI_Mono_Start                  0x1003b38b   Thumb Code     0  QCA6174_SCAQBAFM.sym ABSOLUTE
    rom_PFAL_ACI_Mono_Stop                   0x1003b3ef   Thumb Code     0  QCA6174_SCAQBAFM.sym ABSOLUTE
    rom_PFAL_ACI_Mono_Free                   0x1003b3f7   Thumb Code     0  QCA6174_SCAQBAFM.sym ABSOLUTE
    rom_PFAL_AES_ENCRYPT                     0x1003b449   Thumb Code     0  QCA6174_SCAQBAFM.sym ABSOLUTE
    rom_PFAL_CFG_SetAccessFunctions          0x1003b48d   Thumb Code     0  QCA6174_SCAQBAFM.sym ABSOLUTE
    rom_PFAL_CFG_SetMaxTagValue              0x1003b4a1   Thumb Code     0  QCA6174_SCAQBAFM.sym ABSOLUTE
    rom_PFAL_CFG_PostNVMRead                 0x1003b4a7   Thumb Code     0  QCA6174_SCAQBAFM.sym ABSOLUTE
    rom_PFAL_CFG_PreNVMRead                  0x1003b4f1   Thumb Code     0  QCA6174_SCAQBAFM.sym ABSOLUTE
    PFAL_CFG_RAM_DataInit                    0x1003b51d   Thumb Code     0  QCA6174_SCAQBAFM.sym ABSOLUTE
    PFAL_CFG_RAM_Read                        0x1003b521   Thumb Code     0  QCA6174_SCAQBAFM.sym ABSOLUTE
    rom_PFAL_CFG_LoadFromOTP                 0x1003b525   Thumb Code     0  QCA6174_SCAQBAFM.sym ABSOLUTE
    rom_PFAL_CFG_LoadFromNVM                 0x1003b5bd   Thumb Code     0  QCA6174_SCAQBAFM.sym ABSOLUTE
    rom_PFAL_CFG_StoreToNVM                  0x1003b68f   Thumb Code     0  QCA6174_SCAQBAFM.sym ABSOLUTE
    rom_PFAL_LC_CRYPTO_SWI_Init              0x1003b84d   Thumb Code     0  QCA6174_SCAQBAFM.sym ABSOLUTE
    PFAL_LC_CRYPTO_SWI_write_AES_info_LE     0x1003b875   Thumb Code     0  QCA6174_SCAQBAFM.sym ABSOLUTE
    PFAL_LC_CRYPTO_SWI_TxSetup_LE            0x1003b903   Thumb Code     0  QCA6174_SCAQBAFM.sym ABSOLUTE
    PFAL_LC_CRYPTO_SWI_RxSetup_LE            0x1003b97d   Thumb Code     0  QCA6174_SCAQBAFM.sym ABSOLUTE
    PFAL_LC_CRYPTO_SWI_LE_Encrypt_Tx_DataChan_Ctrl 0x1003b9e7   Thumb Code     0  QCA6174_SCAQBAFM.sym ABSOLUTE
    PFAL_LC_CRYPTO_SWI_LE_Encrypt_Tx_DataChan_Data 0x1003ba47   Thumb Code     0  QCA6174_SCAQBAFM.sym ABSOLUTE
    PFAL_LC_CRYPTO_SWI_LE_Decrypt_Rx_DataChan 0x1003bad1   Thumb Code     0  QCA6174_SCAQBAFM.sym ABSOLUTE
    PFAL_LC_CRYPTO_SWI_CheckCryptoStatus     0x1003baed   Thumb Code     0  QCA6174_SCAQBAFM.sym ABSOLUTE
    PFAL_LC_CRYPTO_SWI_TxSetup_BR_EDR        0x1003baff   Thumb Code     0  QCA6174_SCAQBAFM.sym ABSOLUTE
    PFAL_LC_CRYPTO_SWI_TxSetup_BR_EDR_eSCO   0x1003bbd9   Thumb Code     0  QCA6174_SCAQBAFM.sym ABSOLUTE
    PFAL_LC_CRYPTO_SWI_RxSetup_BR_EDR        0x1003bcfd   Thumb Code     0  QCA6174_SCAQBAFM.sym ABSOLUTE
    rom_PFAL_GTMR_Init                       0x1003be11   Thumb Code     0  QCA6174_SCAQBAFM.sym ABSOLUTE
    rom_PFAL_GTMR_Open                       0x1003be23   Thumb Code     0  QCA6174_SCAQBAFM.sym ABSOLUTE
    rom_PFAL_GTMR_Close                      0x1003bea5   Thumb Code     0  QCA6174_SCAQBAFM.sym ABSOLUTE
    rom_PFAL_GTMR_Start                      0x1003bebf   Thumb Code     0  QCA6174_SCAQBAFM.sym ABSOLUTE
    rom_PFAL_GTMR_Stop                       0x1003bf0b   Thumb Code     0  QCA6174_SCAQBAFM.sym ABSOLUTE
    rom_GTMR_Write_Timer1                    0x1003bf29   Thumb Code     0  QCA6174_SCAQBAFM.sym ABSOLUTE
    rom_GTMR_Write_Timer2                    0x1003bf47   Thumb Code     0  QCA6174_SCAQBAFM.sym ABSOLUTE
    OSMboxAccept                             0x1003bf85   Thumb Code     0  QCA6174_SCAQBAFM.sym ABSOLUTE
    OSMboxCreate                             0x1003bfb9   Thumb Code     0  QCA6174_SCAQBAFM.sym ABSOLUTE
    OSMboxDel                                0x1003c00f   Thumb Code     0  QCA6174_SCAQBAFM.sym ABSOLUTE
    OSMboxPend                               0x1003c0eb   Thumb Code     0  QCA6174_SCAQBAFM.sym ABSOLUTE
    OSMboxPendAbort                          0x1003c1cf   Thumb Code     0  QCA6174_SCAQBAFM.sym ABSOLUTE
    OSMboxPost                               0x1003c257   Thumb Code     0  QCA6174_SCAQBAFM.sym ABSOLUTE
    OSMboxPostOpt                            0x1003c2c7   Thumb Code     0  QCA6174_SCAQBAFM.sym ABSOLUTE
    OSMboxQuery                              0x1003c35f   Thumb Code     0  QCA6174_SCAQBAFM.sym ABSOLUTE
    OSSemAccept                              0x1003c3c9   Thumb Code     0  QCA6174_SCAQBAFM.sym ABSOLUTE
    OSSemCreate                              0x1003c401   Thumb Code     0  QCA6174_SCAQBAFM.sym ABSOLUTE
    OSSemDel                                 0x1003c457   Thumb Code     0  QCA6174_SCAQBAFM.sym ABSOLUTE
    OSSemPend                                0x1003c533   Thumb Code     0  QCA6174_SCAQBAFM.sym ABSOLUTE
    OSSemPendAbort                           0x1003c601   Thumb Code     0  QCA6174_SCAQBAFM.sym ABSOLUTE
    OSSemPost                                0x1003c689   Thumb Code     0  QCA6174_SCAQBAFM.sym ABSOLUTE
    OSSemQuery                               0x1003c6ff   Thumb Code     0  QCA6174_SCAQBAFM.sym ABSOLUTE
    OSSemSet                                 0x1003c751   Thumb Code     0  QCA6174_SCAQBAFM.sym ABSOLUTE
    OSTaskCreate                             0x1003c7b5   Thumb Code     0  QCA6174_SCAQBAFM.sym ABSOLUTE
    OS_TaskReturn                            0x1003c877   Thumb Code     0  QCA6174_SCAQBAFM.sym ABSOLUTE
    rom_PFAL_IM_OWI_Handler                  0x1003c89d   Thumb Code     0  QCA6174_SCAQBAFM.sym ABSOLUTE
    rom_PFAL_OWI_Init                        0x1003c907   Thumb Code     0  QCA6174_SCAQBAFM.sym ABSOLUTE
    rom_PFAL_OWI_Write                       0x1003c997   Thumb Code     0  QCA6174_SCAQBAFM.sym ABSOLUTE
    rom_PFAL_OWI_Read                        0x1003c9e1   Thumb Code     0  QCA6174_SCAQBAFM.sym ABSOLUTE
    rom_PFAL_OWI_InterruptRead               0x1003ca39   Thumb Code     0  QCA6174_SCAQBAFM.sym ABSOLUTE
    rom_PFAL_OWI_Transaction                 0x1003ca6d   Thumb Code     0  QCA6174_SCAQBAFM.sym ABSOLUTE
    rom_PFAL_OWI_Transaction2                0x1003ca81   Thumb Code     0  QCA6174_SCAQBAFM.sym ABSOLUTE
    rom_PFAL_OWI_RegisterCallback            0x1003cad9   Thumb Code     0  QCA6174_SCAQBAFM.sym ABSOLUTE
    rom_PFAL_PRUI_BuildParityByte            0x1003cb1d   Thumb Code     0  QCA6174_SCAQBAFM.sym ABSOLUTE
    rom_PFAL_PRUI_IsParityOk                 0x1003cb3b   Thumb Code     0  QCA6174_SCAQBAFM.sym ABSOLUTE
    rom_PFAL_PRUI_CheckRspLen                0x1003cb65   Thumb Code     0  QCA6174_SCAQBAFM.sym ABSOLUTE
    rom_PFAL_PRUI_ParseInfo                  0x1003cb8b   Thumb Code     0  QCA6174_SCAQBAFM.sym ABSOLUTE
    rom_PFAL_PRUI_CheckAndParseInfo          0x1003cc27   Thumb Code     0  QCA6174_SCAQBAFM.sym ABSOLUTE
    rom_PFAL_PRUI_ReadCallback               0x1003ccc7   Thumb Code     0  QCA6174_SCAQBAFM.sym ABSOLUTE
    rom_PFAL_PRUI_SendCommand                0x1003ccff   Thumb Code     0  QCA6174_SCAQBAFM.sym ABSOLUTE
    rom_PFAL_PRUI_HutchInit                  0x1003cdbf   Thumb Code     0  QCA6174_SCAQBAFM.sym ABSOLUTE
    PFAL_HUTCH_UartInit                      0x1003cdd1   Thumb Code     0  QCA6174_SCAQBAFM.sym ABSOLUTE
    rom_PFAL_PRUI_IsInitOK                   0x1003cdf3   Thumb Code     0  QCA6174_SCAQBAFM.sym ABSOLUTE
    rom_PFAL_PRUI_ReadStatus                 0x1003cdf9   Thumb Code     0  QCA6174_SCAQBAFM.sym ABSOLUTE
    rom_PFAL_PRUI_ReadData                   0x1003ce11   Thumb Code     0  QCA6174_SCAQBAFM.sym ABSOLUTE
    rom_PFAL_PRUI_ReadRegister               0x1003ce29   Thumb Code     0  QCA6174_SCAQBAFM.sym ABSOLUTE
    rom_PFAL_PRUI_WriteRegister              0x1003ce41   Thumb Code     0  QCA6174_SCAQBAFM.sym ABSOLUTE
    rom_PFAL_PRUI_SetZLimit                  0x1003cebd   Thumb Code     0  QCA6174_SCAQBAFM.sym ABSOLUTE
    rom_PFAL_PRUI_OutputEnabled              0x1003ced5   Thumb Code     0  QCA6174_SCAQBAFM.sym ABSOLUTE
    rom_PFAL_PRUI_IsChargeComplete           0x1003cee5   Thumb Code     0  QCA6174_SCAQBAFM.sym ABSOLUTE
    rom_PFAL_PRUI_NotifyAlertEvent           0x1003cf13   Thumb Code     0  QCA6174_SCAQBAFM.sym ABSOLUTE
    rom_PFAL_PRUI_NotifyDataUpdateEvent      0x1003d087   Thumb Code     0  QCA6174_SCAQBAFM.sym ABSOLUTE
    rom_PFAL_PRUI_GetRegData                 0x1003d153   Thumb Code     0  QCA6174_SCAQBAFM.sym ABSOLUTE
    rom_PFAL_PRUI_GetReadData                0x1003d167   Thumb Code     0  QCA6174_SCAQBAFM.sym ABSOLUTE
    rom_PFAL_PRUI_GetStatus                  0x1003d179   Thumb Code     0  QCA6174_SCAQBAFM.sym ABSOLUTE
    PFAL_HUTCH_SetCurrentLimit               0x1003d181   Thumb Code     0  QCA6174_SCAQBAFM.sym ABSOLUTE
    PFAL_HUTCH_SetChargeOutput               0x1003d1af   Thumb Code     0  QCA6174_SCAQBAFM.sym ABSOLUTE
    PFAL_HUTCH_GetCurrentLimit               0x1003d1cf   Thumb Code     0  QCA6174_SCAQBAFM.sym ABSOLUTE
    PFAL_HUTCH_GetChargeOutput               0x1003d1f9   Thumb Code     0  QCA6174_SCAQBAFM.sym ABSOLUTE
    PFAL_HUTCH_GetDynamicParams              0x1003d219   Thumb Code     0  QCA6174_SCAQBAFM.sym ABSOLUTE
    rom_PFAL_HUTCH_Temp_ADC_To_Celsius       0x1003d221   Thumb Code     0  QCA6174_SCAQBAFM.sym ABSOLUTE
    rom_PFAL_PRUHAL_RegisterDeviceHlr        0x1003d28d   Thumb Code     0  QCA6174_SCAQBAFM.sym ABSOLUTE
    rom_PFAL_PRUHAL_Init                     0x1003d299   Thumb Code     0  QCA6174_SCAQBAFM.sym ABSOLUTE
    rom_PRHL_init                            0x1003d2f5   Thumb Code     0  QCA6174_SCAQBAFM.sym ABSOLUTE
    rom_PRHL_SystemReady                     0x1003d2f7   Thumb Code     0  QCA6174_SCAQBAFM.sym ABSOLUTE
    rom_PFAL_PRUHAL_NotifyPowerApplyEvent    0x1003d2f9   Thumb Code     0  QCA6174_SCAQBAFM.sym ABSOLUTE
    PFAL_PRUHAL_DelayNotifyCallback          0x1003d313   Thumb Code     0  QCA6174_SCAQBAFM.sym ABSOLUTE
    rom_PRHL_ProcQ_PRUHAL_POWER_EVENT        0x1003d34b   Thumb Code     0  QCA6174_SCAQBAFM.sym ABSOLUTE
    rom_PFAL_PRUI_PowerEventSignal           0x1003d39b   Thumb Code     0  QCA6174_SCAQBAFM.sym ABSOLUTE
    PFAL_PRUI_OwiIntCallback                 0x1003d3e5   Thumb Code     0  QCA6174_SCAQBAFM.sym ABSOLUTE
    rom_PFAL_PRUHAL_EnablePowerApply         0x1003d3ef   Thumb Code     0  QCA6174_SCAQBAFM.sym ABSOLUTE
    rom_PFAL_PRUI_ProcessTimer               0x1003d4ad   Thumb Code     0  QCA6174_SCAQBAFM.sym ABSOLUTE
    rom_PFAL_PRUI_UpdatePeriodicTimer        0x1003d4e9   Thumb Code     0  QCA6174_SCAQBAFM.sym ABSOLUTE
    rom_PFAL_PRUHAL_EnableAlertNotify        0x1003d553   Thumb Code     0  QCA6174_SCAQBAFM.sym ABSOLUTE
    rom_PFAL_PRUHAL_EnableDataNotify         0x1003d567   Thumb Code     0  QCA6174_SCAQBAFM.sym ABSOLUTE
    rom_PFAL_PRUHAL_SetCurrentLimit          0x1003d595   Thumb Code     0  QCA6174_SCAQBAFM.sym ABSOLUTE
    rom_PFAL_PRUHAL_GetCurrentLimit          0x1003d5d1   Thumb Code     0  QCA6174_SCAQBAFM.sym ABSOLUTE
    rom_PFAL_NX2A4WP_DeviceID                0x1003d781   Thumb Code     0  QCA6174_SCAQBAFM.sym ABSOLUTE
    PFAL_NX2A4WP_Init                        0x1003d7e5   Thumb Code     0  QCA6174_SCAQBAFM.sym ABSOLUTE
    rom_PFAL_NX2A4WP_RegDevice               0x1003d865   Thumb Code     0  QCA6174_SCAQBAFM.sym ABSOLUTE
    rom_PFAL_NX2A4WP_Read                    0x1003d877   Thumb Code     0  QCA6174_SCAQBAFM.sym ABSOLUTE
    rom_PFAL_NX2A4WP_ReadRegs                0x1003d8f3   Thumb Code     0  QCA6174_SCAQBAFM.sym ABSOLUTE
    rom_PFAL_NX2A4WP_Write                   0x1003d97d   Thumb Code     0  QCA6174_SCAQBAFM.sym ABSOLUTE
    rom_PFAL_NX2A4WP_WriteRegs               0x1003da03   Thumb Code     0  QCA6174_SCAQBAFM.sym ABSOLUTE
    rom_PFAL_NX2A4WP_UpdateStatus            0x1003da7b   Thumb Code     0  QCA6174_SCAQBAFM.sym ABSOLUTE
    PFAL_NX2A4WP_SetCurrentLimit             0x1003da93   Thumb Code     0  QCA6174_SCAQBAFM.sym ABSOLUTE
    PFAL_NX2A4WP_SetChargeOutput             0x1003dad7   Thumb Code     0  QCA6174_SCAQBAFM.sym ABSOLUTE
    PFAL_NX2A4WP_GetCurrentLimit             0x1003db11   Thumb Code     0  QCA6174_SCAQBAFM.sym ABSOLUTE
    PFAL_NX2A4WP_GetChargeOutput             0x1003db43   Thumb Code     0  QCA6174_SCAQBAFM.sym ABSOLUTE
    PFAL_NX2A4WP_GetDynamicParams            0x1003db69   Thumb Code     0  QCA6174_SCAQBAFM.sym ABSOLUTE
    rom_PFAL_NX2A4WP_ConvADCData             0x1003dcff   Thumb Code     0  QCA6174_SCAQBAFM.sym ABSOLUTE
    rom_PFAL_NX2A4WP_NotifyDataUpdateEvent   0x1003dd89   Thumb Code     0  QCA6174_SCAQBAFM.sym ABSOLUTE
    rom_PFAL_NX2A4WP_NotifyAlertEvent        0x1003de1f   Thumb Code     0  QCA6174_SCAQBAFM.sym ABSOLUTE
    rom_PFAL_STARK_CheckRspLen               0x1003de91   Thumb Code     0  QCA6174_SCAQBAFM.sym ABSOLUTE
    rom_PFAL_STARK_OutputEnabled             0x1003dec9   Thumb Code     0  QCA6174_SCAQBAFM.sym ABSOLUTE
    rom_PFAL_STARK_NotifyAlertEvent          0x1003ded9   Thumb Code     0  QCA6174_SCAQBAFM.sym ABSOLUTE
    rom_PFAL_STARK_NotifyDataUpdateEvent     0x1003df47   Thumb Code     0  QCA6174_SCAQBAFM.sym ABSOLUTE
    rom_PFAL_STARK_ParseInfo                 0x1003e063   Thumb Code     0  QCA6174_SCAQBAFM.sym ABSOLUTE
    rom_PFAL_STARK_CheckAndParseInfo         0x1003e135   Thumb Code     0  QCA6174_SCAQBAFM.sym ABSOLUTE
    rom_PFAL_STARK_ReadRegisterA             0x1003e1d5   Thumb Code     0  QCA6174_SCAQBAFM.sym ABSOLUTE
    rom_PFAL_STARK_GetRegAData               0x1003e1eb   Thumb Code     0  QCA6174_SCAQBAFM.sym ABSOLUTE
    rom_PFAL_STARK_GetReadData               0x1003e1ff   Thumb Code     0  QCA6174_SCAQBAFM.sym ABSOLUTE
    rom_PFAL_STARK_WriteRegisterA            0x1003e363   Thumb Code     0  QCA6174_SCAQBAFM.sym ABSOLUTE
    rom_PFAL_STARK_ReadRevision              0x1003e3e1   Thumb Code     0  QCA6174_SCAQBAFM.sym ABSOLUTE
    PFAL_STARK_SetCurrentLimit               0x1003e3f9   Thumb Code     0  QCA6174_SCAQBAFM.sym ABSOLUTE
    PFAL_STARK_GetCurrentLimit               0x1003e3fd   Thumb Code     0  QCA6174_SCAQBAFM.sym ABSOLUTE
    PFAL_STARK_SetChargeOutput               0x1003e401   Thumb Code     0  QCA6174_SCAQBAFM.sym ABSOLUTE
    PFAL_STARK_GetChargeOutput               0x1003e421   Thumb Code     0  QCA6174_SCAQBAFM.sym ABSOLUTE
    rom_PFAL_PRUI_StarkInit                  0x1003e447   Thumb Code     0  QCA6174_SCAQBAFM.sym ABSOLUTE
    rom_PFAL_RM_programRegs                  0x1003e4a1   Thumb Code     0  QCA6174_SCAQBAFM.sym ABSOLUTE
    rom_PFAL_RM_Init                         0x1003e4f5   Thumb Code     0  QCA6174_SCAQBAFM.sym ABSOLUTE
    rom_PFAL_RM_ResetInit                    0x1003e521   Thumb Code     0  QCA6174_SCAQBAFM.sym ABSOLUTE
    rom_PFAL_RM_WakeInit                     0x1003e549   Thumb Code     0  QCA6174_SCAQBAFM.sym ABSOLUTE
    rom_PFAL_RM_GPIO_Init                    0x1003e565   Thumb Code     0  QCA6174_SCAQBAFM.sym ABSOLUTE
    rom_PFAL_RM_GPIO_DeInit                  0x1003e567   Thumb Code     0  QCA6174_SCAQBAFM.sym ABSOLUTE
    rom_PFAL_RM_HW_Restore_RxRadioCalRegisters 0x1003e58d   Thumb Code     0  QCA6174_SCAQBAFM.sym ABSOLUTE
    rom_PFAL_RM_HW_StartUpCal_RxRadioCalibration 0x1003e6ad   Thumb Code     0  QCA6174_SCAQBAFM.sym ABSOLUTE
    rom_PFAL_RM_HW_StartUpCal_ADC_RES_Tuning_Calibration 0x1003e8a7   Thumb Code     0  QCA6174_SCAQBAFM.sym ABSOLUTE
    rom_PFAL_RM_radioInit                    0x1003e8d9   Thumb Code     0  QCA6174_SCAQBAFM.sym ABSOLUTE
    rom_PFAL_RM_PhyEmulationModeInit         0x1003ea31   Thumb Code     0  QCA6174_SCAQBAFM.sym ABSOLUTE
    rom_PFAL_RM_PhyEmulationModeWakeup       0x1003ebbf   Thumb Code     0  QCA6174_SCAQBAFM.sym ABSOLUTE
    PFAL_SLEEP_enter                         0x1003ec81   Thumb Code     0  QCA6174_SCAQBAFM.sym ABSOLUTE
    PFAL_SYS_saveARMRegs                     0x1003ecc7   Thumb Code     0  QCA6174_SCAQBAFM.sym ABSOLUTE
    rom_PFAL_SYS_LPO_Init                    0x1003ed81   Thumb Code     0  QCA6174_SCAQBAFM.sym ABSOLUTE
    rom_PFAL_SYS_LPO_getRefClockCount        0x1003edd5   Thumb Code     0  QCA6174_SCAQBAFM.sym ABSOLUTE
    rom_PFAL_TXP_SetTxpExtFunctions          0x1003ee4d   Thumb Code     0  QCA6174_SCAQBAFM.sym ABSOLUTE
    rom_PFAL_TXP_PreInit                     0x1003ee53   Thumb Code     0  QCA6174_SCAQBAFM.sym ABSOLUTE
    rom_PFAL_TXP_GetFunctions                0x1003ee55   Thumb Code     0  QCA6174_SCAQBAFM.sym ABSOLUTE
    rom_PFAL_TXP_PostConfig                  0x1003ee6f   Thumb Code     0  QCA6174_SCAQBAFM.sym ABSOLUTE
    rom_PFAL_VOICE_Chan_Start_Timers         0x1003ee7d   Thumb Code     0  QCA6174_SCAQBAFM.sym ABSOLUTE
    rom_PFAL_VOICE_Chan_Stop_Timers          0x1003efad   Thumb Code     0  QCA6174_SCAQBAFM.sym ABSOLUTE
    PFAL_VOICE_Chan_Free                     0x1003efbb   Thumb Code     0  QCA6174_SCAQBAFM.sym ABSOLUTE
    PFAL_VOICE_Chan_Stop                     0x1003f01f   Thumb Code     0  QCA6174_SCAQBAFM.sym ABSOLUTE
    rom_PFAL_VOICE_Chan_Init                 0x1003f05f   Thumb Code     0  QCA6174_SCAQBAFM.sym ABSOLUTE
    rom_PFAL_VOICE_GetDatapath               0x1003f0c9   Thumb Code     0  QCA6174_SCAQBAFM.sym ABSOLUTE
    PFAL_VOICE_Chan_Alloc                    0x1003f0e9   Thumb Code     0  QCA6174_SCAQBAFM.sym ABSOLUTE
    PFAL_VOICE_Chan_Update                   0x1003f187   Thumb Code     0  QCA6174_SCAQBAFM.sym ABSOLUTE
    PFAL_VOICE_PROC_Handle_Spkr_Int          0x1003f39b   Thumb Code     0  QCA6174_SCAQBAFM.sym ABSOLUTE
    PFAL_VOICE_PROC_Handle_Mic_Int           0x1003f3f1   Thumb Code     0  QCA6174_SCAQBAFM.sym ABSOLUTE
    PFAL_VOICE_PROC_Prepare_LC_Rx_Buff       0x1003f413   Thumb Code     0  QCA6174_SCAQBAFM.sym ABSOLUTE
    PFAL_VOICE_PROC_Handle_LC_Rx_Status      0x1003f479   Thumb Code     0  QCA6174_SCAQBAFM.sym ABSOLUTE
    PFAL_VOICE_PROC_Prepare_LC_Tx_Data       0x1003f4a5   Thumb Code     0  QCA6174_SCAQBAFM.sym ABSOLUTE
    rom_PFAL_VOICE_Coprocessor_Start         0x1003f589   Thumb Code     0  QCA6174_SCAQBAFM.sym ABSOLUTE
    rom_PFAL_VOICE_Coprocessor_Stop          0x1003f5b9   Thumb Code     0  QCA6174_SCAQBAFM.sym ABSOLUTE
    rom_PFAL_VOICE_Coprocessor_InitTranscoder 0x1003f5c1   Thumb Code     0  QCA6174_SCAQBAFM.sym ABSOLUTE
    rom_PFAL_VOICE_Coprocessor_Transcode     0x1003f615   Thumb Code     0  QCA6174_SCAQBAFM.sym ABSOLUTE
    rom_PFAL_VOICE_Coprocessor_Transcode_Atomic 0x1003f6b5   Thumb Code     0  QCA6174_SCAQBAFM.sym ABSOLUTE
    rom_PFAL_VOICE_Coprocessor_WriteRAM      0x1003f7af   Thumb Code     0  QCA6174_SCAQBAFM.sym ABSOLUTE
    rom_PFAL_VOICE_Coprocessor_WriteRAM_Atomic 0x1003f7ff   Thumb Code     0  QCA6174_SCAQBAFM.sym ABSOLUTE
    rom_PFAL_VOICE_Coprocessor_AppendTranscodingDone 0x1003f89d   Thumb Code     0  QCA6174_SCAQBAFM.sym ABSOLUTE
    rom_PFAL_VOICE_Coprocessor_HandleTranscodingDone 0x1003f8cd   Thumb Code     0  QCA6174_SCAQBAFM.sym ABSOLUTE
    rom_PFAL_VOICE_Coprocessor_GetNextCmdPointer 0x1003f8e5   Thumb Code     0  QCA6174_SCAQBAFM.sym ABSOLUTE
    rom_PFAL_VOICE_Coprocessor_IsCmdComplete 0x1003f8eb   Thumb Code     0  QCA6174_SCAQBAFM.sym ABSOLUTE
    rom_PFAL_USB_COMP_Handler                0x1003f98d   Thumb Code     0  QCA6174_SCAQBAFM.sym ABSOLUTE
    rom_USB_Dset_Pidvid                      0x1003f9cb   Thumb Code     0  QCA6174_SCAQBAFM.sym ABSOLUTE
    rom_USB_Free_EP_Data                     0x1003fa63   Thumb Code     0  QCA6174_SCAQBAFM.sym ABSOLUTE
    rom_USB_EP_by_Addr                       0x1003fa7f   Thumb Code     0  QCA6174_SCAQBAFM.sym ABSOLUTE
    rom_USB_Start_EP                         0x1003fac5   Thumb Code     0  QCA6174_SCAQBAFM.sym ABSOLUTE
    rom_USB_Stop_EP                          0x1003faeb   Thumb Code     0  QCA6174_SCAQBAFM.sym ABSOLUTE
    rom_USB_Register_Endpoint                0x1003fb0d   Thumb Code     0  QCA6174_SCAQBAFM.sym ABSOLUTE
    rom_USB_Register_Intfc                   0x1003fc8d   Thumb Code     0  QCA6174_SCAQBAFM.sym ABSOLUTE
    rom_USB_Handle_Intfc_Req                 0x1003fcc1   Thumb Code     0  QCA6174_SCAQBAFM.sym ABSOLUTE
    rom_USB_Handle_Class_Req                 0x1003fce5   Thumb Code     0  QCA6174_SCAQBAFM.sym ABSOLUTE
    rom_USB_Handle_EP_Req                    0x1003fcff   Thumb Code     0  QCA6174_SCAQBAFM.sym ABSOLUTE
    rom_USB_Patch_Flush                      0x1003fd0d   Thumb Code     0  QCA6174_SCAQBAFM.sym ABSOLUTE
    rom_ROME_USB_config                      0x1003fd0f   Thumb Code     0  QCA6174_SCAQBAFM.sym ABSOLUTE
    rom_USB_Classes_Init                     0x1003fd5d   Thumb Code     0  QCA6174_SCAQBAFM.sym ABSOLUTE
    rom_USB_Initialize                       0x1003fdf7   Thumb Code     0  QCA6174_SCAQBAFM.sym ABSOLUTE
    rom_USB_PreInit                          0x100400b1   Thumb Code     0  QCA6174_SCAQBAFM.sym ABSOLUTE
    rom_USB_Set_ResetType                    0x10040147   Thumb Code     0  QCA6174_SCAQBAFM.sym ABSOLUTE
    rom_USB_WARM_Initialize                  0x1004014d   Thumb Code     0  QCA6174_SCAQBAFM.sym ABSOLUTE
    rom_USB_COLD_Initialize                  0x10040159   Thumb Code     0  QCA6174_SCAQBAFM.sym ABSOLUTE
    rom_USB_DFU_Initialize                   0x10040189   Thumb Code     0  QCA6174_SCAQBAFM.sym ABSOLUTE
    rom_USB_SetPHYReset                      0x100401bb   Thumb Code     0  QCA6174_SCAQBAFM.sym ABSOLUTE
    rom_USB_SetCtlReset                      0x10040241   Thumb Code     0  QCA6174_SCAQBAFM.sym ABSOLUTE
    rom_USB_ClearForWarmReset                0x1004025b   Thumb Code     0  QCA6174_SCAQBAFM.sym ABSOLUTE
    rom_USB_Restore                          0x10040279   Thumb Code     0  QCA6174_SCAQBAFM.sym ABSOLUTE
    rom_USB_ResetCore                        0x1004028f   Thumb Code     0  QCA6174_SCAQBAFM.sym ABSOLUTE
    rom_USB_FlushRxFifo                      0x100402bb   Thumb Code     0  QCA6174_SCAQBAFM.sym ABSOLUTE
    rom_USB_FlushTxFifo                      0x100402d3   Thumb Code     0  QCA6174_SCAQBAFM.sym ABSOLUTE
    rom_USB_InitCore                         0x1004030b   Thumb Code     0  QCA6174_SCAQBAFM.sym ABSOLUTE
    rom_USB_LPM_Mask                         0x10040361   Thumb Code     0  QCA6174_SCAQBAFM.sym ABSOLUTE
    rom_USB_LPM_SetResp                      0x10040379   Thumb Code     0  QCA6174_SCAQBAFM.sym ABSOLUTE
    rom_USB_InitLPM                          0x100403dd   Thumb Code     0  QCA6174_SCAQBAFM.sym ABSOLUTE
    rom_USB_InitDeviceMode                   0x10040429   Thumb Code     0  QCA6174_SCAQBAFM.sym ABSOLUTE
    rom_USB_Isr                              0x100404d3   Thumb Code     0  QCA6174_SCAQBAFM.sym ABSOLUTE
    rom_USB_HandleResetInterrupt             0x100405d9   Thumb Code     0  QCA6174_SCAQBAFM.sym ABSOLUTE
    rom_USB_HandleEnumCompleteInterrupt      0x10040799   Thumb Code     0  QCA6174_SCAQBAFM.sym ABSOLUTE
    rom_USB_HandleEPOUTInterrupt             0x100407cd   Thumb Code     0  QCA6174_SCAQBAFM.sym ABSOLUTE
    rom_USB_HandleEPINInterrupt              0x100408d3   Thumb Code     0  QCA6174_SCAQBAFM.sym ABSOLUTE
    rom_USB_HandleResetDetInterrupt          0x10040b29   Thumb Code     0  QCA6174_SCAQBAFM.sym ABSOLUTE
    rom_USB_HandleWakeUpInterrupt            0x10040b53   Thumb Code     0  QCA6174_SCAQBAFM.sym ABSOLUTE
    rom_USB_HandleSuspendInterrupt           0x10040b65   Thumb Code     0  QCA6174_SCAQBAFM.sym ABSOLUTE
    rom_USB_ActivateEP0                      0x10040ba1   Thumb Code     0  QCA6174_SCAQBAFM.sym ABSOLUTE
    rom_USB_Prepare_Setup                    0x10040bef   Thumb Code     0  QCA6174_SCAQBAFM.sym ABSOLUTE
    rom_USB_Handle_Setup                     0x10040c2b   Thumb Code     0  QCA6174_SCAQBAFM.sym ABSOLUTE
    rom_USB_Prepare_Data_IN                  0x10040cf1   Thumb Code     0  QCA6174_SCAQBAFM.sym ABSOLUTE
    rom_USB_Prepare_Data_OUT                 0x10040de3   Thumb Code     0  QCA6174_SCAQBAFM.sym ABSOLUTE
    rom_USB_Ctrl_Enter_2S                    0x10040e49   Thumb Code     0  QCA6174_SCAQBAFM.sym ABSOLUTE
    rom_USB_Ctrl_Enter_WD                    0x10040e67   Thumb Code     0  QCA6174_SCAQBAFM.sym ABSOLUTE
    rom_USB_Ctrl_Enter_WS                    0x10040e7d   Thumb Code     0  QCA6174_SCAQBAFM.sym ABSOLUTE
    rom_USB_Ctrl_Enter_RDS                   0x10040e9b   Thumb Code     0  QCA6174_SCAQBAFM.sym ABSOLUTE
    rom_USB_Ctrl_Enter_Setup                 0x10040eb9   Thumb Code     0  QCA6174_SCAQBAFM.sym ABSOLUTE
    rom_USB_HandleStandardInterfaceRequest   0x10040ec5   Thumb Code     0  QCA6174_SCAQBAFM.sym ABSOLUTE
    rom_USB_HandleStandardDeviceRequest      0x10040f93   Thumb Code     0  QCA6174_SCAQBAFM.sym ABSOLUTE
    rom_USB_EP_Handle_DataXfer               0x10041049   Thumb Code     0  QCA6174_SCAQBAFM.sym ABSOLUTE
    rom_USB_EP0_Handle_DataXfer              0x10041075   Thumb Code     0  QCA6174_SCAQBAFM.sym ABSOLUTE
    rom_USB_Exc_Stop_OUT_Transfer            0x100410a5   Thumb Code     0  QCA6174_SCAQBAFM.sym ABSOLUTE
    rom_USB_Exc_Stop_IN_Transfer             0x100410a7   Thumb Code     0  QCA6174_SCAQBAFM.sym ABSOLUTE
    rom_USB_Stop_Data_OUT                    0x100410ad   Thumb Code     0  QCA6174_SCAQBAFM.sym ABSOLUTE
    rom_USB_Stop_Data_IN                     0x100410af   Thumb Code     0  QCA6174_SCAQBAFM.sym ABSOLUTE
    rom_USB_HandleEP0Request                 0x100410ff   Thumb Code     0  QCA6174_SCAQBAFM.sym ABSOLUTE
    rom_USB_HandleGetDesc                    0x1004123b   Thumb Code     0  QCA6174_SCAQBAFM.sym ABSOLUTE
    rom_USB_HandleUnknownSetup               0x10041501   Thumb Code     0  QCA6174_SCAQBAFM.sym ABSOLUTE
    rom_USB_ContinueEP0Transfer              0x1004151f   Thumb Code     0  QCA6174_SCAQBAFM.sym ABSOLUTE
    rom_USB_Intfc_Get_Desc                   0x10041579   Thumb Code     0  QCA6174_SCAQBAFM.sym ABSOLUTE
    rom_USB_Intfc_Ctrl                       0x100415a3   Thumb Code     0  QCA6174_SCAQBAFM.sym ABSOLUTE
    rom_USB_HandleStandardEndpointRequest    0x100415c3   Thumb Code     0  QCA6174_SCAQBAFM.sym ABSOLUTE
    rom_USB_SetEPStall                       0x10041631   Thumb Code     0  QCA6174_SCAQBAFM.sym ABSOLUTE
    rom_USB_ClearEPStall                     0x10041663   Thumb Code     0  QCA6174_SCAQBAFM.sym ABSOLUTE
    rom_USB_SetFeature                       0x100416a3   Thumb Code     0  QCA6174_SCAQBAFM.sym ABSOLUTE
    rom_USB_ActivateEP                       0x10041707   Thumb Code     0  QCA6174_SCAQBAFM.sym ABSOLUTE
    rom_USB_GetStringDesc                    0x100417a5   Thumb Code     0  QCA6174_SCAQBAFM.sym ABSOLUTE
    rom_USB_SetConfiguration                 0x10041889   Thumb Code     0  QCA6174_SCAQBAFM.sym ABSOLUTE
    rom_USB_SetInterface                     0x10041901   Thumb Code     0  QCA6174_SCAQBAFM.sym ABSOLUTE
    rom_USB_ConfigureEndpoints               0x10041931   Thumb Code     0  QCA6174_SCAQBAFM.sym ABSOLUTE
    rom_USB_ResetInterfaces                  0x1004193d   Thumb Code     0  QCA6174_SCAQBAFM.sym ABSOLUTE
    rom_USB_DeactivateEP                     0x10041979   Thumb Code     0  QCA6174_SCAQBAFM.sym ABSOLUTE
    rom_USB_PollIsr                          0x100419bb   Thumb Code     0  QCA6174_SCAQBAFM.sym ABSOLUTE
    rom_USB_CompleteEP                       0x100419fb   Thumb Code     0  QCA6174_SCAQBAFM.sym ABSOLUTE
    rom_USB_Interrupt_Trace                  0x10041a0b   Thumb Code     0  QCA6174_SCAQBAFM.sym ABSOLUTE
    rom_USB_SoftDisconnect                   0x10041a0d   Thumb Code     0  QCA6174_SCAQBAFM.sym ABSOLUTE
    rom_USB_SoftConnect                      0x10041a29   Thumb Code     0  QCA6174_SCAQBAFM.sym ABSOLUTE
    rom_USB_LP_On                            0x10041a45   Thumb Code     0  QCA6174_SCAQBAFM.sym ABSOLUTE
    rom_USB_LP_Off                           0x10041aff   Thumb Code     0  QCA6174_SCAQBAFM.sym ABSOLUTE
    rom_USB_Suspend                          0x10041bf3   Thumb Code     0  QCA6174_SCAQBAFM.sym ABSOLUTE
    rom_USB_L1Enter                          0x10041ca9   Thumb Code     0  QCA6174_SCAQBAFM.sym ABSOLUTE
    rom_USB_Core_ExitL1                      0x10041cf7   Thumb Code     0  QCA6174_SCAQBAFM.sym ABSOLUTE
    rom_USB_L1Exit                           0x10041d11   Thumb Code     0  QCA6174_SCAQBAFM.sym ABSOLUTE
    rom_USB_Mask_Intmsk                      0x10041d2d   Thumb Code     0  QCA6174_SCAQBAFM.sym ABSOLUTE
    rom_USB_UnMask_Intmsk                    0x10041d39   Thumb Code     0  QCA6174_SCAQBAFM.sym ABSOLUTE
    rom_USB_Wakeup                           0x10041d45   Thumb Code     0  QCA6174_SCAQBAFM.sym ABSOLUTE
    rom_USB_RemoteWakeup                     0x10041d81   Thumb Code     0  QCA6174_SCAQBAFM.sym ABSOLUTE
    rom_USB_WakeupHost                       0x10041dbb   Thumb Code     0  QCA6174_SCAQBAFM.sym ABSOLUTE
    rom_USB_InitializeEPStructure            0x10041e63   Thumb Code     0  QCA6174_SCAQBAFM.sym ABSOLUTE
    rom_USB_HandleEarlySuspendInterrupt      0x10041e95   Thumb Code     0  QCA6174_SCAQBAFM.sym ABSOLUTE
    rom_USB_HandleGlobalINNAKEffectiveInterrupt 0x10041ea1   Thumb Code     0  QCA6174_SCAQBAFM.sym ABSOLUTE
    rom_USB_HandleEPMisMactchInterrupt       0x10041f21   Thumb Code     0  QCA6174_SCAQBAFM.sym ABSOLUTE
    rom_USB_HandleLPMInterrupt               0x10041f2d   Thumb Code     0  QCA6174_SCAQBAFM.sym ABSOLUTE
    rom_USB_HandleDisconnectInterrupt        0x10041f6d   Thumb Code     0  QCA6174_SCAQBAFM.sym ABSOLUTE
    rom_USB_EnableUSBInterrupt               0x10041f79   Thumb Code     0  QCA6174_SCAQBAFM.sym ABSOLUTE
    rom_USB_DisableUSBInterrupt              0x10041f87   Thumb Code     0  QCA6174_SCAQBAFM.sym ABSOLUTE
    rom_USB_StallEP0                         0x10041f9b   Thumb Code     0  QCA6174_SCAQBAFM.sym ABSOLUTE
    rom_USB_ClearFeature                     0x10041fb7   Thumb Code     0  QCA6174_SCAQBAFM.sym ABSOLUTE
    rom_USB_SetAddress                       0x10042019   Thumb Code     0  QCA6174_SCAQBAFM.sym ABSOLUTE
    rom_USB_ClearEPHalt                      0x1004203d   Thumb Code     0  QCA6174_SCAQBAFM.sym ABSOLUTE
    rom_USB_StartEPTransfer                  0x10042059   Thumb Code     0  QCA6174_SCAQBAFM.sym ABSOLUTE
    rom_USB_ContinueEPTransfer               0x100421d9   Thumb Code     0  QCA6174_SCAQBAFM.sym ABSOLUTE
    rom_USB_RestartEPTransfer                0x1004222d   Thumb Code     0  QCA6174_SCAQBAFM.sym ABSOLUTE
    rom_USB_ComputeEPPktCnt                  0x1004227d   Thumb Code     0  QCA6174_SCAQBAFM.sym ABSOLUTE
    rom_USB_ConfigureEPXferBuffer            0x100422a3   Thumb Code     0  QCA6174_SCAQBAFM.sym ABSOLUTE
    rom_USB_Is_DeepSleep                     0x100422f1   Thumb Code     0  QCA6174_SCAQBAFM.sym ABSOLUTE
    rom_USB_Is_Sleep                         0x10042305   Thumb Code     0  QCA6174_SCAQBAFM.sym ABSOLUTE
    rom_USB_Is_Ready                         0x10042319   Thumb Code     0  QCA6174_SCAQBAFM.sym ABSOLUTE
    rom_USB_Module_Install                   0x10042329   Thumb Code     0  QCA6174_SCAQBAFM.sym ABSOLUTE
    rom_USB_ConsumeTimer                     0x100423a9   Thumb Code     0  QCA6174_SCAQBAFM.sym ABSOLUTE
    USB_StopTimer                            0x100423b9   Thumb Code     0  QCA6174_SCAQBAFM.sym ABSOLUTE
    USB_StartTimer                           0x100423d9   Thumb Code     0  QCA6174_SCAQBAFM.sym ABSOLUTE
    rom_USB_PostponeAction                   0x100423ff   Thumb Code     0  QCA6174_SCAQBAFM.sym ABSOLUTE
    rom_USB_Handle_PostponeAction            0x10042421   Thumb Code     0  QCA6174_SCAQBAFM.sym ABSOLUTE
    rom_USB_Unmask_SOFInt                    0x10042603   Thumb Code     0  QCA6174_SCAQBAFM.sym ABSOLUTE
    rom_USB_Mask_SOFInt                      0x10042613   Thumb Code     0  QCA6174_SCAQBAFM.sym ABSOLUTE
    rom_USB_Stop_Force_EOP                   0x10042623   Thumb Code     0  QCA6174_SCAQBAFM.sym ABSOLUTE
    rom_USB_Start_Force_EOP                  0x10042643   Thumb Code     0  QCA6174_SCAQBAFM.sym ABSOLUTE
    rom_USB_Force_EOP_Handler                0x10042653   Thumb Code     0  QCA6174_SCAQBAFM.sym ABSOLUTE
    rom_USB_Wake_GPIO_ISR                    0x100426db   Thumb Code     0  QCA6174_SCAQBAFM.sym ABSOLUTE
    rom_USB_GPIO_Wakeup_Handler              0x10042741   Thumb Code     0  QCA6174_SCAQBAFM.sym ABSOLUTE
    rom_USB_Wake_Attach                      0x1004277f   Thumb Code     0  QCA6174_SCAQBAFM.sym ABSOLUTE
    rom_PFAL_USB_Core_Init                   0x100427bf   Thumb Code     0  QCA6174_SCAQBAFM.sym ABSOLUTE
    HID_Intfc_Get_Desc                       0x10042851   Thumb Code     0  QCA6174_SCAQBAFM.sym ABSOLUTE
    rom_HID_Get_Descriptor                   0x100429af   Thumb Code     0  QCA6174_SCAQBAFM.sym ABSOLUTE
    rom_HID_Handle_Std_Req                   0x10042acf   Thumb Code     0  QCA6174_SCAQBAFM.sym ABSOLUTE
    HID_ProcTimer_SET_IDLE_KBD               0x10042ae7   Thumb Code     0  QCA6174_SCAQBAFM.sym ABSOLUTE
    rom_HID_Report_RxDone_Hook               0x10042b5d   Thumb Code     0  QCA6174_SCAQBAFM.sym ABSOLUTE
    rom_HID_Handle_Class_Req                 0x10042b7f   Thumb Code     0  QCA6174_SCAQBAFM.sym ABSOLUTE
    HID_KBD_Handle_Ctrl                      0x10042ccb   Thumb Code     0  QCA6174_SCAQBAFM.sym ABSOLUTE
    HID_MS_Handle_Ctrl                       0x10042d13   Thumb Code     0  QCA6174_SCAQBAFM.sym ABSOLUTE
    HID_KBD_Start_EPs                        0x10042d5b   Thumb Code     0  QCA6174_SCAQBAFM.sym ABSOLUTE
    HID_KBD_Stop_EPs                         0x10042d6f   Thumb Code     0  QCA6174_SCAQBAFM.sym ABSOLUTE
    HID_MS_Start_EPs                         0x10042d89   Thumb Code     0  QCA6174_SCAQBAFM.sym ABSOLUTE
    HID_MS_Stop_EPs                          0x10042d9d   Thumb Code     0  QCA6174_SCAQBAFM.sym ABSOLUTE
    HID_EP_Done                              0x10042db7   Thumb Code     0  QCA6174_SCAQBAFM.sym ABSOLUTE
    HID_EP_Active                            0x10042e1b   Thumb Code     0  QCA6174_SCAQBAFM.sym ABSOLUTE
    rom_USB_SendHID_Report_Comp              0x10042e29   Thumb Code     0  QCA6174_SCAQBAFM.sym ABSOLUTE
    rom_USB_SendHIDReport                    0x10042e45   Thumb Code     0  QCA6174_SCAQBAFM.sym ABSOLUTE
    rom_USB_Class_HID_Init                   0x10042f15   Thumb Code     0  QCA6174_SCAQBAFM.sym ABSOLUTE
    rom_USB_DFUDetach                        0x10042fd9   Thumb Code     0  QCA6174_SCAQBAFM.sym ABSOLUTE
    rom_USB_DFU_Init                         0x10042fe9   Thumb Code     0  QCA6174_SCAQBAFM.sym ABSOLUTE
    rom_USB_DFU_Hdr_RxDone_Hook              0x10043005   Thumb Code     0  QCA6174_SCAQBAFM.sym ABSOLUTE
    rom_USB_Switch_Mode_Handle               0x1004302b   Thumb Code     0  QCA6174_SCAQBAFM.sym ABSOLUTE
    rom_USB_HandleVSC                        0x1004304f   Thumb Code     0  QCA6174_SCAQBAFM.sym ABSOLUTE
    rom_USB_DFU_StartXfer                    0x10043225   Thumb Code     0  QCA6174_SCAQBAFM.sym ABSOLUTE
    rom_USB_DFU_HandleHdr_TLV                0x1004327b   Thumb Code     0  QCA6174_SCAQBAFM.sym ABSOLUTE
    rom_USB_DFU_HandleHdr                    0x100432e9   Thumb Code     0  QCA6174_SCAQBAFM.sym ABSOLUTE
    rom_USB_DFU_HandleData                   0x1004335f   Thumb Code     0  QCA6174_SCAQBAFM.sym ABSOLUTE
    DFU_Intfc_Get_Desc                       0x1004363f   Thumb Code     0  QCA6174_SCAQBAFM.sym ABSOLUTE
    DFU_Handle_Ctrl                          0x100436dd   Thumb Code     0  QCA6174_SCAQBAFM.sym ABSOLUTE
    DFU_Start_EPs                            0x1004370d   Thumb Code     0  QCA6174_SCAQBAFM.sym ABSOLUTE
    DFU_Stop_EPs                             0x10043721   Thumb Code     0  QCA6174_SCAQBAFM.sym ABSOLUTE
    DFU_EP_Done                              0x1004372b   Thumb Code     0  QCA6174_SCAQBAFM.sym ABSOLUTE
    rom_USB_Class_DFU_Init                   0x1004374d   Thumb Code     0  QCA6174_SCAQBAFM.sym ABSOLUTE
    rom_PFAL_SI_Open                         0x1004381d   Thumb Code     0  QCA6174_SCAQBAFM.sym ABSOLUTE
    rom_PFAL_SI_Close                        0x1004386d   Thumb Code     0  QCA6174_SCAQBAFM.sym ABSOLUTE
    rom_PFAL_SI_Transaction                  0x1004386f   Thumb Code     0  QCA6174_SCAQBAFM.sym ABSOLUTE
    rom_PFAL_SiFlash_ReadID                  0x10043989   Thumb Code     0  QCA6174_SCAQBAFM.sym ABSOLUTE
    rom_PFAL_SiFlash_SetWritable             0x100439c1   Thumb Code     0  QCA6174_SCAQBAFM.sym ABSOLUTE
    rom_PFAL_SiFlash_TxDone                  0x100439f9   Thumb Code     0  QCA6174_SCAQBAFM.sym ABSOLUTE
    PFAL_SiFlash_Probe                       0x10043a35   Thumb Code     0  QCA6174_SCAQBAFM.sym ABSOLUTE
    PFAL_SiFlash_Open                        0x10043a65   Thumb Code     0  QCA6174_SCAQBAFM.sym ABSOLUTE
    PFAL_SiFlash_Close                       0x10043b85   Thumb Code     0  QCA6174_SCAQBAFM.sym ABSOLUTE
    rom_PFAL_SiFlash_RxData                  0x10043b8b   Thumb Code     0  QCA6174_SCAQBAFM.sym ABSOLUTE
    PFAL_SiFlash_Read                        0x10043bdf   Thumb Code     0  QCA6174_SCAQBAFM.sym ABSOLUTE
    rom_PFAL_SiFlash_TxData                  0x10043c49   Thumb Code     0  QCA6174_SCAQBAFM.sym ABSOLUTE
    PFAL_SiFlash_Write                       0x10043cc3   Thumb Code     0  QCA6174_SCAQBAFM.sym ABSOLUTE
    PFAL_SiFlash_Erase                       0x10043d2d   Thumb Code     0  QCA6174_SCAQBAFM.sym ABSOLUTE
    PFAL_SiFlash_DeviceInfo                  0x10043fad   Thumb Code     0  QCA6174_SCAQBAFM.sym ABSOLUTE
    rom_PFAL_EEPROM_GetSlaveID               0x10043ff5   Thumb Code     0  QCA6174_SCAQBAFM.sym ABSOLUTE
    PFAL_EEPROM_Probe                        0x10044047   Thumb Code     0  QCA6174_SCAQBAFM.sym ABSOLUTE
    PFAL_EEPROM_Open                         0x1004406b   Thumb Code     0  QCA6174_SCAQBAFM.sym ABSOLUTE
    PFAL_EEPROM_Close                        0x100440af   Thumb Code     0  QCA6174_SCAQBAFM.sym ABSOLUTE
    rom_PFAL_EEPROM_RxData                   0x100440b5   Thumb Code     0  QCA6174_SCAQBAFM.sym ABSOLUTE
    PFAL_EEPROM_Read                         0x1004411b   Thumb Code     0  QCA6174_SCAQBAFM.sym ABSOLUTE
    rom_PFAL_EEPROM_TxData                   0x10044189   Thumb Code     0  QCA6174_SCAQBAFM.sym ABSOLUTE
    PFAL_EEPROM_Write                        0x10044217   Thumb Code     0  QCA6174_SCAQBAFM.sym ABSOLUTE
    PFAL_EEPROM_Erase                        0x1004431d   Thumb Code     0  QCA6174_SCAQBAFM.sym ABSOLUTE
    PFAL_EEPROM_DeviceInfo                   0x10044321   Thumb Code     0  QCA6174_SCAQBAFM.sym ABSOLUTE
    rom_PFAL_DDB_ResetMemoryDB               0x1004446d   Thumb Code     0  QCA6174_SCAQBAFM.sym ABSOLUTE
    rom_PFAL_DDB_CheckFileStatus             0x10044493   Thumb Code     0  QCA6174_SCAQBAFM.sym ABSOLUTE
    rom_PFAL_DDB_FileInit                    0x100444d9   Thumb Code     0  QCA6174_SCAQBAFM.sym ABSOLUTE
    rom_PFAL_DDB_FindDeviceIndex             0x10044559   Thumb Code     0  QCA6174_SCAQBAFM.sym ABSOLUTE
    rom_PFAL_DDB_WriteToDDBFile              0x10044595   Thumb Code     0  QCA6174_SCAQBAFM.sym ABSOLUTE
    rom_PFAL_DDB_RecoverRecord               0x1004460d   Thumb Code     0  QCA6174_SCAQBAFM.sym ABSOLUTE
    rom_PFAL_DDB_MakeRecovery                0x10044695   Thumb Code     0  QCA6174_SCAQBAFM.sym ABSOLUTE
    rom_PFAL_DDB_AddRecord                   0x1004470d   Thumb Code     0  QCA6174_SCAQBAFM.sym ABSOLUTE
    rom_PFAL_DDB_GetValidKeyNum              0x10044c2b   Thumb Code     0  QCA6174_SCAQBAFM.sym ABSOLUTE
    rom_PFAL_DDB_FindRecord                  0x10044c31   Thumb Code     0  QCA6174_SCAQBAFM.sym ABSOLUTE
    rom_PFAL_DDB_FindRecordByIndex           0x10044c6f   Thumb Code     0  QCA6174_SCAQBAFM.sym ABSOLUTE
    rom_PFAL_DDB_DeleteRecord                0x10044ca1   Thumb Code     0  QCA6174_SCAQBAFM.sym ABSOLUTE
    rom_PFAL_DDB_DeleteAllRecord             0x10044d57   Thumb Code     0  QCA6174_SCAQBAFM.sym ABSOLUTE
    rom_PFAL_DDB_Init                        0x10044dc5   Thumb Code     0  QCA6174_SCAQBAFM.sym ABSOLUTE
    rom_PFAL_DDB_patch_hook                  0x10044eab   Thumb Code     0  QCA6174_SCAQBAFM.sym ABSOLUTE
    _efuse_enable_read                       0x10045159   Thumb Code     0  QCA6174_SCAQBAFM.sym ABSOLUTE
    _efuse_disable                           0x10045207   Thumb Code     0  QCA6174_SCAQBAFM.sym ABSOLUTE
    _efuse_read_macro                        0x10045289   Thumb Code     0  QCA6174_SCAQBAFM.sym ABSOLUTE
    _efuse_read                              0x100453dd   Thumb Code     0  QCA6174_SCAQBAFM.sym ABSOLUTE
    _efuse_size                              0x1004547b   Thumb Code     0  QCA6174_SCAQBAFM.sym ABSOLUTE
    _efuse_init                              0x1004548b   Thumb Code     0  QCA6174_SCAQBAFM.sym ABSOLUTE
    _efuse_fini                              0x100454b5   Thumb Code     0  QCA6174_SCAQBAFM.sym ABSOLUTE
    efuse_module_install                     0x100454bd   Thumb Code     0  QCA6174_SCAQBAFM.sym ABSOLUTE
    _efuse_enable_write                      0x10045531   Thumb Code     0  QCA6174_SCAQBAFM.sym ABSOLUTE
    _efuse_writemask_set                     0x100455e7   Thumb Code     0  QCA6174_SCAQBAFM.sym ABSOLUTE
    _efuse_write_macro                       0x100455ef   Thumb Code     0  QCA6174_SCAQBAFM.sym ABSOLUTE
    _efuse_write                             0x100457ab   Thumb Code     0  QCA6174_SCAQBAFM.sym ABSOLUTE
    efusew_module_install                    0x1004585f   Thumb Code     0  QCA6174_SCAQBAFM.sym ABSOLUTE
    rom_CFG_SetExtAccessFunctions            0x100458b1   Thumb Code     0  QCA6174_SCAQBAFM.sym ABSOLUTE
    rom_CFG_SetNvmType                       0x100458c5   Thumb Code     0  QCA6174_SCAQBAFM.sym ABSOLUTE
    rom_CFG_Init                             0x100458cb   Thumb Code     0  QCA6174_SCAQBAFM.sym ABSOLUTE
    rom_CFG_GetConfigParameterInfo           0x10045901   Thumb Code     0  QCA6174_SCAQBAFM.sym ABSOLUTE
    rom_CFG_GetTagEntry                      0x1004594b   Thumb Code     0  QCA6174_SCAQBAFM.sym ABSOLUTE
    rom_CFG_RM_Init                          0x100459c5   Thumb Code     0  QCA6174_SCAQBAFM.sym ABSOLUTE
    rom_CFG_RM_GetConfigParameterInfo        0x100459d3   Thumb Code     0  QCA6174_SCAQBAFM.sym ABSOLUTE
    rom_CFG_RM_GetTagEntry                   0x10045a8f   Thumb Code     0  QCA6174_SCAQBAFM.sym ABSOLUTE
    APP_Task                                 0x10045ac5   Thumb Code     0  QCA6174_SCAQBAFM.sym ABSOLUTE
    BKGD_Task                                0x10045bd9   Thumb Code     0  QCA6174_SCAQBAFM.sym ABSOLUTE
    rom_OSC_BKGD_ProcCallbackEvents          0x10045cbf   Thumb Code     0  QCA6174_SCAQBAFM.sym ABSOLUTE
    rom_OSC_BKGD_SetCallbackFunctions        0x10045ccd   Thumb Code     0  QCA6174_SCAQBAFM.sym ABSOLUTE
    HIF_Task                                 0x10045d1d   Thumb Code     0  QCA6174_SCAQBAFM.sym ABSOLUTE
    rom_OSC_HIF_ProcCallbackEvents           0x10045ed3   Thumb Code     0  QCA6174_SCAQBAFM.sym ABSOLUTE
    rom_OSC_HIF_SetCallbackFunctions         0x10045ee1   Thumb Code     0  QCA6174_SCAQBAFM.sym ABSOLUTE
    LLM_Task                                 0x10045f69   Thumb Code     0  QCA6174_SCAQBAFM.sym ABSOLUTE
    rom_OSC_LLM_ProcCallbackEvents           0x1004617f   Thumb Code     0  QCA6174_SCAQBAFM.sym ABSOLUTE
    rom_OSC_LLM_SetCallbackFunctions         0x1004618d   Thumb Code     0  QCA6174_SCAQBAFM.sym ABSOLUTE
    MCI_Task                                 0x10046249   Thumb Code     0  QCA6174_SCAQBAFM.sym ABSOLUTE
    rom_OSC_MCI_ProcCallbackEvents           0x10046395   Thumb Code     0  QCA6174_SCAQBAFM.sym ABSOLUTE
    rom_OSC_MCI_SetCallbackFunctions         0x100463a3   Thumb Code     0  QCA6174_SCAQBAFM.sym ABSOLUTE
    MWS_Task                                 0x10046421   Thumb Code     0  QCA6174_SCAQBAFM.sym ABSOLUTE
    rom_OSC_MWS_ProcCallbackEvents           0x1004655f   Thumb Code     0  QCA6174_SCAQBAFM.sym ABSOLUTE
    rom_OSC_MWS_SetCallbackFunctions         0x1004656d   Thumb Code     0  QCA6174_SCAQBAFM.sym ABSOLUTE
    rom_ANT_Time_BTTimeDiff                  0x100465dd   Thumb Code     0  QCA6174_SCAQBAFM.sym ABSOLUTE
    rom_ANT_Time_GetCurrANTTime              0x10046623   Thumb Code     0  QCA6174_SCAQBAFM.sym ABSOLUTE
    rom_ANT_Time_GetRxPacketTime             0x100466a1   Thumb Code     0  QCA6174_SCAQBAFM.sym ABSOLUTE
    rom_ANT_Time_Init                        0x100466e3   Thumb Code     0  QCA6174_SCAQBAFM.sym ABSOLUTE
    rom_ANT_Time_UpdateNewBTTime             0x10046721   Thumb Code     0  QCA6174_SCAQBAFM.sym ABSOLUTE
    rom_ANT_Time_LateRxCapture               0x100469b9   Thumb Code     0  QCA6174_SCAQBAFM.sym ABSOLUTE
    rom_ANT_CoexInit                         0x100469d7   Thumb Code     0  QCA6174_SCAQBAFM.sym ABSOLUTE
    rom_ANT_CoexStartActivity                0x10046ae3   Thumb Code     0  QCA6174_SCAQBAFM.sym ABSOLUTE
    rom_ANT_CoexStopActivity                 0x10046b75   Thumb Code     0  QCA6174_SCAQBAFM.sym ABSOLUTE
    rom_ANT_CoexSetPriorityConfig            0x10046c51   Thumb Code     0  QCA6174_SCAQBAFM.sym ABSOLUTE
    rom_ANT_CoexGetPriorityConfig            0x10046ca9   Thumb Code     0  QCA6174_SCAQBAFM.sym ABSOLUTE
    rom_ANT_CoexSetAdvPriorityConfig         0x10046cdf   Thumb Code     0  QCA6174_SCAQBAFM.sym ABSOLUTE
    rom_ANT_CoexGetAdvPriorityConfig         0x10046d19   Thumb Code     0  QCA6174_SCAQBAFM.sym ABSOLUTE
    rom_ANT_CoexChannelSetMaxPriority        0x10046d41   Thumb Code     0  QCA6174_SCAQBAFM.sym ABSOLUTE
    rom_ANT_CoexChannelUpdatePriority        0x10046d8d   Thumb Code     0  QCA6174_SCAQBAFM.sym ABSOLUTE
    rom_ANT_CoexActivityBlockedHandler       0x10046e37   Thumb Code     0  QCA6174_SCAQBAFM.sym ABSOLUTE
    rom_ANT_CoexActivityCompleteHandler      0x10046f33   Thumb Code     0  QCA6174_SCAQBAFM.sym ABSOLUTE
    rom_ANT_CoexANTEventHandler              0x10046f79   Thumb Code     0  QCA6174_SCAQBAFM.sym ABSOLUTE
    rom_ANT_CoexTransferStartHandler         0x10046fcd   Thumb Code     0  QCA6174_SCAQBAFM.sym ABSOLUTE
    rom_ANT_CoexTransferNextHandler          0x10046fdf   Thumb Code     0  QCA6174_SCAQBAFM.sym ABSOLUTE
    rom_ANT_SetChannelRadioTxPower           0x10047011   Thumb Code     0  QCA6174_SCAQBAFM.sym ABSOLUTE
    rom_ANT_SetChannelRadioFreq              0x1004701d   Thumb Code     0  QCA6174_SCAQBAFM.sym ABSOLUTE
    rom_ANT_GetChannelRadioFreq              0x1004704d   Thumb Code     0  QCA6174_SCAQBAFM.sym ABSOLUTE
    rom_ANT_SetNetworkAddress                0x10047053   Thumb Code     0  QCA6174_SCAQBAFM.sym ABSOLUTE
    rom_ANT_SetProxSearch                    0x1004705b   Thumb Code     0  QCA6174_SCAQBAFM.sym ABSOLUTE
    rom_Radio_SetToTx                        0x10047085   Thumb Code     0  QCA6174_SCAQBAFM.sym ABSOLUTE
    rom_Radio_SetToRx                        0x10047181   Thumb Code     0  QCA6174_SCAQBAFM.sym ABSOLUTE
    rom_Radio_ReadMessage                    0x10047209   Thumb Code     0  QCA6174_SCAQBAFM.sym ABSOLUTE
    rom_Radio_ThresholdCompare               0x10047229   Thumb Code     0  QCA6174_SCAQBAFM.sym ABSOLUTE
    rom_Radio_ProcessRxPacket                0x1004724b   Thumb Code     0  QCA6174_SCAQBAFM.sym ABSOLUTE
    rom_ANTHL_Init                           0x10047295   Thumb Code     0  QCA6174_SCAQBAFM.sym ABSOLUTE
    rom_ANTHL_EventHandler                   0x100472ad   Thumb Code     0  QCA6174_SCAQBAFM.sym ABSOLUTE
    rom_GetQUsedSpace                        0x1004739d   Thumb Code     0  QCA6174_SCAQBAFM.sym ABSOLUTE
    rom_GetQFreeSpace                        0x100473ad   Thumb Code     0  QCA6174_SCAQBAFM.sym ABSOLUTE
    rom_ANTHL_PushTxBurstQueue               0x100473c9   Thumb Code     0  QCA6174_SCAQBAFM.sym ABSOLUTE
    rom_ANTHL_AdvPopTxBurstQueue             0x100473ed   Thumb Code     0  QCA6174_SCAQBAFM.sym ABSOLUTE
    rom_ANTHL_PopTxBurstQueue                0x10047455   Thumb Code     0  QCA6174_SCAQBAFM.sym ABSOLUTE
    rom_PutBuffer                            0x1004748f   Thumb Code     0  QCA6174_SCAQBAFM.sym ABSOLUTE
    rom_ReadBuffer                           0x100474df   Thumb Code     0  QCA6174_SCAQBAFM.sym ABSOLUTE
    rom_FlushBuffer                          0x1004752f   Thumb Code     0  QCA6174_SCAQBAFM.sym ABSOLUTE
    rom_ANTHL_IDListConfig                   0x10047541   Thumb Code     0  QCA6174_SCAQBAFM.sym ABSOLUTE
    rom_ANTHL_IDListAdd                      0x10047573   Thumb Code     0  QCA6174_SCAQBAFM.sym ABSOLUTE
    rom_ANTHL_InitSharedChannel              0x10047595   Thumb Code     0  QCA6174_SCAQBAFM.sym ABSOLUTE
    rom_AutoFreqHopHandler                   0x100475af   Thumb Code     0  QCA6174_SCAQBAFM.sym ABSOLUTE
    rom_ANTHL_SetAutoFreqHopTable            0x10047669   Thumb Code     0  QCA6174_SCAQBAFM.sym ABSOLUTE
    rom_ANT_StackInit                        0x10047681   Thumb Code     0  QCA6174_SCAQBAFM.sym ABSOLUTE
    ANT_StackResume                          0x1004772b   Thumb Code     0  QCA6174_SCAQBAFM.sym ABSOLUTE
    rom_ANT_SetLibConfig                     0x1004789d   Thumb Code     0  QCA6174_SCAQBAFM.sym ABSOLUTE
    rom_ANT_ClearLibConfig                   0x100478af   Thumb Code     0  QCA6174_SCAQBAFM.sym ABSOLUTE
    rom_ANT_GetLibConfig                     0x100478b9   Thumb Code     0  QCA6174_SCAQBAFM.sym ABSOLUTE
    rom_ANT_Active                           0x100478bf   Thumb Code     0  QCA6174_SCAQBAFM.sym ABSOLUTE
    rom_ANT_ChannelInProgress                0x100478c9   Thumb Code     0  QCA6174_SCAQBAFM.sym ABSOLUTE
    rom_ANT_GetChannelStatus                 0x100478d5   Thumb Code     0  QCA6174_SCAQBAFM.sym ABSOLUTE
    rom_ANT_PendingTransmit                  0x100478dd   Thumb Code     0  QCA6174_SCAQBAFM.sym ABSOLUTE
    rom_ANT_GetChannelID                     0x100478eb   Thumb Code     0  QCA6174_SCAQBAFM.sym ABSOLUTE
    rom_ANT_GetTransType                     0x10047907   Thumb Code     0  QCA6174_SCAQBAFM.sym ABSOLUTE
    rom_ANT_GetChannelTime                   0x10047913   Thumb Code     0  QCA6174_SCAQBAFM.sym ABSOLUTE
    rom_ANT_SetChannelID                     0x1004792b   Thumb Code     0  QCA6174_SCAQBAFM.sym ABSOLUTE
    rom_ANT_SetChannelPeriod                 0x1004794f   Thumb Code     0  QCA6174_SCAQBAFM.sym ABSOLUTE
    rom_ANT_GetChannelPeriod                 0x100479c3   Thumb Code     0  QCA6174_SCAQBAFM.sym ABSOLUTE
    rom_ANT_SetChannelLowPriorityRxSearchTimeout 0x100479cb   Thumb Code     0  QCA6174_SCAQBAFM.sym ABSOLUTE
    rom_ANT_SetChannelRxSearchTimeout        0x100479d1   Thumb Code     0  QCA6174_SCAQBAFM.sym ABSOLUTE
    rom_ANT_SetSearchWaveform                0x100479d7   Thumb Code     0  QCA6174_SCAQBAFM.sym ABSOLUTE
    rom_ANT_SetSearchChannelPriority         0x100479df   Thumb Code     0  QCA6174_SCAQBAFM.sym ABSOLUTE
    rom_ANT_SetSearchSharingCycles           0x100479e9   Thumb Code     0  QCA6174_SCAQBAFM.sym ABSOLUTE
    rom_ANT_GetSearchSharingCycles           0x100479ef   Thumb Code     0  QCA6174_SCAQBAFM.sym ABSOLUTE
    rom_ANT_RxBurstTransferDisable           0x100479f5   Thumb Code     0  QCA6174_SCAQBAFM.sym ABSOLUTE
    rom_ANT_CopyOutTxDataBuffer              0x10047a2d   Thumb Code     0  QCA6174_SCAQBAFM.sym ABSOLUTE
    rom_ANT_memcpy                           0x10047a43   Thumb Code     0  QCA6174_SCAQBAFM.sym ABSOLUTE
    rom_ANT_AssignChannel                    0x10047a55   Thumb Code     0  QCA6174_SCAQBAFM.sym ABSOLUTE
    rom_ANT_ExtAssignChannel                 0x10047ad1   Thumb Code     0  QCA6174_SCAQBAFM.sym ABSOLUTE
    rom_ANT_UnAssignChannel                  0x10047b01   Thumb Code     0  QCA6174_SCAQBAFM.sym ABSOLUTE
    rom_ANT_OpenChannel                      0x10047b1f   Thumb Code     0  QCA6174_SCAQBAFM.sym ABSOLUTE
    rom_ANT_CloseChannel                     0x10047b77   Thumb Code     0  QCA6174_SCAQBAFM.sym ABSOLUTE
    rom_ANT_ClearPendingTransmit             0x10047c1b   Thumb Code     0  QCA6174_SCAQBAFM.sym ABSOLUTE
    rom_ANT_StopRxTransfer                   0x10047cf1   Thumb Code     0  QCA6174_SCAQBAFM.sym ABSOLUTE
    rom_ANT_TxMessage                        0x10047d11   Thumb Code     0  QCA6174_SCAQBAFM.sym ABSOLUTE
    rom_ANT_ConfigAdvancedBurst              0x10047e43   Thumb Code     0  QCA6174_SCAQBAFM.sym ABSOLUTE
    rom_ANT_GetAdvBurstCapabilities          0x10047eab   Thumb Code     0  QCA6174_SCAQBAFM.sym ABSOLUTE
    rom_ANT_TxAdvancedBurstMessage           0x10047ee5   Thumb Code     0  QCA6174_SCAQBAFM.sym ABSOLUTE
    rom_ANT_TxBurstMessage                   0x10048027   Thumb Code     0  QCA6174_SCAQBAFM.sym ABSOLUTE
    rom_ANT_EventHandler                     0x100481bb   Thumb Code     0  QCA6174_SCAQBAFM.sym ABSOLUTE
    rom_ANT_SetEventMessage                  0x100483ff   Thumb Code     0  QCA6174_SCAQBAFM.sym ABSOLUTE
    rom_ANT_GetActiveChannel                 0x1004841d   Thumb Code     0  QCA6174_SCAQBAFM.sym ABSOLUTE
    rom_ANT_StartTestMode                    0x10048423   Thumb Code     0  QCA6174_SCAQBAFM.sym ABSOLUTE
    rom_ANT_StopTestMode                     0x10048489   Thumb Code     0  QCA6174_SCAQBAFM.sym ABSOLUTE
    rom_ANT_GetTestStats                     0x1004849b   Thumb Code     0  QCA6174_SCAQBAFM.sym ABSOLUTE
    rom_TestModeRxStatUpdate                 0x10048579   Thumb Code     0  QCA6174_SCAQBAFM.sym ABSOLUTE
    rom_TestModeTxStatUpdate                 0x100485e3   Thumb Code     0  QCA6174_SCAQBAFM.sym ABSOLUTE
    rom_TransferEnd                          0x10048603   Thumb Code     0  QCA6174_SCAQBAFM.sym ABSOLUTE
    rom_TransferOverRun                      0x10048705   Thumb Code     0  QCA6174_SCAQBAFM.sym ABSOLUTE
    rom_TransferUnderRun                     0x10048723   Thumb Code     0  QCA6174_SCAQBAFM.sym ABSOLUTE
    rom_FillFreqHopTable                     0x1004880d   Thumb Code     0  QCA6174_SCAQBAFM.sym ABSOLUTE
    rom_TransferAdvCheck                     0x10048875   Thumb Code     0  QCA6174_SCAQBAFM.sym ABSOLUTE
    rom_TransferRxCheck                      0x10048abb   Thumb Code     0  QCA6174_SCAQBAFM.sym ABSOLUTE
    rom_TransferNextAction                   0x10048bbd   Thumb Code     0  QCA6174_SCAQBAFM.sym ABSOLUTE
    rom_TxChannelInterference                0x10048e0f   Thumb Code     0  QCA6174_SCAQBAFM.sym ABSOLUTE
    rom_TxChannelMotionTime                  0x10048e5d   Thumb Code     0  QCA6174_SCAQBAFM.sym ABSOLUTE
    rom_TxChannelMotion                      0x10048eb3   Thumb Code     0  QCA6174_SCAQBAFM.sym ABSOLUTE
    rom_TxChannelSetTime                     0x10048f01   Thumb Code     0  QCA6174_SCAQBAFM.sym ABSOLUTE
    rom_RxChannelIncExcIDCheck               0x10048f3d   Thumb Code     0  QCA6174_SCAQBAFM.sym ABSOLUTE
    rom_RxChannelCheckRadioParameters        0x10048fb1   Thumb Code     0  QCA6174_SCAQBAFM.sym ABSOLUTE
    rom_RxChannelFindMatch                   0x10048fd5   Thumb Code     0  QCA6174_SCAQBAFM.sym ABSOLUTE
    rom_RxChannelMatched                     0x1004906d   Thumb Code     0  QCA6174_SCAQBAFM.sym ABSOLUTE
    rom_RxChannelSearchTimeOut               0x10049153   Thumb Code     0  QCA6174_SCAQBAFM.sym ABSOLUTE
    rom_UpdateSearchSharingTimeout           0x100491eb   Thumb Code     0  QCA6174_SCAQBAFM.sym ABSOLUTE
    rom_RxChannelTimeout                     0x100492ab   Thumb Code     0  QCA6174_SCAQBAFM.sym ABSOLUTE
    rom_RxChannelInitSearch                  0x10049323   Thumb Code     0  QCA6174_SCAQBAFM.sym ABSOLUTE
    rom_RxChannelPreemptSearch               0x10049339   Thumb Code     0  QCA6174_SCAQBAFM.sym ABSOLUTE
    rom_RxChannelSetTime                     0x10049401   Thumb Code     0  QCA6174_SCAQBAFM.sym ABSOLUTE
    rom_RxChannelPendingTransmit             0x1004941d   Thumb Code     0  QCA6174_SCAQBAFM.sym ABSOLUTE
    rom_RxChannelRxAck                       0x10049449   Thumb Code     0  QCA6174_SCAQBAFM.sym ABSOLUTE
    rom_SharedChannelMatchID                 0x10049469   Thumb Code     0  QCA6174_SCAQBAFM.sym ABSOLUTE
    rom_RxMatchID                            0x100494b3   Thumb Code     0  QCA6174_SCAQBAFM.sym ABSOLUTE
    rom_SetEventMessage                      0x1004950b   Thumb Code     0  QCA6174_SCAQBAFM.sym ABSOLUTE
    rom_SetAdvRxEvent                        0x10049559   Thumb Code     0  QCA6174_SCAQBAFM.sym ABSOLUTE
    rom_SetRxEvent                           0x1004959d   Thumb Code     0  QCA6174_SCAQBAFM.sym ABSOLUTE
    rom_FlushRxEvent                         0x100495b9   Thumb Code     0  QCA6174_SCAQBAFM.sym ABSOLUTE
    rom_SetTxEvent                           0x100495fb   Thumb Code     0  QCA6174_SCAQBAFM.sym ABSOLUTE
    rom_ChannelInit                          0x10049623   Thumb Code     0  QCA6174_SCAQBAFM.sym ABSOLUTE
    rom_WatchDog                             0x100496ff   Thumb Code     0  QCA6174_SCAQBAFM.sym ABSOLUTE
    rom_AdvanceTime                          0x100497db   Thumb Code     0  QCA6174_SCAQBAFM.sym ABSOLUTE
    rom_ChannelTimer                         0x100498c3   Thumb Code     0  QCA6174_SCAQBAFM.sym ABSOLUTE
    rom_ChannelUpdate                        0x10049903   Thumb Code     0  QCA6174_SCAQBAFM.sym ABSOLUTE
    rom_ChannelStartImmediate                0x10049995   Thumb Code     0  QCA6174_SCAQBAFM.sym ABSOLUTE
    rom_UpdateANTEvent                       0x100499c9   Thumb Code     0  QCA6174_SCAQBAFM.sym ABSOLUTE
    rom_SetWakeUpTime                        0x100499fd   Thumb Code     0  QCA6174_SCAQBAFM.sym ABSOLUTE
    rom_DataWhitening                        0x10049a4d   Thumb Code     0  QCA6174_SCAQBAFM.sym ABSOLUTE
    rom_TxProcess                            0x10049a6d   Thumb Code     0  QCA6174_SCAQBAFM.sym ABSOLUTE
    rom_RxProcess                            0x10049ba1   Thumb Code     0  QCA6174_SCAQBAFM.sym ABSOLUTE
    rom_ChannelContinue                      0x10049ddd   Thumb Code     0  QCA6174_SCAQBAFM.sym ABSOLUTE
    rom_FindNext                             0x10049fe5   Thumb Code     0  QCA6174_SCAQBAFM.sym ABSOLUTE
    rom_INT_RADIO_DR1                        0x1004a1a3   Thumb Code     0  QCA6174_SCAQBAFM.sym ABSOLUTE
    rom_INT_ANT_TIMER                        0x1004a221   Thumb Code     0  QCA6174_SCAQBAFM.sym ABSOLUTE
    rom_AdvanceTimeScale                     0x1004a429   Thumb Code     0  QCA6174_SCAQBAFM.sym ABSOLUTE
    rom_ANT_FindNextHighPriority             0x1004a4fd   Thumb Code     0  QCA6174_SCAQBAFM.sym ABSOLUTE
    rom_QCOM_DebugMesgDump                   0x1004a645   Thumb Code     0  QCA6174_SCAQBAFM.sym ABSOLUTE
    rom_QCOM_AntEngineInit                   0x1004a663   Thumb Code     0  QCA6174_SCAQBAFM.sym ABSOLUTE
    rom_QCOM_ResetAntEngine                  0x1004a84d   Thumb Code     0  QCA6174_SCAQBAFM.sym ABSOLUTE
    rom_QCOM_SignalTask                      0x1004a8fd   Thumb Code     0  QCA6174_SCAQBAFM.sym ABSOLUTE
    rom_QCOM_GetCurrentTime                  0x1004a93d   Thumb Code     0  QCA6174_SCAQBAFM.sym ABSOLUTE
    rom_QCOM_GetAntPacketTime                0x1004a943   Thumb Code     0  QCA6174_SCAQBAFM.sym ABSOLUTE
    rom_QCOM_GetAntTxTime                    0x1004a991   Thumb Code     0  QCA6174_SCAQBAFM.sym ABSOLUTE
    rom_QCOM_SendAntEvent                    0x1004a9b3   Thumb Code     0  QCA6174_SCAQBAFM.sym ABSOLUTE
    rom_QCOM_SendAntData                     0x1004a9db   Thumb Code     0  QCA6174_SCAQBAFM.sym ABSOLUTE
    rom_QCOM_FreeMem                         0x1004aa03   Thumb Code     0  QCA6174_SCAQBAFM.sym ABSOLUTE
    rom_QCOM_AllocHciTxEventBuffer           0x1004aa09   Thumb Code     0  QCA6174_SCAQBAFM.sym ABSOLUTE
    rom_QCOM_AllocHciTxDataBuffer            0x1004aa13   Thumb Code     0  QCA6174_SCAQBAFM.sym ABSOLUTE
    rom_QCOM_SetAntRxTime                    0x1004aa1d   Thumb Code     0  QCA6174_SCAQBAFM.sym ABSOLUTE
    rom_QCOM_SetAntTxTime                    0x1004ac73   Thumb Code     0  QCA6174_SCAQBAFM.sym ABSOLUTE
    rom_QCOM_SignalChannelUpdate             0x1004ade3   Thumb Code     0  QCA6174_SCAQBAFM.sym ABSOLUTE
    rom_QCOM_ResetAntRadioEngine             0x1004b053   Thumb Code     0  QCA6174_SCAQBAFM.sym ABSOLUTE
    rom_QCOM_SetTxPower                      0x1004b20f   Thumb Code     0  QCA6174_SCAQBAFM.sym ABSOLUTE
    rom_QCOM_GetANTChannelTxPower            0x1004b23b   Thumb Code     0  QCA6174_SCAQBAFM.sym ABSOLUTE
    rom_QCOM_SetRFChannel                    0x1004b265   Thumb Code     0  QCA6174_SCAQBAFM.sym ABSOLUTE
    rom_QCOM_SetSyncWord                     0x1004b26b   Thumb Code     0  QCA6174_SCAQBAFM.sym ABSOLUTE
    rom_QCOM_SetRxPacketLength               0x1004b2cd   Thumb Code     0  QCA6174_SCAQBAFM.sym ABSOLUTE
    rom_QCOM_WriteTxPacket                   0x1004b2d5   Thumb Code     0  QCA6174_SCAQBAFM.sym ABSOLUTE
    rom_QCOM_ReadRxPacket                    0x1004b33f   Thumb Code     0  QCA6174_SCAQBAFM.sym ABSOLUTE
    rom_QCOM_SetRxWindow                     0x1004b34b   Thumb Code     0  QCA6174_SCAQBAFM.sym ABSOLUTE
    rom_QCOM_StopRx                          0x1004b3ed   Thumb Code     0  QCA6174_SCAQBAFM.sym ABSOLUTE
    rom_QCOM_GetAntRssi                      0x1004b3ef   Thumb Code     0  QCA6174_SCAQBAFM.sym ABSOLUTE
    rom_QCOM_DisableAntInterrupt             0x1004b40d   Thumb Code     0  QCA6174_SCAQBAFM.sym ABSOLUTE
    rom_QCOM_EnableAntInterrupt              0x1004b41f   Thumb Code     0  QCA6174_SCAQBAFM.sym ABSOLUTE
    rom_QCOM_VSMesgHandler                   0x1004b433   Thumb Code     0  QCA6174_SCAQBAFM.sym ABSOLUTE
    rom_mapPriorityLevel                     0x1004b43d   Thumb Code     0  QCA6174_SCAQBAFM.sym ABSOLUTE
    rom_sendCoexRequest                      0x1004b45d   Thumb Code     0  QCA6174_SCAQBAFM.sym ABSOLUTE
    rom_HCI_ProcExtention                    0x1004b49d   Thumb Code     0  QCA6174_SCAQBAFM.sym ABSOLUTE
    rom_HCI_DecodeACLPkt4L2CAPconnProfile    0x1004b4f9   Thumb Code     0  QCA6174_SCAQBAFM.sym ABSOLUTE
    rom_HCI_logL2CAPconnProfileStatus        0x1004b82b   Thumb Code     0  QCA6174_SCAQBAFM.sym ABSOLUTE
    rom_HCI_updateL2CAPconnProfileStatus_4_Scatternet 0x1004b8ad   Thumb Code     0  QCA6174_SCAQBAFM.sym ABSOLUTE
    rom_hci_profileDetect_patch_hook         0x1004b8e7   Thumb Code     0  QCA6174_SCAQBAFM.sym ABSOLUTE
    rom_LLM_FRA_Init                         0x1004b9cd   Thumb Code     0  QCA6174_SCAQBAFM.sym ABSOLUTE
    rom_LLM_FRA_Evaluate_ARQN                0x1004b9e1   Thumb Code     0  QCA6174_SCAQBAFM.sym ABSOLUTE
    rom_LLM_getNumHCI_Commands               0x1004ba89   Thumb Code     0  QCA6174_SCAQBAFM.sym ABSOLUTE
    rom_LLM_LE_allocEvent                    0x1004baaf   Thumb Code     0  QCA6174_SCAQBAFM.sym ABSOLUTE
    rom_LLM_allocEvent                       0x1004bac7   Thumb Code     0  QCA6174_SCAQBAFM.sym ABSOLUTE
    rom_LLM_packHCI_EventHeader              0x1004bb33   Thumb Code     0  QCA6174_SCAQBAFM.sym ABSOLUTE
    rom_LLM_HCI_SendQ_HCI_UP                 0x1004bb39   Thumb Code     0  QCA6174_SCAQBAFM.sym ABSOLUTE
    rom_sendHCI_Command_Status_Event         0x1004bb77   Thumb Code     0  QCA6174_SCAQBAFM.sym ABSOLUTE
    rom_packHCI_Command_Complete_Event       0x1004bbb7   Thumb Code     0  QCA6174_SCAQBAFM.sym ABSOLUTE
    rom_packHCI_Command_Complete_Event_wStatus 0x1004bbef   Thumb Code     0  QCA6174_SCAQBAFM.sym ABSOLUTE
    rom_LLM_HCI_CMN_sendHCI_Encryption_Change_Event 0x1004bc07   Thumb Code     0  QCA6174_SCAQBAFM.sym ABSOLUTE
    rom_LLM_HCI_LE_Init                      0x1004bcc1   Thumb Code     0  QCA6174_SCAQBAFM.sym ABSOLUTE
    rom_LLM_HCI_LE_HandleHciCommand          0x1004bcf9   Thumb Code     0  QCA6174_SCAQBAFM.sym ABSOLUTE
    rom_LLM_HCI_LE_procHostChannelMap        0x1004c6b7   Thumb Code     0  QCA6174_SCAQBAFM.sym ABSOLUTE
    rom_LLM_HCI_LE_handleCreateConnection    0x1004c713   Thumb Code     0  QCA6174_SCAQBAFM.sym ABSOLUTE
    rom_LLM_HCI_LE_handleTestMode            0x1004c8bf   Thumb Code     0  QCA6174_SCAQBAFM.sym ABSOLUTE
    rom_LLM_HCI_LE_handleHostChannelClassification 0x1004cabf   Thumb Code     0  QCA6174_SCAQBAFM.sym ABSOLUTE
    rom_LLM_HCI_LE_handleStartEncryption     0x1004cb1d   Thumb Code     0  QCA6174_SCAQBAFM.sym ABSOLUTE
    rom_LLM_HCI_LE_get_LE_pConn              0x1004cb6f   Thumb Code     0  QCA6174_SCAQBAFM.sym ABSOLUTE
    rom_LLM_HCI_LE_handleLongTermKeyReply    0x1004cba5   Thumb Code     0  QCA6174_SCAQBAFM.sym ABSOLUTE
    rom_LLM_LE_HCI_initScan                  0x1004cbd5   Thumb Code     0  QCA6174_SCAQBAFM.sym ABSOLUTE
    rom_LLM_HCI_LE_validateConnParams        0x1004cc0d   Thumb Code     0  QCA6174_SCAQBAFM.sym ABSOLUTE
    rom_LLM_HCI_LE_handleAdvertisingMode     0x1004ccd7   Thumb Code     0  QCA6174_SCAQBAFM.sym ABSOLUTE
    rom_LLM_HCI_LE_command_patch_hook        0x1004cd97   Thumb Code     0  QCA6174_SCAQBAFM.sym ABSOLUTE
    rom_LLM_lmpSeqMaxSlotReqHandler          0x1004ce39   Thumb Code     0  QCA6174_SCAQBAFM.sym ABSOLUTE
    rom_LLM_lmpSeqMultiSlotReqCntrl_Notify   0x1004ce99   Thumb Code     0  QCA6174_SCAQBAFM.sym ABSOLUTE
    rom_LLM_initiateLMP_MultiSlotCntrlReqSeq 0x1004ced7   Thumb Code     0  QCA6174_SCAQBAFM.sym ABSOLUTE
    rom_LLM_processlmpSeqMaxSlotReq          0x1004cf53   Thumb Code     0  QCA6174_SCAQBAFM.sym ABSOLUTE
    rom_LLM_evalMaxGapSlots                  0x1004d01b   Thumb Code     0  QCA6174_SCAQBAFM.sym ABSOLUTE
    rom_LLM_evalMultiSlotControl             0x1004d133   Thumb Code     0  QCA6174_SCAQBAFM.sym ABSOLUTE
    rom_LLM_eval_LM_ScatternetMultiSlotControl 0x1004d199   Thumb Code     0  QCA6174_SCAQBAFM.sym ABSOLUTE
    rom_LLM_evalDataFlowDirection            0x1004d1e5   Thumb Code     0  QCA6174_SCAQBAFM.sym ABSOLUTE
    rom_LLM_AFH_reset                        0x1004d305   Thumb Code     0  QCA6174_SCAQBAFM.sym ABSOLUTE
    rom_LLM_AFH_InitActiveConn               0x1004d385   Thumb Code     0  QCA6174_SCAQBAFM.sym ABSOLUTE
    rom_LLM_AFH_handleHostSetChanClassReq    0x1004d445   Thumb Code     0  QCA6174_SCAQBAFM.sym ABSOLUTE
    rom_LLM_AFH_MAP_UPDATED                  0x1004d4ad   Thumb Code     0  QCA6174_SCAQBAFM.sym ABSOLUTE
    rom_LLM_ProcE_EBCA_RESET_INTERVAL        0x1004d5db   Thumb Code     0  QCA6174_SCAQBAFM.sym ABSOLUTE
    rom_LLM_AFH_updateAllChannelMaps         0x1004d687   Thumb Code     0  QCA6174_SCAQBAFM.sym ABSOLUTE
    rom_LLM_AFH_updateChannelMapUBC          0x1004d6b5   Thumb Code     0  QCA6174_SCAQBAFM.sym ABSOLUTE
    rom_LLM_AFH_SetInstant                   0x1004d6d9   Thumb Code     0  QCA6174_SCAQBAFM.sym ABSOLUTE
    rom_LLM_AFH_HandleInstant                0x1004d86b   Thumb Code     0  QCA6174_SCAQBAFM.sym ABSOLUTE
    rom_LLM_AFH_handleHostReadChanMapReq     0x1004d8c5   Thumb Code     0  QCA6174_SCAQBAFM.sym ABSOLUTE
    rom_LLM_AFH_handleHostReadChanClassMode  0x1004d8f1   Thumb Code     0  QCA6174_SCAQBAFM.sym ABSOLUTE
    rom_LLM_AFH_handleHostWriteChanClassMode 0x1004d8f9   Thumb Code     0  QCA6174_SCAQBAFM.sym ABSOLUTE
    rom_LLM_AFH_terminateConnection          0x1004d933   Thumb Code     0  QCA6174_SCAQBAFM.sym ABSOLUTE
    rom_LLM_AFH_ActionMaster                 0x1004d957   Thumb Code     0  QCA6174_SCAQBAFM.sym ABSOLUTE
    rom_LLM_AFH_SetAFH_ACK                   0x1004dab5   Thumb Code     0  QCA6174_SCAQBAFM.sym ABSOLUTE
    rom_LLM_AFH_sendLMP_Set_AFH              0x1004dafb   Thumb Code     0  QCA6174_SCAQBAFM.sym ABSOLUTE
    rom_LLM_AFH_evalRemoteFeatures           0x1004db4f   Thumb Code     0  QCA6174_SCAQBAFM.sym ABSOLUTE
    rom_LLM_AFH_updateAllSlavesAHS           0x1004dc3b   Thumb Code     0  QCA6174_SCAQBAFM.sym ABSOLUTE
    rom_LLM_AFH_LMP_handleChanClassification 0x1004dc99   Thumb Code     0  QCA6174_SCAQBAFM.sym ABSOLUTE
    rom_LLM_AFH_sendLMP_channel_classification_req 0x1004dcd5   Thumb Code     0  QCA6174_SCAQBAFM.sym ABSOLUTE
    rom_LLM_AFH_ActionSlave                  0x1004dd41   Thumb Code     0  QCA6174_SCAQBAFM.sym ABSOLUTE
    rom_LLM_AFH_LMP_handleSetAFH             0x1004de05   Thumb Code     0  QCA6174_SCAQBAFM.sym ABSOLUTE
    rom_LLM_AFH_updateAllMastersAHS          0x1004de57   Thumb Code     0  QCA6174_SCAQBAFM.sym ABSOLUTE
    rom_LLM_AFH_sendLMP_channel_classification 0x1004debd   Thumb Code     0  QCA6174_SCAQBAFM.sym ABSOLUTE
    rom_LLM_AFH_LMP_handleChanClassificationReq 0x1004df39   Thumb Code     0  QCA6174_SCAQBAFM.sym ABSOLUTE
    rom_LLM_AFH_evalChanMapReassessmentTimerState 0x1004df8d   Thumb Code     0  QCA6174_SCAQBAFM.sym ABSOLUTE
    rom_LLM_AFH_evalPeriodicChanAssessment   0x1004e1d1   Thumb Code     0  QCA6174_SCAQBAFM.sym ABSOLUTE
    rom_LLM_AFH_ComputeErrorRate             0x1004e335   Thumb Code     0  QCA6174_SCAQBAFM.sym ABSOLUTE
    rom_LLM_AFH_updateMapAFH_4_chanNumWLAN   0x1004e35b   Thumb Code     0  QCA6174_SCAQBAFM.sym ABSOLUTE
    rom_LLM_AFH_mapAll_WLANchannels          0x1004e3bd   Thumb Code     0  QCA6174_SCAQBAFM.sym ABSOLUTE
    rom_LLM_AFH_LE_ChannelMapRemap           0x1004e3e1   Thumb Code     0  QCA6174_SCAQBAFM.sym ABSOLUTE
    rom_LLM_AFH_OneSecondHandler             0x1004e445   Thumb Code     0  QCA6174_SCAQBAFM.sym ABSOLUTE
    rom_transformMatrix                      0x1004e571   Thumb Code     0  QCA6174_SCAQBAFM.sym ABSOLUTE
    rom_xorN                                 0x1004e5ad   Thumb Code     0  QCA6174_SCAQBAFM.sym ABSOLUTE
    rom_rotate17Bytes3Left                   0x1004e5c9   Thumb Code     0  QCA6174_SCAQBAFM.sym ABSOLUTE
    rom_LLM_initRoundKey                     0x1004e5e1   Thumb Code     0  QCA6174_SCAQBAFM.sym ABSOLUTE
    rom_LLM_getNextRoundKey                  0x1004e60b   Thumb Code     0  QCA6174_SCAQBAFM.sym ABSOLUTE
    rom_LLM_keyOffset                        0x1004e64f   Thumb Code     0  QCA6174_SCAQBAFM.sym ABSOLUTE
    rom_LLM_Ar_Gen                           0x1004e693   Thumb Code     0  QCA6174_SCAQBAFM.sym ABSOLUTE
    rom_LLM_Ar_prime                         0x1004e817   Thumb Code     0  QCA6174_SCAQBAFM.sym ABSOLUTE
    rom_LLM_Ar                               0x1004e82b   Thumb Code     0  QCA6174_SCAQBAFM.sym ABSOLUTE
    rom_LLM_Hash                             0x1004e83f   Thumb Code     0  QCA6174_SCAQBAFM.sym ABSOLUTE
    rom_LLM_E1                               0x1004e88b   Thumb Code     0  QCA6174_SCAQBAFM.sym ABSOLUTE
    rom_LLM_E21                              0x1004e899   Thumb Code     0  QCA6174_SCAQBAFM.sym ABSOLUTE
    rom_LLM_E22                              0x1004e8df   Thumb Code     0  QCA6174_SCAQBAFM.sym ABSOLUTE
    rom_LLM_E3                               0x1004e989   Thumb Code     0  QCA6174_SCAQBAFM.sym ABSOLUTE
    rom_LLM_calcKcPrime                      0x1004e997   Thumb Code     0  QCA6174_SCAQBAFM.sym ABSOLUTE
    rom_LLM_CipherStepLFSR                   0x1004ea03   Thumb Code     0  QCA6174_SCAQBAFM.sym ABSOLUTE
    rom_LLM_rand128                          0x1004eab7   Thumb Code     0  QCA6174_SCAQBAFM.sym ABSOLUTE
    rom_LLM_randRSSIcapture                  0x1004f04b   Thumb Code     0  QCA6174_SCAQBAFM.sym ABSOLUTE
    rom_LLM_initLLM_SDB_piconetDB            0x1004f091   Thumb Code     0  QCA6174_SCAQBAFM.sym ABSOLUTE
    rom_LLM_get_LTADDR                       0x1004f0d7   Thumb Code     0  QCA6174_SCAQBAFM.sym ABSOLUTE
    rom_LLM_free_LTADDR                      0x1004f0f1   Thumb Code     0  QCA6174_SCAQBAFM.sym ABSOLUTE
    rom_LLM_reserve_LTADDR                   0x1004f0fb   Thumb Code     0  QCA6174_SCAQBAFM.sym ABSOLUTE
    rom_LLM_initLLM_ltaddrDB                 0x1004f113   Thumb Code     0  QCA6174_SCAQBAFM.sym ABSOLUTE
    rom_LLM_get_BD_ADDR_pConn                0x1004f11f   Thumb Code     0  QCA6174_SCAQBAFM.sym ABSOLUTE
    rom_LLM_isBD_ADDR_activeConnection       0x1004f16f   Thumb Code     0  QCA6174_SCAQBAFM.sym ABSOLUTE
    rom_LLM_InitLLM_activeConnection         0x1004f191   Thumb Code     0  QCA6174_SCAQBAFM.sym ABSOLUTE
    rom_LLM_getACL_Handle_pConn              0x1004f1a1   Thumb Code     0  QCA6174_SCAQBAFM.sym ABSOLUTE
    rom_LLM_initHCI_ConnHandleDB             0x1004f1bb   Thumb Code     0  QCA6174_SCAQBAFM.sym ABSOLUTE
    rom_LLM_allocHCI_connHandle              0x1004f1c7   Thumb Code     0  QCA6174_SCAQBAFM.sym ABSOLUTE
    rom_LLM_freeHCI_connHandle               0x1004f1f9   Thumb Code     0  QCA6174_SCAQBAFM.sym ABSOLUTE
    rom_LLM_init_xSCOchannelDB               0x1004f23f   Thumb Code     0  QCA6174_SCAQBAFM.sym ABSOLUTE
    rom_LLM_alloc_xSCOchannel                0x1004f24b   Thumb Code     0  QCA6174_SCAQBAFM.sym ABSOLUTE
    rom_LLM_free_xSCOchannel                 0x1004f267   Thumb Code     0  QCA6174_SCAQBAFM.sym ABSOLUTE
    rom_LLM_reserveHCI_connHandle            0x1004f28f   Thumb Code     0  QCA6174_SCAQBAFM.sym ABSOLUTE
    rom_LLM_allocSDB_SCO_CONN_TYPE           0x1004f299   Thumb Code     0  QCA6174_SCAQBAFM.sym ABSOLUTE
    rom_LLM_freeSDB_SCO_CONN_TYPE            0x1004f2e1   Thumb Code     0  QCA6174_SCAQBAFM.sym ABSOLUTE
    rom_LLM_init_piconetHandleDB             0x1004f2e7   Thumb Code     0  QCA6174_SCAQBAFM.sym ABSOLUTE
    rom_LLM_init_activeConnectionDB          0x1004f2f3   Thumb Code     0  QCA6174_SCAQBAFM.sym ABSOLUTE
    rom_LLM_alloc_piconetHandle              0x1004f2fb   Thumb Code     0  QCA6174_SCAQBAFM.sym ABSOLUTE
    rom_LLM_free_piconetHandle               0x1004f31b   Thumb Code     0  QCA6174_SCAQBAFM.sym ABSOLUTE
    rom_LLM_allocSDB_PICONET_INFO_TYPE       0x1004f333   Thumb Code     0  QCA6174_SCAQBAFM.sym ABSOLUTE
    rom_LLM_freeSDB_PICONET_INFO_TYPE        0x1004f33b   Thumb Code     0  QCA6174_SCAQBAFM.sym ABSOLUTE
    rom_LLM_allocSDB_piconet                 0x1004f341   Thumb Code     0  QCA6174_SCAQBAFM.sym ABSOLUTE
    rom_LLM_freeSDB_piconet                  0x1004f377   Thumb Code     0  QCA6174_SCAQBAFM.sym ABSOLUTE
    rom_LLM_allocSDB_CONN_TYPE               0x1004f395   Thumb Code     0  QCA6174_SCAQBAFM.sym ABSOLUTE
    rom_LLM_freeSDB_CONN_TYPE                0x1004f39d   Thumb Code     0  QCA6174_SCAQBAFM.sym ABSOLUTE
    rom_LLM_allocSNIFF_SUBRATE_PARAM_TYPE    0x1004f3a3   Thumb Code     0  QCA6174_SCAQBAFM.sym ABSOLUTE
    rom_LLM_freeSNIFF_SUBRATE_PARAM_TYPE     0x1004f3ab   Thumb Code     0  QCA6174_SCAQBAFM.sym ABSOLUTE
    rom_LLM_getSDB_connection                0x1004f3b1   Thumb Code     0  QCA6174_SCAQBAFM.sym ABSOLUTE
    rom_LLM_getSDB_connectionNoHandle        0x1004f3db   Thumb Code     0  QCA6174_SCAQBAFM.sym ABSOLUTE
    rom_LLM_freeSDB_connection               0x1004f405   Thumb Code     0  QCA6174_SCAQBAFM.sym ABSOLUTE
    rom_LLM_allocSDB_ACTIVE_CONN_TYPE        0x1004f427   Thumb Code     0  QCA6174_SCAQBAFM.sym ABSOLUTE
    rom_LLM_freeSDB_ACTIVE_CONN_TYPE         0x1004f455   Thumb Code     0  QCA6174_SCAQBAFM.sym ABSOLUTE
    rom_LLM_allocLLM_ACTIVE_CONN_TYPE        0x1004f50d   Thumb Code     0  QCA6174_SCAQBAFM.sym ABSOLUTE
    rom_LLM_freeLLM_ACTIVE_CONN_TYPE         0x1004f515   Thumb Code     0  QCA6174_SCAQBAFM.sym ABSOLUTE
    rom_LLM_getSDB_activeConnection          0x1004f529   Thumb Code     0  QCA6174_SCAQBAFM.sym ABSOLUTE
    rom_LLM_freeSDB_activeConnection         0x1004f575   Thumb Code     0  QCA6174_SCAQBAFM.sym ABSOLUTE
    rom_LLM_isSlaveConnPiconetAvailable      0x1004f5f9   Thumb Code     0  QCA6174_SCAQBAFM.sym ABSOLUTE
    rom_LLM_initMemSDB                       0x1004f61d   Thumb Code     0  QCA6174_SCAQBAFM.sym ABSOLUTE
    rom_LLM_allocMemSDB                      0x1004f68b   Thumb Code     0  QCA6174_SCAQBAFM.sym ABSOLUTE
    rom_LLM_allocMemSDB_wZero                0x1004f6cf   Thumb Code     0  QCA6174_SCAQBAFM.sym ABSOLUTE
    rom_LLM_allocMaxMemSDB                   0x1004f6e7   Thumb Code     0  QCA6174_SCAQBAFM.sym ABSOLUTE
    rom_LLM_LE_get_BD_ADDR_pConn             0x1004f735   Thumb Code     0  QCA6174_SCAQBAFM.sym ABSOLUTE
    rom_LLM_LE_freeSDB_activeConnection      0x1004f77d   Thumb Code     0  QCA6174_SCAQBAFM.sym ABSOLUTE
    rom_LLM_LE_freeConnInfo                  0x1004f7ab   Thumb Code     0  QCA6174_SCAQBAFM.sym ABSOLUTE
    rom_LLM_LE_allocConnInfo                 0x1004f7b7   Thumb Code     0  QCA6174_SCAQBAFM.sym ABSOLUTE
    rom_LLM_LE_get_Handle_pConn              0x1004f7bd   Thumb Code     0  QCA6174_SCAQBAFM.sym ABSOLUTE
    LLM_cmEnterCMsIDLE                       0x1004f83d   Thumb Code     0  QCA6174_SCAQBAFM.sym ABSOLUTE
    LLM_cmEnterCMsW4_LMS_DISCONNECT          0x1004f8af   Thumb Code     0  QCA6174_SCAQBAFM.sym ABSOLUTE
    LLM_cmEnterCMsM_LM_SETUP                 0x1004f90d   Thumb Code     0  QCA6174_SCAQBAFM.sym ABSOLUTE
    LLM_cmEnterCMsS_LM_SETUP                 0x1004f97b   Thumb Code     0  QCA6174_SCAQBAFM.sym ABSOLUTE
    LLM_cmExitConnSetup                      0x1004f9dd   Thumb Code     0  QCA6174_SCAQBAFM.sym ABSOLUTE
    LLM_cmExitLMSetup                        0x1004fa95   Thumb Code     0  QCA6174_SCAQBAFM.sym ABSOLUTE
    rom_LLM_isNewConnectionAuthenticationInitiated 0x1004fb4d   Thumb Code     0  QCA6174_SCAQBAFM.sym ABSOLUTE
    LLM_cmEnterCMsM_CONNSETUP                0x1004fb6f   Thumb Code     0  QCA6174_SCAQBAFM.sym ABSOLUTE
    LLM_cmEnterCMsS_CONNSETUP                0x1004fbf3   Thumb Code     0  QCA6174_SCAQBAFM.sym ABSOLUTE
    LLM_cmEnterCMsCONN_ACTIVE                0x1004fcd9   Thumb Code     0  QCA6174_SCAQBAFM.sym ABSOLUTE
    LLM_cmEnterCMsHOLDSNIFF                  0x1004fd2b   Thumb Code     0  QCA6174_SCAQBAFM.sym ABSOLUTE
    LLM_cmExitCMsHOLDSNIFF                   0x1004fd43   Thumb Code     0  QCA6174_SCAQBAFM.sym ABSOLUTE
    LLM_cmEnterCMsCONN_HOLDSNIFF_EXIT_DISCONNECT_PEND 0x1004fd51   Thumb Code     0  QCA6174_SCAQBAFM.sym ABSOLUTE
    LLM_cmEnterCMsVS_TEST_ACTIVE             0x1004fd5f   Thumb Code     0  QCA6174_SCAQBAFM.sym ABSOLUTE
    LLM_cmExitCMsVS_TEST_ACTIVE              0x1004fd61   Thumb Code     0  QCA6174_SCAQBAFM.sym ABSOLUTE
    rom_LLM_ACL_U_2hostEnable                0x1004fd63   Thumb Code     0  QCA6174_SCAQBAFM.sym ABSOLUTE
    LLM_cmChangeState                        0x1004fdc3   Thumb Code     0  QCA6174_SCAQBAFM.sym ABSOLUTE
    rom_LLM_new_LM_Connection_Established    0x1004fe2d   Thumb Code     0  QCA6174_SCAQBAFM.sym ABSOLUTE
    LLM_cmEnterCMsCONNTERM                   0x1004ff23   Thumb Code     0  QCA6174_SCAQBAFM.sym ABSOLUTE
    LLM_cmEnterCMsPARK                       0x1004ffc1   Thumb Code     0  QCA6174_SCAQBAFM.sym ABSOLUTE
    LLM_cmExitCMsPARK                        0x1004ffc3   Thumb Code     0  QCA6174_SCAQBAFM.sym ABSOLUTE
    rom_LLM_resetTransaction                 0x1004ffc5   Thumb Code     0  QCA6174_SCAQBAFM.sym ABSOLUTE
    rom_LLM_cmEvalEvent                      0x1004ffd5   Thumb Code     0  QCA6174_SCAQBAFM.sym ABSOLUTE
    rom_LLM_BR_EDR_cmEvalEvent               0x10050003   Thumb Code     0  QCA6174_SCAQBAFM.sym ABSOLUTE
    rom_LLM_masterLM_Setup                   0x100511ab   Thumb Code     0  QCA6174_SCAQBAFM.sym ABSOLUTE
    rom_LLM_slaveConnectionSetup             0x100513e1   Thumb Code     0  QCA6174_SCAQBAFM.sym ABSOLUTE
    rom_LLM_handleCMeLMP_CONNECTION_REQ      0x100515df   Thumb Code     0  QCA6174_SCAQBAFM.sym ABSOLUTE
    rom_LLM_connectionSetupComplete          0x100516bb   Thumb Code     0  QCA6174_SCAQBAFM.sym ABSOLUTE
    rom_LLM_cntrlL2capFlow                   0x10051703   Thumb Code     0  QCA6174_SCAQBAFM.sym ABSOLUTE
    rom_llm_connmngr_patch_hook              0x100517b1   Thumb Code     0  QCA6174_SCAQBAFM.sym ABSOLUTE
    rom_LLM_allocWorkingMem                  0x100517b5   Thumb Code     0  QCA6174_SCAQBAFM.sym ABSOLUTE
    rom_LLM_allocWorkingMem_NonBlock         0x100517e1   Thumb Code     0  QCA6174_SCAQBAFM.sym ABSOLUTE
    rom_LLM_tempPinCodeStorageInit           0x100517ff   Thumb Code     0  QCA6174_SCAQBAFM.sym ABSOLUTE
    rom_LLM_eval_NonConnSetup_tempPinCodeStorageFree 0x10051839   Thumb Code     0  QCA6174_SCAQBAFM.sym ABSOLUTE
    rom_LLM_freeActiveConnectionMem          0x1005185b   Thumb Code     0  QCA6174_SCAQBAFM.sym ABSOLUTE
    rom_LLM_freeActiveConnectionDB           0x100518af   Thumb Code     0  QCA6174_SCAQBAFM.sym ABSOLUTE
    rom_LLM_CFG_combine_Controller_Features  0x100518b5   Thumb Code     0  QCA6174_SCAQBAFM.sym ABSOLUTE
    rom_LLM_CFG_get_supported_features       0x100518d1   Thumb Code     0  QCA6174_SCAQBAFM.sym ABSOLUTE
    rom_LLM_CFG_getLE_SupportedFeatures      0x100518e7   Thumb Code     0  QCA6174_SCAQBAFM.sym ABSOLUTE
    rom_LLM_CFG_get_HCI_supported_Commands   0x100518fd   Thumb Code     0  QCA6174_SCAQBAFM.sym ABSOLUTE
    rom_LLM_GetInstantDelay                  0x10051925   Thumb Code     0  QCA6174_SCAQBAFM.sym ABSOLUTE
    rom_LLM_GetInstant                       0x10051943   Thumb Code     0  QCA6174_SCAQBAFM.sym ABSOLUTE
    rom_LLM_ValidateInstant                  0x10051965   Thumb Code     0  QCA6174_SCAQBAFM.sym ABSOLUTE
    rom_LLM_isDivisible                      0x1005197f   Thumb Code     0  QCA6174_SCAQBAFM.sym ABSOLUTE
    rom_LLM_EIR_freeDataMem                  0x100519ab   Thumb Code     0  QCA6174_SCAQBAFM.sym ABSOLUTE
    rom_LLM_EIR_allocDataMem                 0x100519cb   Thumb Code     0  QCA6174_SCAQBAFM.sym ABSOLUTE
    rom_LLM_EIR_init                         0x10051a55   Thumb Code     0  QCA6174_SCAQBAFM.sym ABSOLUTE
    rom_LLM_EIR_clearDataMem                 0x10051a6b   Thumb Code     0  QCA6174_SCAQBAFM.sym ABSOLUTE
    rom_LLM_EIR_fillDataMem                  0x10051a9b   Thumb Code     0  QCA6174_SCAQBAFM.sym ABSOLUTE
    rom_LLM_DATA_LE_allocateWordAlignedMem_fillData 0x10051b09   Thumb Code     0  QCA6174_SCAQBAFM.sym ABSOLUTE
    rom_LLM_getExtendedFeatures              0x10051b6b   Thumb Code     0  QCA6174_SCAQBAFM.sym ABSOLUTE
    rom_LLM_isLowPowerModePossible           0x10051c09   Thumb Code     0  QCA6174_SCAQBAFM.sym ABSOLUTE
    rom_LLM_isSecureConnectionsSupported_4_Both 0x10051c0f   Thumb Code     0  QCA6174_SCAQBAFM.sym ABSOLUTE
    rom_reserveDBHandle                      0x10051c85   Thumb Code     0  QCA6174_SCAQBAFM.sym ABSOLUTE
    rom_getDBHandle                          0x10051ca9   Thumb Code     0  QCA6174_SCAQBAFM.sym ABSOLUTE
    rom_freeDBHandle                         0x10051ced   Thumb Code     0  QCA6174_SCAQBAFM.sym ABSOLUTE
    rom_isDBHandleActive                     0x10051d05   Thumb Code     0  QCA6174_SCAQBAFM.sym ABSOLUTE
    rom_getDBHandleAvailMask                 0x10051d21   Thumb Code     0  QCA6174_SCAQBAFM.sym ABSOLUTE
    rom_isDBHandleAvail                      0x10051d37   Thumb Code     0  QCA6174_SCAQBAFM.sym ABSOLUTE
    rom_getNumDBHandleAvail                  0x10051d47   Thumb Code     0  QCA6174_SCAQBAFM.sym ABSOLUTE
    rom_initDBHandleStatusBlock              0x10051d6b   Thumb Code     0  QCA6174_SCAQBAFM.sym ABSOLUTE
    rom_setNextDBHandle                      0x10051d77   Thumb Code     0  QCA6174_SCAQBAFM.sym ABSOLUTE
    rom_LLM_Pwr_Idx_2_Pwr_Level              0x10051d81   Thumb Code     0  QCA6174_SCAQBAFM.sym ABSOLUTE
    rom_LLM_HCI_Init                         0x10051d97   Thumb Code     0  QCA6174_SCAQBAFM.sym ABSOLUTE
    rom_LLM_handleHCI_DISCONNECT             0x10051dbb   Thumb Code     0  QCA6174_SCAQBAFM.sym ABSOLUTE
    rom_LLM_handleHCI_CONNECTION_CANCEL      0x10051e75   Thumb Code     0  QCA6174_SCAQBAFM.sym ABSOLUTE
    rom_LLM_handleQoSRequest                 0x10051efd   Thumb Code     0  QCA6174_SCAQBAFM.sym ABSOLUTE
    LLM_handleHCI_QoSRequest                 0x10051fdd   Thumb Code     0  QCA6174_SCAQBAFM.sym ABSOLUTE
    LLM_handleHCI_QoS_FlowSpecificationRequest 0x10052005   Thumb Code     0  QCA6174_SCAQBAFM.sym ABSOLUTE
    rom_LLM_ValidateHCI_Command              0x1005202d   Thumb Code     0  QCA6174_SCAQBAFM.sym ABSOLUTE
    rom_LLM_evalACL_HANDLE_Valid             0x100520eb   Thumb Code     0  QCA6174_SCAQBAFM.sym ABSOLUTE
    rom_LLM_evalACL_HANDLE_is_activeConnection 0x10052111   Thumb Code     0  QCA6174_SCAQBAFM.sym ABSOLUTE
    rom_LLM_eval_LE_handle_is_activeConnection 0x10052151   Thumb Code     0  QCA6174_SCAQBAFM.sym ABSOLUTE
    rom_LLM_eval_BR_EDR_LE_Handle_is_activeConnection 0x100521f5   Thumb Code     0  QCA6174_SCAQBAFM.sym ABSOLUTE
    rom_LLM_ReadGolden_RSSI                  0x1005221b   Thumb Code     0  QCA6174_SCAQBAFM.sym ABSOLUTE
    rom_LLM_HCI_ReadRSSI                     0x1005224d   Thumb Code     0  QCA6174_SCAQBAFM.sym ABSOLUTE
    rom_LLM_HCI_CMD_PreHandler               0x100522db   Thumb Code     0  QCA6174_SCAQBAFM.sym ABSOLUTE
    rom_LLM_HCI_HandleHciCommand             0x100522df   Thumb Code     0  QCA6174_SCAQBAFM.sym ABSOLUTE
    rom_LLM_HCI_Command                      0x10055361   Thumb Code     0  QCA6174_SCAQBAFM.sym ABSOLUTE
    rom_LLM_NextCmd                          0x10055427   Thumb Code     0  QCA6174_SCAQBAFM.sym ABSOLUTE
    rom_LLM_HCI_InitiateRoleSwitch           0x10055471   Thumb Code     0  QCA6174_SCAQBAFM.sym ABSOLUTE
    rom_LLM_InitHCI_RemoteNameRequest        0x10055551   Thumb Code     0  QCA6174_SCAQBAFM.sym ABSOLUTE
    rom_LLM_TerminateHCI_RemoteNameRequest   0x10055581   Thumb Code     0  QCA6174_SCAQBAFM.sym ABSOLUTE
    rom_LLM_HCI_ReadClockOffsetRequestHandler 0x100555ad   Thumb Code     0  QCA6174_SCAQBAFM.sym ABSOLUTE
    rom_LLM_HCI_ReadRemoteFeaturesRequestHandler 0x100555e1   Thumb Code     0  QCA6174_SCAQBAFM.sym ABSOLUTE
    rom_LLM_HCI_ReadRemoteExtendedFeaturesRequestHandler 0x10055605   Thumb Code     0  QCA6174_SCAQBAFM.sym ABSOLUTE
    rom_LLM_HCI_ReadRemoteVersionRequestHandler 0x1005562d   Thumb Code     0  QCA6174_SCAQBAFM.sym ABSOLUTE
    rom_LLM_eval_HCI_ConnSetupAllowedStatus  0x10055651   Thumb Code     0  QCA6174_SCAQBAFM.sym ABSOLUTE
    rom_LLM_HCI_VendorSpecificHandler        0x10055671   Thumb Code     0  QCA6174_SCAQBAFM.sym ABSOLUTE
    rom_LLM_handleHCI_ExtendedInquiryResponseData 0x10055687   Thumb Code     0  QCA6174_SCAQBAFM.sym ABSOLUTE
    rom_packHCI_Command_Complete_Event_wBDADDR 0x100557d5   Thumb Code     0  QCA6174_SCAQBAFM.sym ABSOLUTE
    rom_packHCI_Command_Complete_Event_wConnectionHandle 0x100557ef   Thumb Code     0  QCA6174_SCAQBAFM.sym ABSOLUTE
    rom_sendHCI_CommandCompleteEvent         0x1005580b   Thumb Code     0  QCA6174_SCAQBAFM.sym ABSOLUTE
    rom_sendHCI_Command_Complete_Event_wBDADDR 0x10055823   Thumb Code     0  QCA6174_SCAQBAFM.sym ABSOLUTE
    rom_sendHCI_ConnectionCompleteEvent      0x10055843   Thumb Code     0  QCA6174_SCAQBAFM.sym ABSOLUTE
    rom_sendHCI_ConnectionRequestEvent       0x100558d1   Thumb Code     0  QCA6174_SCAQBAFM.sym ABSOLUTE
    rom_sendHCI_DisconnectionCompleteEvent   0x1005591f   Thumb Code     0  QCA6174_SCAQBAFM.sym ABSOLUTE
    rom_sendHCI_PIN_Code_RequestEvent        0x1005595f   Thumb Code     0  QCA6174_SCAQBAFM.sym ABSOLUTE
    rom_sendHCI_Link_Key_RequestEvent        0x10055993   Thumb Code     0  QCA6174_SCAQBAFM.sym ABSOLUTE
    rom_sendHCI_Link_Key_NotificationEvent   0x100559c7   Thumb Code     0  QCA6174_SCAQBAFM.sym ABSOLUTE
    rom_sendHCI_Change_Connection_Link_Key_CompleteEvent 0x10055a25   Thumb Code     0  QCA6174_SCAQBAFM.sym ABSOLUTE
    rom_sendHCI_Encryption_Key_Refresh_CompleteEvent 0x10055a61   Thumb Code     0  QCA6174_SCAQBAFM.sym ABSOLUTE
    rom_sendHCI_Master_Link_Key_CompleteEvent 0x10055a99   Thumb Code     0  QCA6174_SCAQBAFM.sym ABSOLUTE
    rom_sendHCI_Read_Remote_Supported_Features_Complete_Event 0x10055af1   Thumb Code     0  QCA6174_SCAQBAFM.sym ABSOLUTE
    rom_sendHCI_Read_Remote_Extended_Features_Complete_Event 0x10055b37   Thumb Code     0  QCA6174_SCAQBAFM.sym ABSOLUTE
    rom_sendHCI_Read_Remote_Version_Information_Complete_Event 0x10055b91   Thumb Code     0  QCA6174_SCAQBAFM.sym ABSOLUTE
    rom_sendHCI_Read_Clock_Offset_Complete_Event 0x10055bf9   Thumb Code     0  QCA6174_SCAQBAFM.sym ABSOLUTE
    rom_sendHCI_Remote_Name_Request_Complete_Event 0x10055c3b   Thumb Code     0  QCA6174_SCAQBAFM.sym ABSOLUTE
    rom_sendHCI_Page_Scan_Repetition_Mode_Change_Event 0x10055c61   Thumb Code     0  QCA6174_SCAQBAFM.sym ABSOLUTE
    rom_sendHCI_Authentication_Complete_Event 0x10055c95   Thumb Code     0  QCA6174_SCAQBAFM.sym ABSOLUTE
    rom_LLM_HCI_send_Encryption_Change_Event 0x10055ccd   Thumb Code     0  QCA6174_SCAQBAFM.sym ABSOLUTE
    rom_sendHCI_Inquiry_Result_Event         0x10055d27   Thumb Code     0  QCA6174_SCAQBAFM.sym ABSOLUTE
    rom_sendHCI_Return_Link_Keys_Event       0x10055d7b   Thumb Code     0  QCA6174_SCAQBAFM.sym ABSOLUTE
    rom_sendHCI_Inquiry_Complete_Event       0x10055dc5   Thumb Code     0  QCA6174_SCAQBAFM.sym ABSOLUTE
    rom_sendHCI_Max_Slots_Change_Event       0x10055df1   Thumb Code     0  QCA6174_SCAQBAFM.sym ABSOLUTE
    rom_sendHCI_Connection_Packet_Type_Changed_Event 0x10055e2d   Thumb Code     0  QCA6174_SCAQBAFM.sym ABSOLUTE
    rom_sendHCI_Role_Change_Event            0x10055e9b   Thumb Code     0  QCA6174_SCAQBAFM.sym ABSOLUTE
    rom_sendHCI_ModeChangeEvent              0x10055ef5   Thumb Code     0  QCA6174_SCAQBAFM.sym ABSOLUTE
    sendHCI_QoS_SetupCompleteEvent           0x10055f55   Thumb Code     0  QCA6174_SCAQBAFM.sym ABSOLUTE
    sendHCI_QoS_FlowSpecificationCompleteEvent 0x1005602b   Thumb Code     0  QCA6174_SCAQBAFM.sym ABSOLUTE
    rom_sendHCI_SynchronousConnectionCompleteEvent 0x100560d9   Thumb Code     0  QCA6174_SCAQBAFM.sym ABSOLUTE
    rom_sendHCI_SynchronousConnectionChangedEvent 0x10056175   Thumb Code     0  QCA6174_SCAQBAFM.sym ABSOLUTE
    rom_sendHCI_LoopbackCommandEvent         0x100561d1   Thumb Code     0  QCA6174_SCAQBAFM.sym ABSOLUTE
    rom_sendHCI_SniffSubrateEvent            0x10056209   Thumb Code     0  QCA6174_SCAQBAFM.sym ABSOLUTE
    rom_sendHCI_LinkSupervisionTimeoutChangeEvent 0x1005627b   Thumb Code     0  QCA6174_SCAQBAFM.sym ABSOLUTE
    rom_sendHCI_IO_Capability_Request_Event  0x100562c1   Thumb Code     0  QCA6174_SCAQBAFM.sym ABSOLUTE
    rom_sendHCI_IO_Capability_Response_Event 0x100562f5   Thumb Code     0  QCA6174_SCAQBAFM.sym ABSOLUTE
    rom_sendHCI_User_Confirmation_Request_Event 0x1005632f   Thumb Code     0  QCA6174_SCAQBAFM.sym ABSOLUTE
    rom_sendHCI_User_PassKey_Request_Event   0x10056375   Thumb Code     0  QCA6174_SCAQBAFM.sym ABSOLUTE
    rom_sendHCI_User_PassKey_Notification_Event 0x100563a9   Thumb Code     0  QCA6174_SCAQBAFM.sym ABSOLUTE
    rom_sendHCI_Remote_OOB_Data_Request_Event 0x100563f9   Thumb Code     0  QCA6174_SCAQBAFM.sym ABSOLUTE
    rom_sendHCI_Simple_Pairing_Complete_Event 0x1005643f   Thumb Code     0  QCA6174_SCAQBAFM.sym ABSOLUTE
    rom_sendHCI_Keypress_Notification_Event  0x10056473   Thumb Code     0  QCA6174_SCAQBAFM.sym ABSOLUTE
    rom_sendHCI_Remote_Host_Supported_Features_Notification_Event 0x100564a7   Thumb Code     0  QCA6174_SCAQBAFM.sym ABSOLUTE
    rom_sendHCI_Authenticated_Payload_Timeout_Expired_Event 0x100564e3   Thumb Code     0  QCA6174_SCAQBAFM.sym ABSOLUTE
    rom_LLM_packLMP_PDU                      0x10056559   Thumb Code     0  QCA6174_SCAQBAFM.sym ABSOLUTE
    rom_LLM_packLMP_PDU_ext                  0x10056591   Thumb Code     0  QCA6174_SCAQBAFM.sym ABSOLUTE
    rom_LLM_putLmp                           0x100565b3   Thumb Code     0  QCA6174_SCAQBAFM.sym ABSOLUTE
    rom_LLM_sendLMP_PDU                      0x1005660d   Thumb Code     0  QCA6174_SCAQBAFM.sym ABSOLUTE
    rom_LLM_sendLMP_NoPayload                0x10056641   Thumb Code     0  QCA6174_SCAQBAFM.sym ABSOLUTE
    rom_LLM_sendLMP_oneByte                  0x10056669   Thumb Code     0  QCA6174_SCAQBAFM.sym ABSOLUTE
    rom_LLM_sendLMP_twoBytes                 0x10056695   Thumb Code     0  QCA6174_SCAQBAFM.sym ABSOLUTE
    rom_LLM_sendLMP_uint16                   0x100566c3   Thumb Code     0  QCA6174_SCAQBAFM.sym ABSOLUTE
    rom_LLM_sendLMP_uint32                   0x100566f5   Thumb Code     0  QCA6174_SCAQBAFM.sym ABSOLUTE
    rom_LLM_sendLMP_multiBytes               0x10056731   Thumb Code     0  QCA6174_SCAQBAFM.sym ABSOLUTE
    rom_LLM_sendLMP_ext_NoPayload            0x10056777   Thumb Code     0  QCA6174_SCAQBAFM.sym ABSOLUTE
    rom_LLM_sendLMP_ext_oneByte              0x1005679f   Thumb Code     0  QCA6174_SCAQBAFM.sym ABSOLUTE
    rom_LLM_sendLMP_ext_twoBytes             0x100567cb   Thumb Code     0  QCA6174_SCAQBAFM.sym ABSOLUTE
    rom_LLM_sendLMP_ext_multiBytes           0x100567f9   Thumb Code     0  QCA6174_SCAQBAFM.sym ABSOLUTE
    rom_LLM_sendLMP_not_accepted             0x1005683d   Thumb Code     0  QCA6174_SCAQBAFM.sym ABSOLUTE
    rom_LLM_sendLMP_accepted_ext             0x10056857   Thumb Code     0  QCA6174_SCAQBAFM.sym ABSOLUTE
    rom_LLM_sendLMP_not_accepted_ext         0x10056889   Thumb Code     0  QCA6174_SCAQBAFM.sym ABSOLUTE
    rom_LLM_sendQoSReq                       0x100568bb   Thumb Code     0  QCA6174_SCAQBAFM.sym ABSOLUTE
    rom_LLM_sendLMP_Version_Req              0x100568f1   Thumb Code     0  QCA6174_SCAQBAFM.sym ABSOLUTE
    rom_LLM_sendLMP_Version_Res              0x10056975   Thumb Code     0  QCA6174_SCAQBAFM.sym ABSOLUTE
    rom_LLM_sendLMP_FeaturesMsg              0x100569b7   Thumb Code     0  QCA6174_SCAQBAFM.sym ABSOLUTE
    rom_LLM_sendLMP_FeaturesMsg_ext          0x100569f1   Thumb Code     0  QCA6174_SCAQBAFM.sym ABSOLUTE
    rom_LLM_getLMPformat_clockOffset         0x10056a31   Thumb Code     0  QCA6174_SCAQBAFM.sym ABSOLUTE
    rom_LLM_sendLMP_Clock_Offset_Res         0x10056a41   Thumb Code     0  QCA6174_SCAQBAFM.sym ABSOLUTE
    rom_LLM_handlePowerCntrl                 0x10056a6b   Thumb Code     0  QCA6174_SCAQBAFM.sym ABSOLUTE
    rom_LLM_evaluateGenPowerControl          0x10056acf   Thumb Code     0  QCA6174_SCAQBAFM.sym ABSOLUTE
    rom_LLM_handleEnhancedPowerAdjRequest    0x10056ca5   Thumb Code     0  QCA6174_SCAQBAFM.sym ABSOLUTE
    rom_LLM_sendLMP_Timing_Accuracy_Res      0x10056db9   Thumb Code     0  QCA6174_SCAQBAFM.sym ABSOLUTE
    rom_LLM_getLMP_nameFragment              0x10056de5   Thumb Code     0  QCA6174_SCAQBAFM.sym ABSOLUTE
    rom_LLM_sendLMP_Name_Res                 0x10056e01   Thumb Code     0  QCA6174_SCAQBAFM.sym ABSOLUTE
    rom_LLM_procLMP_name_res                 0x10056e63   Thumb Code     0  QCA6174_SCAQBAFM.sym ABSOLUTE
    rom_LLM_sendLMP_slot_offset              0x10056f1f   Thumb Code     0  QCA6174_SCAQBAFM.sym ABSOLUTE
    rom_LLM_sendLMP_sniffMsg                 0x10056f5f   Thumb Code     0  QCA6174_SCAQBAFM.sym ABSOLUTE
    rom_LLM_sendLMP_sniff_sub_rate_msg       0x10056faf   Thumb Code     0  QCA6174_SCAQBAFM.sym ABSOLUTE
    rom_LLM_sendLMP_holdMsg                  0x1005700b   Thumb Code     0  QCA6174_SCAQBAFM.sym ABSOLUTE
    rom_LLM_isConnSetup                      0x1005704d   Thumb Code     0  QCA6174_SCAQBAFM.sym ABSOLUTE
    rom_LLM_evalLMPMode                      0x10057059   Thumb Code     0  QCA6174_SCAQBAFM.sym ABSOLUTE
    rom_LLM_handleLMP_Supported_Features_Normal 0x100570b3   Thumb Code     0  QCA6174_SCAQBAFM.sym ABSOLUTE
    rom_LLM_handleLMP_Supported_Features_Ext_P1 0x10057129   Thumb Code     0  QCA6174_SCAQBAFM.sym ABSOLUTE
    rom_LLM_LMP_PDU_PreHandler               0x10057183   Thumb Code     0  QCA6174_SCAQBAFM.sym ABSOLUTE
    rom_LLM_cmLMP_RX                         0x10057187   Thumb Code     0  QCA6174_SCAQBAFM.sym ABSOLUTE
    rom_LLM_initTransmitPowerLevel           0x10058617   Thumb Code     0  QCA6174_SCAQBAFM.sym ABSOLUTE
    rom_LLM_SetRepeatedAttempts              0x10058643   Thumb Code     0  QCA6174_SCAQBAFM.sym ABSOLUTE
    rom_LLM_UpdateRepeatedAttempts           0x10058683   Thumb Code     0  QCA6174_SCAQBAFM.sym ABSOLUTE
    rom_LLM_IsRepeatedAttempts               0x100586bd   Thumb Code     0  QCA6174_SCAQBAFM.sym ABSOLUTE
    rom_LLM_getLMP_FeaturesAclPacketTypes    0x100586c3   Thumb Code     0  QCA6174_SCAQBAFM.sym ABSOLUTE
    rom_LLM_sendLMP_encapsulated_header      0x10058703   Thumb Code     0  QCA6174_SCAQBAFM.sym ABSOLUTE
    rom_LLM_sendLMP_encapsulated_payload     0x1005871d   Thumb Code     0  QCA6174_SCAQBAFM.sym ABSOLUTE
    rom_LLM_sendlmpEncapPDU                  0x1005875f   Thumb Code     0  QCA6174_SCAQBAFM.sym ABSOLUTE
    rom_LLM_lmpTxEncapPDU_Handler            0x100587dd   Thumb Code     0  QCA6174_SCAQBAFM.sym ABSOLUTE
    rom_LLM_cmLMP_Encap_Rx                   0x10058885   Thumb Code     0  QCA6174_SCAQBAFM.sym ABSOLUTE
    rom_LLM_eval_lmpRxEncapPDU               0x100588c1   Thumb Code     0  QCA6174_SCAQBAFM.sym ABSOLUTE
    rom_LLM_lmpRxEncapPDU_Handler            0x100588d9   Thumb Code     0  QCA6174_SCAQBAFM.sym ABSOLUTE
    rom_LLM_sendLMP_encapPublicKeyCallBack   0x10058a61   Thumb Code     0  QCA6174_SCAQBAFM.sym ABSOLUTE
    rom_LLM_sendLMP_encapPublicKeyPDU        0x10058a7d   Thumb Code     0  QCA6174_SCAQBAFM.sym ABSOLUTE
    rom_LLM_sendLMP_IO_capability            0x10058ab9   Thumb Code     0  QCA6174_SCAQBAFM.sym ABSOLUTE
    rom_LLM_sendLMP_clk_adj                  0x10058af3   Thumb Code     0  QCA6174_SCAQBAFM.sym ABSOLUTE
    rom_LLM_sendLMP_clk_adj_req              0x10058b49   Thumb Code     0  QCA6174_SCAQBAFM.sym ABSOLUTE
    rom_LLM_flush_LMPMsg                     0x10058b83   Thumb Code     0  QCA6174_SCAQBAFM.sym ABSOLUTE
    rom_llm_lmp_pdu_patch_hook               0x10058bc3   Thumb Code     0  QCA6174_SCAQBAFM.sym ABSOLUTE
    LLM_lmEnterLMsREADY                      0x10058bf9   Thumb Code     0  QCA6174_SCAQBAFM.sym ABSOLUTE
    LLM_lmEnterLMsLC_PAGE                    0x10058c2b   Thumb Code     0  QCA6174_SCAQBAFM.sym ABSOLUTE
    LLM_lmEnterLMsLC_PAGE_CANCEL             0x10058c5d   Thumb Code     0  QCA6174_SCAQBAFM.sym ABSOLUTE
    LLM_lmExitLMsLC_PAGE                     0x10058c67   Thumb Code     0  QCA6174_SCAQBAFM.sym ABSOLUTE
    LLM_lmEnterLMsREMOTE_ACL_SETUP_W4_HOST   0x10058c85   Thumb Code     0  QCA6174_SCAQBAFM.sym ABSOLUTE
    rom_LLM_lmEvalEvent_INQUIRY              0x10058ccf   Thumb Code     0  QCA6174_SCAQBAFM.sym ABSOLUTE
    LLM_lmChangeState                        0x10058e23   Thumb Code     0  QCA6174_SCAQBAFM.sym ABSOLUTE
    rom_LLM_handleMasterLinkKey              0x10058e73   Thumb Code     0  QCA6174_SCAQBAFM.sym ABSOLUTE
    rom_LLM_closeConnection                  0x10058f4f   Thumb Code     0  QCA6174_SCAQBAFM.sym ABSOLUTE
    rom_LLM_inquiryComplete                  0x10058fb3   Thumb Code     0  QCA6174_SCAQBAFM.sym ABSOLUTE
    rom_LLM_lmEval_LM_LC_Queue               0x100590db   Thumb Code     0  QCA6174_SCAQBAFM.sym ABSOLUTE
    rom_LLM_lmTerm_LM_LC_Queue               0x1005916d   Thumb Code     0  QCA6174_SCAQBAFM.sym ABSOLUTE
    rom_LLM_lmEvalEvent                      0x100591ad   Thumb Code     0  QCA6174_SCAQBAFM.sym ABSOLUTE
    rom_LLM_lmInit                           0x100595b9   Thumb Code     0  QCA6174_SCAQBAFM.sym ABSOLUTE
    rom_LLM_connectionTerminate              0x10059611   Thumb Code     0  QCA6174_SCAQBAFM.sym ABSOLUTE
    rom_LLM_createConnectionMaster           0x10059a9b   Thumb Code     0  QCA6174_SCAQBAFM.sym ABSOLUTE
    rom_LLM_createConnectionSlave            0x10059b13   Thumb Code     0  QCA6174_SCAQBAFM.sym ABSOLUTE
    rom_LLM_createConnection                 0x10059b65   Thumb Code     0  QCA6174_SCAQBAFM.sym ABSOLUTE
    rom_LLM_EnablePageScan                   0x10059c2b   Thumb Code     0  QCA6174_SCAQBAFM.sym ABSOLUTE
    rom_LLM_scanControl                      0x10059c59   Thumb Code     0  QCA6174_SCAQBAFM.sym ABSOLUTE
    rom_LLM_scheduleNextPeriodicInquiry      0x10059d0b   Thumb Code     0  QCA6174_SCAQBAFM.sym ABSOLUTE
    rom_LLM_getMaxPktTypes_ACL1              0x10059d69   Thumb Code     0  QCA6174_SCAQBAFM.sym ABSOLUTE
    rom_LLM_getMaxPktTypes_ACL2_3            0x10059dc5   Thumb Code     0  QCA6174_SCAQBAFM.sym ABSOLUTE
    rom_LLM_getMaxPacketTypes                0x10059ef9   Thumb Code     0  QCA6174_SCAQBAFM.sym ABSOLUTE
    rom_LLM_calculatePacketTypes             0x10059f1b   Thumb Code     0  QCA6174_SCAQBAFM.sym ABSOLUTE
    LLM_calculateTheoreticalMaxPktSize_ACL1  0x10059fc9   Thumb Code     0  QCA6174_SCAQBAFM.sym ABSOLUTE
    LLM_calculateTheoreticalMaxPktSize_ACL2_3 0x10059fff   Thumb Code     0  QCA6174_SCAQBAFM.sym ABSOLUTE
    rom_LLM_calculateTheoreticalMaxPktSize   0x1005a045   Thumb Code     0  QCA6174_SCAQBAFM.sym ABSOLUTE
    rom_LLM_getPacketTypes_fromMaxSlots      0x1005a109   Thumb Code     0  QCA6174_SCAQBAFM.sym ABSOLUTE
    rom_LLM_getBTUnitMaxSlots                0x1005a11d   Thumb Code     0  QCA6174_SCAQBAFM.sym ABSOLUTE
    rom_LLM_getRxMaxSlot                     0x1005a147   Thumb Code     0  QCA6174_SCAQBAFM.sym ABSOLUTE
    rom_LLM_getTxMaxSlot                     0x1005a1a7   Thumb Code     0  QCA6174_SCAQBAFM.sym ABSOLUTE
    rom_LLM_getNewConnectionResources_LE     0x1005a1d1   Thumb Code     0  QCA6174_SCAQBAFM.sym ABSOLUTE
    rom_LLM_getNewConnectionResources_BR_EDR 0x1005a221   Thumb Code     0  QCA6174_SCAQBAFM.sym ABSOLUTE
    rom_LLM_getNewConnectionResources_ANT    0x1005a2d9   Thumb Code     0  QCA6174_SCAQBAFM.sym ABSOLUTE
    rom_LLM_InitNewConnection                0x1005a309   Thumb Code     0  QCA6174_SCAQBAFM.sym ABSOLUTE
    rom_LLM_setSDB_ActiveConnDefaults        0x1005a395   Thumb Code     0  QCA6174_SCAQBAFM.sym ABSOLUTE
    rom_LLM_evalHoldModeActivity             0x1005a42d   Thumb Code     0  QCA6174_SCAQBAFM.sym ABSOLUTE
    rom_LLM_initSecurityKeys                 0x1005a4d7   Thumb Code     0  QCA6174_SCAQBAFM.sym ABSOLUTE
    rom_LLM_getNextPDU                       0x1005a535   Thumb Code     0  QCA6174_SCAQBAFM.sym ABSOLUTE
    rom_LLM_InitRunTimePowerControl          0x1005a573   Thumb Code     0  QCA6174_SCAQBAFM.sym ABSOLUTE
    rom_LLM_EvaluateLinkSupervision          0x1005a575   Thumb Code     0  QCA6174_SCAQBAFM.sym ABSOLUTE
    rom_LLM_HCI_localLoopback_Initiate       0x1005a88f   Thumb Code     0  QCA6174_SCAQBAFM.sym ABSOLUTE
    rom_LLM_HCI_localLoopback_Terminate      0x1005a98b   Thumb Code     0  QCA6174_SCAQBAFM.sym ABSOLUTE
    rom_LLM_inquiryFilter                    0x1005a9bf   Thumb Code     0  QCA6174_SCAQBAFM.sym ABSOLUTE
    rom_LLM_lmpSeqLSTO_Handler               0x1005aa11   Thumb Code     0  QCA6174_SCAQBAFM.sym ABSOLUTE
    rom_LLM_initiateInternalRoleSwitch       0x1005ab19   Thumb Code     0  QCA6174_SCAQBAFM.sym ABSOLUTE
    rom_LLM_LE_createConnection              0x1005abf9   Thumb Code     0  QCA6174_SCAQBAFM.sym ABSOLUTE
    rom_LLM_LE_createConnectionSlave         0x1005ad05   Thumb Code     0  QCA6174_SCAQBAFM.sym ABSOLUTE
    rom_LLM_LE_createConnectionMaster        0x1005ad0d   Thumb Code     0  QCA6174_SCAQBAFM.sym ABSOLUTE
    rom_LLM_LE_EnableScan                    0x1005ad17   Thumb Code     0  QCA6174_SCAQBAFM.sym ABSOLUTE
    rom_LLM_LE_setSDB_LeActiveConnDefaults   0x1005ad89   Thumb Code     0  QCA6174_SCAQBAFM.sym ABSOLUTE
    rom_LLM_LE_connectionTerminate           0x1005add1   Thumb Code     0  QCA6174_SCAQBAFM.sym ABSOLUTE
    rom_LLM_LE_FlushDefCmdQueueOnConnTermination 0x1005b0a1   Thumb Code     0  QCA6174_SCAQBAFM.sym ABSOLUTE
    rom_LLM_ANT_createConnection             0x1005b105   Thumb Code     0  QCA6174_SCAQBAFM.sym ABSOLUTE
    rom_LLM_getPingTimingAdvance             0x1005b14d   Thumb Code     0  QCA6174_SCAQBAFM.sym ABSOLUTE
    rom_LLM_EvaluateMaxAuthenticationInterval 0x1005b1ad   Thumb Code     0  QCA6174_SCAQBAFM.sym ABSOLUTE
    rom_llm_lnkmngr_patch_hook               0x1005b455   Thumb Code     0  QCA6174_SCAQBAFM.sym ABSOLUTE
    rom_LLM_DisQ_Enqueue                     0x1005b4ad   Thumb Code     0  QCA6174_SCAQBAFM.sym ABSOLUTE
    rom_LLM_KickPiconetSupervisionTimeout    0x1005b4e3   Thumb Code     0  QCA6174_SCAQBAFM.sym ABSOLUTE
    rom_LLM_getEventClock                    0x1005b52b   Thumb Code     0  QCA6174_SCAQBAFM.sym ABSOLUTE
    rom_LLM_getSCO_HV1_pActiveConn           0x1005b575   Thumb Code     0  QCA6174_SCAQBAFM.sym ABSOLUTE
    rom_LLM_updateSCO_FullStatus             0x1005b5af   Thumb Code     0  QCA6174_SCAQBAFM.sym ABSOLUTE
    rom_LLM_cmdSLC_PerformInquiry            0x1005b607   Thumb Code     0  QCA6174_SCAQBAFM.sym ABSOLUTE
    rom_LLM_cmdSLC_CancelInquiry             0x1005b68b   Thumb Code     0  QCA6174_SCAQBAFM.sym ABSOLUTE
    rom_LLM_cmdSLC_AddInquiryScan            0x1005b6c7   Thumb Code     0  QCA6174_SCAQBAFM.sym ABSOLUTE
    rom_LLM_cmdSLC_PerformPage               0x1005b75f   Thumb Code     0  QCA6174_SCAQBAFM.sym ABSOLUTE
    rom_LLM_cmdSLC_AddPageScan               0x1005b86f   Thumb Code     0  QCA6174_SCAQBAFM.sym ABSOLUTE
    rom_LLM_cmdSLC_StopPageScan              0x1005b997   Thumb Code     0  QCA6174_SCAQBAFM.sym ABSOLUTE
    rom_LLM_cmdSLC_StopInquiryScan           0x1005ba99   Thumb Code     0  QCA6174_SCAQBAFM.sym ABSOLUTE
    rom_LLM_cmdSLC_AddTrigScan               0x1005badf   Thumb Code     0  QCA6174_SCAQBAFM.sym ABSOLUTE
    rom_LLM_cmdSLC_StopTrigScan              0x1005bbf9   Thumb Code     0  QCA6174_SCAQBAFM.sym ABSOLUTE
    rom_LLM_cmdSLC_StopPage                  0x1005bc09   Thumb Code     0  QCA6174_SCAQBAFM.sym ABSOLUTE
    rom_LLM_cmdSLC_EnterHoldMode             0x1005bcc9   Thumb Code     0  QCA6174_SCAQBAFM.sym ABSOLUTE
    rom_LLM_cmdSLC_EnterSniffMode            0x1005bdd7   Thumb Code     0  QCA6174_SCAQBAFM.sym ABSOLUTE
    rom_LLM_cmdSLC_ExitSniffMode             0x1005be87   Thumb Code     0  QCA6174_SCAQBAFM.sym ABSOLUTE
    rom_LLM_cmdSLC_StartAclService           0x1005bf89   Thumb Code     0  QCA6174_SCAQBAFM.sym ABSOLUTE
    rom_LLM_cmdSLC_StopAclService            0x1005bfc3   Thumb Code     0  QCA6174_SCAQBAFM.sym ABSOLUTE
    rom_LLM_ACL_A2DP_Profile_EvalAll         0x1005bffd   Thumb Code     0  QCA6174_SCAQBAFM.sym ABSOLUTE
    rom_LLM_SCO_scheduleDelay                0x1005c04d   Thumb Code     0  QCA6174_SCAQBAFM.sym ABSOLUTE
    rom_LLM_cmdSLC_SCO_AddConnection         0x1005c077   Thumb Code     0  QCA6174_SCAQBAFM.sym ABSOLUTE
    rom_LLM_cmdSLC_eSCO_AddConnection        0x1005c2bf   Thumb Code     0  QCA6174_SCAQBAFM.sym ABSOLUTE
    rom_LLM_cmdSLC_SCO_DeleteConnection      0x1005c56b   Thumb Code     0  QCA6174_SCAQBAFM.sym ABSOLUTE
    rom_LLM_cmdSLC_Disconnect                0x1005c6f3   Thumb Code     0  QCA6174_SCAQBAFM.sym ABSOLUTE
    rom_LLM_cmdSLC_PerformRoleSwitch         0x1005ca31   Thumb Code     0  QCA6174_SCAQBAFM.sym ABSOLUTE
    rom_LLM_cmdSLC_UpdateHostDataPacketLength 0x1005cb1b   Thumb Code     0  QCA6174_SCAQBAFM.sym ABSOLUTE
    rom_LLM_cmdSLC_PerformFocus              0x1005cb45   Thumb Code     0  QCA6174_SCAQBAFM.sym ABSOLUTE
    rom_LLM_cmdSLC_PerformClockAdjust        0x1005cb47   Thumb Code     0  QCA6174_SCAQBAFM.sym ABSOLUTE
    rom_LLM_cmdSLC_evalSniffSubrate          0x1005cbbb   Thumb Code     0  QCA6174_SCAQBAFM.sym ABSOLUTE
    rom_LLM_eval_LP_Mode                     0x1005cc7b   Thumb Code     0  QCA6174_SCAQBAFM.sym ABSOLUTE
    rom_LLM_cmdSLC_LE_AddScan                0x1005cd75   Thumb Code     0  QCA6174_SCAQBAFM.sym ABSOLUTE
    rom_LLM_cmdSLC_LE_StopScan               0x1005ce5b   Thumb Code     0  QCA6174_SCAQBAFM.sym ABSOLUTE
    rom_LLM_cmdSLC_LE_StartAdvertising       0x1005cfcb   Thumb Code     0  QCA6174_SCAQBAFM.sym ABSOLUTE
    rom_LLM_cmdSLC_LE_StopAdvertising        0x1005d0a5   Thumb Code     0  QCA6174_SCAQBAFM.sym ABSOLUTE
    rom_LLM_cmdSLC_LE_setupConn              0x1005d1fd   Thumb Code     0  QCA6174_SCAQBAFM.sym ABSOLUTE
    rom_LLM_cmdSLC_LE_setupUpdate            0x1005d247   Thumb Code     0  QCA6174_SCAQBAFM.sym ABSOLUTE
    rom_llm_rmcdCommand_patch_hook           0x1005d2ab   Thumb Code     0  QCA6174_SCAQBAFM.sym ABSOLUTE
    rom_LLM_SCO_convLocalFormat2LMP_ScoPacket 0x1005d315   Thumb Code     0  QCA6174_SCAQBAFM.sym ABSOLUTE
    rom_LLM_SCO_convertLMP_ScoPacket2LocalFormat 0x1005d32d   Thumb Code     0  QCA6174_SCAQBAFM.sym ABSOLUTE
    rom_LLM_SCO_initSCO_DB                   0x1005d33d   Thumb Code     0  QCA6174_SCAQBAFM.sym ABSOLUTE
    rom_LLM_eSCO_evalHCI_SyncConnBandwidth   0x1005d345   Thumb Code     0  QCA6174_SCAQBAFM.sym ABSOLUTE
    rom_LLM_xSCO_getNewSCO_Connection        0x1005d3b1   Thumb Code     0  QCA6174_SCAQBAFM.sym ABSOLUTE
    rom_LLM_xSCO_freeSCO_Connection          0x1005d4a3   Thumb Code     0  QCA6174_SCAQBAFM.sym ABSOLUTE
    rom_LLM_xSCO_connectionTerminate         0x1005d509   Thumb Code     0  QCA6174_SCAQBAFM.sym ABSOLUTE
    rom_LLM_xSCO_get_pSCOconn                0x1005d5db   Thumb Code     0  QCA6174_SCAQBAFM.sym ABSOLUTE
    rom_LLM_xSCO_calculateSlots              0x1005d6d1   Thumb Code     0  QCA6174_SCAQBAFM.sym ABSOLUTE
    rom_LLM_SCO_getSCO_ChannelMask           0x1005d6ef   Thumb Code     0  QCA6174_SCAQBAFM.sym ABSOLUTE
    rom_LLM_SCO_getNextChannelParams         0x1005d889   Thumb Code     0  QCA6174_SCAQBAFM.sym ABSOLUTE
    rom_LLM_SCO_allocateSCO_Channel          0x1005d8f7   Thumb Code     0  QCA6174_SCAQBAFM.sym ABSOLUTE
    rom_LLM_SCO_freeSCO_Channel              0x1005d93d   Thumb Code     0  QCA6174_SCAQBAFM.sym ABSOLUTE
    rom_LLM_SCO_getSCO_ChannelSupported      0x1005d977   Thumb Code     0  QCA6174_SCAQBAFM.sym ABSOLUTE
    rom_LLM_SCO_intervalRejected             0x1005d9a9   Thumb Code     0  QCA6174_SCAQBAFM.sym ABSOLUTE
    rom_LLM_xSCO_convertAirCodingFormat2AirMode 0x1005d9cf   Thumb Code     0  QCA6174_SCAQBAFM.sym ABSOLUTE
    rom_LLM_xSCO_convertCodingFormat2AirFormat 0x1005d9e7   Thumb Code     0  QCA6174_SCAQBAFM.sym ABSOLUTE
    rom_LLM_xSCO_convertAirMode2AirCodingFormat 0x1005d9ff   Thumb Code     0  QCA6174_SCAQBAFM.sym ABSOLUTE
    rom_LLM_xSCO_convertAirFormat2CodingFormat 0x1005da17   Thumb Code     0  QCA6174_SCAQBAFM.sym ABSOLUTE
    rom_LLM_xSCO_convertCodingFormat2SourceFormat 0x1005da2f   Thumb Code     0  QCA6174_SCAQBAFM.sym ABSOLUTE
    rom_LLM_xSCO_convertPCMDataFormat2SignFormat 0x1005da43   Thumb Code     0  QCA6174_SCAQBAFM.sym ABSOLUTE
    rom_LLM_SCO_isNewChanDBsupported         0x1005da57   Thumb Code     0  QCA6174_SCAQBAFM.sym ABSOLUTE
    rom_LLM_SCO_isScoChannelParamSupported   0x1005db01   Thumb Code     0  QCA6174_SCAQBAFM.sym ABSOLUTE
    rom_LLM_SCO_getLMPPacketFeature          0x1005db75   Thumb Code     0  QCA6174_SCAQBAFM.sym ABSOLUTE
    rom_LLM_xSCO_getLMPAirmodeFeature        0x1005db89   Thumb Code     0  QCA6174_SCAQBAFM.sym ABSOLUTE
    rom_LLM_SCO_getLMP_SCO_LINK_REQparam     0x1005dbbb   Thumb Code     0  QCA6174_SCAQBAFM.sym ABSOLUTE
    rom_LLM_SCO_lmpSeqSCO_Abort              0x1005dbd3   Thumb Code     0  QCA6174_SCAQBAFM.sym ABSOLUTE
    rom_LLM_eSCO_lmpSeq_eSCO_Abort           0x1005dc1f   Thumb Code     0  QCA6174_SCAQBAFM.sym ABSOLUTE
    rom_LLM_SCO_handleLMP_SCO_LINK_REQ       0x1005dc6d   Thumb Code     0  QCA6174_SCAQBAFM.sym ABSOLUTE
    rom_LLM_xSCO_handleHCI_Sco_Disconnect    0x1005e393   Thumb Code     0  QCA6174_SCAQBAFM.sym ABSOLUTE
    rom_LLM_SCO_handleLMP_REMOVE_SCO_LINK_REQ 0x1005e3e9   Thumb Code     0  QCA6174_SCAQBAFM.sym ABSOLUTE
    rom_LLM_xSCO_createScoConnection         0x1005e435   Thumb Code     0  QCA6174_SCAQBAFM.sym ABSOLUTE
    rom_LLM_SCO_initiateScoConnection        0x1005e469   Thumb Code     0  QCA6174_SCAQBAFM.sym ABSOLUTE
    rom_LLM_SCO_sendLMP_SCO_Link_Req         0x1005e4f9   Thumb Code     0  QCA6174_SCAQBAFM.sym ABSOLUTE
    rom_LLM_SCO_process_HCI_ChangePacketType 0x1005e56b   Thumb Code     0  QCA6174_SCAQBAFM.sym ABSOLUTE
    rom_LLM_SCO_LMP_negotiate_params         0x1005e667   Thumb Code     0  QCA6174_SCAQBAFM.sym ABSOLUTE
    LLM_xSCO_isScoActive                     0x1005e72f   Thumb Code     0  QCA6174_SCAQBAFM.sym ABSOLUTE
    rom_LLM_xSCO_evalLocalPreferedPacketTypes 0x1005e751   Thumb Code     0  QCA6174_SCAQBAFM.sym ABSOLUTE
    rom_LLM_xSCO_getScoEnableStatus          0x1005e7a3   Thumb Code     0  QCA6174_SCAQBAFM.sym ABSOLUTE
    rom_LLM_xSCO_isScoActiveOnConnection     0x1005e7c5   Thumb Code     0  QCA6174_SCAQBAFM.sym ABSOLUTE
    rom_LLM_xSCO_getScoOnConnection          0x1005e7f3   Thumb Code     0  QCA6174_SCAQBAFM.sym ABSOLUTE
    rom_LLM_xSCO_getHCI_DisconnectConn       0x1005e81f   Thumb Code     0  QCA6174_SCAQBAFM.sym ABSOLUTE
    rom_LLM_xSCO_handleLMP_ACCEPT_LMP_REMOVE_xSCO_LINK_REQ 0x1005e863   Thumb Code     0  QCA6174_SCAQBAFM.sym ABSOLUTE
    rom_LLM_xSCO_eval_SCO_SEQ_Queue          0x1005e887   Thumb Code     0  QCA6174_SCAQBAFM.sym ABSOLUTE
    rom_LLM_xSCO_lmpSeqSCOchangeState        0x1005e903   Thumb Code     0  QCA6174_SCAQBAFM.sym ABSOLUTE
    rom_LLM_SCO_RemoveOtherSCO               0x1005e935   Thumb Code     0  QCA6174_SCAQBAFM.sym ABSOLUTE
    rom_LLM_xSCO_sendHCI_SynchronousConnectionCompleteEvent 0x1005e977   Thumb Code     0  QCA6174_SCAQBAFM.sym ABSOLUTE
    rom_LLM_xSCO_sendHCI_SynchronousConnectionChangeEvent 0x1005e9c7   Thumb Code     0  QCA6174_SCAQBAFM.sym ABSOLUTE
    rom_LLM_xSCO_getLMP_Features_xScoPacketTypes 0x1005ea0b   Thumb Code     0  QCA6174_SCAQBAFM.sym ABSOLUTE
    rom_LLM_xSCO_getPacketTypesSupported     0x1005ea6f   Thumb Code     0  QCA6174_SCAQBAFM.sym ABSOLUTE
    rom_LLM_eSCO_getHCI_Bandwidth            0x1005ea89   Thumb Code     0  QCA6174_SCAQBAFM.sym ABSOLUTE
    rom_LLM_eSCO_handleHCI_SetupSynchronousConnection_New 0x1005eaaf   Thumb Code     0  QCA6174_SCAQBAFM.sym ABSOLUTE
    rom_LLM_SCO_handleHCI_SetupSynchronousConnection_New 0x1005eb8b   Thumb Code     0  QCA6174_SCAQBAFM.sym ABSOLUTE
    rom_LLM_xSCO_EvalRetransmissionWindow    0x1005ebbd   Thumb Code     0  QCA6174_SCAQBAFM.sym ABSOLUTE
    rom_LLM_SCO_handleHCI_AcceptSCOconnection 0x1005ec37   Thumb Code     0  QCA6174_SCAQBAFM.sym ABSOLUTE
    rom_LLM_xSCO_lmpSeqSCO_Handler           0x1005ed05   Thumb Code     0  QCA6174_SCAQBAFM.sym ABSOLUTE
    rom_LLM_eSCO_free_eSCO_Connection        0x1005fdb1   Thumb Code     0  QCA6174_SCAQBAFM.sym ABSOLUTE
    rom_LLM_eSCO_createScoConnection         0x1005fddd   Thumb Code     0  QCA6174_SCAQBAFM.sym ABSOLUTE
    rom_LLM_eSCO_sendLMP_eSCO_Link_Req       0x1005fe3b   Thumb Code     0  QCA6174_SCAQBAFM.sym ABSOLUTE
    rom_LLM_eSCO_sendLMP_remove_eSCO_link_req 0x1005fee3   Thumb Code     0  QCA6174_SCAQBAFM.sym ABSOLUTE
    rom_LLM_eSCO_convertHCIpacketType_2_LMP_eSCOpacketType 0x1005ff11   Thumb Code     0  QCA6174_SCAQBAFM.sym ABSOLUTE
    rom_LLM_eSCO_convertLMP_eESCOpacketType2_HCIpacketType 0x1005ff5d   Thumb Code     0  QCA6174_SCAQBAFM.sym ABSOLUTE
    rom_LLM_eSCO_convertLMP_eESCOpacketType2_BB_packetType 0x1005ffa1   Thumb Code     0  QCA6174_SCAQBAFM.sym ABSOLUTE
    rom_LLM_eSCO_convertBB_packetType2LMP_eESCOpacketType 0x1005ffb5   Thumb Code     0  QCA6174_SCAQBAFM.sym ABSOLUTE
    rom_LLM_eSCO_initiate_eSCO_Connection    0x10060001   Thumb Code     0  QCA6174_SCAQBAFM.sym ABSOLUTE
    rom_LLM_eSCO_Eval_Transition_2_SCO       0x10060101   Thumb Code     0  QCA6174_SCAQBAFM.sym ABSOLUTE
    rom_LLM_eSCO_process_HCI_SETUP_SYNCRONOUS_CONNECTION_change 0x100601bb   Thumb Code     0  QCA6174_SCAQBAFM.sym ABSOLUTE
    rom_LLM_eSCO_handleLMP_remove_eSCO_link_req 0x1006022d   Thumb Code     0  QCA6174_SCAQBAFM.sym ABSOLUTE
    rom_LLM_eSCO_loadNegDefaults             0x10060279   Thumb Code     0  QCA6174_SCAQBAFM.sym ABSOLUTE
    rom_LLM_eSCO_handleLMP_eSCO_LINK_REQ     0x100602f1   Thumb Code     0  QCA6174_SCAQBAFM.sym ABSOLUTE
    rom_LLM_xSCO_getDsco_Value               0x1006086b   Thumb Code     0  QCA6174_SCAQBAFM.sym ABSOLUTE
    rom_LLM_eSCO_getCombinationDsco_Value    0x100608cf   Thumb Code     0  QCA6174_SCAQBAFM.sym ABSOLUTE
    rom_LLM_eSCO_Choose_New_Dsco_Value       0x100608f7   Thumb Code     0  QCA6174_SCAQBAFM.sym ABSOLUTE
    rom_LLM_eSCOcheckCombinationOverlapSystem 0x1006091f   Thumb Code     0  QCA6174_SCAQBAFM.sym ABSOLUTE
    rom_LLM_eSCOcheckCombinationNoMoreDescoValuesToTry 0x10060937   Thumb Code     0  QCA6174_SCAQBAFM.sym ABSOLUTE
    rom_LLM_eSCO_calc_Starting_Combination   0x10060953   Thumb Code     0  QCA6174_SCAQBAFM.sym ABSOLUTE
    rom_LLM_eSCO_RxLMP_CalcLatency           0x10060add   Thumb Code     0  QCA6174_SCAQBAFM.sym ABSOLUTE
    rom_LLM_eSCO_RxLMP_ConvertParams_To_Combination 0x10060b4d   Thumb Code     0  QCA6174_SCAQBAFM.sym ABSOLUTE
    rom_LLM_eSCO_convert_Combination_2_SDB_SCO_TYPE 0x10060bfd   Thumb Code     0  QCA6174_SCAQBAFM.sym ABSOLUTE
    rom_LLM_eSCO_find_Rx_Combination_In_Current_Progression 0x10060c23   Thumb Code     0  QCA6174_SCAQBAFM.sym ABSOLUTE
    rom_LLM_eSCOcheck_Local_Latency_Violation 0x10060c71   Thumb Code     0  QCA6174_SCAQBAFM.sym ABSOLUTE
    rom_LLM_eSCOcheck_Local_Reserved_Slot_Violation 0x10060c93   Thumb Code     0  QCA6174_SCAQBAFM.sym ABSOLUTE
    rom_LLM_eSCO_procLMP_eSCO_link_req       0x10060cc1   Thumb Code     0  QCA6174_SCAQBAFM.sym ABSOLUTE
    rom_LLM_xSCO_calculateMaxPacketSize      0x100614f1   Thumb Code     0  QCA6174_SCAQBAFM.sym ABSOLUTE
    rom_llm_sco_patch_hook                   0x10061555   Thumb Code     0  QCA6174_SCAQBAFM.sym ABSOLUTE
    rom_LLM_CxM_Init                         0x10061595   Thumb Code     0  QCA6174_SCAQBAFM.sym ABSOLUTE
    rom_LLM_resetDefaults                    0x10061599   Thumb Code     0  QCA6174_SCAQBAFM.sym ABSOLUTE
    rom_LLM_init                             0x100615b1   Thumb Code     0  QCA6174_SCAQBAFM.sym ABSOLUTE
    rom_LLM_PreReset                         0x10061609   Thumb Code     0  QCA6174_SCAQBAFM.sym ABSOLUTE
    rom_LLM_Reset                            0x10061627   Thumb Code     0  QCA6174_SCAQBAFM.sym ABSOLUTE
    rom_LLM_SystemReady                      0x1006169f   Thumb Code     0  QCA6174_SCAQBAFM.sym ABSOLUTE
    rom_LLM_ProcE_RANDOM_NUMBER_INIT         0x10061755   Thumb Code     0  QCA6174_SCAQBAFM.sym ABSOLUTE
    rom_LLM_ProcE_LMP_RX                     0x1006175b   Thumb Code     0  QCA6174_SCAQBAFM.sym ABSOLUTE
    rom_LLM_ProcE_RX_4_BIT_EVAL              0x100617e5   Thumb Code     0  QCA6174_SCAQBAFM.sym ABSOLUTE
    rom_LLM_ProcE_SLEEP_WAKEUP               0x100617eb   Thumb Code     0  QCA6174_SCAQBAFM.sym ABSOLUTE
    rom_LLM_ProcE_LMS_STATUS                 0x10061967   Thumb Code     0  QCA6174_SCAQBAFM.sym ABSOLUTE
    rom_LLM_ProcQ_LMS_STATUS                 0x10061ad1   Thumb Code     0  QCA6174_SCAQBAFM.sym ABSOLUTE
    rom_LLM_ProcQ_INQUIRY_RESULT             0x100620fb   Thumb Code     0  QCA6174_SCAQBAFM.sym ABSOLUTE
    rom_LLM_ProcQ_LE_SCAN_RESULT             0x10062127   Thumb Code     0  QCA6174_SCAQBAFM.sym ABSOLUTE
    rom_LLM_ProcE_HCI_COMMAND                0x1006220b   Thumb Code     0  QCA6174_SCAQBAFM.sym ABSOLUTE
    rom_LLM_ProcE_KICK_LINK_SUPERVISION      0x1006223d   Thumb Code     0  QCA6174_SCAQBAFM.sym ABSOLUTE
    rom_LLM_ProcE_KICK_AUTHENTICATION_INTERVAL 0x1006224d   Thumb Code     0  QCA6174_SCAQBAFM.sym ABSOLUTE
    rom_LLM_ProcE_VS_BER_TEST_COMPLETE       0x1006225d   Thumb Code     0  QCA6174_SCAQBAFM.sym ABSOLUTE
    rom_LLM_ProcE_ONE_SHOT_SCAN_KICK         0x10062279   Thumb Code     0  QCA6174_SCAQBAFM.sym ABSOLUTE
    rom_LLM_ProcE_QTA_AIE_EVAL               0x1006227b   Thumb Code     0  QCA6174_SCAQBAFM.sym ABSOLUTE
    rom_LLM_ProcE_LE_DEFERRED_COMMAND        0x1006227d   Thumb Code     0  QCA6174_SCAQBAFM.sym ABSOLUTE
    rom_LLM_ProcE_CHAN_ASSESS_DONE           0x100622af   Thumb Code     0  QCA6174_SCAQBAFM.sym ABSOLUTE
    rom_LLM_ProcE_AFH_WLAN_MAP_UPDATED       0x100622dd   Thumb Code     0  QCA6174_SCAQBAFM.sym ABSOLUTE
    rom_LLM_ProcE_AFH_LTE_MAP_UPDATED        0x10062305   Thumb Code     0  QCA6174_SCAQBAFM.sym ABSOLUTE
    LLM_ProcE_LLM_L2CAP_PROFILE_CHG          0x1006232d   Thumb Code     0  QCA6174_SCAQBAFM.sym ABSOLUTE
    LLM_ProcTimer_PERIODIC_INQUIRY           0x1006235b   Thumb Code     0  QCA6174_SCAQBAFM.sym ABSOLUTE
    LLM_ProcTimer_UTILITY_A                  0x10062499   Thumb Code     0  QCA6174_SCAQBAFM.sym ABSOLUTE
    LLM_ProcTimer_LINK_SUPERVISION           0x100626a3   Thumb Code     0  QCA6174_SCAQBAFM.sym ABSOLUTE
    LLM_ProcTimer_ONE_SECOND_TICK            0x100626b3   Thumb Code     0  QCA6174_SCAQBAFM.sym ABSOLUTE
    LLM_ProcTimer_POWER_CTRL                 0x10062771   Thumb Code     0  QCA6174_SCAQBAFM.sym ABSOLUTE
    LLM_ProcTimer_WAKEUP                     0x100627af   Thumb Code     0  QCA6174_SCAQBAFM.sym ABSOLUTE
    rom_LLM_ProcE_UPDATE_DYNAMIC_DATABASE    0x100627b5   Thumb Code     0  QCA6174_SCAQBAFM.sym ABSOLUTE
    LLM_ProcTimer_VENDOR_EXT_FTD             0x100627b7   Thumb Code     0  QCA6174_SCAQBAFM.sym ABSOLUTE
    LLM_ProcTimer_MAX_AUTHENTICATION_INTERVAL 0x100627b9   Thumb Code     0  QCA6174_SCAQBAFM.sym ABSOLUTE
    LLM_ProcTimer_COEX_QTA_DOZE              0x100627c9   Thumb Code     0  QCA6174_SCAQBAFM.sym ABSOLUTE
    LLM_ProcTimer_BT_CAL_REG_UPDATE          0x100627cb   Thumb Code     0  QCA6174_SCAQBAFM.sym ABSOLUTE
    rom_LLM_ProcE_VS_ANT_MODE_CHANGE         0x100627cd   Thumb Code     0  QCA6174_SCAQBAFM.sym ABSOLUTE
    rom_LLM_ProcE_ANT_CMD_FROM_HOST_READY    0x10062847   Thumb Code     0  QCA6174_SCAQBAFM.sym ABSOLUTE
    rom_LLM_ProcE_ANT_EVENT_TO_HOST_READY    0x10062987   Thumb Code     0  QCA6174_SCAQBAFM.sym ABSOLUTE
    rom_LLM_ProcE_ANT_DATA_FROM_HOST_READY   0x100629ab   Thumb Code     0  QCA6174_SCAQBAFM.sym ABSOLUTE
    rom_LLM_ProcE_ANT_DATA_TO_HOST_READY     0x100629db   Thumb Code     0  QCA6174_SCAQBAFM.sym ABSOLUTE
    rom_LLM_ProcE_ANT_SERVICE_TX_SERIAL_MESG 0x100629ff   Thumb Code     0  QCA6174_SCAQBAFM.sym ABSOLUTE
    rom_LLM_ProcE_ANT_SERVICE_ANT_EVENT      0x10062a15   Thumb Code     0  QCA6174_SCAQBAFM.sym ABSOLUTE
    rom_LLME_init                            0x10062a2b   Thumb Code     0  QCA6174_SCAQBAFM.sym ABSOLUTE
    rom_LLME_SystemReady                     0x10062a2d   Thumb Code     0  QCA6174_SCAQBAFM.sym ABSOLUTE
    rom_LLME_PreReset                        0x10062a2f   Thumb Code     0  QCA6174_SCAQBAFM.sym ABSOLUTE
    rom_LLME_ProcE_RSSI_THRESHOLD_EVAL       0x10062a31   Thumb Code     0  QCA6174_SCAQBAFM.sym ABSOLUTE
    rom_LLM_SelectSyncInterval               0x10062aa1   Thumb Code     0  QCA6174_SCAQBAFM.sym ABSOLUTE
    rom_LLM_FindLinkParms                    0x10062d8d   Thumb Code     0  QCA6174_SCAQBAFM.sym ABSOLUTE
    rom_LLM_FindLinkParmsSimple              0x100630ab   Thumb Code     0  QCA6174_SCAQBAFM.sym ABSOLUTE
    rom_LLM_BuildSyncLinkTable               0x10063111   Thumb Code     0  QCA6174_SCAQBAFM.sym ABSOLUTE
    rom_LLM_SelectSyncIntervalEx             0x10063401   Thumb Code     0  QCA6174_SCAQBAFM.sym ABSOLUTE
    rom_LLM_LE_ComputeConnParms              0x10063457   Thumb Code     0  QCA6174_SCAQBAFM.sym ABSOLUTE
    rom_LLM_checkOverlapSystem               0x100634b5   Thumb Code     0  QCA6174_SCAQBAFM.sym ABSOLUTE
    rom_LLM_GetOffsetInPiconet               0x10063539   Thumb Code     0  QCA6174_SCAQBAFM.sym ABSOLUTE
    rom_LLM_GCD                              0x10063573   Thumb Code     0  QCA6174_SCAQBAFM.sym ABSOLUTE
    rom_llm_synclinkmngr_patch_hook          0x10063589   Thumb Code     0  QCA6174_SCAQBAFM.sym ABSOLUTE
    rom_LLM_AFH_PrintGraph                   0x100635ad   Thumb Code     0  QCA6174_SCAQBAFM.sym ABSOLUTE
    rom_LLM_AFH_PrintMap                     0x10063623   Thumb Code     0  QCA6174_SCAQBAFM.sym ABSOLUTE
    rom_LLM_AFH_InitAFHData                  0x10063697   Thumb Code     0  QCA6174_SCAQBAFM.sym ABSOLUTE
    rom_LLM_AFH_AnalyzeFoundBands            0x10063703   Thumb Code     0  QCA6174_SCAQBAFM.sym ABSOLUTE
    rom_LLM_AFH_FindFreeHangoverRec          0x10063887   Thumb Code     0  QCA6174_SCAQBAFM.sym ABSOLUTE
    rom_LLM_AFH_UpdateHangoverBands          0x100638c7   Thumb Code     0  QCA6174_SCAQBAFM.sym ABSOLUTE
    rom_LLM_AFH_SmoothRSSIAssessments        0x10063bb7   Thumb Code     0  QCA6174_SCAQBAFM.sym ABSOLUTE
    rom_LLM_AFH_UpdateMapStore               0x10063c45   Thumb Code     0  QCA6174_SCAQBAFM.sym ABSOLUTE
    rom_LLM_AFH_IsChanBadHistory             0x10063d1b   Thumb Code     0  QCA6174_SCAQBAFM.sym ABSOLUTE
    rom_LLM_AFH_CreateCurrentMap             0x10063ded   Thumb Code     0  QCA6174_SCAQBAFM.sym ABSOLUTE
    rom_LLM_AFH_SummarizeAssessmentQuality   0x10063e37   Thumb Code     0  QCA6174_SCAQBAFM.sym ABSOLUTE
    rom_LLM_AFH_FindBadBand                  0x10063f8f   Thumb Code     0  QCA6174_SCAQBAFM.sym ABSOLUTE
    rom_LLM_AFH_SelectBandWidth              0x1006407f   Thumb Code     0  QCA6174_SCAQBAFM.sym ABSOLUTE
    rom_LLM_AFH_FindRSSIBands                0x10064121   Thumb Code     0  QCA6174_SCAQBAFM.sym ABSOLUTE
    rom_LLM_AFH_Do_ChannelRating             0x100643b1   Thumb Code     0  QCA6174_SCAQBAFM.sym ABSOLUTE
    rom_LLM_AFH_spike_Analysis               0x10064445   Thumb Code     0  QCA6174_SCAQBAFM.sym ABSOLUTE
    rom_LLM_AFH_setCombinedChanClassification 0x10064563   Thumb Code     0  QCA6174_SCAQBAFM.sym ABSOLUTE
    rom_LLM_AFH_SetChannelMap                0x1006462d   Thumb Code     0  QCA6174_SCAQBAFM.sym ABSOLUTE
    rom_LLM_handle_LMP_clk_adj               0x10064891   Thumb Code     0  QCA6174_SCAQBAFM.sym ABSOLUTE
    rom_LLM_handle_LMP_clk_adj_req           0x1006495f   Thumb Code     0  QCA6174_SCAQBAFM.sym ABSOLUTE
    rom_LLM_handle_LMP_clk_adj_ack           0x10064a87   Thumb Code     0  QCA6174_SCAQBAFM.sym ABSOLUTE
    rom_LLM_AdjustClock                      0x10064aa7   Thumb Code     0  QCA6174_SCAQBAFM.sym ABSOLUTE
    rom_LLM_SetExternalFrameAlignment        0x10064b3d   Thumb Code     0  QCA6174_SCAQBAFM.sym ABSOLUTE
    rom_LLM_requestCoarseClockAdjust         0x10064b45   Thumb Code     0  QCA6174_SCAQBAFM.sym ABSOLUTE
    rom_LLM_updateClockAdjustTracking        0x10064b83   Thumb Code     0  QCA6174_SCAQBAFM.sym ABSOLUTE
    rom_LLM_isCoarseClockAdjustAllowed       0x10064da7   Thumb Code     0  QCA6174_SCAQBAFM.sym ABSOLUTE
    rom_LLM_initiateCoarseClockAdjust        0x10064e4f   Thumb Code     0  QCA6174_SCAQBAFM.sym ABSOLUTE
    rom_LLM_initiateClockDragging            0x10064f79   Thumb Code     0  QCA6174_SCAQBAFM.sym ABSOLUTE
    rom_LLM_continueClockDragging            0x10064fe1   Thumb Code     0  QCA6174_SCAQBAFM.sym ABSOLUTE
    rom_LLM_cancelClockAdjust                0x100650c7   Thumb Code     0  QCA6174_SCAQBAFM.sym ABSOLUTE
    rom_LLM_ResetConnPCA                     0x100650cb   Thumb Code     0  QCA6174_SCAQBAFM.sym ABSOLUTE
    rom_LLM_SetExternalFrameConfiguration    0x100650f5   Thumb Code     0  QCA6174_SCAQBAFM.sym ABSOLUTE
    rom_SLC_enter                            0x10065229   Thumb Code     0  QCA6174_SCAQBAFM.sym ABSOLUTE
    rom_SLC_adjustTargetClkInterval          0x10065235   Thumb Code     0  QCA6174_SCAQBAFM.sym ABSOLUTE
    rom_SLC_setupDispatchEventWindow         0x1006523f   Thumb Code     0  QCA6174_SCAQBAFM.sym ABSOLUTE
    rom_SLC_ScheduleNextSCOWindow            0x10065251   Thumb Code     0  QCA6174_SCAQBAFM.sym ABSOLUTE
    rom_SLC_ESCO_scheduleRetransWindow       0x100652b1   Thumb Code     0  QCA6174_SCAQBAFM.sym ABSOLUTE
    SLC_freeDispatch_W_Attached_DispatchMem  0x10065339   Thumb Code     0  QCA6174_SCAQBAFM.sym ABSOLUTE
    SLC_Dispatch_xSCO_Reserved               0x1006534f   Thumb Code     0  QCA6174_SCAQBAFM.sym ABSOLUTE
    SLC_Dispatch_xSCO_Retrans                0x100656e5   Thumb Code     0  QCA6174_SCAQBAFM.sym ABSOLUTE
    rom_SLC_Dispatch_ParkBeacon_Master       0x10065823   Thumb Code     0  QCA6174_SCAQBAFM.sym ABSOLUTE
    rom_SLC_Dispatch_ParkBeacon_ACScan       0x10065827   Thumb Code     0  QCA6174_SCAQBAFM.sym ABSOLUTE
    SLC_Dispatch_ParkBeacon                  0x1006582b   Thumb Code     0  QCA6174_SCAQBAFM.sym ABSOLUTE
    rom_SLC_Dispatch_ParkBeacon_AccessWindowMaster 0x10065841   Thumb Code     0  QCA6174_SCAQBAFM.sym ABSOLUTE
    rom_SLC_Dispatch_ParkBeacon_AccessWindowSlave 0x10065845   Thumb Code     0  QCA6174_SCAQBAFM.sym ABSOLUTE
    SLC_Dispatch_ParkBeacon_AccessWindow     0x10065849   Thumb Code     0  QCA6174_SCAQBAFM.sym ABSOLUTE
    rom_SLC_Dispatch_ParkBeacon_AccessWindowNPOLLextension_Master 0x1006585f   Thumb Code     0  QCA6174_SCAQBAFM.sym ABSOLUTE
    SLC_Dispatch_ParkBeacon_AccessWindowExtension 0x10065863   Thumb Code     0  QCA6174_SCAQBAFM.sym ABSOLUTE
    SLC_Dispatch_ParkBeacon_BroadcastWindowTO 0x10065879   Thumb Code     0  QCA6174_SCAQBAFM.sym ABSOLUTE
    SLC_Dispatch_DUT_Tx                      0x1006587d   Thumb Code     0  QCA6174_SCAQBAFM.sym ABSOLUTE
    SLC_Dispatch_SetAFH                      0x100658c7   Thumb Code     0  QCA6174_SCAQBAFM.sym ABSOLUTE
    SLC_Dispatch_AFH_ChanAssessment          0x100658e1   Thumb Code     0  QCA6174_SCAQBAFM.sym ABSOLUTE
    rom_SLC_SetupDispatchQEntry_DUT_Tx       0x10065973   Thumb Code     0  QCA6174_SCAQBAFM.sym ABSOLUTE
    SLC_updateDispatch_DUT_Tx                0x100659b9   Thumb Code     0  QCA6174_SCAQBAFM.sym ABSOLUTE
    SLC_Dispatch_EPTM_ConnEstab              0x100659f3   Thumb Code     0  QCA6174_SCAQBAFM.sym ABSOLUTE
    SLC_Dispatch_EPTM_Test                   0x10065aa1   Thumb Code     0  QCA6174_SCAQBAFM.sym ABSOLUTE
    rom_SLC_Dispatch_Next                    0x10065ca1   Thumb Code     0  QCA6174_SCAQBAFM.sym ABSOLUTE
    rom_SLC_generalDispatchNext              0x10065e6b   Thumb Code     0  QCA6174_SCAQBAFM.sym ABSOLUTE
    rom_SLC_PeekGeneralDispatchQReadyElement 0x10065fd1   Thumb Code     0  QCA6174_SCAQBAFM.sym ABSOLUTE
    rom_SLC_updateDispatch_ParkBeacon_ACScan 0x10066041   Thumb Code     0  QCA6174_SCAQBAFM.sym ABSOLUTE
    rom_SLC_updateDispatch_ParkBeacon_Master 0x10066045   Thumb Code     0  QCA6174_SCAQBAFM.sym ABSOLUTE
    SLC_updateDispatch_ParkBeacon            0x10066049   Thumb Code     0  QCA6174_SCAQBAFM.sym ABSOLUTE
    rom_SLC_Dispatch_ParkBeacon_UnparkTO_Master 0x10066063   Thumb Code     0  QCA6174_SCAQBAFM.sym ABSOLUTE
    rom_SLC_Dispatch_ParkBeacon_UnparkTO_Slave 0x10066067   Thumb Code     0  QCA6174_SCAQBAFM.sym ABSOLUTE
    SLC_Dispatch_ParkBeacon_UnparkTO         0x1006606b   Thumb Code     0  QCA6174_SCAQBAFM.sym ABSOLUTE
    rom_SLC_updateDispatch_ParkBeaconAccessWindowMaster 0x10066081   Thumb Code     0  QCA6174_SCAQBAFM.sym ABSOLUTE
    SLC_updateDispatch_EnqueueNow            0x10066085   Thumb Code     0  QCA6174_SCAQBAFM.sym ABSOLUTE
    SLC_updateDispatch_ParkBeaconAccessWindow 0x1006609b   Thumb Code     0  QCA6174_SCAQBAFM.sym ABSOLUTE
    SLC_Dispatch_NONE                        0x100660c1   Thumb Code     0  QCA6174_SCAQBAFM.sym ABSOLUTE
    rom_SLC_SniffUpdateIdle                  0x100660d1   Thumb Code     0  QCA6174_SCAQBAFM.sym ABSOLUTE
    SLC_Dispatch_SniffEnter                  0x100660fb   Thumb Code     0  QCA6174_SCAQBAFM.sym ABSOLUTE
    SLC_Dispatch_SniffExit                   0x10066141   Thumb Code     0  QCA6174_SCAQBAFM.sym ABSOLUTE
    SLC_Dispatch_SniffIdle                   0x1006620b   Thumb Code     0  QCA6174_SCAQBAFM.sym ABSOLUTE
    SLC_Dispatch_SniffActive                 0x1006632f   Thumb Code     0  QCA6174_SCAQBAFM.sym ABSOLUTE
    SLC_Dispatch_HoldInstant                 0x10066587   Thumb Code     0  QCA6174_SCAQBAFM.sym ABSOLUTE
    SLC_Dispatch_HoldActive                  0x100666cd   Thumb Code     0  QCA6174_SCAQBAFM.sym ABSOLUTE
    rom_SLC_undoDispatch_HOLD_ACTIVE         0x10066793   Thumb Code     0  QCA6174_SCAQBAFM.sym ABSOLUTE
    rom_SLC_setNextSniffActive               0x100667bb   Thumb Code     0  QCA6174_SCAQBAFM.sym ABSOLUTE
    rom_SLC_SetupDispatchQEntry_SniffActive  0x10066957   Thumb Code     0  QCA6174_SCAQBAFM.sym ABSOLUTE
    SLC_updateDispatch_Hold_ScanAC           0x10066b65   Thumb Code     0  QCA6174_SCAQBAFM.sym ABSOLUTE
    SLC_updateDispatch_SniffActive           0x10066bd7   Thumb Code     0  QCA6174_SCAQBAFM.sym ABSOLUTE
    SLC_updateDispatch_SniffIdle             0x10066c8b   Thumb Code     0  QCA6174_SCAQBAFM.sym ABSOLUTE
    SLC_updateDispatch_xSCO_Reserved         0x10066cc9   Thumb Code     0  QCA6174_SCAQBAFM.sym ABSOLUTE
    SLC_updateDispatch_xSCO_Retrans          0x10066e6f   Thumb Code     0  QCA6174_SCAQBAFM.sym ABSOLUTE
    SLC_updateDispatch_LE_Conn               0x10066eed   Thumb Code     0  QCA6174_SCAQBAFM.sym ABSOLUTE
    rom_SLC_LostSync_AC_ScanScheduleNext     0x10066f67   Thumb Code     0  QCA6174_SCAQBAFM.sym ABSOLUTE
    rom_SLC_RxUpdate_Sniff                   0x10067043   Thumb Code     0  QCA6174_SCAQBAFM.sym ABSOLUTE
    rom_SLC_HandleSniffIdleTransition        0x1006707d   Thumb Code     0  QCA6174_SCAQBAFM.sym ABSOLUTE
    SLC_Dispatch_RoleSwitchInstant           0x100670f3   Thumb Code     0  QCA6174_SCAQBAFM.sym ABSOLUTE
    SLC_updateDispatch_RoleSwitchInstant     0x1006729b   Thumb Code     0  QCA6174_SCAQBAFM.sym ABSOLUTE
    SLC_Dispatch_RoleSwitchFrame             0x100672ed   Thumb Code     0  QCA6174_SCAQBAFM.sym ABSOLUTE
    rom_SLC_SetupDispatchQEntry_InquiryScan  0x100675c5   Thumb Code     0  QCA6174_SCAQBAFM.sym ABSOLUTE
    SLC_Dispatch_InquiryScan                 0x100676e5   Thumb Code     0  QCA6174_SCAQBAFM.sym ABSOLUTE
    rom_SLC_SetupDispatchQEntry_PageScan     0x1006777d   Thumb Code     0  QCA6174_SCAQBAFM.sym ABSOLUTE
    rom_SLC_AddDispatchQ_PageScan            0x10067895   Thumb Code     0  QCA6174_SCAQBAFM.sym ABSOLUTE
    SLC_Dispatch_PageScan                    0x100678e3   Thumb Code     0  QCA6174_SCAQBAFM.sym ABSOLUTE
    SLC_Dispatch_IdlePageScan                0x10067bdb   Thumb Code     0  QCA6174_SCAQBAFM.sym ABSOLUTE
    SLC_Dispatch_InquiryFrameStart           0x10067c01   Thumb Code     0  QCA6174_SCAQBAFM.sym ABSOLUTE
    SLC_Dispatch_InquiryFrame                0x10067c93   Thumb Code     0  QCA6174_SCAQBAFM.sym ABSOLUTE
    SLC_updateDispatch_InquiryFrame          0x10067d67   Thumb Code     0  QCA6174_SCAQBAFM.sym ABSOLUTE
    SLC_Dispatch_PageFrameStart              0x10067daf   Thumb Code     0  QCA6174_SCAQBAFM.sym ABSOLUTE
    SLC_Dispatch_PageFrame                   0x10067ec3   Thumb Code     0  QCA6174_SCAQBAFM.sym ABSOLUTE
    rom_SLC_SelectPageLLRChannel             0x100680e5   Thumb Code     0  QCA6174_SCAQBAFM.sym ABSOLUTE
    rom_SLC_Dispatch_SetupBeaconACScan       0x10068125   Thumb Code     0  QCA6174_SCAQBAFM.sym ABSOLUTE
    SLC_Dispatch_PageLLR                     0x1006815d   Thumb Code     0  QCA6174_SCAQBAFM.sym ABSOLUTE
    SLC_Dispatch_TriggerScan                 0x100683c5   Thumb Code     0  QCA6174_SCAQBAFM.sym ABSOLUTE
    rom_SLC_RxUpdate_TriggerScan             0x10068581   Thumb Code     0  QCA6174_SCAQBAFM.sym ABSOLUTE
    SLC_UpdateDispatch_PageLLR               0x10068647   Thumb Code     0  QCA6174_SCAQBAFM.sym ABSOLUTE
    SLC_Dispatch_PnetSwitch                  0x1006865d   Thumb Code     0  QCA6174_SCAQBAFM.sym ABSOLUTE
    SLC_Dispatch_ClockAdjust                 0x1006869b   Thumb Code     0  QCA6174_SCAQBAFM.sym ABSOLUTE
    rom_SLC_EnqueueACScan                    0x1006877b   Thumb Code     0  QCA6174_SCAQBAFM.sym ABSOLUTE
    SLC_Dispatch_ACScan                      0x1006877d   Thumb Code     0  QCA6174_SCAQBAFM.sym ABSOLUTE
    SLC_updateDispatch_ACScan                0x100687cb   Thumb Code     0  QCA6174_SCAQBAFM.sym ABSOLUTE
    SLC_Dispatch_TerminateSchedulingACL      0x100687fd   Thumb Code     0  QCA6174_SCAQBAFM.sym ABSOLUTE
    SLC_Dispatch_TerminateSchedulingSCO      0x100688b1   Thumb Code     0  QCA6174_SCAQBAFM.sym ABSOLUTE
    SLC_freeDispatch_PnetSwitch              0x100688d7   Thumb Code     0  QCA6174_SCAQBAFM.sym ABSOLUTE
    SLC_freeDispatch_ACScan                  0x100688e7   Thumb Code     0  QCA6174_SCAQBAFM.sym ABSOLUTE
    SLC_freeDispatch_NONE                    0x10068909   Thumb Code     0  QCA6174_SCAQBAFM.sym ABSOLUTE
    rom_SLC_DisQ_Enqueue                     0x1006890b   Thumb Code     0  QCA6174_SCAQBAFM.sym ABSOLUTE
    rom_SLC_DisQ_Reset                       0x10068b73   Thumb Code     0  QCA6174_SCAQBAFM.sym ABSOLUTE
    rom_SLC_DisQ_GetHigherPriorityElem       0x10068ba5   Thumb Code     0  QCA6174_SCAQBAFM.sym ABSOLUTE
    rom_SLC_DisQ_GetHigherPriorityElemWithBlackout 0x10068bbf   Thumb Code     0  QCA6174_SCAQBAFM.sym ABSOLUTE
    rom_SLC_DisQ_GetPriorityElemScatternet   0x10068bdd   Thumb Code     0  QCA6174_SCAQBAFM.sym ABSOLUTE
    rom_SLC_DisQ_GetNextFutureElem           0x10068cb9   Thumb Code     0  QCA6174_SCAQBAFM.sym ABSOLUTE
    rom_SLC_DisQ_GetNextFutureElemWithBlackout 0x10068ce5   Thumb Code     0  QCA6174_SCAQBAFM.sym ABSOLUTE
    rom_SLC_DisQ_DeleteNullElemsPiconet      0x10068d15   Thumb Code     0  QCA6174_SCAQBAFM.sym ABSOLUTE
    rom_SLC_DisQ_DeleteNullElemsScatternet   0x10068d69   Thumb Code     0  QCA6174_SCAQBAFM.sym ABSOLUTE
    rom_SLC_DisQ_AllocDispatchSchedInstr     0x10068d9b   Thumb Code     0  QCA6174_SCAQBAFM.sym ABSOLUTE
    SLC_Dispatch_Focus                       0x10068e2d   Thumb Code     0  QCA6174_SCAQBAFM.sym ABSOLUTE
    SLC_Dispatch_LLM_TokenLM_Return          0x10068ee1   Thumb Code     0  QCA6174_SCAQBAFM.sym ABSOLUTE
    SLC_Dispatch_TESTER_ParamChange          0x10068f01   Thumb Code     0  QCA6174_SCAQBAFM.sym ABSOLUTE
    SLC_Dispatch_SniffSubrate_BaseRate       0x10068f05   Thumb Code     0  QCA6174_SCAQBAFM.sym ABSOLUTE
    SLC_Dispatch_SPLIT_A2DP_HandlePause      0x10069017   Thumb Code     0  QCA6174_SCAQBAFM.sym ABSOLUTE
    SLC_Dispatch_COEX_QTA_AIE_PageScanMRR    0x10069027   Thumb Code     0  QCA6174_SCAQBAFM.sym ABSOLUTE
    SLC_Dispatch_COEX_QTA_AIE_InquiryScanMRR 0x1006902b   Thumb Code     0  QCA6174_SCAQBAFM.sym ABSOLUTE
    SLC_SetupDispatch_LinklessBroadcast      0x1006902f   Thumb Code     0  QCA6174_SCAQBAFM.sym ABSOLUTE
    SLC_Dispatch_LinklessBroadcast           0x100690c7   Thumb Code     0  QCA6174_SCAQBAFM.sym ABSOLUTE
    SLC_Dispatch_SynchronizationTrain        0x10069129   Thumb Code     0  QCA6174_SCAQBAFM.sym ABSOLUTE
    SLC_Dispatch_SynchronizationTrainScan    0x100692e7   Thumb Code     0  QCA6174_SCAQBAFM.sym ABSOLUTE
    rom_SLC_SetupDispatchQEntry_LE_Scan      0x100693a5   Thumb Code     0  QCA6174_SCAQBAFM.sym ABSOLUTE
    rom_SLC_Dispatch_LE_Scan_Common          0x100694d1   Thumb Code     0  QCA6174_SCAQBAFM.sym ABSOLUTE
    SLC_Dispatch_LE_ScanScanner              0x1006962b   Thumb Code     0  QCA6174_SCAQBAFM.sym ABSOLUTE
    SLC_Dispatch_LE_ScanInitiator            0x10069637   Thumb Code     0  QCA6174_SCAQBAFM.sym ABSOLUTE
    rom_SLC_Dispatch_LE_ScanResume_Common    0x10069647   Thumb Code     0  QCA6174_SCAQBAFM.sym ABSOLUTE
    SLC_Dispatch_LE_ScanResumeScanner        0x1006973f   Thumb Code     0  QCA6174_SCAQBAFM.sym ABSOLUTE
    SLC_Dispatch_LE_ScanResumeInitiator      0x1006974b   Thumb Code     0  QCA6174_SCAQBAFM.sym ABSOLUTE
    rom_SLC_SetupDispatchQEntry_LE_Advertise 0x1006975b   Thumb Code     0  QCA6174_SCAQBAFM.sym ABSOLUTE
    SLC_Dispatch_LE_Advertise                0x100697d9   Thumb Code     0  QCA6174_SCAQBAFM.sym ABSOLUTE
    SLC_Dispatch_LE_AdvertiseDirected        0x100698ad   Thumb Code     0  QCA6174_SCAQBAFM.sym ABSOLUTE
    rom_SLC_RxUpdate_LE_Conn                 0x1006995f   Thumb Code     0  QCA6174_SCAQBAFM.sym ABSOLUTE
    SLC_Dispatch_LE_ConnSlave                0x10069967   Thumb Code     0  QCA6174_SCAQBAFM.sym ABSOLUTE
    SLC_Dispatch_LE_ConnMaster               0x10069a5d   Thumb Code     0  QCA6174_SCAQBAFM.sym ABSOLUTE
    SLC_Dispatch_LE_ConnUpdate               0x10069ba9   Thumb Code     0  QCA6174_SCAQBAFM.sym ABSOLUTE
    SLC_Dispatch_LE_IdleAdvertise            0x10069c75   Thumb Code     0  QCA6174_SCAQBAFM.sym ABSOLUTE
    SLC_Dispatch_LE_TestModeStart            0x10069caf   Thumb Code     0  QCA6174_SCAQBAFM.sym ABSOLUTE
    rom_SLC_LE_incrConnEvent                 0x10069ce9   Thumb Code     0  QCA6174_SCAQBAFM.sym ABSOLUTE
    rom_SLC_LE_setNextConnEvent              0x10069d5b   Thumb Code     0  QCA6174_SCAQBAFM.sym ABSOLUTE
    rom_SLC_LE_getConnEventPriority          0x10069ea9   Thumb Code     0  QCA6174_SCAQBAFM.sym ABSOLUTE
    rom_SLC_LE_compareUpdateCount            0x10069f43   Thumb Code     0  QCA6174_SCAQBAFM.sym ABSOLUTE
    rom_SLC_LE_checkConnParamsUpdate         0x10069f5d   Thumb Code     0  QCA6174_SCAQBAFM.sym ABSOLUTE
    rom_SLC_LE_checkChannelMapUpdate         0x1006a171   Thumb Code     0  QCA6174_SCAQBAFM.sym ABSOLUTE
    rom_SLC_LE_checkConnTimeoutUpdate        0x1006a1df   Thumb Code     0  QCA6174_SCAQBAFM.sym ABSOLUTE
    rom_SLC_LE_getMaxScanSlots               0x1006a215   Thumb Code     0  QCA6174_SCAQBAFM.sym ABSOLUTE
    rom_SLC_DisQ_UndoDispatch                0x1006a221   Thumb Code     0  QCA6174_SCAQBAFM.sym ABSOLUTE
    rom_SLC_dispatcher_patch_hook            0x1006a2a1   Thumb Code     0  QCA6174_SCAQBAFM.sym ABSOLUTE
    SLC_HlrEnter_ANT_TX                      0x1006a2e5   Thumb Code     0  QCA6174_SCAQBAFM.sym ABSOLUTE
    SLC_HlrEnter_ANT_RX                      0x1006a2fb   Thumb Code     0  QCA6174_SCAQBAFM.sym ABSOLUTE
    SLC_HlrTxProc_ANT_TX                     0x1006a311   Thumb Code     0  QCA6174_SCAQBAFM.sym ABSOLUTE
    SLC_HlrRxSetup_ANT_RX                    0x1006a365   Thumb Code     0  QCA6174_SCAQBAFM.sym ABSOLUTE
    SLC_HlrRxProcNonRT_ANT_RX                0x1006a3b1   Thumb Code     0  QCA6174_SCAQBAFM.sym ABSOLUTE
    SLC_HlrExit_ANT_TX                       0x1006a3ff   Thumb Code     0  QCA6174_SCAQBAFM.sym ABSOLUTE
    SLC_HlrExit_ANT_RX                       0x1006a42b   Thumb Code     0  QCA6174_SCAQBAFM.sym ABSOLUTE
    rom_SLC_ScoProcessorUpdate               0x1006a4bd   Thumb Code     0  QCA6174_SCAQBAFM.sym ABSOLUTE
    rom_SLC_ScoProcessorRemove               0x1006a4d1   Thumb Code     0  QCA6174_SCAQBAFM.sym ABSOLUTE
    SLC_ScanAC_Hold                          0x1006a4e1   Thumb Code     0  QCA6174_SCAQBAFM.sym ABSOLUTE
    SLC_ScanAC_Sniff                         0x1006a527   Thumb Code     0  QCA6174_SCAQBAFM.sym ABSOLUTE
    SLC_ScanAC_Park                          0x1006a593   Thumb Code     0  QCA6174_SCAQBAFM.sym ABSOLUTE
    SLC_ScanAC_LostSync                      0x1006a595   Thumb Code     0  QCA6174_SCAQBAFM.sym ABSOLUTE
    SLC_ScanAC_SlaveSync                     0x1006a59b   Thumb Code     0  QCA6174_SCAQBAFM.sym ABSOLUTE
    SLC_ScanAC_EPTM                          0x1006a5c3   Thumb Code     0  QCA6174_SCAQBAFM.sym ABSOLUTE
    SLC_ScanAC_LLR                           0x1006a5c5   Thumb Code     0  QCA6174_SCAQBAFM.sym ABSOLUTE
    rom_SLC_Cancel_LE_Scan                   0x1006a5c7   Thumb Code     0  QCA6174_SCAQBAFM.sym ABSOLUTE
    rom_SLC_countRxErrors                    0x1006a647   Thumb Code     0  QCA6174_SCAQBAFM.sym ABSOLUTE
    rom_SLC_getNPage                         0x1006a75b   Thumb Code     0  QCA6174_SCAQBAFM.sym ABSOLUTE
    rom_SLC_switchSwapParam                  0x1006a76d   Thumb Code     0  QCA6174_SCAQBAFM.sym ABSOLUTE
    rom_SLC_SetupIdScanParams                0x1006a7c1   Thumb Code     0  QCA6174_SCAQBAFM.sym ABSOLUTE
    rom_SLC_SetupEBCAParams                  0x1006a88d   Thumb Code     0  QCA6174_SCAQBAFM.sym ABSOLUTE
    rom_SLC_SetupSyncTrainScanParams         0x1006a9ab   Thumb Code     0  QCA6174_SCAQBAFM.sym ABSOLUTE
    rom_SLC_GetInquiryScanInterval           0x1006aa0b   Thumb Code     0  QCA6174_SCAQBAFM.sym ABSOLUTE
    rom_SLC_GetPageScanInterval              0x1006aa4f   Thumb Code     0  QCA6174_SCAQBAFM.sym ABSOLUTE
    rom_SLC_GetAdvertisingInterval           0x1006aa93   Thumb Code     0  QCA6174_SCAQBAFM.sym ABSOLUTE
    rom_SLC_GetSyncTrainScanInterval         0x1006aac5   Thumb Code     0  QCA6174_SCAQBAFM.sym ABSOLUTE
    rom_SLC_ScanAddRandomDelay               0x1006aacb   Thumb Code     0  QCA6174_SCAQBAFM.sym ABSOLUTE
    rom_SLC_InitMaster                       0x1006aafd   Thumb Code     0  QCA6174_SCAQBAFM.sym ABSOLUTE
    rom_SLC_InitMasterPnetSwitch             0x1006ab35   Thumb Code     0  QCA6174_SCAQBAFM.sym ABSOLUTE
    rom_SLC_InitSlave                        0x1006ab5d   Thumb Code     0  QCA6174_SCAQBAFM.sym ABSOLUTE
    rom_SLC_SetupEncryptKeys                 0x1006ab8b   Thumb Code     0  QCA6174_SCAQBAFM.sym ABSOLUTE
    SLC_CQDDR_gatherMetrics_BR               0x1006abb1   Thumb Code     0  QCA6174_SCAQBAFM.sym ABSOLUTE
    SLC_CQDDR_gatherMetrics_EDR              0x1006ac2b   Thumb Code     0  QCA6174_SCAQBAFM.sym ABSOLUTE
    rom_SLC_GetTimeToNextDispatch            0x1006ac55   Thumb Code     0  QCA6174_SCAQBAFM.sym ABSOLUTE
    rom_SLC_CalcDispatchElementPrio          0x1006acd5   Thumb Code     0  QCA6174_SCAQBAFM.sym ABSOLUTE
    rom_SLC_IsSyncHistoryCritical            0x1006ae33   Thumb Code     0  QCA6174_SCAQBAFM.sym ABSOLUTE
    rom_SLC_CommitSyncHistory                0x1006ae4d   Thumb Code     0  QCA6174_SCAQBAFM.sym ABSOLUTE
    rom_SLC_UpdateSyncHistory                0x1006ae6f   Thumb Code     0  QCA6174_SCAQBAFM.sym ABSOLUTE
    rom_SLC_event_ZeroLengthMsg              0x1006af3d   Thumb Code     0  QCA6174_SCAQBAFM.sym ABSOLUTE
    rom_SLC_eventHCI_NumCompletedPackets     0x1006af6b   Thumb Code     0  QCA6174_SCAQBAFM.sym ABSOLUTE
    rom_SLC_eventHCI_FlushOccured            0x1006b089   Thumb Code     0  QCA6174_SCAQBAFM.sym ABSOLUTE
    rom_SLC_eventHCI_Enhanced_Flush_Complete 0x1006b0d1   Thumb Code     0  QCA6174_SCAQBAFM.sym ABSOLUTE
    rom_SLC_event_VoidConn_OneByte           0x1006b119   Thumb Code     0  QCA6174_SCAQBAFM.sym ABSOLUTE
    rom_SLC_event_Conn_MemBlkPtr             0x1006b14b   Thumb Code     0  QCA6174_SCAQBAFM.sym ABSOLUTE
    rom_SLC_IsMasterInSync                   0x1006b17d   Thumb Code     0  QCA6174_SCAQBAFM.sym ABSOLUTE
    rom_SLC_IsSlaveInSync                    0x1006b1ed   Thumb Code     0  QCA6174_SCAQBAFM.sym ABSOLUTE
    rom_SLC_getPiconetClock                  0x1006b2df   Thumb Code     0  QCA6174_SCAQBAFM.sym ABSOLUTE
    rom_SLC_getFullPiconetClock              0x1006b2e7   Thumb Code     0  QCA6174_SCAQBAFM.sym ABSOLUTE
    rom_SLC_getNextGeneralDispatchClock      0x1006b2ef   Thumb Code     0  QCA6174_SCAQBAFM.sym ABSOLUTE
    rom_SLC_ENCR_evalEncryptionKeyStatus     0x1006b30d   Thumb Code     0  QCA6174_SCAQBAFM.sym ABSOLUTE
    rom_SLC_IsWait4Ack                       0x1006b39f   Thumb Code     0  QCA6174_SCAQBAFM.sym ABSOLUTE
    rom_SLC_LE_eventHCI_NumCompletedPackets  0x1006b441   Thumb Code     0  QCA6174_SCAQBAFM.sym ABSOLUTE
    rom_SLC_LE_BuildChannelList              0x1006b497   Thumb Code     0  QCA6174_SCAQBAFM.sym ABSOLUTE
    rom_SLC_LE_BuildEnabledChannelList       0x1006b4e1   Thumb Code     0  QCA6174_SCAQBAFM.sym ABSOLUTE
    rom_SLC_LE_passesDeviceListFilter        0x1006b519   Thumb Code     0  QCA6174_SCAQBAFM.sym ABSOLUTE
    rom_SLC_LE_passesUuidListFilter          0x1006b5d9   Thumb Code     0  QCA6174_SCAQBAFM.sym ABSOLUTE
    rom_SLC_LE_passesAdvPCF                  0x1006b611   Thumb Code     0  QCA6174_SCAQBAFM.sym ABSOLUTE
    rom_SLC_LE_computeNextConnClock          0x1006b879   Thumb Code     0  QCA6174_SCAQBAFM.sym ABSOLUTE
    rom_SLC_LE_computeWinOffset              0x1006b8e1   Thumb Code     0  QCA6174_SCAQBAFM.sym ABSOLUTE
    rom_SLC_LE_getConnEventMaxFrameCount     0x1006b927   Thumb Code     0  QCA6174_SCAQBAFM.sym ABSOLUTE
    rom_SLC_LE_adjustForDrift                0x1006b969   Thumb Code     0  QCA6174_SCAQBAFM.sym ABSOLUTE
    rom_SLC_LE_scanIsScanReqNeeded           0x1006b9c9   Thumb Code     0  QCA6174_SCAQBAFM.sym ABSOLUTE
    rom_SLC_LE_scanCalcBackoffCount          0x1006ba05   Thumb Code     0  QCA6174_SCAQBAFM.sym ABSOLUTE
    rom_SLC_LE_scanHandleScanRspResult       0x1006ba2b   Thumb Code     0  QCA6174_SCAQBAFM.sym ABSOLUTE
    rom_SLC_LE_SetupScanParams               0x1006ba6f   Thumb Code     0  QCA6174_SCAQBAFM.sym ABSOLUTE
    rom_SLC_LE_countRxErrors                 0x1006bb37   Thumb Code     0  QCA6174_SCAQBAFM.sym ABSOLUTE
    rom_SLC_Update_Acl_Status                0x1006bb69   Thumb Code     0  QCA6174_SCAQBAFM.sym ABSOLUTE
    rom_SLC_EvalCCASlaveRecovery             0x1006bc43   Thumb Code     0  QCA6174_SCAQBAFM.sym ABSOLUTE
    rom_SLC_Get_Direction_From_Frametype     0x1006bcfb   Thumb Code     0  QCA6174_SCAQBAFM.sym ABSOLUTE
    rom_SLC_Get_BT_Operation_From_Phlr       0x1006bd25   Thumb Code     0  QCA6174_SCAQBAFM.sym ABSOLUTE
    rom_SLC_Get_Power_Level                  0x1006bd35   Thumb Code     0  QCA6174_SCAQBAFM.sym ABSOLUTE
    rom_SLC_Get_Active_Link_ID               0x1006bded   Thumb Code     0  QCA6174_SCAQBAFM.sym ABSOLUTE
    rom_SLC_Get_Trans_Time_By_Package        0x1006be59   Thumb Code     0  QCA6174_SCAQBAFM.sym ABSOLUTE
    rom_SLC_Get_Max_Package_Length           0x1006bf73   Thumb Code     0  QCA6174_SCAQBAFM.sym ABSOLUTE
    rom_SLC_Get_Duration_Time                0x1006c0bd   Thumb Code     0  QCA6174_SCAQBAFM.sym ABSOLUTE
    rom_SLC_Get_Acl_2_3_PktType              0x1006c2f9   Thumb Code     0  QCA6174_SCAQBAFM.sym ABSOLUTE
    rom_SLC_Get_Acl_PktType                  0x1006c349   Thumb Code     0  QCA6174_SCAQBAFM.sym ABSOLUTE
    rom_SYS_InitReleaseVersion               0x1006c3dd   Thumb Code     0  QCA6174_SCAQBAFM.sym ABSOLUTE
    rom_SDB_initTask                         0x1006c49d   Thumb Code     0  QCA6174_SCAQBAFM.sym ABSOLUTE
    rom_SDB_initPollMgr                      0x1006c4b5   Thumb Code     0  QCA6174_SCAQBAFM.sym ABSOLUTE
    rom_SDB_configTask                       0x1006c4e9   Thumb Code     0  QCA6174_SCAQBAFM.sym ABSOLUTE
    rom_SDB_updatePollMgr                    0x1006c5a7   Thumb Code     0  QCA6174_SCAQBAFM.sym ABSOLUTE
    rom_SDB_schedulePollMgr                  0x1006c76f   Thumb Code     0  QCA6174_SCAQBAFM.sym ABSOLUTE
    rom_SDB_resetTask                        0x1006c77d   Thumb Code     0  QCA6174_SCAQBAFM.sym ABSOLUTE
    rom_SDB_updateLadder                     0x1006c785   Thumb Code     0  QCA6174_SCAQBAFM.sym ABSOLUTE
    rom_SDB_scheduleBroadcast                0x1006c7af   Thumb Code     0  QCA6174_SCAQBAFM.sym ABSOLUTE
    rom_PM_BTCLK_Init                        0x1006c821   Thumb Code     0  QCA6174_SCAQBAFM.sym ABSOLUTE
    rom_PM_BTCLK_restoreClock                0x1006c825   Thumb Code     0  QCA6174_SCAQBAFM.sym ABSOLUTE
    rom_PM_BTCLK_saveClock                   0x1006c827   Thumb Code     0  QCA6174_SCAQBAFM.sym ABSOLUTE
    rom_PM_BTCLK_StartClockCalibration       0x1006c829   Thumb Code     0  QCA6174_SCAQBAFM.sym ABSOLUTE
    rom_PM_BTCLK_StopClockCalibration        0x1006c82b   Thumb Code     0  QCA6174_SCAQBAFM.sym ABSOLUTE
    rom_Ath_HCI_Init                         0x1006c82d   Thumb Code     0  QCA6174_SCAQBAFM.sym ABSOLUTE
    rom_Ath_HCI_Deinit                       0x1006c897   Thumb Code     0  QCA6174_SCAQBAFM.sym ABSOLUTE
    rom_GetFreeBthConnection                 0x1006c8b5   Thumb Code     0  QCA6174_SCAQBAFM.sym ABSOLUTE
    rom_FindFromBleConnList                  0x1006c8cb   Thumb Code     0  QCA6174_SCAQBAFM.sym ABSOLUTE
    rom_FreeBthConnection                    0x1006c8ef   Thumb Code     0  QCA6174_SCAQBAFM.sym ABSOLUTE
    rom_AddToBleConnection                   0x1006c901   Thumb Code     0  QCA6174_SCAQBAFM.sym ABSOLUTE
    rom_ath_ble_add_connection               0x1006c91b   Thumb Code     0  QCA6174_SCAQBAFM.sym ABSOLUTE
    rom_ath_ble_delete_connection            0x1006c947   Thumb Code     0  QCA6174_SCAQBAFM.sym ABSOLUTE
    rom_ath_le_hci_handle_command_complete   0x1006c959   Thumb Code     0  QCA6174_SCAQBAFM.sym ABSOLUTE
    rom_ath_le_hci_handle_completed_packets  0x1006c9ef   Thumb Code     0  QCA6174_SCAQBAFM.sym ABSOLUTE
    rom_ath_ble_hci_handle_connect_complete  0x1006ca29   Thumb Code     0  QCA6174_SCAQBAFM.sym ABSOLUTE
    rom_ath_ble_hci_handle_disconnect_complete 0x1006ca59   Thumb Code     0  QCA6174_SCAQBAFM.sym ABSOLUTE
    rom_Router_QueueHciEvtFromController     0x1006cad1   Thumb Code     0  QCA6174_SCAQBAFM.sym ABSOLUTE
    rom_Router_QueueAclDataFromController    0x1006cb19   Thumb Code     0  QCA6174_SCAQBAFM.sym ABSOLUTE
    rom_Router_InternalSendData              0x1006cb5d   Thumb Code     0  QCA6174_SCAQBAFM.sym ABSOLUTE
    rom_Router_SendBleHciCommand             0x1006cb8f   Thumb Code     0  QCA6174_SCAQBAFM.sym ABSOLUTE
    rom_Router_SendBleAclData                0x1006cbe5   Thumb Code     0  QCA6174_SCAQBAFM.sym ABSOLUTE
    rom_ath_le_ctrl_handle_event             0x1006cc97   Thumb Code     0  QCA6174_SCAQBAFM.sym ABSOLUTE
    rom_ath_le_ctrl_handle_l2cap_data        0x1006cd31   Thumb Code     0  QCA6174_SCAQBAFM.sym ABSOLUTE
    rom_ath_le_ctrl_handle_data              0x1006ce9d   Thumb Code     0  QCA6174_SCAQBAFM.sym ABSOLUTE
    rom_MpAllocateBtPacketX                  0x1006cf29   Thumb Code     0  QCA6174_SCAQBAFM.sym ABSOLUTE
    rom_MpFreeBtPacket                       0x1006cf59   Thumb Code     0  QCA6174_SCAQBAFM.sym ABSOLUTE
    rom_Ath_OS_DelayMS                       0x1006cf6d   Thumb Code     0  QCA6174_SCAQBAFM.sym ABSOLUTE
    rom_AthMutexInitialize                   0x1006cf6f   Thumb Code     0  QCA6174_SCAQBAFM.sym ABSOLUTE
    rom_AthEventInitialize                   0x1006cf71   Thumb Code     0  QCA6174_SCAQBAFM.sym ABSOLUTE
    rom_Ath_osSemTake                        0x1006cf73   Thumb Code     0  QCA6174_SCAQBAFM.sym ABSOLUTE
    rom_Ath_osSemGive                        0x1006cf75   Thumb Code     0  QCA6174_SCAQBAFM.sym ABSOLUTE
    rom_Ath_osEventTake                      0x1006cf77   Thumb Code     0  QCA6174_SCAQBAFM.sym ABSOLUTE
    rom_Ath_OS_LockStack                     0x1006cf7b   Thumb Code     0  QCA6174_SCAQBAFM.sym ABSOLUTE
    rom_Ath_OS_UnlockStack                   0x1006cf7d   Thumb Code     0  QCA6174_SCAQBAFM.sym ABSOLUTE
    rom_Ath_OS_LockStack_At_DpcLevel         0x1006cf7f   Thumb Code     0  QCA6174_SCAQBAFM.sym ABSOLUTE
    rom_Ath_OS_UnlockStackAt_DpcLevel        0x1006cf81   Thumb Code     0  QCA6174_SCAQBAFM.sym ABSOLUTE
    rom_Ath_osWaitEvm                        0x1006cf83   Thumb Code     0  QCA6174_SCAQBAFM.sym ABSOLUTE
    rom_Ath_OS_NotifyEvm                     0x1006cf8d   Thumb Code     0  QCA6174_SCAQBAFM.sym ABSOLUTE
    rom_Ath_OS_NotifyEvmAlways               0x1006cf9b   Thumb Code     0  QCA6174_SCAQBAFM.sym ABSOLUTE
    rom_Ath_OS_StopHardware                  0x1006cf9d   Thumb Code     0  QCA6174_SCAQBAFM.sym ABSOLUTE
    rom_Ath_OS_ResumeHardware                0x1006cfa5   Thumb Code     0  QCA6174_SCAQBAFM.sym ABSOLUTE
    rom_IsNotifyFlgNotSet                    0x1006cfad   Thumb Code     0  QCA6174_SCAQBAFM.sym ABSOLUTE
    rom_StackUtil_Init                       0x1006cfb1   Thumb Code     0  QCA6174_SCAQBAFM.sym ABSOLUTE
    rom_le_to_host16                         0x1006cfe1   Thumb Code     0  QCA6174_SCAQBAFM.sym ABSOLUTE
    rom_store_to_le16                        0x1006cfeb   Thumb Code     0  QCA6174_SCAQBAFM.sym ABSOLUTE
    rom_init_list_head                       0x1006cff3   Thumb Code     0  QCA6174_SCAQBAFM.sym ABSOLUTE
    rom_init_list_entry                      0x1006cff9   Thumb Code     0  QCA6174_SCAQBAFM.sym ABSOLUTE
    rom_is_entry_avalible                    0x1006d001   Thumb Code     0  QCA6174_SCAQBAFM.sym ABSOLUTE
    rom_is_list_empty                        0x1006d00b   Thumb Code     0  QCA6174_SCAQBAFM.sym ABSOLUTE
    rom_get_head_list                        0x1006d019   Thumb Code     0  QCA6174_SCAQBAFM.sym ABSOLUTE
    rom_get_tail_list                        0x1006d01d   Thumb Code     0  QCA6174_SCAQBAFM.sym ABSOLUTE
    rom_get_next_node                        0x1006d021   Thumb Code     0  QCA6174_SCAQBAFM.sym ABSOLUTE
    rom_is_node_connected                    0x1006d025   Thumb Code     0  QCA6174_SCAQBAFM.sym ABSOLUTE
    rom_insert_tail_list                     0x1006d03d   Thumb Code     0  QCA6174_SCAQBAFM.sym ABSOLUTE
    rom_insert_head_list                     0x1006d04b   Thumb Code     0  QCA6174_SCAQBAFM.sym ABSOLUTE
    rom_remove_head_list                     0x1006d059   Thumb Code     0  QCA6174_SCAQBAFM.sym ABSOLUTE
    rom_remove_entry_list                    0x1006d067   Thumb Code     0  QCA6174_SCAQBAFM.sym ABSOLUTE
    rom_is_node_on_list                      0x1006d079   Thumb Code     0  QCA6174_SCAQBAFM.sym ABSOLUTE
    rom_move_list                            0x1006d09b   Thumb Code     0  QCA6174_SCAQBAFM.sym ABSOLUTE
    rom_is_list_circular                     0x1006d0b5   Thumb Code     0  QCA6174_SCAQBAFM.sym ABSOLUTE
    rom_list_add                             0x1006d0dd   Thumb Code     0  QCA6174_SCAQBAFM.sym ABSOLUTE
    rom_list_add_tail                        0x1006d0e9   Thumb Code     0  QCA6174_SCAQBAFM.sym ABSOLUTE
    rom_list_del                             0x1006d0f5   Thumb Code     0  QCA6174_SCAQBAFM.sym ABSOLUTE
    rom_os_memcmp                            0x1006d101   Thumb Code     0  QCA6174_SCAQBAFM.sym ABSOLUTE
    rom_os_memset                            0x1006d119   Thumb Code     0  QCA6174_SCAQBAFM.sym ABSOLUTE
    rom_os_memcpy                            0x1006d127   Thumb Code     0  QCA6174_SCAQBAFM.sym ABSOLUTE
    rom_le_send_hci_command                  0x1006d131   Thumb Code     0  QCA6174_SCAQBAFM.sym ABSOLUTE
    rom_LeReadRxPowerTask                    0x1006d137   Thumb Code     0  QCA6174_SCAQBAFM.sym ABSOLUTE
    rom_LeReadRxPower                        0x1006d18f   Thumb Code     0  QCA6174_SCAQBAFM.sym ABSOLUTE
    rom_LeReadTxPowerTask                    0x1006d1c5   Thumb Code     0  QCA6174_SCAQBAFM.sym ABSOLUTE
    rom_LeReadTxPower                        0x1006d21d   Thumb Code     0  QCA6174_SCAQBAFM.sym ABSOLUTE
    rom_MeHandleLEDataSent                   0x1006d257   Thumb Code     0  QCA6174_SCAQBAFM.sym ABSOLUTE
    rom_MeHandleLEEncryptChange              0x1006d2a1   Thumb Code     0  QCA6174_SCAQBAFM.sym ABSOLUTE
    rom_MeHandleLEEncryptKeyRefresh          0x1006d2db   Thumb Code     0  QCA6174_SCAQBAFM.sym ABSOLUTE
    rom_Hci_Send_LE_L2Cap_Data               0x1006d30f   Thumb Code     0  QCA6174_SCAQBAFM.sym ABSOLUTE
    rom_MeHandleLEConnectComplete            0x1006d34f   Thumb Code     0  QCA6174_SCAQBAFM.sym ABSOLUTE
    rom_MeHandleLEDisconnectComplete         0x1006d359   Thumb Code     0  QCA6174_SCAQBAFM.sym ABSOLUTE
    rom_LeReadL2capData                      0x1006d3b7   Thumb Code     0  QCA6174_SCAQBAFM.sym ABSOLUTE
    rom_LeReadBufSizeCompleteTask            0x1006d421   Thumb Code     0  QCA6174_SCAQBAFM.sym ABSOLUTE
    rom_LeReadBufferSize                     0x1006d483   Thumb Code     0  QCA6174_SCAQBAFM.sym ABSOLUTE
    rom_LeSetEventMaskTask                   0x1006d48f   Thumb Code     0  QCA6174_SCAQBAFM.sym ABSOLUTE
    rom_LeSetEventMask                       0x1006d4df   Thumb Code     0  QCA6174_SCAQBAFM.sym ABSOLUTE
    rom_LeReadLocFeatureTask                 0x1006d4eb   Thumb Code     0  QCA6174_SCAQBAFM.sym ABSOLUTE
    rom_LeReadLocalBtaddr                    0x1006d595   Thumb Code     0  QCA6174_SCAQBAFM.sym ABSOLUTE
    rom_LeReadLocalFeature                   0x1006d5a1   Thumb Code     0  QCA6174_SCAQBAFM.sym ABSOLUTE
    rom_LeSetRandomAddrTask                  0x1006d5ad   Thumb Code     0  QCA6174_SCAQBAFM.sym ABSOLUTE
    rom_LeSetRandomAddress                   0x1006d5e5   Thumb Code     0  QCA6174_SCAQBAFM.sym ABSOLUTE
    rom_LeRandomNumTask                      0x1006d601   Thumb Code     0  QCA6174_SCAQBAFM.sym ABSOLUTE
    rom_LeWLSizeTask                         0x1006d657   Thumb Code     0  QCA6174_SCAQBAFM.sym ABSOLUTE
    rom_LeReadWhiteList                      0x1006d6a7   Thumb Code     0  QCA6174_SCAQBAFM.sym ABSOLUTE
    rom_LeClrWLTask                          0x1006d6b3   Thumb Code     0  QCA6174_SCAQBAFM.sym ABSOLUTE
    rom_LeClrWhiteList                       0x1006d6eb   Thumb Code     0  QCA6174_SCAQBAFM.sym ABSOLUTE
    rom_LeAddToWLTask                        0x1006d6f7   Thumb Code     0  QCA6174_SCAQBAFM.sym ABSOLUTE
    rom_LeAddToWL                            0x1006d72f   Thumb Code     0  QCA6174_SCAQBAFM.sym ABSOLUTE
    rom_LeRemoveFromWLTask                   0x1006d781   Thumb Code     0  QCA6174_SCAQBAFM.sym ABSOLUTE
    rom_LeRemoveFromWL                       0x1006d7d1   Thumb Code     0  QCA6174_SCAQBAFM.sym ABSOLUTE
    rom_LeEncryptTask                        0x1006d823   Thumb Code     0  QCA6174_SCAQBAFM.sym ABSOLUTE
    rom_LeEncrpt                             0x1006d877   Thumb Code     0  QCA6174_SCAQBAFM.sym ABSOLUTE
    rom_LeReadStateTask                      0x1006d8db   Thumb Code     0  QCA6174_SCAQBAFM.sym ABSOLUTE
    rom_LeReadSupportState                   0x1006d939   Thumb Code     0  QCA6174_SCAQBAFM.sym ABSOLUTE
    rom_LeSetAdvTask                         0x1006d945   Thumb Code     0  QCA6174_SCAQBAFM.sym ABSOLUTE
    rom_LeSetAdvParms                        0x1006d9dd   Thumb Code     0  QCA6174_SCAQBAFM.sym ABSOLUTE
    rom_LeSetAdvDataTask                     0x1006da41   Thumb Code     0  QCA6174_SCAQBAFM.sym ABSOLUTE
    rom_LeSetAdvData                         0x1006da79   Thumb Code     0  QCA6174_SCAQBAFM.sym ABSOLUTE
    rom_LeSetScanparmsTask                   0x1006daaf   Thumb Code     0  QCA6174_SCAQBAFM.sym ABSOLUTE
    rom_LeSetScanDataTask                    0x1006dae7   Thumb Code     0  QCA6174_SCAQBAFM.sym ABSOLUTE
    rom_LeSetScanData                        0x1006db1f   Thumb Code     0  QCA6174_SCAQBAFM.sym ABSOLUTE
    rom_LeEnableAdvTask                      0x1006db55   Thumb Code     0  QCA6174_SCAQBAFM.sym ABSOLUTE
    rom_LeEnableAdv                          0x1006db8d   Thumb Code     0  QCA6174_SCAQBAFM.sym ABSOLUTE
    rom_LeReadAdvPowerTask                   0x1006db9d   Thumb Code     0  QCA6174_SCAQBAFM.sym ABSOLUTE
    rom_LeReadAdvTxPower                     0x1006dbdd   Thumb Code     0  QCA6174_SCAQBAFM.sym ABSOLUTE
    rom_LeDisconnectTask                     0x1006dbe9   Thumb Code     0  QCA6174_SCAQBAFM.sym ABSOLUTE
    rom_LeDisconnect                         0x1006dc43   Thumb Code     0  QCA6174_SCAQBAFM.sym ABSOLUTE
    rom_LeUpdateConnTask                     0x1006dc8b   Thumb Code     0  QCA6174_SCAQBAFM.sym ABSOLUTE
    rom_LeUpdateConn                         0x1006dce5   Thumb Code     0  QCA6174_SCAQBAFM.sym ABSOLUTE
    rom_LeSetHostChnTask                     0x1006dd65   Thumb Code     0  QCA6174_SCAQBAFM.sym ABSOLUTE
    rom_LeSetHostChn                         0x1006ddb5   Thumb Code     0  QCA6174_SCAQBAFM.sym ABSOLUTE
    rom_LeReadChnMapTask                     0x1006de15   Thumb Code     0  QCA6174_SCAQBAFM.sym ABSOLUTE
    rom_LeReadChnMap                         0x1006de9d   Thumb Code     0  QCA6174_SCAQBAFM.sym ABSOLUTE
    rom_LeRemoteFeatureTask                  0x1006deb7   Thumb Code     0  QCA6174_SCAQBAFM.sym ABSOLUTE
    rom_LeRemoteFeature                      0x1006df13   Thumb Code     0  QCA6174_SCAQBAFM.sym ABSOLUTE
    rom_LeLTKReplyTask                       0x1006df2f   Thumb Code     0  QCA6174_SCAQBAFM.sym ABSOLUTE
    rom_LeLTKReply                           0x1006df93   Thumb Code     0  QCA6174_SCAQBAFM.sym ABSOLUTE
    rom_LeLTKNegReplyTask                    0x1006dfe1   Thumb Code     0  QCA6174_SCAQBAFM.sym ABSOLUTE
    rom_LeLTKNegReply                        0x1006e03f   Thumb Code     0  QCA6174_SCAQBAFM.sym ABSOLUTE
    rom_hci_init_radio                       0x1006e05b   Thumb Code     0  QCA6174_SCAQBAFM.sym ABSOLUTE
    rom_hci_uninit_radio                     0x1006e08d   Thumb Code     0  QCA6174_SCAQBAFM.sym ABSOLUTE
    rom_os_init                              0x1006e0a7   Thumb Code     0  QCA6174_SCAQBAFM.sym ABSOLUTE
    rom_os_deinit                            0x1006e0ab   Thumb Code     0  QCA6174_SCAQBAFM.sym ABSOLUTE
    rom_LE_HandleMetaEvent                   0x1006e0af   Thumb Code     0  QCA6174_SCAQBAFM.sym ABSOLUTE
    rom_LE_HandleHCIEvent                    0x1006e25d   Thumb Code     0  QCA6174_SCAQBAFM.sym ABSOLUTE
    rom_BLE_Init                             0x1006e4bd   Thumb Code     0  QCA6174_SCAQBAFM.sym ABSOLUTE
    rom_BLE_Exit                             0x1006e4eb   Thumb Code     0  QCA6174_SCAQBAFM.sym ABSOLUTE
    rom_BLE_Set_ATT_Timeout                  0x1006e4fb   Thumb Code     0  QCA6174_SCAQBAFM.sym ABSOLUTE
    rom_gap_get_rtm_dev_linkstatus           0x1006e513   Thumb Code     0  QCA6174_SCAQBAFM.sym ABSOLUTE
    rom_gap_get_rmt_dev_rssi                 0x1006e529   Thumb Code     0  QCA6174_SCAQBAFM.sym ABSOLUTE
    rom_gap_set_my_dev_name                  0x1006e53b   Thumb Code     0  QCA6174_SCAQBAFM.sym ABSOLUTE
    rom_gap_set_my_dev_appearance            0x1006e56d   Thumb Code     0  QCA6174_SCAQBAFM.sym ABSOLUTE
    rom_gap_start_discoverable_mode          0x1006e599   Thumb Code     0  QCA6174_SCAQBAFM.sym ABSOLUTE
    rom_gap_stop_discoverable_mode           0x1006e5a9   Thumb Code     0  QCA6174_SCAQBAFM.sym ABSOLUTE
    rom_gap_update_conn                      0x1006e5b7   Thumb Code     0  QCA6174_SCAQBAFM.sym ABSOLUTE
    rom_gap_set_host_chan_map                0x1006e5c9   Thumb Code     0  QCA6174_SCAQBAFM.sym ABSOLUTE
    rom_gap_read_host_chan_map               0x1006e5d9   Thumb Code     0  QCA6174_SCAQBAFM.sym ABSOLUTE
    rom_gap_set_passkey                      0x1006e5e5   Thumb Code     0  QCA6174_SCAQBAFM.sym ABSOLUTE
    rom_gap_encrypt                          0x1006e5f7   Thumb Code     0  QCA6174_SCAQBAFM.sym ABSOLUTE
    rom_gap_bond                             0x1006e607   Thumb Code     0  QCA6174_SCAQBAFM.sym ABSOLUTE
    rom_gap_remove_bond                      0x1006e61b   Thumb Code     0  QCA6174_SCAQBAFM.sym ABSOLUTE
    rom_gap_disconnect_conn                  0x1006e657   Thumb Code     0  QCA6174_SCAQBAFM.sym ABSOLUTE
    rom_gap_set_pass_through_mode            0x1006e669   Thumb Code     0  QCA6174_SCAQBAFM.sym ABSOLUTE
    rom_gap_passthru_hci_command             0x1006e66f   Thumb Code     0  QCA6174_SCAQBAFM.sym ABSOLUTE
    rom_gap_set_my_dev_prefer_conn_param     0x1006e6ad   Thumb Code     0  QCA6174_SCAQBAFM.sym ABSOLUTE
    rom_gap_set_tx_power                     0x1006e6b9   Thumb Code     0  QCA6174_SCAQBAFM.sym ABSOLUTE
    rom_gatt_register_server_callback        0x1006e6d9   Thumb Code     0  QCA6174_SCAQBAFM.sym ABSOLUTE
    rom__customer_gap_user_callback          0x1006e6e5   Thumb Code     0  QCA6174_SCAQBAFM.sym ABSOLUTE
    rom_gap_register_callback                0x1006e713   Thumb Code     0  QCA6174_SCAQBAFM.sym ABSOLUTE
    rom_gap_set_adv_param                    0x1006e749   Thumb Code     0  QCA6174_SCAQBAFM.sym ABSOLUTE
    rom_gap_set_adv_data                     0x1006e75f   Thumb Code     0  QCA6174_SCAQBAFM.sym ABSOLUTE
    rom_gap_set_scan_resp_data               0x1006e78d   Thumb Code     0  QCA6174_SCAQBAFM.sym ABSOLUTE
    rom_gap_set_random_address               0x1006e7af   Thumb Code     0  QCA6174_SCAQBAFM.sym ABSOLUTE
    rom_gap_set_adv_enable                   0x1006e7cd   Thumb Code     0  QCA6174_SCAQBAFM.sym ABSOLUTE
    rom_compile                              0x1006e7e5   Thumb Code     0  QCA6174_SCAQBAFM.sym ABSOLUTE
    rom_pru_gap_cb                           0x1006e93d   Thumb Code     0  QCA6174_SCAQBAFM.sym ABSOLUTE
    rom_pru_gatt_cb                          0x1006ea19   Thumb Code     0  QCA6174_SCAQBAFM.sym ABSOLUTE
    rom_pru_periodicTask                     0x1006eb91   Thumb Code     0  QCA6174_SCAQBAFM.sym ABSOLUTE
    rom_pru_init                             0x1006ecab   Thumb Code     0  QCA6174_SCAQBAFM.sym ABSOLUTE
    rom_pru_sendNotification                 0x1006ee2b   Thumb Code     0  QCA6174_SCAQBAFM.sym ABSOLUTE
    rom_PRU_ModeTransit_sendAlert            0x1006eea9   Thumb Code     0  QCA6174_SCAQBAFM.sym ABSOLUTE
    rom_PRUAPI_disableBuck                   0x1006ef15   Thumb Code     0  QCA6174_SCAQBAFM.sym ABSOLUTE
    rom_PRUAPI_adjustVrect_min               0x1006ef43   Thumb Code     0  QCA6174_SCAQBAFM.sym ABSOLUTE
    rom_PRUAPI_SetChargeOutput               0x1006efb3   Thumb Code     0  QCA6174_SCAQBAFM.sym ABSOLUTE
    rom_PRUAPI_SetCurrentLimit               0x1006efbd   Thumb Code     0  QCA6174_SCAQBAFM.sym ABSOLUTE
    rom_PRUAPI_EnableDataNotify              0x1006efc7   Thumb Code     0  QCA6174_SCAQBAFM.sym ABSOLUTE
    rom_PRUAPI_EnableAlertNotify             0x1006efd1   Thumb Code     0  QCA6174_SCAQBAFM.sym ABSOLUTE
    rom_PRUAPI_EnablePowerApplyNotify        0x1006efdb   Thumb Code     0  QCA6174_SCAQBAFM.sym ABSOLUTE
    rom_PRUAPI_updatePruStaticParam          0x1006efe1   Thumb Code     0  QCA6174_SCAQBAFM.sym ABSOLUTE
    rom_PRUAPI_updatePruDynamicParam         0x1006f073   Thumb Code     0  QCA6174_SCAQBAFM.sym ABSOLUTE
    rom_PRUAPI_updateAppParam                0x1006f14d   Thumb Code     0  QCA6174_SCAQBAFM.sym ABSOLUTE
    rom_PRUAPI_GetChargingStatus             0x1006f207   Thumb Code     0  QCA6174_SCAQBAFM.sym ABSOLUTE
    rom_PRUAPI_StartHandoffToHost            0x1006f21b   Thumb Code     0  QCA6174_SCAQBAFM.sym ABSOLUTE
    rom_PRUAPI_StartHandoffToFw              0x1006f235   Thumb Code     0  QCA6174_SCAQBAFM.sym ABSOLUTE
    rom_pru_defineState                      0x1006f247   Thumb Code     0  QCA6174_SCAQBAFM.sym ABSOLUTE
    rom_pru_setState                         0x1006f2a3   Thumb Code     0  QCA6174_SCAQBAFM.sym ABSOLUTE
    rom_WIP_TMR_CreateTimer                  0x1006f35d   Thumb Code     0  QCA6174_SCAQBAFM.sym ABSOLUTE
    rom_WIP_TMR_StartTimer                   0x1006f3a1   Thumb Code     0  QCA6174_SCAQBAFM.sym ABSOLUTE
    rom_WIP_TMR_StopTimer                    0x1006f3df   Thumb Code     0  QCA6174_SCAQBAFM.sym ABSOLUTE
    rom_WIP_TMR_DeleteTimer                  0x1006f417   Thumb Code     0  QCA6174_SCAQBAFM.sym ABSOLUTE
    rom_WIP_TMR_AllocTimerTblIndex           0x1006f455   Thumb Code     0  QCA6174_SCAQBAFM.sym ABSOLUTE
    rom_WIP_TMR_FreeTimerTblIndex            0x1006f481   Thumb Code     0  QCA6174_SCAQBAFM.sym ABSOLUTE
    rom_WIP_TMR_RemoveTimer                  0x1006f495   Thumb Code     0  QCA6174_SCAQBAFM.sym ABSOLUTE
    rom_WIP_TMR_InsertTimer                  0x1006f4b9   Thumb Code     0  QCA6174_SCAQBAFM.sym ABSOLUTE
    rom_WIP_TMR_FreeTimer                    0x1006f4e1   Thumb Code     0  QCA6174_SCAQBAFM.sym ABSOLUTE
    rom_WIP_TMR_EnqueueActiveList            0x1006f507   Thumb Code     0  QCA6174_SCAQBAFM.sym ABSOLUTE
    rom_WIP_TMR_DequeueActiveList            0x1006f551   Thumb Code     0  QCA6174_SCAQBAFM.sym ABSOLUTE
    rom_WIP_TMR_GetTimerActiveList           0x1006f585   Thumb Code     0  QCA6174_SCAQBAFM.sym ABSOLUTE
    rom_WIP_TMR_SetTimer                     0x1006f597   Thumb Code     0  QCA6174_SCAQBAFM.sym ABSOLUTE
    rom_WIP_LE_STACK_InitMemPool             0x1006f5e5   Thumb Code     0  QCA6174_SCAQBAFM.sym ABSOLUTE
    rom_WIP_LE_STACK_DeinitMemPool           0x1006f679   Thumb Code     0  QCA6174_SCAQBAFM.sym ABSOLUTE
    rom_WIP_LE_STACK_malloc                  0x1006f699   Thumb Code     0  QCA6174_SCAQBAFM.sym ABSOLUTE
    rom_WIP_LE_STACK_free                    0x1006f6e5   Thumb Code     0  QCA6174_SCAQBAFM.sym ABSOLUTE
    rom_WIP_LE_STACK_Reset                   0x1006f733   Thumb Code     0  QCA6174_SCAQBAFM.sym ABSOLUTE
    rom_WIP_LE_STACK_FILE_SYS_InitFileSystem 0x1006f7ad   Thumb Code     0  QCA6174_SCAQBAFM.sym ABSOLUTE
    rom_WIP_LE_STACK_FILE_SYS_ResetFileSystem 0x1006f7d1   Thumb Code     0  QCA6174_SCAQBAFM.sym ABSOLUTE
    rom_WIP_LE_STACK_FILE_SYS_CheckFileStatus 0x1006f807   Thumb Code     0  QCA6174_SCAQBAFM.sym ABSOLUTE
    rom_WIP_LE_STACK_FILE_SYS_FileInit       0x1006f837   Thumb Code     0  QCA6174_SCAQBAFM.sym ABSOLUTE
    rom_WIP_LE_STACK_FILE_SYS_FindDeviceEntry 0x1006f893   Thumb Code     0  QCA6174_SCAQBAFM.sym ABSOLUTE
    rom_WIP_LE_STACK_FILE_SYS_GetHeader      0x1006f8c5   Thumb Code     0  QCA6174_SCAQBAFM.sym ABSOLUTE
    rom_WIP_LE_STACK_FILE_SYS_AccessEntry    0x1006f8d7   Thumb Code     0  QCA6174_SCAQBAFM.sym ABSOLUTE
    rom_WIP_LE_STACK_FILE_SYS_CommitFile     0x1006f909   Thumb Code     0  QCA6174_SCAQBAFM.sym ABSOLUTE
    rom_WIP_LE_STACK_FILE_SYS_LoadFile       0x1006f9b5   Thumb Code     0  QCA6174_SCAQBAFM.sym ABSOLUTE
    rom_WIP_LE_STACK_FILE_SYS_AddHeader      0x1006fa6f   Thumb Code     0  QCA6174_SCAQBAFM.sym ABSOLUTE
    rom_WIP_LE_STACK_FILE_SYS_AddEntry       0x1006fa89   Thumb Code     0  QCA6174_SCAQBAFM.sym ABSOLUTE
    rom_WIP_LE_STACK_FILE_SYS_DeleteEntry    0x1006facd   Thumb Code     0  QCA6174_SCAQBAFM.sym ABSOLUTE
    rom_WIP_LE_STACK_FILE_SYS_DeleteAllEntries 0x1006faf1   Thumb Code     0  QCA6174_SCAQBAFM.sym ABSOLUTE
    rom_WIP_LE_STACK_FILE_SYS_GetActiveEntryNum 0x1006fb07   Thumb Code     0  QCA6174_SCAQBAFM.sym ABSOLUTE
    rom_WIP_LE_STACK_FILE_SYS_EvictEntry     0x1006fb11   Thumb Code     0  QCA6174_SCAQBAFM.sym ABSOLUTE
    rom_WIP_LE_STACK_FILE_SYS_GetFirstEntry  0x1006fb33   Thumb Code     0  QCA6174_SCAQBAFM.sym ABSOLUTE
    rom_WIP_LE_STACK_FILE_SYS_GetNextEntry   0x1006fb3f   Thumb Code     0  QCA6174_SCAQBAFM.sym ABSOLUTE
    rom_WIP_LE_STACK_FILE_SYS_Init           0x1006fb4b   Thumb Code     0  QCA6174_SCAQBAFM.sym ABSOLUTE
    rom_coex_get_service_object_internal_v02 0x1006fbbd   Thumb Code     0  QCA6174_SCAQBAFM.sym ABSOLUTE
    rom_qmi_idl_get_idl_version              0x1006fbd5   Thumb Code     0  QCA6174_SCAQBAFM.sym ABSOLUTE
    rom_qmi_idl_get_idl_minor_version        0x1006fc0f   Thumb Code     0  QCA6174_SCAQBAFM.sym ABSOLUTE
    rom_qmi_idl_get_service_id               0x1006fc4f   Thumb Code     0  QCA6174_SCAQBAFM.sym ABSOLUTE
    rom_qmi_idl_get_max_service_len          0x1006fc89   Thumb Code     0  QCA6174_SCAQBAFM.sym ABSOLUTE
    rom_qmi_idl_get_max_message_len          0x1006fcc3   Thumb Code     0  QCA6174_SCAQBAFM.sym ABSOLUTE
    rom_qmi_idl_get_message_c_struct_len     0x1006fd27   Thumb Code     0  QCA6174_SCAQBAFM.sym ABSOLUTE
    rom_qmi_idl_get_max_c_struct_len         0x1006fd77   Thumb Code     0  QCA6174_SCAQBAFM.sym ABSOLUTE
    rom_qmi_idl_inherit_service_object       0x1006fddb   Thumb Code     0  QCA6174_SCAQBAFM.sym ABSOLUTE
    rom_qmi_idl_get_inherited_service_object 0x1006fe21   Thumb Code     0  QCA6174_SCAQBAFM.sym ABSOLUTE
    rom_wci2_hdlc_frame_and_escape           0x1006fe3d   Thumb Code     0  QCA6174_SCAQBAFM.sym ABSOLUTE
    rom_wci2_hdlc_unframe                    0x1006ff2b   Thumb Code     0  QCA6174_SCAQBAFM.sym ABSOLUTE
    rom_wci2_hdlc_buffer_and_unescape        0x1006ff73   Thumb Code     0  QCA6174_SCAQBAFM.sym ABSOLUTE
    rom_PFAL_ACI_HW_Lock                     0x1006fff9   Thumb Code     0  QCA6174_SCAQBAFM.sym ABSOLUTE
    rom_PFAL_ACI_HW_Unlock                   0x10070037   Thumb Code     0  QCA6174_SCAQBAFM.sym ABSOLUTE
    rom_PFAL_ACI_RINGBUF_Read                0x1007004b   Thumb Code     0  QCA6174_SCAQBAFM.sym ABSOLUTE
    rom_PFAL_ACI_RINGBUF_Write               0x1007009d   Thumb Code     0  QCA6174_SCAQBAFM.sym ABSOLUTE
    rom_PFAL_ACI_RINGBUF_PeekRead            0x100700ef   Thumb Code     0  QCA6174_SCAQBAFM.sym ABSOLUTE
    rom_PFAL_ACI_RINGBUF_UpdateRead          0x1007012d   Thumb Code     0  QCA6174_SCAQBAFM.sym ABSOLUTE
    rom_PFAL_ACI_RINGBUF_PeekWrite           0x1007015d   Thumb Code     0  QCA6174_SCAQBAFM.sym ABSOLUTE
    rom_PFAL_ACI_RINGBUF_UpdateWrite         0x1007019b   Thumb Code     0  QCA6174_SCAQBAFM.sym ABSOLUTE
    rom_PFAL_ACI_RINGBUF_GetCount            0x100701cb   Thumb Code     0  QCA6174_SCAQBAFM.sym ABSOLUTE
    rom_PFAL_ACI_RINGBUF_StuffSamples        0x100701e5   Thumb Code     0  QCA6174_SCAQBAFM.sym ABSOLUTE
    rom_PFAL_ACI_RINGBUF_FillSamples         0x1007023f   Thumb Code     0  QCA6174_SCAQBAFM.sym ABSOLUTE
    secencarm_aes_set_key                    0x10070299   Thumb Code     0  QCA6174_SCAQBAFM.sym ABSOLUTE
    secencarm_aes_encrypt_block              0x100704bb   Thumb Code     0  QCA6174_SCAQBAFM.sym ABSOLUTE
    OSTimeDly                                0x10070f61   Thumb Code     0  QCA6174_SCAQBAFM.sym ABSOLUTE
    OSTimeDlyHMSM                            0x10070fbd   Thumb Code     0  QCA6174_SCAQBAFM.sym ABSOLUTE
    OSTimeDlyResume                          0x10071007   Thumb Code     0  QCA6174_SCAQBAFM.sym ABSOLUTE
    OSTimeGet                                0x100710bd   Thumb Code     0  QCA6174_SCAQBAFM.sym ABSOLUTE
    OSTimeSet                                0x100710e3   Thumb Code     0  QCA6174_SCAQBAFM.sym ABSOLUTE
    rom_PFAL_VOICE_PCM_Alloc                 0x10071129   Thumb Code     0  QCA6174_SCAQBAFM.sym ABSOLUTE
    rom_PFAL_VOICE_PCM_Free                  0x1007112f   Thumb Code     0  QCA6174_SCAQBAFM.sym ABSOLUTE
    rom_PFAL_VOICE_PCM_Config                0x10071135   Thumb Code     0  QCA6174_SCAQBAFM.sym ABSOLUTE
    rom_PFAL_VOICE_PCM_Get_Sample_Count      0x10071149   Thumb Code     0  QCA6174_SCAQBAFM.sym ABSOLUTE
    PFAL_VOICE_PCM_Start                     0x10071173   Thumb Code     0  QCA6174_SCAQBAFM.sym ABSOLUTE
    PFAL_VOICE_PCM_Stop                      0x100711df   Thumb Code     0  QCA6174_SCAQBAFM.sym ABSOLUTE
    PFAL_VOICE_PCM_Is_Ready                  0x100711ef   Thumb Code     0  QCA6174_SCAQBAFM.sym ABSOLUTE
    PFAL_VOICE_PCM_Get_Throughput_Unit       0x100711f5   Thumb Code     0  QCA6174_SCAQBAFM.sym ABSOLUTE
    PFAL_VOICE_PCM_Get_Sample_Size           0x100711f9   Thumb Code     0  QCA6174_SCAQBAFM.sym ABSOLUTE
    PFAL_VOICE_PCM_Get_Sink_Sample_Count     0x100711ff   Thumb Code     0  QCA6174_SCAQBAFM.sym ABSOLUTE
    PFAL_VOICE_PCM_Get_Sink_Free_Space       0x10071209   Thumb Code     0  QCA6174_SCAQBAFM.sym ABSOLUTE
    PFAL_VOICE_PCM_Get_Empty_Smpl_Buff_from_Sink 0x1007122b   Thumb Code     0  QCA6174_SCAQBAFM.sym ABSOLUTE
    PFAL_VOICE_PCM_Return_Smpl_with_Status_to_Sink 0x1007126d   Thumb Code     0  QCA6174_SCAQBAFM.sym ABSOLUTE
    PFAL_VOICE_PCM_Get_Source_Sample_Count   0x1007128b   Thumb Code     0  QCA6174_SCAQBAFM.sym ABSOLUTE
    PFAL_VOICE_PCM_Get_Samples_from_Source   0x10071295   Thumb Code     0  QCA6174_SCAQBAFM.sym ABSOLUTE
    PFAL_VOICE_PCM_Return_Emp_Smpl_Buff_to_Source 0x100712d5   Thumb Code     0  QCA6174_SCAQBAFM.sym ABSOLUTE
    PFAL_VOICE_PCM_Fill_TxBuffs              0x100712f3   Thumb Code     0  QCA6174_SCAQBAFM.sym ABSOLUTE
    PFAL_VOICE_PCM_Fill_RxBuffs              0x100712ff   Thumb Code     0  QCA6174_SCAQBAFM.sym ABSOLUTE
    rom_PFAL_VOICE_PCM_Init                  0x1007130b   Thumb Code     0  QCA6174_SCAQBAFM.sym ABSOLUTE
    PFAL_VOICE_NBS_Init                      0x10071391   Thumb Code     0  QCA6174_SCAQBAFM.sym ABSOLUTE
    PFAL_VOICE_NBS_Start                     0x1007139f   Thumb Code     0  QCA6174_SCAQBAFM.sym ABSOLUTE
    rom_PFAL_VOICE_Handle_Transcode_Done     0x10071433   Thumb Code     0  QCA6174_SCAQBAFM.sym ABSOLUTE
    PFAL_VOICE_NBS_ProcessAudioMicData       0x1007145b   Thumb Code     0  QCA6174_SCAQBAFM.sym ABSOLUTE
    PFAL_VOICE_NBS_ProcessAudioSpkrData      0x100716d1   Thumb Code     0  QCA6174_SCAQBAFM.sym ABSOLUTE
    PFAL_VOICE_NBS_GetSpkrClkOffset          0x10071b73   Thumb Code     0  QCA6174_SCAQBAFM.sym ABSOLUTE
    PFAL_VOICE_NBS_GetMicClkOffset           0x10071b85   Thumb Code     0  QCA6174_SCAQBAFM.sym ABSOLUTE
    PFAL_VOICE_NBS_Proc_Start                0x10071c01   Thumb Code     0  QCA6174_SCAQBAFM.sym ABSOLUTE
    PFAL_VOICE_NBS_Proc_Handle_Data_from_Air 0x10071c17   Thumb Code     0  QCA6174_SCAQBAFM.sym ABSOLUTE
    rom_PFAL_VOICE_NBS_Proc_Handle_Rx_Transcoding_Done 0x10071c1f   Thumb Code     0  QCA6174_SCAQBAFM.sym ABSOLUTE
    PFAL_VOICE_NBS_Proc_Prepare_Data_to_Air  0x10071c21   Thumb Code     0  QCA6174_SCAQBAFM.sym ABSOLUTE
    rom_PFAL_VOICE_NBS_Proc_Handle_Tx_Transcoding_Done 0x10071c43   Thumb Code     0  QCA6174_SCAQBAFM.sym ABSOLUTE
    PFAL_VOICE_NBS_Proc_Update               0x10071c45   Thumb Code     0  QCA6174_SCAQBAFM.sym ABSOLUTE
    PFAL_VOICE_NBS_Proc_Stop                 0x10071c47   Thumb Code     0  QCA6174_SCAQBAFM.sym ABSOLUTE
    rom_PFAL_VOICE_NBS_Proc_Init             0x10071c49   Thumb Code     0  QCA6174_SCAQBAFM.sym ABSOLUTE
    rom_PFAL_VOICE_NBS_patch_hook            0x10071c9d   Thumb Code     0  QCA6174_SCAQBAFM.sym ABSOLUTE
    PFAL_VOICE_WBS_Init                      0x10071cc5   Thumb Code     0  QCA6174_SCAQBAFM.sym ABSOLUTE
    PFAL_VOICE_WBS_Start                     0x10071d13   Thumb Code     0  QCA6174_SCAQBAFM.sym ABSOLUTE
    PFAL_VOICE_WBS_ProcessAudioSpkrData      0x10071d6f   Thumb Code     0  QCA6174_SCAQBAFM.sym ABSOLUTE
    rom_PFAL_VOICE_WBS_ReadMicSample         0x10071f41   Thumb Code     0  QCA6174_SCAQBAFM.sym ABSOLUTE
    rom_PFAL_VOICE_WBS_Encode                0x10072183   Thumb Code     0  QCA6174_SCAQBAFM.sym ABSOLUTE
    rom_PFAL_VOICE_WBS_Decode                0x100721cf   Thumb Code     0  QCA6174_SCAQBAFM.sym ABSOLUTE
    rom_PFAL_VOICE_WBS_WriteSpkrSample       0x10072239   Thumb Code     0  QCA6174_SCAQBAFM.sym ABSOLUTE
    PFAL_VOICE_WBS_ProcessAudioMicData       0x100723d7   Thumb Code     0  QCA6174_SCAQBAFM.sym ABSOLUTE
    rom_PFAL_VOICE_WBS_PLC                   0x10072475   Thumb Code     0  QCA6174_SCAQBAFM.sym ABSOLUTE
    PFAL_VOICE_WBS_GetSpkrClkOffset          0x100724b5   Thumb Code     0  QCA6174_SCAQBAFM.sym ABSOLUTE
    PFAL_VOICE_WBS_GetMicClkOffset           0x100724c7   Thumb Code     0  QCA6174_SCAQBAFM.sym ABSOLUTE
    rom_PFAL_VOICE_WBS_RecoverChecksumError  0x100724eb   Thumb Code     0  QCA6174_SCAQBAFM.sym ABSOLUTE
    PFAL_VOICE_WBS_Proc_Start                0x10072599   Thumb Code     0  QCA6174_SCAQBAFM.sym ABSOLUTE
    PFAL_VOICE_WBS_Proc_Handle_Data_from_Air 0x100725ad   Thumb Code     0  QCA6174_SCAQBAFM.sym ABSOLUTE
    rom_PFAL_VOICE_WBS_Proc_Handle_Rx_Transcoding_Done 0x100725b5   Thumb Code     0  QCA6174_SCAQBAFM.sym ABSOLUTE
    PFAL_VOICE_WBS_Proc_Prepare_Data_to_Air  0x100725b7   Thumb Code     0  QCA6174_SCAQBAFM.sym ABSOLUTE
    rom_PFAL_VOICE_WBS_Proc_Handle_Tx_Transcoding_Done 0x100725b9   Thumb Code     0  QCA6174_SCAQBAFM.sym ABSOLUTE
    PFAL_VOICE_WBS_Proc_Update               0x100725bb   Thumb Code     0  QCA6174_SCAQBAFM.sym ABSOLUTE
    PFAL_VOICE_WBS_Proc_Stop                 0x100725bd   Thumb Code     0  QCA6174_SCAQBAFM.sym ABSOLUTE
    PFAL_VOICE_WBS_Proc_Init                 0x100725bf   Thumb Code     0  QCA6174_SCAQBAFM.sym ABSOLUTE
    rom_USB_TXP_HIF_PA_ActionHandle          0x10072615   Thumb Code     0  QCA6174_SCAQBAFM.sym ABSOLUTE
    rom_USB_TXP_SetHIF_Callback              0x10072623   Thumb Code     0  QCA6174_SCAQBAFM.sym ABSOLUTE
    rom_USB_TXP_ClearHIF_Callback            0x10072653   Thumb Code     0  QCA6174_SCAQBAFM.sym ABSOLUTE
    rom_PFAL_USB_TXP_Activate                0x1007265f   Thumb Code     0  QCA6174_SCAQBAFM.sym ABSOLUTE
    rom_PFAL_USB_TXP_Deactivate              0x10072669   Thumb Code     0  QCA6174_SCAQBAFM.sym ABSOLUTE
    PFAL_USB_Init                            0x10072673   Thumb Code     0  QCA6174_SCAQBAFM.sym ABSOLUTE
    PFAL_USB_Reset                           0x1007268d   Thumb Code     0  QCA6174_SCAQBAFM.sym ABSOLUTE
    PFAL_USB_Write                           0x10072693   Thumb Code     0  QCA6174_SCAQBAFM.sym ABSOLUTE
    PFAL_USB_SleepPreProcess                 0x100726cd   Thumb Code     0  QCA6174_SCAQBAFM.sym ABSOLUTE
    PFAL_USB_DeepSleepEnter                  0x100726ef   Thumb Code     0  QCA6174_SCAQBAFM.sym ABSOLUTE
    PFAL_USB_DeepSleepExit                   0x100726ff   Thumb Code     0  QCA6174_SCAQBAFM.sym ABSOLUTE
    PFAL_USB_Timer                           0x10072711   Thumb Code     0  QCA6174_SCAQBAFM.sym ABSOLUTE
    PFAL_USB_Handle                          0x10072717   Thumb Code     0  QCA6174_SCAQBAFM.sym ABSOLUTE
    rom_USB_TXP_SendE                        0x1007271d   Thumb Code     0  QCA6174_SCAQBAFM.sym ABSOLUTE
    PFAL_USB_LogData                         0x1007272b   Thumb Code     0  QCA6174_SCAQBAFM.sym ABSOLUTE
    PFAL_USB_WriteEventImmediate             0x1007272d   Thumb Code     0  QCA6174_SCAQBAFM.sym ABSOLUTE
    rom_USB_TXP_ActiveRetry                  0x1007272f   Thumb Code     0  QCA6174_SCAQBAFM.sym ABSOLUTE
    rom_USB_TXP_Send_Data_Active             0x10072799   Thumb Code     0  QCA6174_SCAQBAFM.sym ABSOLUTE
    rom_USB_TXP_Send_Data_InActive           0x10072889   Thumb Code     0  QCA6174_SCAQBAFM.sym ABSOLUTE
    rom_USB_BT_EvtDone_Callback              0x10072a15   Thumb Code     0  QCA6174_SCAQBAFM.sym ABSOLUTE
    rom_USB_BT_SCO_Build_Pkt                 0x10072a3b   Thumb Code     0  QCA6174_SCAQBAFM.sym ABSOLUTE
    rom_USB_HandleIncompISOOUTInterrupt      0x10072a5b   Thumb Code     0  QCA6174_SCAQBAFM.sym ABSOLUTE
    rom_USB_HandleIncompISOINInterrupt       0x10072acd   Thumb Code     0  QCA6174_SCAQBAFM.sym ABSOLUTE
    rom_USB_BT_Start_Tx                      0x10072b43   Thumb Code     0  QCA6174_SCAQBAFM.sym ABSOLUTE
    rom_USB_SCOLinkUp                        0x10072be9   Thumb Code     0  QCA6174_SCAQBAFM.sym ABSOLUTE
    rom_USB_SCOLinkDown                      0x10072beb   Thumb Code     0  QCA6174_SCAQBAFM.sym ABSOLUTE
    rom_BT_RxACL_Remain                      0x10072c3d   Thumb Code     0  QCA6174_SCAQBAFM.sym ABSOLUTE
    rom_USB_BT_RxDone_Hook                   0x10072c63   Thumb Code     0  QCA6174_SCAQBAFM.sym ABSOLUTE
    rom_USB_BT_RxDone                        0x10072c8b   Thumb Code     0  QCA6174_SCAQBAFM.sym ABSOLUTE
    BT_Intfc_Get_Desc                        0x10072d7f   Thumb Code     0  QCA6174_SCAQBAFM.sym ABSOLUTE
    rom_BT_Intfc0_Handle_Class_Req           0x1007301f   Thumb Code     0  QCA6174_SCAQBAFM.sym ABSOLUTE
    BT_Intfc0_Handle_Ctrl                    0x10073057   Thumb Code     0  QCA6174_SCAQBAFM.sym ABSOLUTE
    BT_Intfc1_Handle_Ctrl                    0x10073083   Thumb Code     0  QCA6174_SCAQBAFM.sym ABSOLUTE
    BT_Intfc1_Stop_EPs                       0x1007308d   Thumb Code     0  QCA6174_SCAQBAFM.sym ABSOLUTE
    BT_Intfc0_Start_EPs                      0x100730d9   Thumb Code     0  QCA6174_SCAQBAFM.sym ABSOLUTE
    BT_Intfc0_Stop_EPs                       0x1007310b   Thumb Code     0  QCA6174_SCAQBAFM.sym ABSOLUTE
    BT_Intfc1_Start_EPs                      0x10073141   Thumb Code     0  QCA6174_SCAQBAFM.sym ABSOLUTE
    rom_USB_BT_Start_Rx                      0x100731ed   Thumb Code     0  QCA6174_SCAQBAFM.sym ABSOLUTE
    BT_IN_EP_Active                          0x1007333f   Thumb Code     0  QCA6174_SCAQBAFM.sym ABSOLUTE
    BT_OUT_EP_Active                         0x10073347   Thumb Code     0  QCA6174_SCAQBAFM.sym ABSOLUTE
    BT_IN_EP_Done                            0x1007334d   Thumb Code     0  QCA6174_SCAQBAFM.sym ABSOLUTE
    BT_OUT_EP_Done                           0x1007337b   Thumb Code     0  QCA6174_SCAQBAFM.sym ABSOLUTE
    rom_USB_BT_Intfc0_Init                   0x100733fb   Thumb Code     0  QCA6174_SCAQBAFM.sym ABSOLUTE
    rom_USB_BT_Intfc1_Init                   0x10073465   Thumb Code     0  QCA6174_SCAQBAFM.sym ABSOLUTE
    rom_USB_BT_TxDone                        0x100734af   Thumb Code     0  QCA6174_SCAQBAFM.sym ABSOLUTE
    rom_USB_BT_EP_TxRx                       0x10073615   Thumb Code     0  QCA6174_SCAQBAFM.sym ABSOLUTE
    rom_USB_BT_Tx                            0x1007364b   Thumb Code     0  QCA6174_SCAQBAFM.sym ABSOLUTE
    rom_USB_Class_BT_Init                    0x1007369d   Thumb Code     0  QCA6174_SCAQBAFM.sym ABSOLUTE
    PFAL_VOICE_USB_Start                     0x100737a1   Thumb Code     0  QCA6174_SCAQBAFM.sym ABSOLUTE
    PFAL_VOICE_USB_Stop                      0x100737b1   Thumb Code     0  QCA6174_SCAQBAFM.sym ABSOLUTE
    PFAL_VOICE_USB_Is_Ready                  0x100737bb   Thumb Code     0  QCA6174_SCAQBAFM.sym ABSOLUTE
    PFAL_VOICE_USB_Is_Busy_in_Sending        0x100737bf   Thumb Code     0  QCA6174_SCAQBAFM.sym ABSOLUTE
    PFAL_VOICE_USB_Get_SCO_Payload_Size      0x100737c3   Thumb Code     0  QCA6174_SCAQBAFM.sym ABSOLUTE
    PFAL_VOICE_USB_Get_Transport_Hdr_Size    0x100737c9   Thumb Code     0  QCA6174_SCAQBAFM.sym ABSOLUTE
    PFAL_VOICE_USB_Start_To_Send_SCO_Pkt     0x100737cd   Thumb Code     0  QCA6174_SCAQBAFM.sym ABSOLUTE
    PFAL_IPCT_Init                           0x10073811   Thumb Code     0  QCA6174_SCAQBAFM.sym ABSOLUTE
    PFAL_IPCT_Reset                          0x10073825   Thumb Code     0  QCA6174_SCAQBAFM.sym ABSOLUTE
    PFAL_IPCT_Write                          0x10073827   Thumb Code     0  QCA6174_SCAQBAFM.sym ABSOLUTE
    PFAL_IPCT_SleepPreProcess                0x10073833   Thumb Code     0  QCA6174_SCAQBAFM.sym ABSOLUTE
    PFAL_IPCT_DeepSleepEnter                 0x10073837   Thumb Code     0  QCA6174_SCAQBAFM.sym ABSOLUTE
    PFAL_IPCT_DeepSleepExit                  0x10073839   Thumb Code     0  QCA6174_SCAQBAFM.sym ABSOLUTE
    PFAL_IPCT_LogData                        0x1007383b   Thumb Code     0  QCA6174_SCAQBAFM.sym ABSOLUTE
    PFAL_IPCT_WriteEventImmediate            0x1007383d   Thumb Code     0  QCA6174_SCAQBAFM.sym ABSOLUTE
    rom_ANT_MainInit                         0x10073859   Thumb Code     0  QCA6174_SCAQBAFM.sym ABSOLUTE
    rom_ANT_MainReset                        0x10073875   Thumb Code     0  QCA6174_SCAQBAFM.sym ABSOLUTE
    rom_ANT_MainGenerateStartupMesg          0x100738c1   Thumb Code     0  QCA6174_SCAQBAFM.sym ABSOLUTE
    rom_ANT_MainMesgHandler                  0x100738d1   Thumb Code     0  QCA6174_SCAQBAFM.sym ABSOLUTE
    ANT_MainDebugMsgProcess                  0x100739cd   Thumb Code     0  QCA6174_SCAQBAFM.sym ABSOLUTE
    rom_ANT_MainVSMesgHandler                0x100739d1   Thumb Code     0  QCA6174_SCAQBAFM.sym ABSOLUTE
    rom_ANT_MainStartTxService               0x100739d7   Thumb Code     0  QCA6174_SCAQBAFM.sym ABSOLUTE
    ANT_MainRetryTxPacket                    0x100739fd   Thumb Code     0  QCA6174_SCAQBAFM.sym ABSOLUTE
    rom_CALLBACK_AntEvent                    0x10073a13   Thumb Code     0  QCA6174_SCAQBAFM.sym ABSOLUTE
    DSI_GetUShort                            0x10073a99   Thumb Code     0  QCA6174_SCAQBAFM.sym ABSOLUTE
    DSI_GetULong                             0x10073ab3   Thumb Code     0  QCA6174_SCAQBAFM.sym ABSOLUTE
    DSI_memcpy                               0x10073ae1   Thumb Code     0  QCA6174_SCAQBAFM.sym ABSOLUTE
    DSI_memset                               0x10073afd   Thumb Code     0  QCA6174_SCAQBAFM.sym ABSOLUTE
    DSI_memcmp                               0x10073b15   Thumb Code     0  QCA6174_SCAQBAFM.sym ABSOLUTE
    DSI_ReverseByte                          0x10073b41   Thumb Code     0  QCA6174_SCAQBAFM.sym ABSOLUTE
    DSI_CalcCRCCCITT                         0x10073b67   Thumb Code     0  QCA6174_SCAQBAFM.sym ABSOLUTE
    QCOM_handleHciVSCommand                  0x10073b83   Thumb Code     0  QCA6174_SCAQBAFM.sym ABSOLUTE
    QCOM_handleTestMode                      0x10073b85   Thumb Code     0  QCA6174_SCAQBAFM.sym ABSOLUTE
    QCOM_sendHCI_ModeChangeEvent             0x10073b89   Thumb Code     0  QCA6174_SCAQBAFM.sym ABSOLUTE
    rom_PF_COEX_getPriority_4_BR_EDR_Conn    0x10073b8d   Thumb Code     0  QCA6174_SCAQBAFM.sym ABSOLUTE
    rom_HID_init                             0x10073c2d   Thumb Code     0  QCA6174_SCAQBAFM.sym ABSOLUTE
    rom_HID_SystemReady                      0x10073c41   Thumb Code     0  QCA6174_SCAQBAFM.sym ABSOLUTE
    rom_HID_Recv_HCI_COMMAND                 0x10073c99   Thumb Code     0  QCA6174_SCAQBAFM.sym ABSOLUTE
    rom_HID_Recv_Led_Status_Data             0x10073ce5   Thumb Code     0  QCA6174_SCAQBAFM.sym ABSOLUTE
    rom_HID_ProcE_HCI_PACKET                 0x10073cf1   Thumb Code     0  QCA6174_SCAQBAFM.sym ABSOLUTE
    rom_HID_ProcE_SET_IDLE_KBD               0x10073d77   Thumb Code     0  QCA6174_SCAQBAFM.sym ABSOLUTE
    rom_HID_ProcE_SET_IDLE_CLEAR_KBD         0x10073d91   Thumb Code     0  QCA6174_SCAQBAFM.sym ABSOLUTE
    rom_HID_ProcE_USB_LED_STATUS             0x10073da9   Thumb Code     0  QCA6174_SCAQBAFM.sym ABSOLUTE
    rom_HID_LoadStack                        0x10073e27   Thumb Code     0  QCA6174_SCAQBAFM.sym ABSOLUTE
    rom_HID_StackLoaded                      0x10073e4f   Thumb Code     0  QCA6174_SCAQBAFM.sym ABSOLUTE
    rom_HID_UnloadStack                      0x10073e65   Thumb Code     0  QCA6174_SCAQBAFM.sym ABSOLUTE
    rom_HID_StackUnloaded                    0x10073e95   Thumb Code     0  QCA6174_SCAQBAFM.sym ABSOLUTE
    rom_HID_SendHciCommand                   0x10073ec1   Thumb Code     0  QCA6174_SCAQBAFM.sym ABSOLUTE
    rom_HID_SendL2capData                    0x10073f01   Thumb Code     0  QCA6174_SCAQBAFM.sym ABSOLUTE
    rom_HID_SendInputReport                  0x10073f7b   Thumb Code     0  QCA6174_SCAQBAFM.sym ABSOLUTE
    rom_HID_SendLedStatusReport              0x10073fb7   Thumb Code     0  QCA6174_SCAQBAFM.sym ABSOLUTE
    rom_HID_SelectDeviceByHciHandle          0x10073fdf   Thumb Code     0  QCA6174_SCAQBAFM.sym ABSOLUTE
    rom_HID_SelectDeviceByAddress            0x10074003   Thumb Code     0  QCA6174_SCAQBAFM.sym ABSOLUTE
    rom_HID_SelectDeviceByIndex              0x1007413f   Thumb Code     0  QCA6174_SCAQBAFM.sym ABSOLUTE
    rom_LLM_CQDDR_EvaluatePrefRateFEC_BR     0x10074149   Thumb Code     0  QCA6174_SCAQBAFM.sym ABSOLUTE
    rom_LLM_CQDDR_getPacketTypes_fromPrefRate 0x1007415b   Thumb Code     0  QCA6174_SCAQBAFM.sym ABSOLUTE
    rom_LLM_CQDDR_Init                       0x100741e1   Thumb Code     0  QCA6174_SCAQBAFM.sym ABSOLUTE
    LLM_CQDDR_Init_CQDDRstate_BR             0x100741f7   Thumb Code     0  QCA6174_SCAQBAFM.sym ABSOLUTE
    LLM_CQDDR_EvaluateMetrics_BR             0x1007421d   Thumb Code     0  QCA6174_SCAQBAFM.sym ABSOLUTE
    rom_LLM_CQDDR_getNextPreferedPktType_EDR 0x100743cd   Thumb Code     0  QCA6174_SCAQBAFM.sym ABSOLUTE
    LLM_CQDDR_Init_CQDDRstate_EDR            0x10074437   Thumb Code     0  QCA6174_SCAQBAFM.sym ABSOLUTE
    LLM_CQDDR_EvaluateMetrics_EDR            0x1007447d   Thumb Code     0  QCA6174_SCAQBAFM.sym ABSOLUTE
    rom_LLM_CQDDR_Init_EDR_eSCO              0x100746fb   Thumb Code     0  QCA6174_SCAQBAFM.sym ABSOLUTE
    rom_LLM_CQDDR_Init_CQDDRstate_EDR_eSCO   0x10074733   Thumb Code     0  QCA6174_SCAQBAFM.sym ABSOLUTE
    rom_LLM_CQDDR_lmp_eSCO_NegotiationHandler 0x10074749   Thumb Code     0  QCA6174_SCAQBAFM.sym ABSOLUTE
    rom_LLM_CQDDR_EvaluateMetrics_EDR_eSCO   0x10074783   Thumb Code     0  QCA6174_SCAQBAFM.sym ABSOLUTE
    rom_LLM_CQDDR_UpdateEvalCount            0x1007490d   Thumb Code     0  QCA6174_SCAQBAFM.sym ABSOLUTE
    rom_LLM_CQDDR_evalConnectionCQDDR        0x10074a1d   Thumb Code     0  QCA6174_SCAQBAFM.sym ABSOLUTE
    rom_LLM_CQDDR_eval_CQDDR                 0x10074ad7   Thumb Code     0  QCA6174_SCAQBAFM.sym ABSOLUTE
    rom_LLM_EDR_LT_DataRateCntrl             0x10074af9   Thumb Code     0  QCA6174_SCAQBAFM.sym ABSOLUTE
    rom_LLM_sendLMP_packet_type_table_req    0x10074beb   Thumb Code     0  QCA6174_SCAQBAFM.sym ABSOLUTE
    rom_LLM_EDR_PacketTypeTableValid         0x10074c03   Thumb Code     0  QCA6174_SCAQBAFM.sym ABSOLUTE
    rom_LLM_EDR_evalConnDataRate             0x10074c41   Thumb Code     0  QCA6174_SCAQBAFM.sym ABSOLUTE
    rom_LLM_lmpSeqEDR_Handler                0x10074ca7   Thumb Code     0  QCA6174_SCAQBAFM.sym ABSOLUTE
    rom_LLM_HCI_LE_packHCI_EventHeader       0x10074eb5   Thumb Code     0  QCA6174_SCAQBAFM.sym ABSOLUTE
    rom_LLM_HCI_LE_sendHCI_Advertising_Report_Event 0x10074ec7   Thumb Code     0  QCA6174_SCAQBAFM.sym ABSOLUTE
    rom_LLM_HCI_LE_Read_Remote_Used_Features_Complete_Event 0x10074ef7   Thumb Code     0  QCA6174_SCAQBAFM.sym ABSOLUTE
    rom_LLM_HCI_LE_sendHCI_ConnectionUpdateComplete_Event 0x10074f47   Thumb Code     0  QCA6174_SCAQBAFM.sym ABSOLUTE
    rom_LLM_HCI_LE_ConnectionUpdateComplete_Event 0x10074f73   Thumb Code     0  QCA6174_SCAQBAFM.sym ABSOLUTE
    rom_LLM_HCI_LE_ConnCompleteEvent         0x10074ff3   Thumb Code     0  QCA6174_SCAQBAFM.sym ABSOLUTE
    rom_LLM_HCI_LE_LongTermKeyRequested_Event 0x10075075   Thumb Code     0  QCA6174_SCAQBAFM.sym ABSOLUTE
    rom_LLM_HCI_LE_RemoteConnParamRequest_Event 0x100750c1   Thumb Code     0  QCA6174_SCAQBAFM.sym ABSOLUTE
    rom_LLM_LE_sendHCI_EncryptionEvent       0x1007514d   Thumb Code     0  QCA6174_SCAQBAFM.sym ABSOLUTE
    rom_LLM_LE_packCtrl_PDU                  0x100751ad   Thumb Code     0  QCA6174_SCAQBAFM.sym ABSOLUTE
    rom_LLM_LE_putCtrl                       0x100751d7   Thumb Code     0  QCA6174_SCAQBAFM.sym ABSOLUTE
    rom_LLM_LE_sendCtrl_PDU                  0x10075217   Thumb Code     0  QCA6174_SCAQBAFM.sym ABSOLUTE
    rom_LLM_LE_sendCtrl_NoPayload            0x10075249   Thumb Code     0  QCA6174_SCAQBAFM.sym ABSOLUTE
    rom_LLM_LE_sendCtrl_ChannelMapReq        0x1007526b   Thumb Code     0  QCA6174_SCAQBAFM.sym ABSOLUTE
    rom_LLM_LE_sendCtrl_ConnectionUpdateReq  0x100752a7   Thumb Code     0  QCA6174_SCAQBAFM.sym ABSOLUTE
    rom_LLM_LE_sendCtrl_EncReq               0x100752f7   Thumb Code     0  QCA6174_SCAQBAFM.sym ABSOLUTE
    rom_LLM_LE_packCtrl_EncReq               0x10075315   Thumb Code     0  QCA6174_SCAQBAFM.sym ABSOLUTE
    rom_LLM_LE_sendCtrl_EncRsp               0x10075365   Thumb Code     0  QCA6174_SCAQBAFM.sym ABSOLUTE
    rom_LLM_LE_sendCtrl_FeatureReq           0x100753a5   Thumb Code     0  QCA6174_SCAQBAFM.sym ABSOLUTE
    rom_LLM_LE_sendCtrl_FeatureRsp           0x100753f9   Thumb Code     0  QCA6174_SCAQBAFM.sym ABSOLUTE
    rom_LLM_LE_sendCtrl_VersionInd           0x10075425   Thumb Code     0  QCA6174_SCAQBAFM.sym ABSOLUTE
    rom_LLM_LE_sendCtrlPdu_oneByte           0x1007545f   Thumb Code     0  QCA6174_SCAQBAFM.sym ABSOLUTE
    rom_LLM_LE_sendCtrl_RejectInd            0x10075485   Thumb Code     0  QCA6174_SCAQBAFM.sym ABSOLUTE
    rom_LLM_LE_sendCtrl_ConnParamNego        0x100754d3   Thumb Code     0  QCA6174_SCAQBAFM.sym ABSOLUTE
    rom_LLM_LE_rxCtrl                        0x1007555b   Thumb Code     0  QCA6174_SCAQBAFM.sym ABSOLUTE
    rom_LLM_LE_encrEvalEvent                 0x100757e1   Thumb Code     0  QCA6174_SCAQBAFM.sym ABSOLUTE
    rom_LLM_LE_encrDoEncryptionStartup       0x10075d2f   Thumb Code     0  QCA6174_SCAQBAFM.sym ABSOLUTE
    rom_LLM_LE_encrHandleStartEncryption     0x10075ded   Thumb Code     0  QCA6174_SCAQBAFM.sym ABSOLUTE
    rom_LLM_LE_encrHandleEncReq              0x10075eaf   Thumb Code     0  QCA6174_SCAQBAFM.sym ABSOLUTE
    rom_LLM_init_AES_CCM_cryptoIntfc_LE      0x10076001   Thumb Code     0  QCA6174_SCAQBAFM.sym ABSOLUTE
    rom_LLM_LE_encrHandleEncRsp              0x1007604f   Thumb Code     0  QCA6174_SCAQBAFM.sym ABSOLUTE
    rom_LLM_LE_encrHandleStartEncReq         0x10076229   Thumb Code     0  QCA6174_SCAQBAFM.sym ABSOLUTE
    rom_LLM_LE_encrHandleStartEncRsp         0x10076289   Thumb Code     0  QCA6174_SCAQBAFM.sym ABSOLUTE
    rom_LLM_LE_encrHandleLtk                 0x100762f7   Thumb Code     0  QCA6174_SCAQBAFM.sym ABSOLUTE
    rom_LLM_LE_encrHandlePauseEncRsp         0x10076413   Thumb Code     0  QCA6174_SCAQBAFM.sym ABSOLUTE
    rom_LLM_LE_encrHandlePauseEncRspTxAck    0x100764bd   Thumb Code     0  QCA6174_SCAQBAFM.sym ABSOLUTE
    rom_LLM_LE_encrHandlePauseEncReq         0x100764c5   Thumb Code     0  QCA6174_SCAQBAFM.sym ABSOLUTE
    rom_LLM_LE_encrHandleRejectInd           0x10076625   Thumb Code     0  QCA6174_SCAQBAFM.sym ABSOLUTE
    rom_LLM_LE_encrAbortConn                 0x10076649   Thumb Code     0  QCA6174_SCAQBAFM.sym ABSOLUTE
    rom_LLM_LE_swapByteOrder                 0x1007668f   Thumb Code     0  QCA6174_SCAQBAFM.sym ABSOLUTE
    rom_LLM_LE_swapByteOrderInPlace          0x100766af   Thumb Code     0  QCA6174_SCAQBAFM.sym ABSOLUTE
    rom_LLM_LE_encrIsEncryptionSetupInProgress 0x100766d7   Thumb Code     0  QCA6174_SCAQBAFM.sym ABSOLUTE
    rom_LLM_NegotiateHoldTime                0x100766f5   Thumb Code     0  QCA6174_SCAQBAFM.sym ABSOLUTE
    rom_LLM_getInitialHoldModeIntervalRange  0x100767bf   Thumb Code     0  QCA6174_SCAQBAFM.sym ABSOLUTE
    rom_LLM_lmpSeqHoldHandler                0x100767db   Thumb Code     0  QCA6174_SCAQBAFM.sym ABSOLUTE
    rom_LLM_NegotiateSniffParam              0x10076b09   Thumb Code     0  QCA6174_SCAQBAFM.sym ABSOLUTE
    rom_LLM_procSniffTimingCtlFlag           0x10076cad   Thumb Code     0  QCA6174_SCAQBAFM.sym ABSOLUTE
    rom_LLM_calculateMaxSniffSlotsWxSCO      0x10076cb7   Thumb Code     0  QCA6174_SCAQBAFM.sym ABSOLUTE
    rom_LLM_handleUnsniffReq                 0x10076cbb   Thumb Code     0  QCA6174_SCAQBAFM.sym ABSOLUTE
    rom_LLM_handleHostTerminateSniff         0x10076d27   Thumb Code     0  QCA6174_SCAQBAFM.sym ABSOLUTE
    rom_LLM_lowPowerSeqDeferProc             0x10076dd5   Thumb Code     0  QCA6174_SCAQBAFM.sym ABSOLUTE
    rom_LLM_computeSubrate                   0x10076de1   Thumb Code     0  QCA6174_SCAQBAFM.sym ABSOLUTE
    rom_LLM_sendHCI_SniffSubrateEvent        0x10076e09   Thumb Code     0  QCA6174_SCAQBAFM.sym ABSOLUTE
    rom_LLM_clearSniffSubrateParams          0x10076e63   Thumb Code     0  QCA6174_SCAQBAFM.sym ABSOLUTE
    rom_LLM_allocSniffSubrateParams          0x10076e89   Thumb Code     0  QCA6174_SCAQBAFM.sym ABSOLUTE
    rom_LLM_handleSniffSubrateReq            0x10076ea9   Thumb Code     0  QCA6174_SCAQBAFM.sym ABSOLUTE
    rom_LLM_genSniffSubrateReq               0x1007700b   Thumb Code     0  QCA6174_SCAQBAFM.sym ABSOLUTE
    rom_LLM_SniffSubrate_Eval_LSTO           0x100770b7   Thumb Code     0  QCA6174_SCAQBAFM.sym ABSOLUTE
    rom_LLM_SniffSubrate_UpdateHostParameters 0x100770ed   Thumb Code     0  QCA6174_SCAQBAFM.sym ABSOLUTE
    rom_LLM_SniffSubrate_handleHCISniffSubrateParams 0x10077145   Thumb Code     0  QCA6174_SCAQBAFM.sym ABSOLUTE
    rom_LLM_lmpSeqSniffHandler               0x10077179   Thumb Code     0  QCA6174_SCAQBAFM.sym ABSOLUTE
    rom_LLM_lp_sniff_patch_hook              0x10077945   Thumb Code     0  QCA6174_SCAQBAFM.sym ABSOLUTE
    rom_LLM_initiateLMP_PagingSchemeSeq      0x10077965   Thumb Code     0  QCA6174_SCAQBAFM.sym ABSOLUTE
    rom_LLM_notifyPagingSchemeChange         0x100779a9   Thumb Code     0  QCA6174_SCAQBAFM.sym ABSOLUTE
    rom_LLM_processRoleSwitchComplete        0x10077a49   Thumb Code     0  QCA6174_SCAQBAFM.sym ABSOLUTE
    rom_LLM_terminateRoleSwitch              0x10077aef   Thumb Code     0  QCA6174_SCAQBAFM.sym ABSOLUTE
    rom_LLM_RoleSwitch_getSlavePiconet       0x10077c03   Thumb Code     0  QCA6174_SCAQBAFM.sym ABSOLUTE
    rom_LLM_RoleSwitch_Initiate              0x10077ca5   Thumb Code     0  QCA6174_SCAQBAFM.sym ABSOLUTE
    rom_LLM_RoleSwitch_Response              0x10077f43   Thumb Code     0  QCA6174_SCAQBAFM.sym ABSOLUTE
    rom_LLM_RoleSwitch_handleReq             0x10077fff   Thumb Code     0  QCA6174_SCAQBAFM.sym ABSOLUTE
    rom_LLM_SPAIRING_AUTH_STAGE1_process_event 0x10078151   Thumb Code     0  QCA6174_SCAQBAFM.sym ABSOLUTE
    rom_LLM_SPAIRING_AUTH_STAGE1_setupKeyConfirmInfo 0x10078189   Thumb Code     0  QCA6174_SCAQBAFM.sym ABSOLUTE
    rom_LLM_SPAIRING_AUTH_STAGE1_getProcedure 0x10078197   Thumb Code     0  QCA6174_SCAQBAFM.sym ABSOLUTE
    rom_LLM_SPAIRING_getLinkKeyClass         0x100781d9   Thumb Code     0  QCA6174_SCAQBAFM.sym ABSOLUTE
    rom_LLM_SPAIRING_calcLinkKey             0x1007822f   Thumb Code     0  QCA6174_SCAQBAFM.sym ABSOLUTE
    rom_LLM_SPAIRING_get_HCI_Local_OOB_Data  0x100782e9   Thumb Code     0  QCA6174_SCAQBAFM.sym ABSOLUTE
    rom_LLM_SPAIRING_get_HCI_Local_OOB_Extended_Data 0x10078353   Thumb Code     0  QCA6174_SCAQBAFM.sym ABSOLUTE
    rom_LLM_SPAIRING_eval4DebugPublicKey     0x100783e3   Thumb Code     0  QCA6174_SCAQBAFM.sym ABSOLUTE
    rom_LLM_addHCI_Filter                    0x10078469   Thumb Code     0  QCA6174_SCAQBAFM.sym ABSOLUTE
    rom_LLM_initHCI_FilterDatabase           0x10078541   Thumb Code     0  QCA6174_SCAQBAFM.sym ABSOLUTE
    rom_LLM_clearAllHCI_Filters              0x10078547   Thumb Code     0  QCA6174_SCAQBAFM.sym ABSOLUTE
    rom_LLM_clearHCI_FilterType              0x10078573   Thumb Code     0  QCA6174_SCAQBAFM.sym ABSOLUTE
    rom_LLM_isAutoAcceptAll                  0x100785ab   Thumb Code     0  QCA6174_SCAQBAFM.sym ABSOLUTE
    rom_LLM_isAutoAccept                     0x100785c3   Thumb Code     0  QCA6174_SCAQBAFM.sym ABSOLUTE
    rom_LLM_isAllClearHCI_FilterType         0x1007862d   Thumb Code     0  QCA6174_SCAQBAFM.sym ABSOLUTE
    rom_LLM_isAllClearHCI_Filter             0x10078643   Thumb Code     0  QCA6174_SCAQBAFM.sym ABSOLUTE
    rom_LLM_passThruHCI_Filter               0x1007865f   Thumb Code     0  QCA6174_SCAQBAFM.sym ABSOLUTE
    rom_LLM_checkCondition                   0x100786a1   Thumb Code     0  QCA6174_SCAQBAFM.sym ABSOLUTE
    rom_LLM_eval_HCI_ConnSetupFilter         0x1007872b   Thumb Code     0  QCA6174_SCAQBAFM.sym ABSOLUTE
    rom_LLM_init_Inquiry_BDADDR_List         0x10078771   Thumb Code     0  QCA6174_SCAQBAFM.sym ABSOLUTE
    rom_LLM_create_Inquiry_BDADDR_List       0x10078789   Thumb Code     0  QCA6174_SCAQBAFM.sym ABSOLUTE
    rom_LLM_add_BDADDR_list                  0x100787a9   Thumb Code     0  QCA6174_SCAQBAFM.sym ABSOLUTE
    rom_LLM_search_BDADDR_list               0x100787e1   Thumb Code     0  QCA6174_SCAQBAFM.sym ABSOLUTE
    rom_LLM_get_BDADDR_list_Info             0x10078833   Thumb Code     0  QCA6174_SCAQBAFM.sym ABSOLUTE
    rom_LLM_set_BDADDR_list_Info             0x1007883f   Thumb Code     0  QCA6174_SCAQBAFM.sym ABSOLUTE
    LLM_LE_cmEnterCMs_IDLE                   0x1007888d   Thumb Code     0  QCA6174_SCAQBAFM.sym ABSOLUTE
    LLM_LE_cmExitCMs_IDLE                    0x100788b1   Thumb Code     0  QCA6174_SCAQBAFM.sym ABSOLUTE
    LLM_LE_cmEnterCMs_CONN_ACTIVE            0x100788b3   Thumb Code     0  QCA6174_SCAQBAFM.sym ABSOLUTE
    LLM_LE_cmExitCMs_CONN_ACTIVE             0x10078989   Thumb Code     0  QCA6174_SCAQBAFM.sym ABSOLUTE
    LLM_LE_cmEnterCMs_CONNTERM               0x1007898b   Thumb Code     0  QCA6174_SCAQBAFM.sym ABSOLUTE
    rom_LLM_LE_cmSendTerminateInd            0x100789ed   Thumb Code     0  QCA6174_SCAQBAFM.sym ABSOLUTE
    LLM_LE_cmExitCMs_CONNTERM                0x10078a2f   Thumb Code     0  QCA6174_SCAQBAFM.sym ABSOLUTE
    LLM_LE_cmEnterCMs_W4_LMS_DISCONNECT      0x10078a3f   Thumb Code     0  QCA6174_SCAQBAFM.sym ABSOLUTE
    LLM_LE_cmExitCMs_W4_LMS_DISCONNECT       0x10078a55   Thumb Code     0  QCA6174_SCAQBAFM.sym ABSOLUTE
    LLM_LE_cmChangeState                     0x10078a57   Thumb Code     0  QCA6174_SCAQBAFM.sym ABSOLUTE
    rom_LLM_LE_cmEvalEvent                   0x10078ac1   Thumb Code     0  QCA6174_SCAQBAFM.sym ABSOLUTE
    rom_LLM_LE_prepForChanMapUpdate          0x10078dd3   Thumb Code     0  QCA6174_SCAQBAFM.sym ABSOLUTE
    rom_LLM_LE_prepForConnParamUpdate        0x10078e57   Thumb Code     0  QCA6174_SCAQBAFM.sym ABSOLUTE
    rom_LLM_LE_prepForConnParamNego          0x10078fbf   Thumb Code     0  QCA6174_SCAQBAFM.sym ABSOLUTE
    rom_LLM_LE_ctrlSeqHandleLocalConnParamUpdate 0x10079143   Thumb Code     0  QCA6174_SCAQBAFM.sym ABSOLUTE
    rom_LLM_LE_ctrlSeqHandleLocalCHMapUpdate 0x1007929d   Thumb Code     0  QCA6174_SCAQBAFM.sym ABSOLUTE
    rom_LLM_LE_ctrlSeqHandleRemoteUpdate     0x1007935b   Thumb Code     0  QCA6174_SCAQBAFM.sym ABSOLUTE
    rom_LLM_LE_ctrlSeqHandleFeatureReqLocal  0x100793f5   Thumb Code     0  QCA6174_SCAQBAFM.sym ABSOLUTE
    rom_LLM_LE_ctrlSeqHandleFeatureReqRemote 0x10079447   Thumb Code     0  QCA6174_SCAQBAFM.sym ABSOLUTE
    rom_LLM_LE_ctrlSeqHandleFeatureRsp       0x100794c9   Thumb Code     0  QCA6174_SCAQBAFM.sym ABSOLUTE
    rom_LLM_LE_ctrlSeqHandleVersionInd       0x10079517   Thumb Code     0  QCA6174_SCAQBAFM.sym ABSOLUTE
    rom_LLM_LE_ctrlSeqHandleVersionReq       0x10079577   Thumb Code     0  QCA6174_SCAQBAFM.sym ABSOLUTE
    rom_LLM_LE_ctrlSeqHandlePingReqLocal     0x100796b5   Thumb Code     0  QCA6174_SCAQBAFM.sym ABSOLUTE
    rom_LLM_LE_ctrlSeqHandlePingReqRemote    0x100796f9   Thumb Code     0  QCA6174_SCAQBAFM.sym ABSOLUTE
    rom_LLM_LE_ctrlSeqHandlePingRsp          0x10079727   Thumb Code     0  QCA6174_SCAQBAFM.sym ABSOLUTE
    rom_LLM_LE_ctrlSeqUpdateHandler          0x1007973d   Thumb Code     0  QCA6174_SCAQBAFM.sym ABSOLUTE
    rom_LLM_LE_computeUpdateWinOffset        0x1007a175   Thumb Code     0  QCA6174_SCAQBAFM.sym ABSOLUTE
    rom_LLM_LE_ctrlSeqInProgress             0x1007a223   Thumb Code     0  QCA6174_SCAQBAFM.sym ABSOLUTE
    rom_LLM_LE_RebuildLocalChannelMap        0x1007a233   Thumb Code     0  QCA6174_SCAQBAFM.sym ABSOLUTE
    rom_LLM_LE_UpdateAllLink                 0x1007a38b   Thumb Code     0  QCA6174_SCAQBAFM.sym ABSOLUTE
    rom_LLM_LE_MarkChannelGood               0x1007a3cf   Thumb Code     0  QCA6174_SCAQBAFM.sym ABSOLUTE
    rom_LLM_LE_MarkChannelBad                0x1007a3f5   Thumb Code     0  QCA6174_SCAQBAFM.sym ABSOLUTE
    rom_LLM_LE_IsChannelGood                 0x1007a41b   Thumb Code     0  QCA6174_SCAQBAFM.sym ABSOLUTE
    rom_LLM_LE_DeferredCommandEnqueue        0x1007a443   Thumb Code     0  QCA6174_SCAQBAFM.sym ABSOLUTE
    rom_LLM_LE_DeferredCommandDequeue        0x1007a4c5   Thumb Code     0  QCA6174_SCAQBAFM.sym ABSOLUTE
    rom_LLM_LE_SendDefCmdCompleteEvent       0x1007a541   Thumb Code     0  QCA6174_SCAQBAFM.sym ABSOLUTE
    rom_LLM_LE_ConnParmReq_Need_Host         0x1007a593   Thumb Code     0  QCA6174_SCAQBAFM.sym ABSOLUTE
    rom_llm_le_connmngr_patch_hook           0x1007a5cd   Thumb Code     0  QCA6174_SCAQBAFM.sym ABSOLUTE
    rom_ShiftUpPoly                          0x1007a62d   Thumb Code     0  QCA6174_SCAQBAFM.sym ABSOLUTE
    rom_ShiftDownPoly                        0x1007a657   Thumb Code     0  QCA6174_SCAQBAFM.sym ABSOLUTE
    rom_ShiftAndXORMultLFSR                  0x1007a67f   Thumb Code     0  QCA6174_SCAQBAFM.sym ABSOLUTE
    rom_LLM_rs_mult_polynomials              0x1007a6e1   Thumb Code     0  QCA6174_SCAQBAFM.sym ABSOLUTE
    rom_LLM_rs_div_polynomials               0x1007a78d   Thumb Code     0  QCA6174_SCAQBAFM.sym ABSOLUTE
    rom_LLM_getEncryptionKeyRefreshClk       0x1007a83d   Thumb Code     0  QCA6174_SCAQBAFM.sym ABSOLUTE
    rom_LLM_updateEncryptionKeyRefreshClk    0x1007a867   Thumb Code     0  QCA6174_SCAQBAFM.sym ABSOLUTE
    rom_LLM_startTransaction                 0x1007a8b3   Thumb Code     0  QCA6174_SCAQBAFM.sym ABSOLUTE
    rom_LLM_procLmpRx                        0x1007a8bd   Thumb Code     0  QCA6174_SCAQBAFM.sym ABSOLUTE
    rom_LLM_lmpSequenceState2Idle            0x1007a8f1   Thumb Code     0  QCA6174_SCAQBAFM.sym ABSOLUTE
    rom_LLM_initiateLMP_Authentication       0x1007a945   Thumb Code     0  QCA6174_SCAQBAFM.sym ABSOLUTE
    rom_LLM_processLMP_aurand                0x1007aa73   Thumb Code     0  QCA6174_SCAQBAFM.sym ABSOLUTE
    rom_LLM_requestLinkKey                   0x1007aae7   Thumb Code     0  QCA6174_SCAQBAFM.sym ABSOLUTE
    rom_LLM_requestPIN                       0x1007ab09   Thumb Code     0  QCA6174_SCAQBAFM.sym ABSOLUTE
    rom_LLM_initiateLMP_Pairing              0x1007ab2b   Thumb Code     0  QCA6174_SCAQBAFM.sym ABSOLUTE
    rom_LLM_init_AES_CCM_cryptoIntfc_BR_EDR  0x1007abc5   Thumb Code     0  QCA6174_SCAQBAFM.sym ABSOLUTE
    rom_LLM_rxDetach                         0x1007ad07   Thumb Code     0  QCA6174_SCAQBAFM.sym ABSOLUTE
    rom_LLM_pairingCreate_Kinit              0x1007ad73   Thumb Code     0  QCA6174_SCAQBAFM.sym ABSOLUTE
    rom_LLM_getCombinationLinkKeyClass       0x1007ad97   Thumb Code     0  QCA6174_SCAQBAFM.sym ABSOLUTE
    rom_LLM_sendLMP_ChangeLinkKey            0x1007adb7   Thumb Code     0  QCA6174_SCAQBAFM.sym ABSOLUTE
    rom_LLM_initiateLMP_ChangeLinkKey        0x1007ae61   Thumb Code     0  QCA6174_SCAQBAFM.sym ABSOLUTE
    rom_LLM_processLMP_ChangeLinkKey         0x1007ae71   Thumb Code     0  QCA6174_SCAQBAFM.sym ABSOLUTE
    rom_LLM_evalMasterPiconetKeySize         0x1007af45   Thumb Code     0  QCA6174_SCAQBAFM.sym ABSOLUTE
    rom_LLM_initiateLMP_changeCurrentLinkKeyType 0x1007afcf   Thumb Code     0  QCA6174_SCAQBAFM.sym ABSOLUTE
    rom_LLM_initiateLMP_Encryption           0x1007b067   Thumb Code     0  QCA6174_SCAQBAFM.sym ABSOLUTE
    rom_LLM_initiateLMP_EncryptionKeySizeNegotiation 0x1007b17f   Thumb Code     0  QCA6174_SCAQBAFM.sym ABSOLUTE
    rom_LLM_initiateLMP_EncryptionPause      0x1007b1b5   Thumb Code     0  QCA6174_SCAQBAFM.sym ABSOLUTE
    rom_LLM_lmpDetachPnd                     0x1007b22d   Thumb Code     0  QCA6174_SCAQBAFM.sym ABSOLUTE
    rom_LLM_lmEval_HOST_LMP_SEQ_Queue        0x1007b243   Thumb Code     0  QCA6174_SCAQBAFM.sym ABSOLUTE
    rom_LLM_mapHCI_2_LMP_OOB_type            0x1007b301   Thumb Code     0  QCA6174_SCAQBAFM.sym ABSOLUTE
    rom_LLM_LMPSeqHlr_IDLE                   0x1007b317   Thumb Code     0  QCA6174_SCAQBAFM.sym ABSOLUTE
    rom_LLM_LMPSeqHlr_AUTHEN_W4_HOST_LINK_KEY 0x1007bbff   Thumb Code     0  QCA6174_SCAQBAFM.sym ABSOLUTE
    rom_LLM_LMPSeqHlr_AUTHEN_W4_SRES         0x1007bf0d   Thumb Code     0  QCA6174_SCAQBAFM.sym ABSOLUTE
    rom_LLM_LMPSeqHlr_AUTHEN_SECURE_W4_AU_RAND 0x1007c177   Thumb Code     0  QCA6174_SCAQBAFM.sym ABSOLUTE
    rom_LLM_LMPSeqHlr_AUTHEN_SECURE_W4_SRES  0x1007c2a3   Thumb Code     0  QCA6174_SCAQBAFM.sym ABSOLUTE
    rom_LLM_LMPSeqHlr_PAIRING_W4_PIN         0x1007c5dd   Thumb Code     0  QCA6174_SCAQBAFM.sym ABSOLUTE
    rom_LLM_LMPSeqHlr_PAIRING_W4_INIT_KEY_RESP 0x1007c935   Thumb Code     0  QCA6174_SCAQBAFM.sym ABSOLUTE
    rom_LLM_LMPSeqHlr_PAIRING_W4_NEW_KEY     0x1007cb01   Thumb Code     0  QCA6174_SCAQBAFM.sym ABSOLUTE
    rom_LLM_LMPSeqHlr_PAIRING_W4_MUTUAL_AUTH_REQ 0x1007cd61   Thumb Code     0  QCA6174_SCAQBAFM.sym ABSOLUTE
    rom_LLM_LMPSeqHlr_ENCRYPTION_W4_MASK_REQ 0x1007ce85   Thumb Code     0  QCA6174_SCAQBAFM.sym ABSOLUTE
    rom_LLM_LMPSeqHlr_ENCRYPTION_W4_MODE     0x1007cf61   Thumb Code     0  QCA6174_SCAQBAFM.sym ABSOLUTE
    rom_LLM_LMPSeqHlr_ENCRYPTION_KEY_SIZE_NEGOTIATION 0x1007cfed   Thumb Code     0  QCA6174_SCAQBAFM.sym ABSOLUTE
    rom_LLM_LMPSeqHlr_ENCRYPTION_W4_START_ENCRYPTION 0x1007d089   Thumb Code     0  QCA6174_SCAQBAFM.sym ABSOLUTE
    rom_LLM_LMPSeqHlr_ENCRYPTION_STOP_W4_MODE 0x1007d3b3   Thumb Code     0  QCA6174_SCAQBAFM.sym ABSOLUTE
    rom_LLM_LMPSeqHlr_ENCRYPTION_STOP_W4_STOP 0x1007d495   Thumb Code     0  QCA6174_SCAQBAFM.sym ABSOLUTE
    rom_LLM_LMPSeqHlr_ENCRYPTION_W4_PAUSE_REQ 0x1007d5db   Thumb Code     0  QCA6174_SCAQBAFM.sym ABSOLUTE
    rom_LLM_LMPSeqHlr_LINK_KEY_TYPE_CHANGE   0x1007d92f   Thumb Code     0  QCA6174_SCAQBAFM.sym ABSOLUTE
    rom_LLM_LMPSeqHlr_QOS_W4_RES             0x1007d9b7   Thumb Code     0  QCA6174_SCAQBAFM.sym ABSOLUTE
    rom_LLM_LMPSeqHlr_ROLE_SWITCH_W4_LC_ROLE_SWITCH 0x1007da1f   Thumb Code     0  QCA6174_SCAQBAFM.sym ABSOLUTE
    rom_LLM_LMPSeqHlr_ROLE_SWITCH_W4_ENCR_RESTART 0x1007dae9   Thumb Code     0  QCA6174_SCAQBAFM.sym ABSOLUTE
    rom_LLM_LMPSeqHlr_MULTISLOT_W4_RESP      0x1007db75   Thumb Code     0  QCA6174_SCAQBAFM.sym ABSOLUTE
    rom_LLM_LMPSeqHlr_SPAIRING_INIT_W4_HCI_IO_CAPABILITIES 0x1007dc7d   Thumb Code     0  QCA6174_SCAQBAFM.sym ABSOLUTE
    rom_LLM_LMPSeqHlr_SPAIRING_W4_HCI_IO_CAPABILITIES 0x1007dde9   Thumb Code     0  QCA6174_SCAQBAFM.sym ABSOLUTE
    rom_LLM_LMPSeqHlr_SPAIRING_W4_LMP_IO_CAPABILITIES 0x1007dee7   Thumb Code     0  QCA6174_SCAQBAFM.sym ABSOLUTE
    rom_LLM_LMPSeqHlr_SPAIRING_INITIATE_PUBLIC_KEY 0x1007e031   Thumb Code     0  QCA6174_SCAQBAFM.sym ABSOLUTE
    rom_LLM_LMPSeqHlr_SPAIRING_W4_PUBLIC_KEY 0x1007e149   Thumb Code     0  QCA6174_SCAQBAFM.sym ABSOLUTE
    rom_LLM_LMPSeqHlr_SPAIRING_AUTHEN_STAGE1 0x1007e26f   Thumb Code     0  QCA6174_SCAQBAFM.sym ABSOLUTE
    rom_LLM_LMPSeqHlr_SPAIRING_DHKEY_W4_STATUS 0x1007e37b   Thumb Code     0  QCA6174_SCAQBAFM.sym ABSOLUTE
    rom_LLM_LMPSeqHlr_SPAIRING_DHKEY_W4_DHKEY_CHECK 0x1007e431   Thumb Code     0  QCA6174_SCAQBAFM.sym ABSOLUTE
    rom_LLM_LMPSeqHlr_rxDETACH_W4_TIMER      0x1007e613   Thumb Code     0  QCA6174_SCAQBAFM.sym ABSOLUTE
    rom_LLM_LMPSeqHlr_txDETACH               0x1007e64d   Thumb Code     0  QCA6174_SCAQBAFM.sym ABSOLUTE
    rom_LLM_processLMPsequence               0x1007e737   Thumb Code     0  QCA6174_SCAQBAFM.sym ABSOLUTE
    rom_LLM_updateInitialModeParam           0x1007f105   Thumb Code     0  QCA6174_SCAQBAFM.sym ABSOLUTE
    rom_LLM_SECURE_EncryptionKeyReduction    0x1007f127   Thumb Code     0  QCA6174_SCAQBAFM.sym ABSOLUTE
    rom_LLM_calculateEncryptionKey           0x1007f13b   Thumb Code     0  QCA6174_SCAQBAFM.sym ABSOLUTE
    rom_LLM_startRemotePairing               0x1007f235   Thumb Code     0  QCA6174_SCAQBAFM.sym ABSOLUTE
    rom_isLMP_InQueue                        0x1007f351   Thumb Code     0  QCA6174_SCAQBAFM.sym ABSOLUTE
    rom_LLM_handleEncrypytionModeReq         0x1007f393   Thumb Code     0  QCA6174_SCAQBAFM.sym ABSOLUTE
    rom_LLM_doPairing                        0x1007f54b   Thumb Code     0  QCA6174_SCAQBAFM.sym ABSOLUTE
    rom_LLM_startMasterKeyExchange           0x1007f595   Thumb Code     0  QCA6174_SCAQBAFM.sym ABSOLUTE
    rom_LLM_startPairingSeq                  0x1007f655   Thumb Code     0  QCA6174_SCAQBAFM.sym ABSOLUTE
    rom_LLM_startLMP_mutualAuthentication    0x1007f829   Thumb Code     0  QCA6174_SCAQBAFM.sym ABSOLUTE
    rom_LLM_pairingAcceptLMP_Pairing         0x1007f881   Thumb Code     0  QCA6174_SCAQBAFM.sym ABSOLUTE
    rom_LLM_startMasterEncryption            0x1007f8cb   Thumb Code     0  QCA6174_SCAQBAFM.sym ABSOLUTE
    rom_LLM_evalBroadcastEncryption          0x1007f985   Thumb Code     0  QCA6174_SCAQBAFM.sym ABSOLUTE
    rom_LLM_AuthenticationNewConnectionStart 0x1007fa6b   Thumb Code     0  QCA6174_SCAQBAFM.sym ABSOLUTE
    rom_LLM_calcD_Offset                     0x1007faad   Thumb Code     0  QCA6174_SCAQBAFM.sym ABSOLUTE
    rom_LLM_secureAuthentication_Verifier    0x1007fac3   Thumb Code     0  QCA6174_SCAQBAFM.sym ABSOLUTE
    rom_LLM_secureAuthentication_Claimant    0x1007fb43   Thumb Code     0  QCA6174_SCAQBAFM.sym ABSOLUTE
    rom_LLM_SECURE_evalAllSlavesInPiconetUseAES_CCM_Encryption 0x1007fd0f   Thumb Code     0  QCA6174_SCAQBAFM.sym ABSOLUTE
    rom_LLM_IsSeqEventAllowed                0x1007fd7f   Thumb Code     0  QCA6174_SCAQBAFM.sym ABSOLUTE
    rom_LLM_procTxLMP_Timeout                0x1007fe79   Thumb Code     0  QCA6174_SCAQBAFM.sym ABSOLUTE
    rom_LLM_procRxLMP_Timeout                0x1007ffdb   Thumb Code     0  QCA6174_SCAQBAFM.sym ABSOLUTE
    rom_LLM_stop_All_Conn_timers             0x100800e9   Thumb Code     0  QCA6174_SCAQBAFM.sym ABSOLUTE
    rom_LLM_restart_CONN_SETUP_TIMER         0x100800f5   Thumb Code     0  QCA6174_SCAQBAFM.sym ABSOLUTE
    rom_LLM_tearDownConn                     0x1008010d   Thumb Code     0  QCA6174_SCAQBAFM.sym ABSOLUTE
    rom_LLM_addUtilityTimer                  0x10080141   Thumb Code     0  QCA6174_SCAQBAFM.sym ABSOLUTE
    rom_LLM_stopUtilityTimer                 0x10080191   Thumb Code     0  QCA6174_SCAQBAFM.sym ABSOLUTE
    rom_LLM_startUtilityTimer                0x100801e9   Thumb Code     0  QCA6174_SCAQBAFM.sym ABSOLUTE
    rom_LLM_stopLMP_TO_UtilityTimer          0x1008020b   Thumb Code     0  QCA6174_SCAQBAFM.sym ABSOLUTE
    rom_LLM_stopLMP_TO                       0x1008024d   Thumb Code     0  QCA6174_SCAQBAFM.sym ABSOLUTE
    rom_LLM_startLMP_TO_UtilityTimer         0x10080265   Thumb Code     0  QCA6174_SCAQBAFM.sym ABSOLUTE
    SLC_Dispatch_ANT_Frame                   0x100802b5   Thumb Code     0  QCA6174_SCAQBAFM.sym ABSOLUTE
    SLC_Dispatch_ANT_CriticalFrame           0x10080355   Thumb Code     0  QCA6174_SCAQBAFM.sym ABSOLUTE
    SLC_Dispatch_ANT_EventReschedule         0x100803a3   Thumb Code     0  QCA6174_SCAQBAFM.sym ABSOLUTE
    SLC_updateDispatch_ANT_Frame             0x100803e9   Thumb Code     0  QCA6174_SCAQBAFM.sym ABSOLUTE
    SLC_updateDispatch_ANT_CriticalFrame     0x10080465   Thumb Code     0  QCA6174_SCAQBAFM.sym ABSOLUTE
    rom_SLC_PreReset                         0x10080505   Thumb Code     0  QCA6174_SCAQBAFM.sym ABSOLUTE
    rom_SLC_Reset                            0x10080511   Thumb Code     0  QCA6174_SCAQBAFM.sym ABSOLUTE
    rom_SLC_SystemReady                      0x10080593   Thumb Code     0  QCA6174_SCAQBAFM.sym ABSOLUTE
    rom_BthStackInit                         0x10080609   Thumb Code     0  QCA6174_SCAQBAFM.sym ABSOLUTE
    rom_BthStackDeinit                       0x1008063b   Thumb Code     0  QCA6174_SCAQBAFM.sym ABSOLUTE
    rom_mp_init                              0x100806a5   Thumb Code     0  QCA6174_SCAQBAFM.sym ABSOLUTE
    rom_mp_deinit                            0x100806b1   Thumb Code     0  QCA6174_SCAQBAFM.sym ABSOLUTE
    rom_mp_malloc                            0x100806b7   Thumb Code     0  QCA6174_SCAQBAFM.sym ABSOLUTE
    rom_mp_free                              0x100806bd   Thumb Code     0  QCA6174_SCAQBAFM.sym ABSOLUTE
    rom_mp_calloc                            0x100806c3   Thumb Code     0  QCA6174_SCAQBAFM.sym ABSOLUTE
    rom_os_strcpy                            0x100806ed   Thumb Code     0  QCA6174_SCAQBAFM.sym ABSOLUTE
    rom_os_strncpy                           0x10080707   Thumb Code     0  QCA6174_SCAQBAFM.sym ABSOLUTE
    rom_os_strlen                            0x10080715   Thumb Code     0  QCA6174_SCAQBAFM.sym ABSOLUTE
    rom_os_strcat                            0x1008072b   Thumb Code     0  QCA6174_SCAQBAFM.sym ABSOLUTE
    rom_os_strncat                           0x10080745   Thumb Code     0  QCA6174_SCAQBAFM.sym ABSOLUTE
    rom_valid_conn_handle                    0x10080775   Thumb Code     0  QCA6174_SCAQBAFM.sym ABSOLUTE
    rom_le_init                              0x10080791   Thumb Code     0  QCA6174_SCAQBAFM.sym ABSOLUTE
    rom_le_uninit                            0x10080817   Thumb Code     0  QCA6174_SCAQBAFM.sym ABSOLUTE
    rom_set_local_bt_addr                    0x10080857   Thumb Code     0  QCA6174_SCAQBAFM.sym ABSOLUTE
    rom_gap_init                             0x10080875   Thumb Code     0  QCA6174_SCAQBAFM.sym ABSOLUTE
    rom_gap_uninit                           0x10080909   Thumb Code     0  QCA6174_SCAQBAFM.sym ABSOLUTE
    rom_gap_register_user                    0x1008096d   Thumb Code     0  QCA6174_SCAQBAFM.sym ABSOLUTE
    rom_gap_unregister_user                  0x1008099d   Thumb Code     0  QCA6174_SCAQBAFM.sym ABSOLUTE
    rom_gap_set_property                     0x100809cb   Thumb Code     0  QCA6174_SCAQBAFM.sym ABSOLUTE
    rom_gap_link_status                      0x10080a4f   Thumb Code     0  QCA6174_SCAQBAFM.sym ABSOLUTE
    rom_gap_remdev_status                    0x10080aed   Thumb Code     0  QCA6174_SCAQBAFM.sym ABSOLUTE
    rom_gap_set_passkey_internal             0x10080c77   Thumb Code     0  QCA6174_SCAQBAFM.sym ABSOLUTE
    rom_gap_start_discoverable_mode_internal 0x10080cb7   Thumb Code     0  QCA6174_SCAQBAFM.sym ABSOLUTE
    rom_gap_stop_discoverable_mode_internal  0x10080d4b   Thumb Code     0  QCA6174_SCAQBAFM.sym ABSOLUTE
    rom_gap_get_remote_property              0x10080d6b   Thumb Code     0  QCA6174_SCAQBAFM.sym ABSOLUTE
    rom_gap_update_conn_internal             0x10080de9   Thumb Code     0  QCA6174_SCAQBAFM.sym ABSOLUTE
    rom_gap_disconnect_conn_internal         0x10080ee9   Thumb Code     0  QCA6174_SCAQBAFM.sym ABSOLUTE
    rom_gap_internal_encrypt                 0x10080f23   Thumb Code     0  QCA6174_SCAQBAFM.sym ABSOLUTE
    rom_gap_encrypt_internal                 0x10080f99   Thumb Code     0  QCA6174_SCAQBAFM.sym ABSOLUTE
    rom_gap_bond_internal                    0x10081019   Thumb Code     0  QCA6174_SCAQBAFM.sym ABSOLUTE
    rom_gap_remove_bond_internal             0x100811ad   Thumb Code     0  QCA6174_SCAQBAFM.sym ABSOLUTE
    rom_gap_pair_event_handler               0x10081209   Thumb Code     0  QCA6174_SCAQBAFM.sym ABSOLUTE
    rom_gap_service_chanage_notify           0x10081549   Thumb Code     0  QCA6174_SCAQBAFM.sym ABSOLUTE
    rom_gap_report_remote_property_event     0x100817a5   Thumb Code     0  QCA6174_SCAQBAFM.sym ABSOLUTE
    rom_gap_client_callback                  0x10081865   Thumb Code     0  QCA6174_SCAQBAFM.sym ABSOLUTE
    rom_gap_l2cap_le_signal_process          0x100818e7   Thumb Code     0  QCA6174_SCAQBAFM.sym ABSOLUTE
    rom_gap_hci_event_data_handler           0x10081a85   Thumb Code     0  QCA6174_SCAQBAFM.sym ABSOLUTE
    rom_gap_conn_param_timeout               0x10081a9d   Thumb Code     0  QCA6174_SCAQBAFM.sym ABSOLUTE
    rom_gap_patch_hook                       0x10081b3d   Thumb Code     0  QCA6174_SCAQBAFM.sym ABSOLUTE
    rom_get_le_conn_from_handle              0x10081b71   Thumb Code     0  QCA6174_SCAQBAFM.sym ABSOLUTE
    rom_get_le_conn_from_addr                0x10081b99   Thumb Code     0  QCA6174_SCAQBAFM.sym ABSOLUTE
    rom_get_rem_ctrler_from_addr             0x10081bdb   Thumb Code     0  QCA6174_SCAQBAFM.sym ABSOLUTE
    rom_add_to_session_list                  0x10081c65   Thumb Code     0  QCA6174_SCAQBAFM.sym ABSOLUTE
    rom_remove_from_session_list             0x10081c73   Thumb Code     0  QCA6174_SCAQBAFM.sym ABSOLUTE
    rom_gap_loc_controller_init              0x10081c81   Thumb Code     0  QCA6174_SCAQBAFM.sym ABSOLUTE
    rom_gap_loc_controller_uninit            0x10081ce5   Thumb Code     0  QCA6174_SCAQBAFM.sym ABSOLUTE
    rom_gap_config_security_manager          0x10081dff   Thumb Code     0  QCA6174_SCAQBAFM.sym ABSOLUTE
    rom_gap_clear_security_manager           0x10081e39   Thumb Code     0  QCA6174_SCAQBAFM.sym ABSOLUTE
    rom_gap_set_local_dev_prefer_conn_param  0x10081e3f   Thumb Code     0  QCA6174_SCAQBAFM.sym ABSOLUTE
    rom_gap_register_service                 0x10081e8d   Thumb Code     0  QCA6174_SCAQBAFM.sym ABSOLUTE
    rom_gap_unregister_service               0x10082441   Thumb Code     0  QCA6174_SCAQBAFM.sym ABSOLUTE
    rom_gap_update_service_dev_name          0x10082497   Thumb Code     0  QCA6174_SCAQBAFM.sym ABSOLUTE
    rom_validate_update_conn_param           0x100824e9   Thumb Code     0  QCA6174_SCAQBAFM.sym ABSOLUTE
    rom_l2cap_get_ident                      0x1008252d   Thumb Code     0  QCA6174_SCAQBAFM.sym ABSOLUTE
    rom_le_l2cap_send_cmd                    0x10082543   Thumb Code     0  QCA6174_SCAQBAFM.sym ABSOLUTE
    rom_l2cap_le_update_param_rsp            0x10082583   Thumb Code     0  QCA6174_SCAQBAFM.sym ABSOLUTE
    rom_gap_load_config_file                 0x10082717   Thumb Code     0  QCA6174_SCAQBAFM.sym ABSOLUTE
    rom_gap_register_client                  0x1008274f   Thumb Code     0  QCA6174_SCAQBAFM.sym ABSOLUTE
    rom_gap_unregister_client                0x10082755   Thumb Code     0  QCA6174_SCAQBAFM.sym ABSOLUTE
    rom_get_type_from_addr                   0x1008275b   Thumb Code     0  QCA6174_SCAQBAFM.sym ABSOLUTE
    rom_gap_bacmp                            0x10082783   Thumb Code     0  QCA6174_SCAQBAFM.sym ABSOLUTE
    rom_gap_bacpy                            0x1008279b   Thumb Code     0  QCA6174_SCAQBAFM.sym ABSOLUTE
    rom_gap_check_security                   0x100827ad   Thumb Code     0  QCA6174_SCAQBAFM.sym ABSOLUTE
    rom_gap_check_service_change             0x10082861   Thumb Code     0  QCA6174_SCAQBAFM.sym ABSOLUTE
    rom_gap_check_privacy                    0x10082885   Thumb Code     0  QCA6174_SCAQBAFM.sym ABSOLUTE
    rom_array_to_string                      0x100828ff   Thumb Code     0  QCA6174_SCAQBAFM.sym ABSOLUTE
    rom_string_to_array                      0x1008293d   Thumb Code     0  QCA6174_SCAQBAFM.sym ABSOLUTE
    rom_gap_get_bonded_central_number        0x100829dd   Thumb Code     0  QCA6174_SCAQBAFM.sym ABSOLUTE
    rom_gap_clear_bond_record                0x100829fb   Thumb Code     0  QCA6174_SCAQBAFM.sym ABSOLUTE
    rom_gap_save_bond_record                 0x10082a6d   Thumb Code     0  QCA6174_SCAQBAFM.sym ABSOLUTE
    rom_gap_load_bond_record                 0x10082b31   Thumb Code     0  QCA6174_SCAQBAFM.sym ABSOLUTE
    rom_gap_load_bond_record_by_dev          0x10082c85   Thumb Code     0  QCA6174_SCAQBAFM.sym ABSOLUTE
    rom_gap_check_service_changed_charact    0x10082d87   Thumb Code     0  QCA6174_SCAQBAFM.sym ABSOLUTE
    rom_gap_return_service_changed_handle    0x10082da7   Thumb Code     0  QCA6174_SCAQBAFM.sym ABSOLUTE
    rom_gap_save_local_info                  0x10082dbf   Thumb Code     0  QCA6174_SCAQBAFM.sym ABSOLUTE
    rom_gap_load_local_info                  0x10082e95   Thumb Code     0  QCA6174_SCAQBAFM.sym ABSOLUTE
    rom_notify_user                          0x10082fe5   Thumb Code     0  QCA6174_SCAQBAFM.sym ABSOLUTE
    rom_gap_get_conn_security                0x10083037   Thumb Code     0  QCA6174_SCAQBAFM.sym ABSOLUTE
    rom_init_generic_list                    0x100830b7   Thumb Code     0  QCA6174_SCAQBAFM.sym ABSOLUTE
    rom_release_generic_list                 0x100830c3   Thumb Code     0  QCA6174_SCAQBAFM.sym ABSOLUTE
    rom_check_generic_list_empty             0x100830cf   Thumb Code     0  QCA6174_SCAQBAFM.sym ABSOLUTE
    rom_gap_internal_patch_hook              0x100830d5   Thumb Code     0  QCA6174_SCAQBAFM.sym ABSOLUTE
    rom_gap_set_tx_power_internal            0x100830e1   Thumb Code     0  QCA6174_SCAQBAFM.sym ABSOLUTE
    rom_gap_peri_configure_adv_data          0x100830eb   Thumb Code     0  QCA6174_SCAQBAFM.sym ABSOLUTE
    rom_gap_peri_configure_adv_params        0x100830ed   Thumb Code     0  QCA6174_SCAQBAFM.sym ABSOLUTE
    rom_gap_configure_peripheral             0x100832d3   Thumb Code     0  QCA6174_SCAQBAFM.sym ABSOLUTE
    rom_gap_configure_disc_mode              0x1008331f   Thumb Code     0  QCA6174_SCAQBAFM.sym ABSOLUTE
    rom_gap_per_start_advertise              0x10083363   Thumb Code     0  QCA6174_SCAQBAFM.sym ABSOLUTE
    rom_gap_per_stop_advertise               0x100833b7   Thumb Code     0  QCA6174_SCAQBAFM.sym ABSOLUTE
    rom_gap_discovery_mode_timeout           0x100833fb   Thumb Code     0  QCA6174_SCAQBAFM.sym ABSOLUTE
    rom_gap_peri_private_addr_timeout        0x10083411   Thumb Code     0  QCA6174_SCAQBAFM.sym ABSOLUTE
    rom_gap_peri_handle_disconnected         0x10083447   Thumb Code     0  QCA6174_SCAQBAFM.sym ABSOLUTE
    rom_gap_peri_handle_conn_updated         0x1008353d   Thumb Code     0  QCA6174_SCAQBAFM.sym ABSOLUTE
    rom_gap_peri_handle_generic_event        0x1008364d   Thumb Code     0  QCA6174_SCAQBAFM.sym ABSOLUTE
    rom_gap_peri_complete_adv_task           0x10083bfb   Thumb Code     0  QCA6174_SCAQBAFM.sym ABSOLUTE
    rom_gap_peri_idle_callback               0x10083c85   Thumb Code     0  QCA6174_SCAQBAFM.sym ABSOLUTE
    rom_gap_peri_advting_callback            0x10083cdf   Thumb Code     0  QCA6174_SCAQBAFM.sym ABSOLUTE
    rom_gap_peri_callback                    0x100840a5   Thumb Code     0  QCA6174_SCAQBAFM.sym ABSOLUTE
    rom_gatt_register_profile_services       0x10084131   Thumb Code     0  QCA6174_SCAQBAFM.sym ABSOLUTE
    rom_gatt_unregister_profile_services     0x10084299   Thumb Code     0  QCA6174_SCAQBAFM.sym ABSOLUTE
    rom_gatt_update                          0x100842e3   Thumb Code     0  QCA6174_SCAQBAFM.sym ABSOLUTE
    rom_gatt_service_changed                 0x100843e9   Thumb Code     0  QCA6174_SCAQBAFM.sym ABSOLUTE
    rom_gatt_authorization_confirm           0x10084461   Thumb Code     0  QCA6174_SCAQBAFM.sym ABSOLUTE
    rom_gatt_register_client_callback        0x10084463   Thumb Code     0  QCA6174_SCAQBAFM.sym ABSOLUTE
    rom_gatt_unregister_client_callback      0x100844a9   Thumb Code     0  QCA6174_SCAQBAFM.sym ABSOLUTE
    rom_gatt_register_server_callback_internal 0x100844f3   Thumb Code     0  QCA6174_SCAQBAFM.sym ABSOLUTE
    rom_gatt_unregister_server_callback_internal 0x1008458f   Thumb Code     0  QCA6174_SCAQBAFM.sym ABSOLUTE
    rom_gatt_accept_write_req                0x100845d9   Thumb Code     0  QCA6174_SCAQBAFM.sym ABSOLUTE
    rom_gatt_accept_read_req                 0x100845ef   Thumb Code     0  QCA6174_SCAQBAFM.sym ABSOLUTE
    rom_gatt_reject_req                      0x10084605   Thumb Code     0  QCA6174_SCAQBAFM.sym ABSOLUTE
    rom_gatt_server_clear_oplist             0x10084639   Thumb Code     0  QCA6174_SCAQBAFM.sym ABSOLUTE
    rom_should_relay_to_upper_layer          0x1008466d   Thumb Code     0  QCA6174_SCAQBAFM.sym ABSOLUTE
    rom_relay_reset_session_state            0x100846a9   Thumb Code     0  QCA6174_SCAQBAFM.sym ABSOLUTE
    rom_gatt_server_process_relay_request_timeout 0x10084735   Thumb Code     0  QCA6174_SCAQBAFM.sym ABSOLUTE
    rom_gatt_server_process_timeout          0x1008478f   Thumb Code     0  QCA6174_SCAQBAFM.sym ABSOLUTE
    rom_gatt_server_start_timer              0x100847d9   Thumb Code     0  QCA6174_SCAQBAFM.sym ABSOLUTE
    rom_gatt_server_cancel_timer             0x100847f7   Thumb Code     0  QCA6174_SCAQBAFM.sym ABSOLUTE
    rom_gatt_server_create_timer             0x10084805   Thumb Code     0  QCA6174_SCAQBAFM.sym ABSOLUTE
    rom_gatt_server_close_timer              0x1008482f   Thumb Code     0  QCA6174_SCAQBAFM.sym ABSOLUTE
    rom_gatt_find_server_session             0x10084849   Thumb Code     0  QCA6174_SCAQBAFM.sym ABSOLUTE
    rom_gatt_server_process_packets          0x10084e23   Thumb Code     0  QCA6174_SCAQBAFM.sym ABSOLUTE
    rom_gatt_server_accept_write_req         0x1008550b   Thumb Code     0  QCA6174_SCAQBAFM.sym ABSOLUTE
    rom_gatt_server_accept_read_req          0x10085587   Thumb Code     0  QCA6174_SCAQBAFM.sym ABSOLUTE
    rom_gatt_server_reject_req               0x10085703   Thumb Code     0  QCA6174_SCAQBAFM.sym ABSOLUTE
    rom_gatt_server_patch_hook               0x10085795   Thumb Code     0  QCA6174_SCAQBAFM.sym ABSOLUTE
    rom_swap_bdaddr                          0x1008588d   Thumb Code     0  QCA6174_SCAQBAFM.sym ABSOLUTE
    rom_hci_wrap_get_addr                    0x100858d1   Thumb Code     0  QCA6174_SCAQBAFM.sym ABSOLUTE
    rom_hci_wrap_get_handle                  0x10085919   Thumb Code     0  QCA6174_SCAQBAFM.sym ABSOLUTE
    rom_get_conn_from_handle                 0x1008596b   Thumb Code     0  QCA6174_SCAQBAFM.sym ABSOLUTE
    rom_add_connection_to_table              0x100859a9   Thumb Code     0  QCA6174_SCAQBAFM.sym ABSOLUTE
    rom_delete_connection_to_table           0x10085a3d   Thumb Code     0  QCA6174_SCAQBAFM.sym ABSOLUTE
    rom_get_l2cap_chn_from_conn              0x10085a83   Thumb Code     0  QCA6174_SCAQBAFM.sym ABSOLUTE
    rom_get_l2cap_chn_from_addr              0x10085aaf   Thumb Code     0  QCA6174_SCAQBAFM.sym ABSOLUTE
    rom_is_le_handle                         0x10085b03   Thumb Code     0  QCA6174_SCAQBAFM.sym ABSOLUTE
    rom_get_le_hci_bufsize                   0x10085b57   Thumb Code     0  QCA6174_SCAQBAFM.sym ABSOLUTE
    rom_get_le_hci_total_buf                 0x10085b65   Thumb Code     0  QCA6174_SCAQBAFM.sym ABSOLUTE
    rom_get_le_hci_loc_feature               0x10085b73   Thumb Code     0  QCA6174_SCAQBAFM.sym ABSOLUTE
    rom_store_le_hci_loc_feature             0x10085b87   Thumb Code     0  QCA6174_SCAQBAFM.sym ABSOLUTE
    rom_store_le_hci_buffer_size             0x10085b9f   Thumb Code     0  QCA6174_SCAQBAFM.sym ABSOLUTE
    rom_get_le_hci_public_address            0x10085baf   Thumb Code     0  QCA6174_SCAQBAFM.sym ABSOLUTE
    rom_store_le_hci_public_address          0x10085bc3   Thumb Code     0  QCA6174_SCAQBAFM.sym ABSOLUTE
    rom_get_le_hci_support_state             0x10085be9   Thumb Code     0  QCA6174_SCAQBAFM.sym ABSOLUTE
    rom_store_le_hci_support_state           0x10085bfd   Thumb Code     0  QCA6174_SCAQBAFM.sym ABSOLUTE
    rom_get_le_hci_whitelist_size            0x10085c0b   Thumb Code     0  QCA6174_SCAQBAFM.sym ABSOLUTE
    rom_store_le_hci_whitelist_size          0x10085c19   Thumb Code     0  QCA6174_SCAQBAFM.sym ABSOLUTE
    rom_get_le_device_type                   0x10085c27   Thumb Code     0  QCA6174_SCAQBAFM.sym ABSOLUTE
    rom_store_le_device_type                 0x10085c33   Thumb Code     0  QCA6174_SCAQBAFM.sym ABSOLUTE
    rom_remove_scan_command_ctx              0x10085c3f   Thumb Code     0  QCA6174_SCAQBAFM.sym ABSOLUTE
    rom_clear_all_scan_command_ctx           0x10085c6d   Thumb Code     0  QCA6174_SCAQBAFM.sym ABSOLUTE
    rom_le_hci_alloc                         0x10085cc9   Thumb Code     0  QCA6174_SCAQBAFM.sym ABSOLUTE
    rom_le_hci_dealloc                       0x10085d1d   Thumb Code     0  QCA6174_SCAQBAFM.sym ABSOLUTE
    rom_le_hci_init                          0x10085d5b   Thumb Code     0  QCA6174_SCAQBAFM.sym ABSOLUTE
    rom_le_hci_uninit                        0x10085d75   Thumb Code     0  QCA6174_SCAQBAFM.sym ABSOLUTE
    rom_le_hci_register_handler              0x10085d81   Thumb Code     0  QCA6174_SCAQBAFM.sym ABSOLUTE
    rom_le_hci_deregister_handler            0x10085dd5   Thumb Code     0  QCA6174_SCAQBAFM.sym ABSOLUTE
    rom_hci_read_tx_power                    0x10085e27   Thumb Code     0  QCA6174_SCAQBAFM.sym ABSOLUTE
    rom_hci_read_rx_power                    0x10085e51   Thumb Code     0  QCA6174_SCAQBAFM.sym ABSOLUTE
    rom_hci_set_le_event_mask                0x10085e7b   Thumb Code     0  QCA6174_SCAQBAFM.sym ABSOLUTE
    rom_hci_read_le_buf_size                 0x10085e89   Thumb Code     0  QCA6174_SCAQBAFM.sym ABSOLUTE
    rom_hci_read_local_bt_addr               0x10085e8f   Thumb Code     0  QCA6174_SCAQBAFM.sym ABSOLUTE
    rom_hci_read_le_local_feature            0x10085e95   Thumb Code     0  QCA6174_SCAQBAFM.sym ABSOLUTE
    rom_hci_set_le_random_address            0x10085e9b   Thumb Code     0  QCA6174_SCAQBAFM.sym ABSOLUTE
    rom_hci_set_le_adv_param                 0x10085ea1   Thumb Code     0  QCA6174_SCAQBAFM.sym ABSOLUTE
    rom_hci_read_le_trans_power              0x10085ea7   Thumb Code     0  QCA6174_SCAQBAFM.sym ABSOLUTE
    rom_hci_set_le_adv_data                  0x10085ead   Thumb Code     0  QCA6174_SCAQBAFM.sym ABSOLUTE
    rom_hci_set_le_scan_resp_data            0x10085eb3   Thumb Code     0  QCA6174_SCAQBAFM.sym ABSOLUTE
    rom_hci_set_adv_enable                   0x10085eb9   Thumb Code     0  QCA6174_SCAQBAFM.sym ABSOLUTE
    rom_le_hci_disconnect                    0x10085ebf   Thumb Code     0  QCA6174_SCAQBAFM.sym ABSOLUTE
    rom_hci_read_whitelist_size              0x10085eed   Thumb Code     0  QCA6174_SCAQBAFM.sym ABSOLUTE
    rom_hci_clear_whitelist                  0x10085ef3   Thumb Code     0  QCA6174_SCAQBAFM.sym ABSOLUTE
    rom_hci_remove_whitelist                 0x10085ef9   Thumb Code     0  QCA6174_SCAQBAFM.sym ABSOLUTE
    rom_hci_update_le_connection             0x10085eff   Thumb Code     0  QCA6174_SCAQBAFM.sym ABSOLUTE
    rom_hci_set_channel_map                  0x10085f05   Thumb Code     0  QCA6174_SCAQBAFM.sym ABSOLUTE
    rom_hci_read_channel_map                 0x10085f0b   Thumb Code     0  QCA6174_SCAQBAFM.sym ABSOLUTE
    rom_hci_read_le_remote_feature           0x10085f11   Thumb Code     0  QCA6174_SCAQBAFM.sym ABSOLUTE
    rom_hci_le_encrypt                       0x10085f17   Thumb Code     0  QCA6174_SCAQBAFM.sym ABSOLUTE
    rom_hci_LTK_req_reply                    0x10085f21   Thumb Code     0  QCA6174_SCAQBAFM.sym ABSOLUTE
    rom_hci_LTK_req_negative_reply           0x10085f27   Thumb Code     0  QCA6174_SCAQBAFM.sym ABSOLUTE
    rom_hci_le_read_support_states           0x10085f2d   Thumb Code     0  QCA6174_SCAQBAFM.sym ABSOLUTE
    rom_hci_wrap_global_handler              0x10085f33   Thumb Code     0  QCA6174_SCAQBAFM.sym ABSOLUTE
    rom_store_controller_addr                0x10086059   Thumb Code     0  QCA6174_SCAQBAFM.sym ABSOLUTE
    rom_adp_alloc                            0x1008606f   Thumb Code     0  QCA6174_SCAQBAFM.sym ABSOLUTE
    rom_adp_dealloc                          0x100860a7   Thumb Code     0  QCA6174_SCAQBAFM.sym ABSOLUTE
    rom_adp_init                             0x100860c3   Thumb Code     0  QCA6174_SCAQBAFM.sym ABSOLUTE
    rom_adp_uninit                           0x100860e9   Thumb Code     0  QCA6174_SCAQBAFM.sym ABSOLUTE
    rom_is_le_ctrl_initialized               0x10086111   Thumb Code     0  QCA6174_SCAQBAFM.sym ABSOLUTE
    rom_Ath_Gap_Init_Hci                     0x10086129   Thumb Code     0  QCA6174_SCAQBAFM.sym ABSOLUTE
    rom_Ath_Gap_Init_Stack                   0x1008615d   Thumb Code     0  QCA6174_SCAQBAFM.sym ABSOLUTE
    rom_Ath_Gap_Deinit_Stack                 0x100861b5   Thumb Code     0  QCA6174_SCAQBAFM.sym ABSOLUTE
    rom_wipower_AddService                   0x10086229   Thumb Code     0  QCA6174_SCAQBAFM.sym ABSOLUTE
    rom_wipower_SetParameter                 0x1008626b   Thumb Code     0  QCA6174_SCAQBAFM.sym ABSOLUTE
    rom_wipower_GetParameter                 0x10086295   Thumb Code     0  QCA6174_SCAQBAFM.sym ABSOLUTE
    rom_wipower_PruAlertNotify               0x100862c1   Thumb Code     0  QCA6174_SCAQBAFM.sym ABSOLUTE
    rom_wipower_GetAttributeTable            0x100862e5   Thumb Code     0  QCA6174_SCAQBAFM.sym ABSOLUTE
    rom_crc_16_calc                          0x10086315   Thumb Code     0  QCA6174_SCAQBAFM.sym ABSOLUTE
    rom_crc_16_l_calc                        0x10086381   Thumb Code     0  QCA6174_SCAQBAFM.sym ABSOLUTE
    rom_crc_30_calc                          0x100863e5   Thumb Code     0  QCA6174_SCAQBAFM.sym ABSOLUTE
    rom_crc_30_step                          0x1008644d   Thumb Code     0  QCA6174_SCAQBAFM.sym ABSOLUTE
    rom_crc_16_step                          0x100864bb   Thumb Code     0  QCA6174_SCAQBAFM.sym ABSOLUTE
    rom_crc_16_l_step                        0x100864f9   Thumb Code     0  QCA6174_SCAQBAFM.sym ABSOLUTE
    rom_crc_32_calc                          0x10086533   Thumb Code     0  QCA6174_SCAQBAFM.sym ABSOLUTE
    crc_iterate_top4                         0x100865d9   Thumb Code     0  QCA6174_SCAQBAFM.sym ABSOLUTE
    crc_iterate                              0x100865e9   Thumb Code     0  QCA6174_SCAQBAFM.sym ABSOLUTE
    OI_SBC_CalculateChecksum                 0x100865f1   Thumb Code     0  QCA6174_SCAQBAFM.sym ABSOLUTE
    OI_SBC_ExpandFrameFields                 0x10086641   Thumb Code     0  QCA6174_SCAQBAFM.sym ABSOLUTE
    shift_buffer                             0x10086665   Thumb Code     0  QCA6174_SCAQBAFM.sym ABSOLUTE
    FindSyncword                             0x100866ad   Thumb Code     0  QCA6174_SCAQBAFM.sym ABSOLUTE
    OI_SBC_ReadSamplesJoint                  0x10086711   Thumb Code     0  QCA6174_SCAQBAFM.sym ABSOLUTE
    internal_DecodeRaw                       0x100868db   Thumb Code     0  QCA6174_SCAQBAFM.sym ABSOLUTE
    OI_CODEC_SBC_DecoderReset                0x1008692d   Thumb Code     0  QCA6174_SCAQBAFM.sym ABSOLUTE
    OI_CODEC_SBC_DecodeFrame                 0x10086941   Thumb Code     0  QCA6174_SCAQBAFM.sym ABSOLUTE
    OI_CODEC_SBC_SkipFrame                   0x100869ef   Thumb Code     0  QCA6174_SCAQBAFM.sym ABSOLUTE
    OI_CODEC_SBC_FrameCount                  0x10086a65   Thumb Code     0  QCA6174_SCAQBAFM.sym ABSOLUTE
    G711Plc_Init                             0x10086af9   Thumb Code     0  QCA6174_SCAQBAFM.sym ABSOLUTE
    G711Plc                                  0x100875b3   Thumb Code     0  QCA6174_SCAQBAFM.sym ABSOLUTE
    OI_SBC_SynthFrame_80                     0x100876ad   Thumb Code     0  QCA6174_SCAQBAFM.sym ABSOLUTE
    SynthWindow40_int32_int32_symmetry_with_sum 0x1008776b   Thumb Code     0  QCA6174_SCAQBAFM.sym ABSOLUTE
    cosineModulateSynth4                     0x10087995   Thumb Code     0  QCA6174_SCAQBAFM.sym ABSOLUTE
    OI_SBC_SynthFrame_4SB                    0x10087a21   Thumb Code     0  QCA6174_SCAQBAFM.sym ABSOLUTE
    OI_SBC_SynthFrame                        0x10087ba7   Thumb Code     0  QCA6174_SCAQBAFM.sym ABSOLUTE
    OI_CODEC_SBC_EncoderReset                0x10087bd5   Thumb Code     0  QCA6174_SCAQBAFM.sym ABSOLUTE
    OI_CODEC_SBC_EncoderReconfigure          0x10087be1   Thumb Code     0  QCA6174_SCAQBAFM.sym ABSOLUTE
    OI_CODEC_SBC_EncoderConfigure            0x10087be9   Thumb Code     0  QCA6174_SCAQBAFM.sym ABSOLUTE
    OI_CODEC_SBC_EncoderConfigureWBS         0x10087c03   Thumb Code     0  QCA6174_SCAQBAFM.sym ABSOLUTE
    OI_CODEC_SBC_EncodeCommandFrame          0x10087c2b   Thumb Code     0  QCA6174_SCAQBAFM.sym ABSOLUTE
    OI_SBC_ComputeJointScalefactorsAndDoMidSide 0x10087c37   Thumb Code     0  QCA6174_SCAQBAFM.sym ABSOLUTE
    OI_CODEC_SBC_EncodeFrame                 0x10087d9b   Thumb Code     0  QCA6174_SCAQBAFM.sym ABSOLUTE
    PFAL_ACI_IO_Mux                          0x10087e5d   Thumb Code     0  QCA6174_SCAQBAFM.sym ABSOLUTE
    rom_PLCInit                              0x10087e69   Thumb Code     0  QCA6174_SCAQBAFM.sym ABSOLUTE
    rom_PLC_AMDF                             0x10087eed   Thumb Code     0  QCA6174_SCAQBAFM.sym ABSOLUTE
    rom_DarPLC                               0x1008804b   Thumb Code     0  QCA6174_SCAQBAFM.sym ABSOLUTE
    rom_PLCMain                              0x100885b5   Thumb Code     0  QCA6174_SCAQBAFM.sym ABSOLUTE
    rom_ANT_DataPathInit                     0x10088645   Thumb Code     0  QCA6174_SCAQBAFM.sym ABSOLUTE
    rom_ANT_DataPathTxToHost                 0x1008866f   Thumb Code     0  QCA6174_SCAQBAFM.sym ABSOLUTE
    rom_ANT_DataPathQueueTx                  0x10088767   Thumb Code     0  QCA6174_SCAQBAFM.sym ABSOLUTE
    rom_ANT_DataPathHandleCommand            0x10088837   Thumb Code     0  QCA6174_SCAQBAFM.sym ABSOLUTE
    rom_ANT_DataPathHandleData               0x1008886d   Thumb Code     0  QCA6174_SCAQBAFM.sym ABSOLUTE
    rom_ANT_DataPathSetQueuedBurstMode       0x10088939   Thumb Code     0  QCA6174_SCAQBAFM.sym ABSOLUTE
    rom_ANT_DataPathHandleANTEvent           0x10088945   Thumb Code     0  QCA6174_SCAQBAFM.sym ABSOLUTE
    rom_ANT_DataPathResetEventHandler        0x100889b1   Thumb Code     0  QCA6174_SCAQBAFM.sym ABSOLUTE
    rom_ANT_DataPathSetTxQueueBufferingConfig 0x100889cd   Thumb Code     0  QCA6174_SCAQBAFM.sym ABSOLUTE
    rom_ANT_DataPathGetTxQueueBufferingConfig 0x100889f7   Thumb Code     0  QCA6174_SCAQBAFM.sym ABSOLUTE
    rom_ANT_DataPathSetEventFilter           0x10088a15   Thumb Code     0  QCA6174_SCAQBAFM.sym ABSOLUTE
    rom_ANT_DataPathGetEventFilter           0x10088a1b   Thumb Code     0  QCA6174_SCAQBAFM.sym ABSOLUTE
    rom_SendAntDataFlowEvent                 0x10088a65   Thumb Code     0  QCA6174_SCAQBAFM.sym ABSOLUTE
    rom_GAP_HandleEvent                      0x10088a81   Thumb Code     0  QCA6174_SCAQBAFM.sym ABSOLUTE
    rom_GAP_HandleCommandComplete            0x10088aed   Thumb Code     0  QCA6174_SCAQBAFM.sym ABSOLUTE
    rom_GAP_HandleCommandStatus              0x10088b59   Thumb Code     0  QCA6174_SCAQBAFM.sym ABSOLUTE
    rom_GAP_HandleNumCompleted               0x10088b6b   Thumb Code     0  QCA6174_SCAQBAFM.sym ABSOLUTE
    rom_GAP_HandleLeEvent                    0x10088b8f   Thumb Code     0  QCA6174_SCAQBAFM.sym ABSOLUTE
    rom_GAP_Reset                            0x10088bab   Thumb Code     0  QCA6174_SCAQBAFM.sym ABSOLUTE
    rom_GAP_HandleResetComplete              0x10088bb7   Thumb Code     0  QCA6174_SCAQBAFM.sym ABSOLUTE
    rom_GAP_InitRadio                        0x10088bed   Thumb Code     0  QCA6174_SCAQBAFM.sym ABSOLUTE
    rom_GAP_WriteScanEnable                  0x10088bf5   Thumb Code     0  QCA6174_SCAQBAFM.sym ABSOLUTE
    rom_GAP_HandleWriteScanEnableComplete    0x10088c07   Thumb Code     0  QCA6174_SCAQBAFM.sym ABSOLUTE
    rom_GAP_WritePageScanActivity            0x10088c23   Thumb Code     0  QCA6174_SCAQBAFM.sym ABSOLUTE
    rom_GAP_HandleWritePageScanActivityComplete 0x10088c41   Thumb Code     0  QCA6174_SCAQBAFM.sym ABSOLUTE
    rom_GAP_ConnectionRequest                0x10088c5f   Thumb Code     0  QCA6174_SCAQBAFM.sym ABSOLUTE
    rom_GAP_AcceptConnection                 0x10088cff   Thumb Code     0  QCA6174_SCAQBAFM.sym ABSOLUTE
    rom_GAP_RejectConnection                 0x10088d2f   Thumb Code     0  QCA6174_SCAQBAFM.sym ABSOLUTE
    rom_GAP_SetScanEnable                    0x10088d5f   Thumb Code     0  QCA6174_SCAQBAFM.sym ABSOLUTE
    rom_GAP_AdvertisingReport                0x10088d75   Thumb Code     0  QCA6174_SCAQBAFM.sym ABSOLUTE
    rom_GAP_CreateConnectionCancelLE         0x10088d77   Thumb Code     0  QCA6174_SCAQBAFM.sym ABSOLUTE
    rom_GAP_ConnectionComplete               0x10088d83   Thumb Code     0  QCA6174_SCAQBAFM.sym ABSOLUTE
    rom_GAP_LeConnectionComplete             0x10088df7   Thumb Code     0  QCA6174_SCAQBAFM.sym ABSOLUTE
    rom_GAP_LinkKeyRequest                   0x10088df9   Thumb Code     0  QCA6174_SCAQBAFM.sym ABSOLUTE
    rom_GAP_LinkKeyReply                     0x10088e37   Thumb Code     0  QCA6174_SCAQBAFM.sym ABSOLUTE
    rom_GAP_EncryptionChange                 0x10088f7d   Thumb Code     0  QCA6174_SCAQBAFM.sym ABSOLUTE
    rom_GAP_HandleRoleChange                 0x10088f89   Thumb Code     0  QCA6174_SCAQBAFM.sym ABSOLUTE
    rom_GAP_HandleModeChange                 0x10088f95   Thumb Code     0  QCA6174_SCAQBAFM.sym ABSOLUTE
    rom_GAP_DisconnectComplete               0x10088fa1   Thumb Code     0  QCA6174_SCAQBAFM.sym ABSOLUTE
    rom_L2CAP_HandleAcl                      0x10089045   Thumb Code     0  QCA6174_SCAQBAFM.sym ABSOLUTE
    rom_L2CAP_HandleData                     0x1008909b   Thumb Code     0  QCA6174_SCAQBAFM.sym ABSOLUTE
    rom_L2CAP_HandleSignalling               0x100890ff   Thumb Code     0  QCA6174_SCAQBAFM.sym ABSOLUTE
    rom_L2CAP_HandleHIDControlData           0x1008914f   Thumb Code     0  QCA6174_SCAQBAFM.sym ABSOLUTE
    rom_L2CAP_HandleHIDInterruptData         0x1008915d   Thumb Code     0  QCA6174_SCAQBAFM.sym ABSOLUTE
    rom_L2CAP_HandleUnexpectedData           0x10089189   Thumb Code     0  QCA6174_SCAQBAFM.sym ABSOLUTE
    rom_L2CAP_HandleConnectionRequest        0x10089195   Thumb Code     0  QCA6174_SCAQBAFM.sym ABSOLUTE
    rom_L2CAP_SendConnectionResponse         0x100891f1   Thumb Code     0  QCA6174_SCAQBAFM.sym ABSOLUTE
    rom_L2CAP_HandleConfigureRequest         0x1008922f   Thumb Code     0  QCA6174_SCAQBAFM.sym ABSOLUTE
    rom_L2CAP_SendConfigureResponse          0x10089261   Thumb Code     0  QCA6174_SCAQBAFM.sym ABSOLUTE
    rom_L2CAP_SendConfigureRequest           0x100892a1   Thumb Code     0  QCA6174_SCAQBAFM.sym ABSOLUTE
    rom_L2CAP_HandleConfigureResponse        0x100892ed   Thumb Code     0  QCA6174_SCAQBAFM.sym ABSOLUTE
    rom_L2CAP_HandleDisconnectionRequest     0x10089349   Thumb Code     0  QCA6174_SCAQBAFM.sym ABSOLUTE
    rom_L2CAP_SendDisconnectionResponse      0x1008936f   Thumb Code     0  QCA6174_SCAQBAFM.sym ABSOLUTE
    rom_L2CAP_HandleHIDHandshake             0x10089397   Thumb Code     0  QCA6174_SCAQBAFM.sym ABSOLUTE
    rom_L2CAP_GetRequestID                   0x100893eb   Thumb Code     0  QCA6174_SCAQBAFM.sym ABSOLUTE
    rom_LLM_SPAIRING_getPrivateKey           0x10089585   Thumb Code     0  QCA6174_SCAQBAFM.sym ABSOLUTE
    rom_LLM_SPAIRING_calcPublicKey           0x10089633   Thumb Code     0  QCA6174_SCAQBAFM.sym ABSOLUTE
    rom_LLM_SPAIRING_dhKey                   0x1008968f   Thumb Code     0  QCA6174_SCAQBAFM.sym ABSOLUTE
    rom_LLM_g                                0x1008974d   Thumb Code     0  QCA6174_SCAQBAFM.sym ABSOLUTE
    rom_LLM_HMAC_SHA_256                     0x100897dd   Thumb Code     0  QCA6174_SCAQBAFM.sym ABSOLUTE
    rom_LLM_f1                               0x10089939   Thumb Code     0  QCA6174_SCAQBAFM.sym ABSOLUTE
    rom_LLM_f2                               0x10089975   Thumb Code     0  QCA6174_SCAQBAFM.sym ABSOLUTE
    rom_LLM_f3                               0x100899b5   Thumb Code     0  QCA6174_SCAQBAFM.sym ABSOLUTE
    rom_LLM_h3                               0x100899f3   Thumb Code     0  QCA6174_SCAQBAFM.sym ABSOLUTE
    rom_LLM_h4                               0x10089a2b   Thumb Code     0  QCA6174_SCAQBAFM.sym ABSOLUTE
    rom_LLM_h5                               0x10089a5f   Thumb Code     0  QCA6174_SCAQBAFM.sym ABSOLUTE
    rom_LLM_SECURE_getAuthenticationConfimation 0x10089a8f   Thumb Code     0  QCA6174_SCAQBAFM.sym ABSOLUTE
    rom_LLM_SECURE_calculateEncryptionKey    0x10089ab5   Thumb Code     0  QCA6174_SCAQBAFM.sym ABSOLUTE
    LLM_SPAIRING_NumComparison_NI_Hlr        0x10089ae1   Thumb Code     0  QCA6174_SCAQBAFM.sym ABSOLUTE
    LLM_SPAIRING_NumComparison_I_Hlr         0x10089cdb   Thumb Code     0  QCA6174_SCAQBAFM.sym ABSOLUTE
    LLM_SPAIRING_NumComparison_Confirm       0x10089e99   Thumb Code     0  QCA6174_SCAQBAFM.sym ABSOLUTE
    LLM_SPAIRING_OOB_NI_Hlr                  0x10089f65   Thumb Code     0  QCA6174_SCAQBAFM.sym ABSOLUTE
    LLM_SPAIRING_OOB_I_Hlr                   0x1008a19d   Thumb Code     0  QCA6174_SCAQBAFM.sym ABSOLUTE
    LLM_SPAIRING_OOB_Confirm                 0x1008a399   Thumb Code     0  QCA6174_SCAQBAFM.sym ABSOLUTE
    rom_LLM_SPAIRING_PassKeyEntry_Init       0x1008a43d   Thumb Code     0  QCA6174_SCAQBAFM.sym ABSOLUTE
    rom_LLM_SPAIRING_handle_LMP_keypress_notification_req 0x1008a4b9   Thumb Code     0  QCA6174_SCAQBAFM.sym ABSOLUTE
    rom_LLM_SPAIRING_initiate_LMP_simple_pairing_confirm 0x1008a4d9   Thumb Code     0  QCA6174_SCAQBAFM.sym ABSOLUTE
    LLM_SPAIRING_PassKeyEntry_NI_Hlr         0x1008a557   Thumb Code     0  QCA6174_SCAQBAFM.sym ABSOLUTE
    LLM_SPAIRING_PassKeyEntry_I_Hlr          0x1008a80b   Thumb Code     0  QCA6174_SCAQBAFM.sym ABSOLUTE
    LLM_SPAIRING_PassKeyEntry_Confirm        0x1008aad7   Thumb Code     0  QCA6174_SCAQBAFM.sym ABSOLUTE
    rom_att_init                             0x1008abbf   Thumb Code     0  QCA6174_SCAQBAFM.sym ABSOLUTE
    rom_att_uninit                           0x1008abcd   Thumb Code     0  QCA6174_SCAQBAFM.sym ABSOLUTE
    rom_att_send                             0x1008abdf   Thumb Code     0  QCA6174_SCAQBAFM.sym ABSOLUTE
    rom_att_fill_uuid                        0x1008abf1   Thumb Code     0  QCA6174_SCAQBAFM.sym ABSOLUTE
    rom_att_send_exchange_mtu_req            0x1008ac29   Thumb Code     0  QCA6174_SCAQBAFM.sym ABSOLUTE
    rom_att_send_read_request                0x1008ac49   Thumb Code     0  QCA6174_SCAQBAFM.sym ABSOLUTE
    rom_att_send_notify                      0x1008ac69   Thumb Code     0  QCA6174_SCAQBAFM.sym ABSOLUTE
    rom_att_send_indicate                    0x1008ac9b   Thumb Code     0  QCA6174_SCAQBAFM.sym ABSOLUTE
    rom_att_send_find_information_rsp        0x1008accd   Thumb Code     0  QCA6174_SCAQBAFM.sym ABSOLUTE
    rom_att_send_read_rsp                    0x1008acf9   Thumb Code     0  QCA6174_SCAQBAFM.sym ABSOLUTE
    rom_att_send_error_rsp                   0x1008ad1d   Thumb Code     0  QCA6174_SCAQBAFM.sym ABSOLUTE
    rom_att_send_read_by_group_type_rsp      0x1008ad47   Thumb Code     0  QCA6174_SCAQBAFM.sym ABSOLUTE
    rom_att_send_read_by_type_rsp            0x1008ad73   Thumb Code     0  QCA6174_SCAQBAFM.sym ABSOLUTE
    rom_att_send_find_by_type_value_rsp      0x1008ad9f   Thumb Code     0  QCA6174_SCAQBAFM.sym ABSOLUTE
    rom_att_send_write_rsp                   0x1008adc7   Thumb Code     0  QCA6174_SCAQBAFM.sym ABSOLUTE
    rom_att_send_confirm                     0x1008add3   Thumb Code     0  QCA6174_SCAQBAFM.sym ABSOLUTE
    rom_att_valid_command                    0x1008addf   Thumb Code     0  QCA6174_SCAQBAFM.sym ABSOLUTE
    rom_let_initialize                       0x1008aee9   Thumb Code     0  QCA6174_SCAQBAFM.sym ABSOLUTE
    rom_le_os_init                           0x1008aeef   Thumb Code     0  QCA6174_SCAQBAFM.sym ABSOLUTE
    rom_le_os_deinit                         0x1008aef3   Thumb Code     0  QCA6174_SCAQBAFM.sym ABSOLUTE
    rom_bdacpy                               0x1008aef9   Thumb Code     0  QCA6174_SCAQBAFM.sym ABSOLUTE
    rom_bacmp                                0x1008af01   Thumb Code     0  QCA6174_SCAQBAFM.sym ABSOLUTE
    rom_baswap_1                             0x1008af13   Thumb Code     0  QCA6174_SCAQBAFM.sym ABSOLUTE
    rom_OS_Init                              0x1008af2d   Thumb Code     0  QCA6174_SCAQBAFM.sym ABSOLUTE
    rom_OS_Deinit                            0x1008af33   Thumb Code     0  QCA6174_SCAQBAFM.sym ABSOLUTE
    rom_os_create_timer                      0x1008af49   Thumb Code     0  QCA6174_SCAQBAFM.sym ABSOLUTE
    rom_os_start_timer                       0x1008af57   Thumb Code     0  QCA6174_SCAQBAFM.sym ABSOLUTE
    rom_os_set_timer                         0x1008af73   Thumb Code     0  QCA6174_SCAQBAFM.sym ABSOLUTE
    rom_os_cancel_timer                      0x1008af87   Thumb Code     0  QCA6174_SCAQBAFM.sym ABSOLUTE
    rom_os_reset_timer                       0x1008af9b   Thumb Code     0  QCA6174_SCAQBAFM.sym ABSOLUTE
    rom_os_close_timer                       0x1008afaf   Thumb Code     0  QCA6174_SCAQBAFM.sym ABSOLUTE
    rom_gatt_return_ctx                      0x1008afd1   Thumb Code     0  QCA6174_SCAQBAFM.sym ABSOLUTE
    rom_gatt_lock                            0x1008afd5   Thumb Code     0  QCA6174_SCAQBAFM.sym ABSOLUTE
    rom_gatt_unlock                          0x1008afd7   Thumb Code     0  QCA6174_SCAQBAFM.sym ABSOLUTE
    rom_gatt_internal_client_callback        0x1008afd9   Thumb Code     0  QCA6174_SCAQBAFM.sym ABSOLUTE
    rom_gatt_init                            0x1008b07b   Thumb Code     0  QCA6174_SCAQBAFM.sym ABSOLUTE
    rom_gatt_uninit                          0x1008b0e3   Thumb Code     0  QCA6174_SCAQBAFM.sym ABSOLUTE
    rom_gatt_promote_le_uuid32               0x1008b1b9   Thumb Code     0  QCA6174_SCAQBAFM.sym ABSOLUTE
    rom_gatt_le2host_return_16bit_uuid       0x1008b1db   Thumb Code     0  QCA6174_SCAQBAFM.sym ABSOLUTE
    rom_gatt_le_uuid_cmp                     0x1008b1f5   Thumb Code     0  QCA6174_SCAQBAFM.sym ABSOLUTE
    rom_gatt_get_attribute_by_handle         0x1008b2d1   Thumb Code     0  QCA6174_SCAQBAFM.sym ABSOLUTE
    rom_gatt_basic_le_uuid_cmp               0x1008b337   Thumb Code     0  QCA6174_SCAQBAFM.sym ABSOLUTE
    rom_gatts_return_ctx                     0x1008b5d9   Thumb Code     0  QCA6174_SCAQBAFM.sym ABSOLUTE
    rom_gatts_lock                           0x1008b5dd   Thumb Code     0  QCA6174_SCAQBAFM.sym ABSOLUTE
    rom_gatts_unlock                         0x1008b5ef   Thumb Code     0  QCA6174_SCAQBAFM.sym ABSOLUTE
    rom_gatts_gatt_server_callback           0x1008b601   Thumb Code     0  QCA6174_SCAQBAFM.sym ABSOLUTE
    rom_gap_user_callback                    0x1008b6f1   Thumb Code     0  QCA6174_SCAQBAFM.sym ABSOLUTE
    rom_gatts_init                           0x1008b70b   Thumb Code     0  QCA6174_SCAQBAFM.sym ABSOLUTE
    rom_gatts_uninit                         0x1008b789   Thumb Code     0  QCA6174_SCAQBAFM.sym ABSOLUTE
    rom_le_l2cap_init                        0x1008b91d   Thumb Code     0  QCA6174_SCAQBAFM.sym ABSOLUTE
    rom_le_l2cap_uninit                      0x1008b9bb   Thumb Code     0  QCA6174_SCAQBAFM.sym ABSOLUTE
    rom_le_l2cap_register                    0x1008b9c9   Thumb Code     0  QCA6174_SCAQBAFM.sym ABSOLUTE
    rom_le_l2cap_unregister                  0x1008ba1d   Thumb Code     0  QCA6174_SCAQBAFM.sym ABSOLUTE
    rom_l2cap_wrap_send_data                 0x1008ba7f   Thumb Code     0  QCA6174_SCAQBAFM.sym ABSOLUTE
    rom_le_l2cap_send                        0x1008bb09   Thumb Code     0  QCA6174_SCAQBAFM.sym ABSOLUTE
    rom_l2cap_wrap_global_handler            0x1008bb53   Thumb Code     0  QCA6174_SCAQBAFM.sym ABSOLUTE
    rom_hci_l2cap_handler                    0x1008bbb1   Thumb Code     0  QCA6174_SCAQBAFM.sym ABSOLUTE
    rom_l2hci_init_memory                    0x1008bda3   Thumb Code     0  QCA6174_SCAQBAFM.sym ABSOLUTE
    rom_l2hci_deinit_memory                  0x1008be35   Thumb Code     0  QCA6174_SCAQBAFM.sym ABSOLUTE
    rom_sm_generate_ir_and_er                0x1008c049   Thumb Code     0  QCA6174_SCAQBAFM.sym ABSOLUTE
    rom_sm_set_config                        0x1008c96d   Thumb Code     0  QCA6174_SCAQBAFM.sym ABSOLUTE
    rom_sm_clear_config                      0x1008c99b   Thumb Code     0  QCA6174_SCAQBAFM.sym ABSOLUTE
    rom_sm_init                              0x1008c9c1   Thumb Code     0  QCA6174_SCAQBAFM.sym ABSOLUTE
    rom_sm_deinit                            0x1008ca01   Thumb Code     0  QCA6174_SCAQBAFM.sym ABSOLUTE
    rom_sm_encryption_request                0x1008ca0d   Thumb Code     0  QCA6174_SCAQBAFM.sym ABSOLUTE
    rom_sm_pair                              0x1008ca83   Thumb Code     0  QCA6174_SCAQBAFM.sym ABSOLUTE
    rom_sm_unpair                            0x1008cb3d   Thumb Code     0  QCA6174_SCAQBAFM.sym ABSOLUTE
    rom_sm_get_ltk_by_ediv                   0x1008cb6f   Thumb Code     0  QCA6174_SCAQBAFM.sym ABSOLUTE
    rom_sm_generate_resolvable_addr          0x1008ce11   Thumb Code     0  QCA6174_SCAQBAFM.sym ABSOLUTE
    rom_sm_generate_non_resolvable_addr      0x1008ce77   Thumb Code     0  QCA6174_SCAQBAFM.sym ABSOLUTE
    rom_sm_generate_static_address           0x1008cef7   Thumb Code     0  QCA6174_SCAQBAFM.sym ABSOLUTE
    rom_sm_set_passkey                       0x1008cf77   Thumb Code     0  QCA6174_SCAQBAFM.sym ABSOLUTE
    rom_sm_notify_encryption_state           0x1008d071   Thumb Code     0  QCA6174_SCAQBAFM.sym ABSOLUTE
    rom_sm_l2cap_callback                    0x1008d193   Thumb Code     0  QCA6174_SCAQBAFM.sym ABSOLUTE
    rom_sm_os_init                           0x1008d751   Thumb Code     0  QCA6174_SCAQBAFM.sym ABSOLUTE
    rom_sm_os_deinit                         0x1008d753   Thumb Code     0  QCA6174_SCAQBAFM.sym ABSOLUTE
    rom_sm_os_lock                           0x1008d755   Thumb Code     0  QCA6174_SCAQBAFM.sym ABSOLUTE
    rom_sm_os_unlock                         0x1008d757   Thumb Code     0  QCA6174_SCAQBAFM.sym ABSOLUTE
    rom_sm_os_swap_bytes                     0x1008d759   Thumb Code     0  QCA6174_SCAQBAFM.sym ABSOLUTE
    rom_sm_os_get_rand                       0x1008d781   Thumb Code     0  QCA6174_SCAQBAFM.sym ABSOLUTE
    OI_SBC_MaxBitpool                        0x1008d78d   Thumb Code     0  QCA6174_SCAQBAFM.sym ABSOLUTE
    internal_CalculateFramelen               0x1008d7af   Thumb Code     0  QCA6174_SCAQBAFM.sym ABSOLUTE
    OI_SBC_CalculateFrameAndHeaderlen        0x1008d7eb   Thumb Code     0  QCA6174_SCAQBAFM.sym ABSOLUTE
    computeBitneed                           0x1008d83b   Thumb Code     0  QCA6174_SCAQBAFM.sym ABSOLUTE
    adjustToFitBitpool                       0x1008d8f7   Thumb Code     0  QCA6174_SCAQBAFM.sym ABSOLUTE
    allocAdjustedBits                        0x1008d991   Thumb Code     0  QCA6174_SCAQBAFM.sym ABSOLUTE
    allocExcessBits                          0x1008d9bf   Thumb Code     0  QCA6174_SCAQBAFM.sym ABSOLUTE
    setEncodeBitpool                         0x1008d9d3   Thumb Code     0  QCA6174_SCAQBAFM.sym ABSOLUTE
    oneChannelBitAllocation                  0x1008d9eb   Thumb Code     0  QCA6174_SCAQBAFM.sym ABSOLUTE
    monoBitAllocation                        0x1008da71   Thumb Code     0  QCA6174_SCAQBAFM.sym ABSOLUTE
    OI_SBC_ComputeBitAllocation              0x1008dbe9   Thumb Code     0  QCA6174_SCAQBAFM.sym ABSOLUTE
    OI_CODEC_SBC_EnableVarBitpools           0x1008dbf9   Thumb Code     0  QCA6174_SCAQBAFM.sym ABSOLUTE
    OI_CODEC_SBC_GetMaxBitneed               0x1008dc13   Thumb Code     0  QCA6174_SCAQBAFM.sym ABSOLUTE
    OI_CODEC_SBC_CalculateBitpool            0x1008dc1f   Thumb Code     0  QCA6174_SCAQBAFM.sym ABSOLUTE
    OI_CODEC_SBC_CalculatePcmBytes           0x1008dc59   Thumb Code     0  QCA6174_SCAQBAFM.sym ABSOLUTE
    OI_CODEC_SBC_CalculateFramelen           0x1008dc6f   Thumb Code     0  QCA6174_SCAQBAFM.sym ABSOLUTE
    internal_CalculateBitrate                0x1008dc77   Thumb Code     0  QCA6174_SCAQBAFM.sym ABSOLUTE
    OI_CODEC_SBC_CalculateBitrate            0x1008dc95   Thumb Code     0  QCA6174_SCAQBAFM.sym ABSOLUTE
    OI_SBC_Dequant                           0x1008dcb9   Thumb Code     0  QCA6174_SCAQBAFM.sym ABSOLUTE
    OI_SBC_Dequant_Unscaled                  0x1008dcdd   Thumb Code     0  QCA6174_SCAQBAFM.sym ABSOLUTE
    default_mul_16s_32s_hi                   0x1008dd31   Thumb Code     0  QCA6174_SCAQBAFM.sym ABSOLUTE
    default_mul_32s_32s_hi                   0x1008dd3f   Thumb Code     0  QCA6174_SCAQBAFM.sym ABSOLUTE
    internal_DecoderReset                    0x1008dd69   Thumb Code     0  QCA6174_SCAQBAFM.sym ABSOLUTE
    OI_SBC_ReadHeader                        0x1008dde5   Thumb Code     0  QCA6174_SCAQBAFM.sym ABSOLUTE
    OI_SBC_ReadScalefactors                  0x1008de47   Thumb Code     0  QCA6174_SCAQBAFM.sym ABSOLUTE
    OI_SBC_ReadSamples                       0x1008decb   Thumb Code     0  QCA6174_SCAQBAFM.sym ABSOLUTE
    SynthWindow80_generated                  0x1008df81   Thumb Code     0  QCA6174_SCAQBAFM.sym ABSOLUTE
    dct2_8                                   0x1008e5b5   Thumb Code     0  QCA6174_SCAQBAFM.sym ABSOLUTE
    OI_SBC_AnalyzeFrame80                    0x1008e6e9   Thumb Code     0  QCA6174_SCAQBAFM.sym ABSOLUTE
    OI_SBC_AnalyzeFrame4SB                   0x1008e783   Thumb Code     0  QCA6174_SCAQBAFM.sym ABSOLUTE
    OI_SBC_AnalyzeFrame                      0x1008e81d   Thumb Code     0  QCA6174_SCAQBAFM.sym ABSOLUTE
    OI_BITSTREAM_WriteInit                   0x1008e839   Thumb Code     0  QCA6174_SCAQBAFM.sym ABSOLUTE
    OI_BITSTREAM_WriteUINT8Aligned           0x1008e845   Thumb Code     0  QCA6174_SCAQBAFM.sym ABSOLUTE
    OI_BITSTREAM_Write2xUINT4Aligned         0x1008e84f   Thumb Code     0  QCA6174_SCAQBAFM.sym ABSOLUTE
    OI_BITSTREAM_WriteUINT                   0x1008e85d   Thumb Code     0  QCA6174_SCAQBAFM.sym ABSOLUTE
    OI_BITSTREAM_WriteFlush                  0x1008e88f   Thumb Code     0  QCA6174_SCAQBAFM.sym ABSOLUTE
    internal_EncoderReset                    0x1008e8b5   Thumb Code     0  QCA6174_SCAQBAFM.sym ABSOLUTE
    internal_EncoderReconfigure              0x1008e991   Thumb Code     0  QCA6174_SCAQBAFM.sym ABSOLUTE
    internal_EncoderConfigure                0x1008e9a9   Thumb Code     0  QCA6174_SCAQBAFM.sym ABSOLUTE
    OI_SBC_WriteHeader                       0x1008ea2f   Thumb Code     0  QCA6174_SCAQBAFM.sym ABSOLUTE
    internal_EncodeCommandFrame              0x1008ea7b   Thumb Code     0  QCA6174_SCAQBAFM.sym ABSOLUTE
    OI_SBC_WriteScalefactors_4SB             0x1008eb21   Thumb Code     0  QCA6174_SCAQBAFM.sym ABSOLUTE
    OI_SBC_WriteScalefactors_8SB             0x1008eb53   Thumb Code     0  QCA6174_SCAQBAFM.sym ABSOLUTE
    OI_SBC_WriteScalefactors                 0x1008eb7f   Thumb Code     0  QCA6174_SCAQBAFM.sym ABSOLUTE
    OI_SBC_WriteSamples                      0x1008ebd7   Thumb Code     0  QCA6174_SCAQBAFM.sym ABSOLUTE
    OI_SBC_ComputeScalefactors               0x1008ec6d   Thumb Code     0  QCA6174_SCAQBAFM.sym ABSOLUTE
    rom_Command_BurstMessageProcess          0x1008ed25   Thumb Code     0  QCA6174_SCAQBAFM.sym ABSOLUTE
    rom_Command_SerialMessageProcess         0x1008edb5   Thumb Code     0  QCA6174_SCAQBAFM.sym ABSOLUTE
    rom_Command_ResponseMessage              0x1008f355   Thumb Code     0  QCA6174_SCAQBAFM.sym ABSOLUTE
    rom_ATT_HandleData                       0x1008f3f9   Thumb Code     0  QCA6174_SCAQBAFM.sym ABSOLUTE
    rom_ATT_HandleErrorRsp                   0x1008f425   Thumb Code     0  QCA6174_SCAQBAFM.sym ABSOLUTE
    rom_ATT_WriteValue                       0x1008f43d   Thumb Code     0  QCA6174_SCAQBAFM.sym ABSOLUTE
    rom_ATT_HandleNotification               0x1008f469   Thumb Code     0  QCA6174_SCAQBAFM.sym ABSOLUTE
    rom_HID_SetProtocol                      0x1008f4b1   Thumb Code     0  QCA6174_SCAQBAFM.sym ABSOLUTE
    rom_mpy_accum                            0x1008f509   Thumb Code     0  QCA6174_SCAQBAFM.sym ABSOLUTE
    rom_mpy_accum_dbl                        0x1008f535   Thumb Code     0  QCA6174_SCAQBAFM.sym ABSOLUTE
    rom_big_mpyP                             0x1008f571   Thumb Code     0  QCA6174_SCAQBAFM.sym ABSOLUTE
    rom_big_adjustP                          0x1008fb49   Thumb Code     0  QCA6174_SCAQBAFM.sym ABSOLUTE
    rom_big_1wd_mpy                          0x1008fc41   Thumb Code     0  QCA6174_SCAQBAFM.sym ABSOLUTE
    rom_big_add                              0x1008fc87   Thumb Code     0  QCA6174_SCAQBAFM.sym ABSOLUTE
    rom_big_addP                             0x1008fcbd   Thumb Code     0  QCA6174_SCAQBAFM.sym ABSOLUTE
    rom_big_sub                              0x1008fce5   Thumb Code     0  QCA6174_SCAQBAFM.sym ABSOLUTE
    rom_big_subP                             0x1008fd1d   Thumb Code     0  QCA6174_SCAQBAFM.sym ABSOLUTE
    rom_big_cmp                              0x1008fd45   Thumb Code     0  QCA6174_SCAQBAFM.sym ABSOLUTE
    rom_big_precise_reduce                   0x1008fda5   Thumb Code     0  QCA6174_SCAQBAFM.sym ABSOLUTE
    rom_big_halve                            0x1008fe81   Thumb Code     0  QCA6174_SCAQBAFM.sym ABSOLUTE
    rom_big_halveP                           0x1008feb9   Thumb Code     0  QCA6174_SCAQBAFM.sym ABSOLUTE
    rom_big_is_zero                          0x1008fee1   Thumb Code     0  QCA6174_SCAQBAFM.sym ABSOLUTE
    rom_big_is_one                           0x1008ff01   Thumb Code     0  QCA6174_SCAQBAFM.sym ABSOLUTE
    rom_big_divide                           0x1008ff25   Thumb Code     0  QCA6174_SCAQBAFM.sym ABSOLUTE
    rom_big_triple                           0x10090059   Thumb Code     0  QCA6174_SCAQBAFM.sym ABSOLUTE
    rom_toJacobian                           0x10090093   Thumb Code     0  QCA6174_SCAQBAFM.sym ABSOLUTE
    rom_toAffine                             0x100900eb   Thumb Code     0  QCA6174_SCAQBAFM.sym ABSOLUTE
    rom_pointDouble                          0x100901ad   Thumb Code     0  QCA6174_SCAQBAFM.sym ABSOLUTE
    rom_pointAdd                             0x100902a9   Thumb Code     0  QCA6174_SCAQBAFM.sym ABSOLUTE
    rom_pointMpyP                            0x10090433   Thumb Code     0  QCA6174_SCAQBAFM.sym ABSOLUTE
    rom_in_curveP                            0x100904d1   Thumb Code     0  QCA6174_SCAQBAFM.sym ABSOLUTE
    rom_ECDH_generate                        0x1009055b   Thumb Code     0  QCA6174_SCAQBAFM.sym ABSOLUTE
    rom_ECDH_derive_pt                       0x10090575   Thumb Code     0  QCA6174_SCAQBAFM.sym ABSOLUTE
    rom_ECDH_select_curve_P192               0x1009061d   Thumb Code     0  QCA6174_SCAQBAFM.sym ABSOLUTE
    rom_ECDH_select_curve_P256               0x10090625   Thumb Code     0  QCA6174_SCAQBAFM.sym ABSOLUTE
    rom_ECDH_get_curve_pt_size               0x1009062d   Thumb Code     0  QCA6174_SCAQBAFM.sym ABSOLUTE
    rom_os_create_lock                       0x10090645   Thumb Code     0  QCA6174_SCAQBAFM.sym ABSOLUTE
    rom_os_close_lock                        0x10090649   Thumb Code     0  QCA6174_SCAQBAFM.sym ABSOLUTE
    rom_os_lock                              0x1009064b   Thumb Code     0  QCA6174_SCAQBAFM.sym ABSOLUTE
    rom_os_unlock                            0x1009064d   Thumb Code     0  QCA6174_SCAQBAFM.sym ABSOLUTE
    rom_os_get_rand                          0x10090651   Thumb Code     0  QCA6174_SCAQBAFM.sym ABSOLUTE
    rom_gatts_process_disconn_comp_event     0x10090679   Thumb Code     0  QCA6174_SCAQBAFM.sym ABSOLUTE
    rom_gatts_process_disconnect_req         0x100906c9   Thumb Code     0  QCA6174_SCAQBAFM.sym ABSOLUTE
    rom_gatts_process_remove_dev_req         0x1009071b   Thumb Code     0  QCA6174_SCAQBAFM.sym ABSOLUTE
    rom_get_request_data                     0x100907c9   Thumb Code     0  QCA6174_SCAQBAFM.sym ABSOLUTE
    rom_get_service_type_by_handle_base      0x100907fd   Thumb Code     0  QCA6174_SCAQBAFM.sym ABSOLUTE
    rom_free_service                         0x10090813   Thumb Code     0  QCA6174_SCAQBAFM.sym ABSOLUTE
    rom_get_service_in_handle_range          0x1009084d   Thumb Code     0  QCA6174_SCAQBAFM.sym ABSOLUTE
    rom_gatts_process_accept_read_cfm        0x1009088b   Thumb Code     0  QCA6174_SCAQBAFM.sym ABSOLUTE
    rom_gatts_process_accept_write_cfm       0x10090931   Thumb Code     0  QCA6174_SCAQBAFM.sym ABSOLUTE
    rom_gatts_server_process_link_disconn    0x100909f5   Thumb Code     0  QCA6174_SCAQBAFM.sym ABSOLUTE
    rom_gatts_deregister_all_user_service    0x10090a11   Thumb Code     0  QCA6174_SCAQBAFM.sym ABSOLUTE
    rom_add_l2cap_header                     0x10090ac9   Thumb Code     0  QCA6174_SCAQBAFM.sym ABSOLUTE
    rom_get_connected_channel                0x10090aed   Thumb Code     0  QCA6174_SCAQBAFM.sym ABSOLUTE
    rom_get_unconnected_channel              0x10090b3f   Thumb Code     0  QCA6174_SCAQBAFM.sym ABSOLUTE
    rom_add_connected_channel                0x10090b8b   Thumb Code     0  QCA6174_SCAQBAFM.sym ABSOLUTE
    rom_delete_disconnected_channel          0x10090c25   Thumb Code     0  QCA6174_SCAQBAFM.sym ABSOLUTE
    rom_sm_e_func                            0x10090cb9   Thumb Code     0  QCA6174_SCAQBAFM.sym ABSOLUTE
    rom_sm_d1_func                           0x10090cc5   Thumb Code     0  QCA6174_SCAQBAFM.sym ABSOLUTE
    rom_sm_s1_func                           0x10090d05   Thumb Code     0  QCA6174_SCAQBAFM.sym ABSOLUTE
    rom_sm_c1_func                           0x10090d39   Thumb Code     0  QCA6174_SCAQBAFM.sym ABSOLUTE
    rom_sm_leftshift_onebit                  0x10090e3b   Thumb Code     0  QCA6174_SCAQBAFM.sym ABSOLUTE
    rom_sm_xor_128                           0x10090e55   Thumb Code     0  QCA6174_SCAQBAFM.sym ABSOLUTE
    rom_sm_padding                           0x10090e6b   Thumb Code     0  QCA6174_SCAQBAFM.sym ABSOLUTE
    rom_sm_generate_subkey                   0x10090e91   Thumb Code     0  QCA6174_SCAQBAFM.sym ABSOLUTE
    OI_CODEC_SBC_Alloc                       0x10090f19   Thumb Code     0  QCA6174_SCAQBAFM.sym ABSOLUTE
    OI_BITSTREAM_ReadInit                    0x10090f77   Thumb Code     0  QCA6174_SCAQBAFM.sym ABSOLUTE
    OI_BITSTREAM_ReadUINT                    0x10090f91   Thumb Code     0  QCA6174_SCAQBAFM.sym ABSOLUTE
    OI_BITSTREAM_ReadUINT4Aligned            0x10090fc7   Thumb Code     0  QCA6174_SCAQBAFM.sym ABSOLUTE
    OI_BITSTREAM_ReadUINT8Aligned            0x10090ff1   Thumb Code     0  QCA6174_SCAQBAFM.sym ABSOLUTE
    analyze4_generated                       0x1009100d   Thumb Code     0  QCA6174_SCAQBAFM.sym ABSOLUTE
    analyze8_generated                       0x100911b5   Thumb Code     0  QCA6174_SCAQBAFM.sym ABSOLUTE
    quant_fixed                              0x10091675   Thumb Code     0  QCA6174_SCAQBAFM.sym ABSOLUTE
    OI_SBC_Quant                             0x1009169b   Thumb Code     0  QCA6174_SCAQBAFM.sym ABSOLUTE
    rom_Auth_SetNetworkAddress               0x100916c1   Thumb Code     0  QCA6174_SCAQBAFM.sym ABSOLUTE
    dct3_4                                   0x1009175d   Thumb Code     0  QCA6174_SCAQBAFM.sym ABSOLUTE
    dct3_8                                   0x100917cd   Thumb Code     0  QCA6174_SCAQBAFM.sym ABSOLUTE
    _terminate_user_alloc                    0x1009191d   Thumb Code     0  QCA6174_SCAQBAFM.sym ABSOLUTE
    _init_user_alloc                         0x1009191f   Thumb Code     0  QCA6174_SCAQBAFM.sym ABSOLUTE
    __Heap_Full                              0x10091921   Thumb Code     0  QCA6174_SCAQBAFM.sym ABSOLUTE
    __Heap_Broken                            0x10091941   Thumb Code     0  QCA6174_SCAQBAFM.sym ABSOLUTE
    _init_alloc                              0x1009194b   Thumb Code     0  QCA6174_SCAQBAFM.sym ABSOLUTE
    malloc                                   0x100919a5   Thumb Code     0  QCA6174_SCAQBAFM.sym ABSOLUTE
    free                                     0x10091a07   Thumb Code     0  QCA6174_SCAQBAFM.sym ABSOLUTE
    __aeabi_llsl                             0x10091a53   Thumb Code     0  QCA6174_SCAQBAFM.sym ABSOLUTE
    _ll_shift_l                              0x10091a53   Thumb Code     0  QCA6174_SCAQBAFM.sym ABSOLUTE
    __aeabi_llsr                             0x10091a73   Thumb Code     0  QCA6174_SCAQBAFM.sym ABSOLUTE
    _ll_ushift_r                             0x10091a73   Thumb Code     0  QCA6174_SCAQBAFM.sym ABSOLUTE
    __aeabi_lasr                             0x10091a95   Thumb Code     0  QCA6174_SCAQBAFM.sym ABSOLUTE
    _ll_sshift_r                             0x10091a95   Thumb Code     0  QCA6174_SCAQBAFM.sym ABSOLUTE
    __aeabi_lmul                             0x10091abb   Thumb Code     0  QCA6174_SCAQBAFM.sym ABSOLUTE
    _ll_mul                                  0x10091abb   Thumb Code     0  QCA6174_SCAQBAFM.sym ABSOLUTE
    __aeabi_ldivmod                          0x10091b61   Thumb Code     0  QCA6174_SCAQBAFM.sym ABSOLUTE
    _ll_sdiv                                 0x10091b61   Thumb Code     0  QCA6174_SCAQBAFM.sym ABSOLUTE
    __aeabi_uldivmod                         0x10091bd1   Thumb Code     0  QCA6174_SCAQBAFM.sym ABSOLUTE
    _ll_udiv                                 0x10091bd1   Thumb Code     0  QCA6174_SCAQBAFM.sym ABSOLUTE
    __c89vsnprintf                           0x10091cd1   Thumb Code     0  QCA6174_SCAQBAFM.sym ABSOLUTE
    __2printf                                0x10091d05   Thumb Code     0  QCA6174_SCAQBAFM.sym ABSOLUTE
    __2sprintf                               0x10091d21   Thumb Code     0  QCA6174_SCAQBAFM.sym ABSOLUTE
    __2snprintf                              0x10091d4d   Thumb Code     0  QCA6174_SCAQBAFM.sym ABSOLUTE
    _printf_pre_padding                      0x10091d89   Thumb Code     0  QCA6174_SCAQBAFM.sym ABSOLUTE
    _printf_post_padding                     0x10091db5   Thumb Code     0  QCA6174_SCAQBAFM.sym ABSOLUTE
    _printf_str                              0x10091dd7   Thumb Code     0  QCA6174_SCAQBAFM.sym ABSOLUTE
    _printf_int_dec                          0x10091e29   Thumb Code     0  QCA6174_SCAQBAFM.sym ABSOLUTE
    _printf_longlong_hex                     0x10091e95   Thumb Code     0  QCA6174_SCAQBAFM.sym ABSOLUTE
    _printf_int_hex                          0x10091eed   Thumb Code     0  QCA6174_SCAQBAFM.sym ABSOLUTE
    _printf_ll_hex                           0x10091f09   Thumb Code     0  QCA6174_SCAQBAFM.sym ABSOLUTE
    _printf_hex_ptr                          0x10091f13   Thumb Code     0  QCA6174_SCAQBAFM.sym ABSOLUTE
    __printf                                 0x10091f2d   Thumb Code     0  QCA6174_SCAQBAFM.sym ABSOLUTE
    strlcat                                  0x100920b5   Thumb Code     0  QCA6174_SCAQBAFM.sym ABSOLUTE
    strlcpy                                  0x10092175   Thumb Code     0  QCA6174_SCAQBAFM.sym ABSOLUTE
    memcmp                                   0x10092201   Thumb Code     0  QCA6174_SCAQBAFM.sym ABSOLUTE
    strlen                                   0x1009225d   Thumb Code     0  QCA6174_SCAQBAFM.sym ABSOLUTE
    __aeabi_memcpy                           0x100922a1   Thumb Code     0  QCA6174_SCAQBAFM.sym ABSOLUTE
    __rt_memcpy                              0x100922a1   Thumb Code     0  QCA6174_SCAQBAFM.sym ABSOLUTE
    __aeabi_memmove4                         0x10092323   Thumb Code     0  QCA6174_SCAQBAFM.sym ABSOLUTE
    __aeabi_memmove8                         0x10092323   Thumb Code     0  QCA6174_SCAQBAFM.sym ABSOLUTE
    __aeabi_memmove                          0x10092369   Thumb Code     0  QCA6174_SCAQBAFM.sym ABSOLUTE
    __rt_memmove                             0x10092369   Thumb Code     0  QCA6174_SCAQBAFM.sym ABSOLUTE
    memset                                   0x100923b9   Thumb Code     0  QCA6174_SCAQBAFM.sym ABSOLUTE
    __aeabi_memset                           0x100923d5   Thumb Code     0  QCA6174_SCAQBAFM.sym ABSOLUTE
    _memset_w                                0x100923e7   Thumb Code     0  QCA6174_SCAQBAFM.sym ABSOLUTE
    _memset                                  0x10092401   Thumb Code     0  QCA6174_SCAQBAFM.sym ABSOLUTE
    __aeabi_memclr                           0x1009241f   Thumb Code     0  QCA6174_SCAQBAFM.sym ABSOLUTE
    __rt_memclr                              0x1009241f   Thumb Code     0  QCA6174_SCAQBAFM.sym ABSOLUTE
    __aeabi_memclr4                          0x10092423   Thumb Code     0  QCA6174_SCAQBAFM.sym ABSOLUTE
    __aeabi_memclr8                          0x10092423   Thumb Code     0  QCA6174_SCAQBAFM.sym ABSOLUTE
    __rt_memclr_w                            0x10092423   Thumb Code     0  QCA6174_SCAQBAFM.sym ABSOLUTE
    strncpy                                  0x10092429   Thumb Code     0  QCA6174_SCAQBAFM.sym ABSOLUTE
    strcmp                                   0x10092495   Thumb Code     0  QCA6174_SCAQBAFM.sym ABSOLUTE
    __aeabi_uidiv                            0x1009251d   Thumb Code     0  QCA6174_SCAQBAFM.sym ABSOLUTE
    __aeabi_uidivmod                         0x1009251d   Thumb Code     0  QCA6174_SCAQBAFM.sym ABSOLUTE
    __aeabi_idiv                             0x10092539   Thumb Code     0  QCA6174_SCAQBAFM.sym ABSOLUTE
    __aeabi_idivmod                          0x10092539   Thumb Code     0  QCA6174_SCAQBAFM.sym ABSOLUTE
    __aeabi_dadd                             0x100929f1   Thumb Code     0  QCA6174_SCAQBAFM.sym ABSOLUTE
    _dadd                                    0x100929f1   Thumb Code     0  QCA6174_SCAQBAFM.sym ABSOLUTE
    __aeabi_dsub                             0x10092a07   Thumb Code     0  QCA6174_SCAQBAFM.sym ABSOLUTE
    _dsub                                    0x10092a07   Thumb Code     0  QCA6174_SCAQBAFM.sym ABSOLUTE
    __aeabi_drsub                            0x10092a1d   Thumb Code     0  QCA6174_SCAQBAFM.sym ABSOLUTE
    _drsb                                    0x10092a1d   Thumb Code     0  QCA6174_SCAQBAFM.sym ABSOLUTE
    __aeabi_d2uiz                            0x10092a49   Thumb Code     0  QCA6174_SCAQBAFM.sym ABSOLUTE
    _dfixu                                   0x10092a49   Thumb Code     0  QCA6174_SCAQBAFM.sym ABSOLUTE
    __aeabi_i2d_normalise                    0x10092a91   Thumb Code     0  QCA6174_SCAQBAFM.sym ABSOLUTE
    __aeabi_i2d                              0x10092ad1   Thumb Code     0  QCA6174_SCAQBAFM.sym ABSOLUTE
    _dflt                                    0x10092ad1   Thumb Code     0  QCA6174_SCAQBAFM.sym ABSOLUTE
    __aeabi_ui2d                             0x10092ae1   Thumb Code     0  QCA6174_SCAQBAFM.sym ABSOLUTE
    _dfltu                                   0x10092ae1   Thumb Code     0  QCA6174_SCAQBAFM.sym ABSOLUTE
    __aeabi_dmul                             0x10092ae9   Thumb Code     0  QCA6174_SCAQBAFM.sym ABSOLUTE
    _dmul                                    0x10092ae9   Thumb Code     0  QCA6174_SCAQBAFM.sym ABSOLUTE
    __ARM_scalbn                             0x10092d75   Thumb Code     0  QCA6174_SCAQBAFM.sym ABSOLUTE
    __aeabi_fdiv                             0x10092dd5   Thumb Code     0  QCA6174_SCAQBAFM.sym ABSOLUTE
    _fdiv                                    0x10092dd5   Thumb Code     0  QCA6174_SCAQBAFM.sym ABSOLUTE
    _frdiv                                   0x10092f25   Thumb Code     0  QCA6174_SCAQBAFM.sym ABSOLUTE
    __aeabi_f2iz                             0x10092f35   Thumb Code     0  QCA6174_SCAQBAFM.sym ABSOLUTE
    _ffix                                    0x10092f35   Thumb Code     0  QCA6174_SCAQBAFM.sym ABSOLUTE
    __aeabi_f2uiz                            0x10092f81   Thumb Code     0  QCA6174_SCAQBAFM.sym ABSOLUTE
    _ffixu                                   0x10092f81   Thumb Code     0  QCA6174_SCAQBAFM.sym ABSOLUTE
    __aeabi_i2f_normalise                    0x10092fb1   Thumb Code     0  QCA6174_SCAQBAFM.sym ABSOLUTE
    __aeabi_i2f                              0x10092ff9   Thumb Code     0  QCA6174_SCAQBAFM.sym ABSOLUTE
    _fflt                                    0x10092ff9   Thumb Code     0  QCA6174_SCAQBAFM.sym ABSOLUTE
    __aeabi_ui2f                             0x10093009   Thumb Code     0  QCA6174_SCAQBAFM.sym ABSOLUTE
    _ffltu                                   0x10093009   Thumb Code     0  QCA6174_SCAQBAFM.sym ABSOLUTE
    __rt_heap_descriptor                     0x10093011   Thumb Code     0  QCA6174_SCAQBAFM.sym ABSOLUTE
    __use_no_heap                            0x10093019   Thumb Code     0  QCA6174_SCAQBAFM.sym ABSOLUTE
    __heap$guard                             0x1009301b   Thumb Code     0  QCA6174_SCAQBAFM.sym ABSOLUTE
    __Heap_Initialize                        0x1009301d   Thumb Code     0  QCA6174_SCAQBAFM.sym ABSOLUTE
    __Heap_DescSize                          0x10093027   Thumb Code     0  QCA6174_SCAQBAFM.sym ABSOLUTE
    __Heap_ProvideMemory                     0x1009302b   Thumb Code     0  QCA6174_SCAQBAFM.sym ABSOLUTE
    _printf_truncate_signed                  0x1009305f   Thumb Code     0  QCA6174_SCAQBAFM.sym ABSOLUTE
    _printf_truncate_unsigned                0x10093071   Thumb Code     0  QCA6174_SCAQBAFM.sym ABSOLUTE
    _printf_int_common                       0x10093083   Thumb Code     0  QCA6174_SCAQBAFM.sym ABSOLUTE
    _printf_charcount                        0x10093133   Thumb Code     0  QCA6174_SCAQBAFM.sym ABSOLUTE
    _printf_char_common                      0x10093167   Thumb Code     0  QCA6174_SCAQBAFM.sym ABSOLUTE
    _sputc                                   0x1009318d   Thumb Code     0  QCA6174_SCAQBAFM.sym ABSOLUTE
    _snputc                                  0x10093197   Thumb Code     0  QCA6174_SCAQBAFM.sym ABSOLUTE
    _printf_cs_common                        0x100931a7   Thumb Code     0  QCA6174_SCAQBAFM.sym ABSOLUTE
    _printf_char                             0x100931bd   Thumb Code     0  QCA6174_SCAQBAFM.sym ABSOLUTE
    _printf_string                           0x100931cd   Thumb Code     0  QCA6174_SCAQBAFM.sym ABSOLUTE
    _printf_char_file                        0x100931d5   Thumb Code     0  QCA6174_SCAQBAFM.sym ABSOLUTE
    _printf_wctomb                           0x100931fd   Thumb Code     0  QCA6174_SCAQBAFM.sym ABSOLUTE
    _printf_longlong_dec                     0x100932b9   Thumb Code     0  QCA6174_SCAQBAFM.sym ABSOLUTE
    _printf_longlong_oct                     0x10093329   Thumb Code     0  QCA6174_SCAQBAFM.sym ABSOLUTE
    _printf_int_oct                          0x1009336d   Thumb Code     0  QCA6174_SCAQBAFM.sym ABSOLUTE
    _printf_ll_oct                           0x10093385   Thumb Code     0  QCA6174_SCAQBAFM.sym ABSOLUTE
    __rt_SIGRTMEM                            0x10093399   Thumb Code     0  QCA6174_SCAQBAFM.sym ABSOLUTE
    __rt_udiv10                              0x100933a5   Thumb Code     0  QCA6174_SCAQBAFM.sym ABSOLUTE
    __rt_heap_escrow                         0x100933cd   Thumb Code     0  QCA6174_SCAQBAFM.sym ABSOLUTE
    __rt_heap_expand                         0x100933cf   Thumb Code     0  QCA6174_SCAQBAFM.sym ABSOLUTE
    __I$use$semihosting                      0x100933d9   Thumb Code     0  QCA6174_SCAQBAFM.sym ABSOLUTE
    __use_no_semihosting_swi                 0x100933d9   Thumb Code     0  QCA6174_SCAQBAFM.sym ABSOLUTE
    __semihosting_library_function           0x100933db   Thumb Code     0  QCA6174_SCAQBAFM.sym ABSOLUTE
    _ll_udiv10                               0x100933db   Thumb Code     0  QCA6174_SCAQBAFM.sym ABSOLUTE
    __lib_sel_fp_printf                      0x10093455   Thumb Code     0  QCA6174_SCAQBAFM.sym ABSOLUTE
    _printf_fp_dec_real                      0x100935f3   Thumb Code     0  QCA6174_SCAQBAFM.sym ABSOLUTE
    _printf_lcs_common                       0x10093869   Thumb Code     0  QCA6174_SCAQBAFM.sym ABSOLUTE
    _printf_wchar                            0x1009387f   Thumb Code     0  QCA6174_SCAQBAFM.sym ABSOLUTE
    _printf_wstring                          0x1009388f   Thumb Code     0  QCA6174_SCAQBAFM.sym ABSOLUTE
    ferror                                   0x10093897   Thumb Code     0  QCA6174_SCAQBAFM.sym ABSOLUTE
    _wcrtomb                                 0x1009389f   Thumb Code     0  QCA6174_SCAQBAFM.sym ABSOLUTE
    __sig_exit                               0x100938e3   Thumb Code     0  QCA6174_SCAQBAFM.sym ABSOLUTE
    __rt_SIGRTMEM_inner                      0x100938f1   Thumb Code     0  QCA6174_SCAQBAFM.sym ABSOLUTE
    _sys_exit                                0x10093941   Thumb Code     0  QCA6174_SCAQBAFM.sym ABSOLUTE
    __rt_ctype_table                         0x1009394d   Thumb Code     0  QCA6174_SCAQBAFM.sym ABSOLUTE
    __rt_locale                              0x1009395d   Thumb Code     0  QCA6174_SCAQBAFM.sym ABSOLUTE
    _printf_fp_infnan                        0x10093965   Thumb Code     0  QCA6174_SCAQBAFM.sym ABSOLUTE
    _btod_etento                             0x100939ed   Thumb Code     0  QCA6174_SCAQBAFM.sym ABSOLUTE
    _btod_d2e                                0x10093ab9   Thumb Code     0  QCA6174_SCAQBAFM.sym ABSOLUTE
    _btod_emul                               0x10093eaf   Thumb Code     0  QCA6174_SCAQBAFM.sym ABSOLUTE
    _btod_emuld                              0x10093ec7   Thumb Code     0  QCA6174_SCAQBAFM.sym ABSOLUTE
    _btod_ediv                               0x10093f03   Thumb Code     0  QCA6174_SCAQBAFM.sym ABSOLUTE
    _btod_edivd                              0x10093f19   Thumb Code     0  QCA6174_SCAQBAFM.sym ABSOLUTE
    __default_signal_display                 0x10093f61   Thumb Code     0  QCA6174_SCAQBAFM.sym ABSOLUTE
    _ttywrch                                 0x10093f95   Thumb Code     0  QCA6174_SCAQBAFM.sym ABSOLUTE
    __ARM_common_ll_mulss                    0x10093fa1   Thumb Code     0  QCA6174_SCAQBAFM.sym ABSOLUTE
    __ARM_common_ll_muluu                    0x10093fd3   Thumb Code     0  QCA6174_SCAQBAFM.sym ABSOLUTE
    __ARM_common_memclr1_6                   0x10094003   Thumb Code     0  QCA6174_SCAQBAFM.sym ABSOLUTE
    __ARM_common_memclr1_7                   0x10094013   Thumb Code     0  QCA6174_SCAQBAFM.sym ABSOLUTE
    __ARM_common_memclr1_8                   0x10094025   Thumb Code     0  QCA6174_SCAQBAFM.sym ABSOLUTE
    __ARM_common_memclr2_10                  0x10094039   Thumb Code     0  QCA6174_SCAQBAFM.sym ABSOLUTE
    __ARM_common_memclr4_10                  0x10094047   Thumb Code     0  QCA6174_SCAQBAFM.sym ABSOLUTE
    __ARM_common_memcpy1_5                   0x10094051   Thumb Code     0  QCA6174_SCAQBAFM.sym ABSOLUTE
    __ARM_common_memcpy1_6                   0x10094067   Thumb Code     0  QCA6174_SCAQBAFM.sym ABSOLUTE
    __ARM_common_memcpy1_8                   0x10094081   Thumb Code     0  QCA6174_SCAQBAFM.sym ABSOLUTE
    __ARM_common_memcpy2_5                   0x100940a3   Thumb Code     0  QCA6174_SCAQBAFM.sym ABSOLUTE
    __ARM_common_memcpy2_8                   0x100940b1   Thumb Code     0  QCA6174_SCAQBAFM.sym ABSOLUTE
    __ARM_common_memcpy4_10                  0x100940c3   Thumb Code     0  QCA6174_SCAQBAFM.sym ABSOLUTE
    __ARM_common_memcpy4_7                   0x100940d1   Thumb Code     0  QCA6174_SCAQBAFM.sym ABSOLUTE
    __ARM_common_memset1_4                   0x100940df   Thumb Code     0  QCA6174_SCAQBAFM.sym ABSOLUTE
    __ARM_common_memset1_8                   0x100940eb   Thumb Code     0  QCA6174_SCAQBAFM.sym ABSOLUTE
    __ARM_common_memset4_12                  0x100940ff   Thumb Code     0  QCA6174_SCAQBAFM.sym ABSOLUTE
    __ARM_fpclassify                         0x10094111   Thumb Code     0  QCA6174_SCAQBAFM.sym ABSOLUTE
    _is_digit                                0x1009413d   Thumb Code     0  QCA6174_SCAQBAFM.sym ABSOLUTE
    _get_lc_numeric                          0x1009414d   Thumb Code     0  QCA6174_SCAQBAFM.sym ABSOLUTE
    _get_lc_ctype                            0x10094179   Thumb Code     0  QCA6174_SCAQBAFM.sym ABSOLUTE
    __aeabi_fadd                             0x100941a5   Thumb Code     0  QCA6174_SCAQBAFM.sym ABSOLUTE
    _fadd                                    0x100941a5   Thumb Code     0  QCA6174_SCAQBAFM.sym ABSOLUTE
    __aeabi_fmul                             0x10094231   Thumb Code     0  QCA6174_SCAQBAFM.sym ABSOLUTE
    _fmul                                    0x10094231   Thumb Code     0  QCA6174_SCAQBAFM.sym ABSOLUTE
    __aeabi_fsub                             0x100942e1   Thumb Code     0  QCA6174_SCAQBAFM.sym ABSOLUTE
    _fsub                                    0x100942e1   Thumb Code     0  QCA6174_SCAQBAFM.sym ABSOLUTE
    _printf_fp_dec                           0x100943b1   Thumb Code     0  QCA6174_SCAQBAFM.sym ABSOLUTE
    __I$use$fp                               0x100943c1   Thumb Code     0  QCA6174_SCAQBAFM.sym ABSOLUTE
    DER_enc_hash                             0x10094814   Data           0  QCA6174_SCAQBAFM.sym ABSOLUTE
    lhash_0_sha1                             0x10094ab4   Data           0  QCA6174_SCAQBAFM.sym ABSOLUTE
    lhash_0_sha256                           0x10094ac8   Data           0  QCA6174_SCAQBAFM.sym ABSOLUTE
    VStrLogHdr                               0x10094af9   Data           0  QCA6174_SCAQBAFM.sym ABSOLUTE
    PFAL_ctlEncrModeCtl                      0x10094c1c   Data           0  QCA6174_SCAQBAFM.sym ABSOLUTE
    PFAL_LC_ltType_2_Tx_PTT                  0x10094c1f   Data           0  QCA6174_SCAQBAFM.sym ABSOLUTE
    PFAL_LC_LE_ADV_CHAN_CRC_INIT             0x10094c27   Data           0  QCA6174_SCAQBAFM.sym ABSOLUTE
    PFAL_LC_ltType_2_Rx_PTT                  0x10094c2a   Data           0  QCA6174_SCAQBAFM.sym ABSOLUTE
    gRSAProdKeyModules                       0x10094c30   Data           0  QCA6174_SCAQBAFM.sym ABSOLUTE
    gRSAProdKeyPubExp                        0x10094db8   Data           0  QCA6174_SCAQBAFM.sym ABSOLUTE
    gRSADevKeyModules                        0x10094f40   Data           0  QCA6174_SCAQBAFM.sym ABSOLUTE
    gRSADevKeyPubExp                         0x100950c8   Data           0  QCA6174_SCAQBAFM.sym ABSOLUTE
    PFAL_UART_BaudEnumToRate                 0x10095250   Data           0  QCA6174_SCAQBAFM.sym ABSOLUTE
    CFG_Defaults_SYS                         0x1009529c   Data           0  QCA6174_SCAQBAFM.sym ABSOLUTE
    UploadHeader                             0x100954a0   Data           0  QCA6174_SCAQBAFM.sym ABSOLUTE
    ReadPSHeader                             0x100954a4   Data           0  QCA6174_SCAQBAFM.sym ABSOLUTE
    TlvDnldRespHeader                        0x100954a9   Data           0  QCA6174_SCAQBAFM.sym ABSOLUTE
    SupportedADType                          0x100954ae   Data           0  QCA6174_SCAQBAFM.sym ABSOLUTE
    EDL_StatusOKMessage                      0x100954b3   Data           0  QCA6174_SCAQBAFM.sym ABSOLUTE
    PFAL_LC_Crypto_A0_B0_B1_Default          0x100954ba   Data           0  QCA6174_SCAQBAFM.sym ABSOLUTE
    OSUnMapTbl                               0x100954ea   Data           0  QCA6174_SCAQBAFM.sym ABSOLUTE
    PFAL_RM_C1_ARRAY                         0x100955ec   Data           0  QCA6174_SCAQBAFM.sym ABSOLUTE
    PFAL_RM_TX_LUT_TABLE_0                   0x100955f2   Data           0  QCA6174_SCAQBAFM.sym ABSOLUTE
    PFAL_RM_TX_LUT_TABLE_1                   0x100955fa   Data           0  QCA6174_SCAQBAFM.sym ABSOLUTE
    PFAL_RM_TX_LUT_TABLE_3                   0x10095602   Data           0  QCA6174_SCAQBAFM.sym ABSOLUTE
    PFAL_RM_TX_LUT_TABLE_4                   0x1009560a   Data           0  QCA6174_SCAQBAFM.sym ABSOLUTE
    RM_Reg16_default                         0x10095614   Data           0  QCA6174_SCAQBAFM.sym ABSOLUTE
    PFAL_RM_Q_GAIN_ARRAY                     0x10095708   Data           0  QCA6174_SCAQBAFM.sym ABSOLUTE
    PFAL_RM_I_PHASE_ARRAY                    0x10095734   Data           0  QCA6174_SCAQBAFM.sym ABSOLUTE
    PFAL_RM_Q_PHASE_ARRAY                    0x10095764   Data           0  QCA6174_SCAQBAFM.sym ABSOLUTE
    PFAL_RM_C2_ARRAY                         0x10095794   Data           0  QCA6174_SCAQBAFM.sym ABSOLUTE
    PFAL_RM_PVC_TABLEn                       0x1009589c   Data           0  QCA6174_SCAQBAFM.sym ABSOLUTE
    PFAL_SYS_FreqToRefTable                  0x100958dc   Data           0  QCA6174_SCAQBAFM.sym ABSOLUTE
    PFAL_SYS_RefClockCGPLL_FreqControlEntry  0x100958fc   Data           0  QCA6174_SCAQBAFM.sym ABSOLUTE
    PFAL_SYS_CGPLLSysClockControl            0x100959bc   Data           0  QCA6174_SCAQBAFM.sym ABSOLUTE
    PFAL_SYS_PWR_MODE_TO_PM_MODE             0x100959d0   Data           0  QCA6174_SCAQBAFM.sym ABSOLUTE
    PFAL_SYS_RefClockMDLLEntry               0x100959d6   Data           0  QCA6174_SCAQBAFM.sym ABSOLUTE
    EDL_CompanyString                        0x100959f6   Data           0  QCA6174_SCAQBAFM.sym ABSOLUTE
    CFG_Defaults_BT                          0x10095b3c   Data           0  QCA6174_SCAQBAFM.sym ABSOLUTE
    CFG_Defaults_Voice                       0x10095c00   Data           0  QCA6174_SCAQBAFM.sym ABSOLUTE
    LINKLESS_BROADCAST_MIN_TOTAL_ALLOC_SIZE  0x10095d5c   Data           0  QCA6174_SCAQBAFM.sym ABSOLUTE
    BB_PktInfo                               0x10095d64   Data           0  QCA6174_SCAQBAFM.sym ABSOLUTE
    BB_lch_2_pbf                             0x10095fe4   Data           0  QCA6174_SCAQBAFM.sym ABSOLUTE
    BB_pbf_2_lch                             0x10095fe8   Data           0  QCA6174_SCAQBAFM.sym ABSOLUTE
    BB_SR_2_Npage                            0x10095fec   Data           0  QCA6174_SCAQBAFM.sym ABSOLUTE
    SLC_inquiryTrainLength                   0x10095ff2   Data           0  QCA6174_SCAQBAFM.sym ABSOLUTE
    SLC_pageTrainLength                      0x10095ffa   Data           0  QCA6174_SCAQBAFM.sym ABSOLUTE
    SLC_bitErrorArray                        0x10096012   Data           0  QCA6174_SCAQBAFM.sym ABSOLUTE
    SLC_DUT_pktTypeRate_2_BB_LT_TYPE         0x10096028   Data           0  QCA6174_SCAQBAFM.sym ABSOLUTE
    SLC_testScenarioDataPattern              0x1009602c   Data           0  QCA6174_SCAQBAFM.sym ABSOLUTE
    SLC_LE_testScenarioPayloadType           0x10096033   Data           0  QCA6174_SCAQBAFM.sym ABSOLUTE
    SLC_prbs9_pattern                        0x10096040   Data           0  QCA6174_SCAQBAFM.sym ABSOLUTE
    SDB_GIAC_BD_ADDR                         0x1009644b   Data           0  QCA6174_SCAQBAFM.sym ABSOLUTE
    bluetoothBaseUuidEntry                   0x10096459   Data           0  QCA6174_SCAQBAFM.sym ABSOLUTE
    SDB_LE_Encr_Direction                    0x10096469   Data           0  QCA6174_SCAQBAFM.sym ABSOLUTE
    SDB_BR_EDR_Encr_Direction                0x1009646d   Data           0  QCA6174_SCAQBAFM.sym ABSOLUTE
    SDB_LE_sleepClkAccuracyMap               0x10096472   Data           0  QCA6174_SCAQBAFM.sym ABSOLUTE
    SDB_LE_AdvType2AdvChType                 0x10096482   Data           0  QCA6174_SCAQBAFM.sym ABSOLUTE
    SDB_LE_AdvChPktType2AdvEventType         0x10096487   Data           0  QCA6174_SCAQBAFM.sym ABSOLUTE
    SDB_LE_AdvEventType2AdvEventBitMask      0x1009648e   Data           0  QCA6174_SCAQBAFM.sym ABSOLUTE
    PFAL_DMR_ChanIndexToHop                  0x100964a4   Data           0  QCA6174_SCAQBAFM.sym ABSOLUTE
    PFAL_HUTCH_temp_adc_to_celsius_table     0x100964b3   Data           0  QCA6174_SCAQBAFM.sym ABSOLUTE
    PFAL_SYS_LPO_Internal32k                 0x10096518   Data           0  QCA6174_SCAQBAFM.sym ABSOLUTE
    PFAL_SYS_LPO_Digital32k                  0x1009651c   Data           0  QCA6174_SCAQBAFM.sym ABSOLUTE
    Boot_Protocol_Mouse                      0x10096569   Data           0  QCA6174_SCAQBAFM.sym ABSOLUTE
    CFG_Defaults_RM                          0x1009659c   Data           0  QCA6174_SCAQBAFM.sym ABSOLUTE
    LLM_LE_testPatternMap                    0x10096b16   Data           0  QCA6174_SCAQBAFM.sym ABSOLUTE
    LLM_AHS79ChanMask                        0x10096b20   Data           0  QCA6174_SCAQBAFM.sym ABSOLUTE
    LLM_pRSSI_values                         0x10096b2c   Data           0  QCA6174_SCAQBAFM.sym ABSOLUTE
    LLM_pNextRandInput                       0x10096b30   Data           0  QCA6174_SCAQBAFM.sym ABSOLUTE
    LLM_cipherINPUT_LENGTH                   0x10096b34   Data           0  QCA6174_SCAQBAFM.sym ABSOLUTE
    LLM_cipherLFSR_length                    0x10096b38   Data           0  QCA6174_SCAQBAFM.sym ABSOLUTE
    LLM_cipher_T1                            0x10096b3c   Data           0  QCA6174_SCAQBAFM.sym ABSOLUTE
    LLM_cipher_T2                            0x10096b40   Data           0  QCA6174_SCAQBAFM.sym ABSOLUTE
    LLM_cipher_XT_TAPS                       0x10096b44   Data           0  QCA6174_SCAQBAFM.sym ABSOLUTE
    keyOffset                                0x10096b48   Data           0  QCA6174_SCAQBAFM.sym ABSOLUTE
    LLM_cipher_feedbackMASK                  0x10096b50   Data           0  QCA6174_SCAQBAFM.sym ABSOLUTE
    exp45                                    0x10096b70   Data           0  QCA6174_SCAQBAFM.sym ABSOLUTE
    log45                                    0x10096c71   Data           0  QCA6174_SCAQBAFM.sym ABSOLUTE
    bias128                                  0x10096d72   Data           0  QCA6174_SCAQBAFM.sym ABSOLUTE
    M                                        0x10096e72   Data           0  QCA6174_SCAQBAFM.sym ABSOLUTE
    LLM_gPolyDegreeTable                     0x10096f72   Data           0  QCA6174_SCAQBAFM.sym ABSOLUTE
    LLM_gPolyTable                           0x10096f92   Data           0  QCA6174_SCAQBAFM.sym ABSOLUTE
    cmStateEnter                             0x100971a2   Data           0  QCA6174_SCAQBAFM.sym ABSOLUTE
    cmStateExit                              0x100971b3   Data           0  QCA6174_SCAQBAFM.sym ABSOLUTE
    LLM_slaveEncryptionMode                  0x100971c4   Data           0  QCA6174_SCAQBAFM.sym ABSOLUTE
    LLM_convLMP_FeaturesAclPacketTypes_1     0x100971ca   Data           0  QCA6174_SCAQBAFM.sym ABSOLUTE
    LLM_convLMP_FeaturesAclPacketTypes_2     0x100971d2   Data           0  QCA6174_SCAQBAFM.sym ABSOLUTE
    LLM_convLMP_FeaturesAclPacketTypes_3     0x100971da   Data           0  QCA6174_SCAQBAFM.sym ABSOLUTE
    log100                                   0x100971e2   Data           0  QCA6174_SCAQBAFM.sym ABSOLUTE
    LLM_cfg_ext_features_P2                  0x10097246   Data           0  QCA6174_SCAQBAFM.sym ABSOLUTE
    CFG_lmp_supported_features               0x10097248   Data           0  QCA6174_SCAQBAFM.sym ABSOLUTE
    LLM_LE_SupportedFeatures                 0x10097250   Data           0  QCA6174_SCAQBAFM.sym ABSOLUTE
    CFG_hci_supported_commands               0x10097258   Data           0  QCA6174_SCAQBAFM.sym ABSOLUTE
    HCI_LE_supportedStates                   0x10097279   Data           0  QCA6174_SCAQBAFM.sym ABSOLUTE
    llm_HCI_Cmdlength_G1                     0x10097281   Data           0  QCA6174_SCAQBAFM.sym ABSOLUTE
    llm_HCI_Cmdlength_G2                     0x100972c6   Data           0  QCA6174_SCAQBAFM.sym ABSOLUTE
    llm_HCI_Cmdlength_G3                     0x100972d7   Data           0  QCA6174_SCAQBAFM.sym ABSOLUTE
    llm_HCI_Cmdlength_G4                     0x10097354   Data           0  QCA6174_SCAQBAFM.sym ABSOLUTE
    llm_HCI_Cmdlength_G5                     0x1009735f   Data           0  QCA6174_SCAQBAFM.sym ABSOLUTE
    llm_HCI_Cmdlength_G6                     0x1009736c   Data           0  QCA6174_SCAQBAFM.sym ABSOLUTE
    llm_HCI_Cmdlength_G7                     0x10097376   Data           0  QCA6174_SCAQBAFM.sym ABSOLUTE
    llm_HCI_Cmdlength_G8                     0x10097377   Data           0  QCA6174_SCAQBAFM.sym ABSOLUTE
    LLM_cancelErrorArray                     0x10097398   Data           0  QCA6174_SCAQBAFM.sym ABSOLUTE
    llm_HCI_CmdGroupDB                       0x1009739c   Data           0  QCA6174_SCAQBAFM.sym ABSOLUTE
    EIR_BB_PktInfo                           0x100973dc   Data           0  QCA6174_SCAQBAFM.sym ABSOLUTE
    stateEnter                               0x10097400   Data           0  QCA6174_SCAQBAFM.sym ABSOLUTE
    stateExit                                0x10097408   Data           0  QCA6174_SCAQBAFM.sym ABSOLUTE
    LLM_eSCO_64K_combination_array           0x10097410   Data           0  QCA6174_SCAQBAFM.sym ABSOLUTE
    LLM_eSCO_64_NegotiationCombination_progression 0x100975a0   Data           0  QCA6174_SCAQBAFM.sym ABSOLUTE
    LLM_eSCO_64_WBS_NegotiationCombination_progression 0x10097618   Data           0  QCA6174_SCAQBAFM.sym ABSOLUTE
    LLM_convertLMP_SCO_packet2localFormat    0x10097690   Data           0  QCA6174_SCAQBAFM.sym ABSOLUTE
    LLM_xSCO_BandwidthCombination            0x10097698   Data           0  QCA6174_SCAQBAFM.sym ABSOLUTE
    sco_pktType_mask                         0x100976b8   Data           0  QCA6174_SCAQBAFM.sym ABSOLUTE
    QosTable                                 0x10097724   Data           0  QCA6174_SCAQBAFM.sym ABSOLUTE
    VersionRecord                            0x10097734   Data           0  QCA6174_SCAQBAFM.sym ABSOLUTE
    rcon_tab                                 0x10097738   Data           0  QCA6174_SCAQBAFM.sym ABSOLUTE
    ft_tab                                   0x100977ac   Data           0  QCA6174_SCAQBAFM.sym ABSOLUTE
    fl_tab                                   0x100987ac   Data           0  QCA6174_SCAQBAFM.sym ABSOLUTE
    im_tab                                   0x100997ac   Data           0  QCA6174_SCAQBAFM.sym ABSOLUTE
    MSBC_FRAME_SN                            0x1009a7ac   Data           0  QCA6174_SCAQBAFM.sym ABSOLUTE
    PFAL_VOICE_WBS_MSBC_CONFIG_SETTINGS      0x1009a7b0   Data           0  QCA6174_SCAQBAFM.sym ABSOLUTE
    LLM_SPAIRING_debugSecretKeyP192          0x1009a7f8   Data           0  QCA6174_SCAQBAFM.sym ABSOLUTE
    LLM_SPAIRING_BtKeyID                     0x1009a818   Data           0  QCA6174_SCAQBAFM.sym ABSOLUTE
    LLM_SPAIRING_debugPublicKeyP192          0x1009a81c   Data           0  QCA6174_SCAQBAFM.sym ABSOLUTE
    LLM_SPAIRING_debugPublicKeyP256          0x1009a84c   Data           0  QCA6174_SCAQBAFM.sym ABSOLUTE
    LLM_SPAIRING_KeyClassP192                0x1009a88c   Data           0  QCA6174_SCAQBAFM.sym ABSOLUTE
    LLM_SPAIRING_KeyClassP256                0x1009a89c   Data           0  QCA6174_SCAQBAFM.sym ABSOLUTE
    LLM_SPAIRING_debugSecretKeyP256          0x1009a8ac   Data           0  QCA6174_SCAQBAFM.sym ABSOLUTE
    LLM_SPAIRING_Zero16                      0x1009a8cc   Data           0  QCA6174_SCAQBAFM.sym ABSOLUTE
    LLM_SPAIRING_BtAES_KeyID                 0x1009a8dc   Data           0  QCA6174_SCAQBAFM.sym ABSOLUTE
    LLM_SPAIRING_BtDeviceKeyID               0x1009a8e0   Data           0  QCA6174_SCAQBAFM.sym ABSOLUTE
    LLM_LE_cmStateEnter                      0x1009a8e4   Data           0  QCA6174_SCAQBAFM.sym ABSOLUTE
    LLM_LE_cmStateExit                       0x1009a8e8   Data           0  QCA6174_SCAQBAFM.sym ABSOLUTE
    LLM_mapHCI_2_LMP_OOB_Capability          0x1009a8ec   Data           0  QCA6174_SCAQBAFM.sym ABSOLUTE
    LLM_mapHCI_2_LMP_OOB_Capability_Secure   0x1009a8f0   Data           0  QCA6174_SCAQBAFM.sym ABSOLUTE
    LLM_EncryptionKeyRefreshInterval         0x1009a8f4   Data           0  QCA6174_SCAQBAFM.sym ABSOLUTE
    crc30_table                              0x1009a950   Data           0  QCA6174_SCAQBAFM.sym ABSOLUTE
    crc16_table                              0x1009ad50   Data           0  QCA6174_SCAQBAFM.sym ABSOLUTE
    crc_16_l_table                           0x1009af50   Data           0  QCA6174_SCAQBAFM.sym ABSOLUTE
    crc32_table                              0x1009b150   Data           0  QCA6174_SCAQBAFM.sym ABSOLUTE
    gatt_le_base_uuid                        0x1009b56b   Data           0  QCA6174_SCAQBAFM.sym ABSOLUTE
    dec_window_4                             0x1009b5bc   Data           0  QCA6174_SCAQBAFM.sym ABSOLUTE
    enc_window_4                             0x1009b610   Data           0  QCA6174_SCAQBAFM.sym ABSOLUTE
    crc8_narrow                              0x1009b664   Data           0  QCA6174_SCAQBAFM.sym ABSOLUTE
    dequant_long_scaled                      0x1009b764   Data           0  QCA6174_SCAQBAFM.sym ABSOLUTE
    dequant_long_unscaled                    0x1009b7a8   Data           0  QCA6174_SCAQBAFM.sym ABSOLUTE
    acAppVersion                             0x1009b800   Data           0  QCA6174_SCAQBAFM.sym ABSOLUTE
    OI_Codec_Copyright                       0x1009bba0   Data           0  QCA6174_SCAQBAFM.sym ABSOLUTE
    __ctype                                  0x1009bd91   Data           0  QCA6174_SCAQBAFM.sym ABSOLUTE



==============================================================================

Memory Map of the image

  Image Entry point : 0x85c04c00001feb1

  Load Region RAMPATCH (Base: 0x0001feb0, Size: 0x000010fc, Max: 0x0001004c, ABSOLUTE)

    Execution Region PATCH_SSRAM (Base: 0x0001deb0, Size: 0x00000024, Max: 0xffffffff, ABSOLUTE)

    Base Addr    Size         Type   Attr      Idx    E Section Name        Object

    0x0001deb0   0x00000010   Data   RW            2    .data               patch_PFAL_DBG_hci_vendor.o
    0x0001dec0   0x00000004   Data   RW           19    .data               patch_PFAL_DBG.o
    0x0001dec4   0x0000000c   Data   RW          106    .data               patch_PFAL_RM_HW_EXT.o
    0x0001ded0   0x00000001   Data   RW          141    .data               patch_PFAL_SYS_EDL.o
    0x0001ded1   0x00000003   PAD
    0x0001ded4   0x00000000   Zero   RW          219    linker$$defined$$symbols  anon$$obj.o


    Execution Region EXEC_ENTRY (Base: 0x0001feb0, Size: 0x00000148, Max: 0xffffffff, ABSOLUTE)

    Base Addr    Size         Type   Attr      Idx    E Section Name        Object

    0x0001feb0   0x00000100   Code   RO          173  * ENTRY_POINT         rampatch_main.o
    0x0001ffb0   0x0000000c   Ven    RO          220    Veneer$$Code        anon$$obj.o
    0x0001ffbc   0x0000000c   Ven    RO          221    Veneer$$Code        anon$$obj.o
    0x0001ffc8   0x0000000c   Ven    RO          222    Veneer$$Code        anon$$obj.o
    0x0001ffd4   0x0000000c   Ven    RO          223    Veneer$$Code        anon$$obj.o
    0x0001ffe0   0x0000000c   Ven    RO          224    Veneer$$Code        anon$$obj.o
    0x0001ffec   0x0000000c   Ven    RO          225    Veneer$$Code        anon$$obj.o


    Execution Region EXEC_ENTITY (Base: 0x0001fff8, Size: 0x00000f90, Max: 0xffffffff, ABSOLUTE)

    Base Addr    Size         Type   Attr      Idx    E Section Name        Object

    0x0001fff8   0x00000428   Code   RO            1    .text               patch_PFAL_DBG_hci_vendor.o
    0x00020420   0x000003b0   Code   RO           90    .text               patch_PFAL_RM_HW.o
    0x000207d0   0x000002ec   Code   RO          105    .text               patch_PFAL_RM_HW_EXT.o
    0x00020abc   0x0000033c   Code   RO          140    .text               patch_PFAL_SYS_EDL.o
    0x00020df8   0x00000034   Code   RO          161    .text               patch_llm_eptm.o
    0x00020e2c   0x00000010   Code   RO          190    .text               c_p.l(abort.o)
    0x00020e3c   0x0000000c   Code   RO          192    .text               c_p.l(defsig_abrt_outer.o)
    0x00020e48   0x00000030   Code   RO          198    .text               c_p.l(defsig_abrt_inner.o)
    0x00020e78   0x0000000c   Ven    RO          226    Veneer$$Code        anon$$obj.o
    0x00020e84   0x0000000c   Ven    RO          227    Veneer$$Code        anon$$obj.o
    0x00020e90   0x0000000c   Ven    RO          228    Veneer$$Code        anon$$obj.o
    0x00020e9c   0x0000000c   Ven    RO          229    Veneer$$Code        anon$$obj.o
    0x00020ea8   0x0000000c   Ven    RO          230    Veneer$$Code        anon$$obj.o
    0x00020eb4   0x0000000c   Ven    RO          231    Veneer$$Code        anon$$obj.o
    0x00020ec0   0x0000000c   Ven    RO          232    Veneer$$Code        anon$$obj.o
    0x00020ecc   0x0000000c   Ven    RO          233    Veneer$$Code        anon$$obj.o
    0x00020ed8   0x0000000c   Ven    RO          234    Veneer$$Code        anon$$obj.o
    0x00020ee4   0x0000000c   Ven    RO          235    Veneer$$Code        anon$$obj.o
    0x00020ef0   0x0000000c   Ven    RO          236    Veneer$$Code        anon$$obj.o
    0x00020efc   0x0000000c   Ven    RO          237    Veneer$$Code        anon$$obj.o
    0x00020f08   0x0000000c   Ven    RO          238    Veneer$$Code        anon$$obj.o
    0x00020f14   0x0000000c   Ven    RO          239    Veneer$$Code        anon$$obj.o
    0x00020f20   0x0000000c   Ven    RO          240    Veneer$$Code        anon$$obj.o
    0x00020f2c   0x0000000c   Ven    RO          241    Veneer$$Code        anon$$obj.o
    0x00020f38   0x0000000c   Ven    RO          242    Veneer$$Code        anon$$obj.o
    0x00020f44   0x0000000c   Ven    RO          243    Veneer$$Code        anon$$obj.o
    0x00020f50   0x00000035   Data   RO          174    .constdata          rampatch_main.o


==============================================================================

Image component sizes


      Code (inc. data)   RO Data    RW Data    ZI Data      Debug   Object Name

         0          0          0          4          0     262939   patch_PFAL_DBG.o
      1064        262          0         16          0     312738   patch_PFAL_DBG_hci_vendor.o
       944        162          0          0          0     300045   patch_PFAL_RM_HW.o
       748         96          0         12          0     112089   patch_PFAL_RM_HW_EXT.o
       828        176          0          1          0     256799   patch_PFAL_SYS_EDL.o
        52         22          0          0          0     277071   patch_llm_eptm.o
       256         94         53          0          0     107804   rampatch_main.o

    ----------------------------------------------------------------------
      4180        908         56         36          0    1629485   Object Totals
       288         96          0          0          0          0   (incl. Generated)
         0          0          3          3          0          0   (incl. Padding)

    ----------------------------------------------------------------------

      Code (inc. data)   RO Data    RW Data    ZI Data      Debug   Library Member Name

        16          0          0          0          0         64   abort.o
        48         34          0          0          0         68   defsig_abrt_inner.o
        12          0          0          0          0         68   defsig_abrt_outer.o

    ----------------------------------------------------------------------
        76         34          0          0          0        200   Library Totals
         0          0          0          0          0          0   (incl. Padding)

    ----------------------------------------------------------------------

      Code (inc. data)   RO Data    RW Data    ZI Data      Debug   Library Name

        76         34          0          0          0        200   c_p.l

    ----------------------------------------------------------------------
        76         34          0          0          0        200   Library Totals

    ----------------------------------------------------------------------

==============================================================================


      Code (inc. data)   RO Data    RW Data    ZI Data      Debug   

      4256        942         56         36          0    1629237   Grand Totals
      4256        942         56         36          0    1629237   ELF Image Totals
      4256        942         56         36          0          0   ROM Totals

==============================================================================

    Total RO  Size (Code + RO Data)                 4312 (   4.21kB)
    Total RW  Size (RW Data + ZI Data)                36 (   0.04kB)
    Total ROM Size (Code + RO Data + RW Data)       4348 (   4.25kB)

==============================================================================

