Archive member included because of file (symbol)

/local/mnt/workspace/CRMBuilds/TZ.BF.4.0.3.c1-00005-M8996AAAAANAZT-1_20170110_230814/b/HK11/trustzone_images/core/kernel/libstd/build/sampleapp/scorpion/IADAANAA/libstd.lib(memscpy.o)
                              /local/mnt/workspace/CRMBuilds/TZ.BF.4.0.3.c1-00005-M8996AAAAANAZT-1_20170110_230814/b/HK11/trustzone_images/core/securemsm/trustzone/qsapps/sampleapp/build/sampleapp/scorpion/IADAANAA/app_content_protection.o (memscpy)
/local/mnt/workspace/CRMBuilds/TZ.BF.4.0.3.c1-00005-M8996AAAAANAZT-1_20170110_230814/b/HK11/trustzone_images/core/kernel/libstd/build/sampleapp/scorpion/IADAANAA/libstd.lib(strlcpy.o)
                              /local/mnt/workspace/CRMBuilds/TZ.BF.4.0.3.c1-00005-M8996AAAAANAZT-1_20170110_230814/b/HK11/trustzone_images/core/securemsm/trustzone/qsapps/sampleapp/build/sampleapp/scorpion/IADAANAA/app_message_passing.o (strlcpy)
/local/mnt/workspace/CRMBuilds/TZ.BF.4.0.3.c1-00005-M8996AAAAANAZT-1_20170110_230814/b/HK11/trustzone_images/core/kernel/libstd/build/sampleapp/scorpion/IADAANAA/libstd.lib(secure_memset.o)
                              /local/mnt/workspace/CRMBuilds/TZ.BF.4.0.3.c1-00005-M8996AAAAANAZT-1_20170110_230814/b/HK11/trustzone_images/core/securemsm/trustzone/qsapps/sampleapp/build/sampleapp/scorpion/IADAANAA/app_bio_lib.o (secure_memset)
/local/mnt/workspace/CRMBuilds/TZ.BF.4.0.3.c1-00005-M8996AAAAANAZT-1_20170110_230814/b/HK11/trustzone_images/core/kernel/libstd/build/sampleapp/scorpion/IADAANAA/libstd.lib(timesafe_memcmp.o)
                              /local/mnt/workspace/CRMBuilds/TZ.BF.4.0.3.c1-00005-M8996AAAAANAZT-1_20170110_230814/b/HK11/trustzone_images/core/securemsm/trustzone/qsapps/sampleapp/build/sampleapp/scorpion/IADAANAA/app_bio_lib.o (timesafe_memcmp)
/local/mnt/workspace/CRMBuilds/TZ.BF.4.0.3.c1-00005-M8996AAAAANAZT-1_20170110_230814/b/HK11/trustzone_images/core/kernel/libstd/build/sampleapp/scorpion/IADAANAA/libstd.lib(timesafe_strncmp.o)
                              /local/mnt/workspace/CRMBuilds/TZ.BF.4.0.3.c1-00005-M8996AAAAANAZT-1_20170110_230814/b/HK11/trustzone_images/core/securemsm/trustzone/qsapps/sampleapp/build/sampleapp/scorpion/IADAANAA/app_bio_lib.o (timesafe_strncmp)
/local/mnt/workspace/CRMBuilds/TZ.BF.4.0.3.c1-00005-M8996AAAAANAZT-1_20170110_230814/b/HK11/trustzone_images/core/securemsm/sse/qsee/SecureUI/build/sampleapp/scorpion/IADAANAA/secure_ui.lib(SecureUI.o)
                              /local/mnt/workspace/CRMBuilds/TZ.BF.4.0.3.c1-00005-M8996AAAAANAZT-1_20170110_230814/b/HK11/trustzone_images/core/securemsm/trustzone/qsapps/sampleapp/build/sampleapp/scorpion/IADAANAA/app_main.o (sec_ui_alloc_app_buffer)
/local/mnt/workspace/CRMBuilds/TZ.BF.4.0.3.c1-00005-M8996AAAAANAZT-1_20170110_230814/b/HK11/trustzone_images/core/securemsm/sse/qsee/SecureUILib/lib/build/sampleapp/scorpion/IADAANAA/secure_ui_lib.lib(SecureUILib.o)
                              /local/mnt/workspace/CRMBuilds/TZ.BF.4.0.3.c1-00005-M8996AAAAANAZT-1_20170110_230814/b/HK11/trustzone_images/core/securemsm/trustzone/qsapps/sampleapp/build/sampleapp/scorpion/IADAANAA/app_main.o (secUiProcessCmd)
/local/mnt/workspace/CRMBuilds/TZ.BF.4.0.3.c1-00005-M8996AAAAANAZT-1_20170110_230814/b/HK11/trustzone_images/core/securemsm/sse/qsee/SecureUILib/lib/build/sampleapp/scorpion/IADAANAA/secure_ui_lib.lib(01_startTouch.o)
                              /local/mnt/workspace/CRMBuilds/TZ.BF.4.0.3.c1-00005-M8996AAAAANAZT-1_20170110_230814/b/HK11/trustzone_images/core/securemsm/sse/qsee/SecureUILib/lib/build/sampleapp/scorpion/IADAANAA/secure_ui_lib.lib(SecureUILib.o) (processCmdStartTouch)
/local/mnt/workspace/CRMBuilds/TZ.BF.4.0.3.c1-00005-M8996AAAAANAZT-1_20170110_230814/b/HK11/trustzone_images/core/securemsm/sse/qsee/SecureUILib/lib/build/sampleapp/scorpion/IADAANAA/secure_ui_lib.lib(02_processTouch.o)
                              /local/mnt/workspace/CRMBuilds/TZ.BF.4.0.3.c1-00005-M8996AAAAANAZT-1_20170110_230814/b/HK11/trustzone_images/core/securemsm/sse/qsee/SecureUILib/lib/build/sampleapp/scorpion/IADAANAA/secure_ui_lib.lib(SecureUILib.o) (processCmdProcessTouch)
/local/mnt/workspace/CRMBuilds/TZ.BF.4.0.3.c1-00005-M8996AAAAANAZT-1_20170110_230814/b/HK11/trustzone_images/core/securemsm/sse/qsee/SecureUILib/lib/build/sampleapp/scorpion/IADAANAA/secure_ui_lib.lib(03_stopTouch.o)
                              /local/mnt/workspace/CRMBuilds/TZ.BF.4.0.3.c1-00005-M8996AAAAANAZT-1_20170110_230814/b/HK11/trustzone_images/core/securemsm/sse/qsee/SecureUILib/lib/build/sampleapp/scorpion/IADAANAA/secure_ui_lib.lib(SecureUILib.o) (processCmdStopTouch)
/local/mnt/workspace/CRMBuilds/TZ.BF.4.0.3.c1-00005-M8996AAAAANAZT-1_20170110_230814/b/HK11/trustzone_images/core/securemsm/trustzone/qsapps/libs/applib/common_applib/build/sampleapp/scorpion/IADAANAA/tzapp_entrylib.lib(common_applib.o)
                              /local/mnt/workspace/CRMBuilds/TZ.BF.4.0.3.c1-00005-M8996AAAAANAZT-1_20170110_230814/b/HK11/trustzone_images/core/securemsm/trustzone/qsapps/sampleapp/build/sampleapp/scorpion/IADAANAA/app_main.o (__stack_chk_fail)
/local/mnt/workspace/CRMBuilds/TZ.BF.4.0.3.c1-00005-M8996AAAAANAZT-1_20170110_230814/b/HK11/trustzone_images/core/securemsm/trustzone/qsapps/libs/applib/proxy/build/sampleapp/scorpion/IADAANAA/tzlib_proxy.lib(prxy_services.o)
                              /local/mnt/workspace/CRMBuilds/TZ.BF.4.0.3.c1-00005-M8996AAAAANAZT-1_20170110_230814/b/HK11/trustzone_images/core/securemsm/trustzone/qsapps/sampleapp/build/sampleapp/scorpion/IADAANAA/app_sfs.o (close)
/local/mnt/workspace/CRMBuilds/TZ.BF.4.0.3.c1-00005-M8996AAAAANAZT-1_20170110_230814/b/HK11/trustzone_images/core/securemsm/trustzone/qsapps/libs/applib/proxy/build/sampleapp/scorpion/IADAANAA/tzlib_proxy.lib(prxy_qsee_shim.o)
                              /local/mnt/workspace/CRMBuilds/TZ.BF.4.0.3.c1-00005-M8996AAAAANAZT-1_20170110_230814/b/HK11/trustzone_images/core/securemsm/trustzone/qsapps/sampleapp/build/sampleapp/scorpion/IADAANAA/app_rsa.o (qsee_BIGINT_read_radix)
/local/mnt/workspace/CRMBuilds/TZ.BF.4.0.3.c1-00005-M8996AAAAANAZT-1_20170110_230814/b/HK11/trustzone_images/core/securemsm/trustzone/qsapps/libs/applib/proxy/build/sampleapp/scorpion/IADAANAA/tzlib_proxy.lib(prxy_ufaes.o)
                              /local/mnt/workspace/CRMBuilds/TZ.BF.4.0.3.c1-00005-M8996AAAAANAZT-1_20170110_230814/b/HK11/trustzone_images/core/securemsm/trustzone/qsapps/sampleapp/build/sampleapp/scorpion/IADAANAA/app_crypto.o (qsee_SW_CipherData)
/local/mnt/workspace/CRMBuilds/TZ.BF.4.0.3.c1-00005-M8996AAAAANAZT-1_20170110_230814/b/HK11/trustzone_images/core/securemsm/trustzone/qsapps/libs/applib/proxy/build/sampleapp/scorpion/IADAANAA/tzlib_proxy.lib(prxy_ufdes.o)
                              /local/mnt/workspace/CRMBuilds/TZ.BF.4.0.3.c1-00005-M8996AAAAANAZT-1_20170110_230814/b/HK11/trustzone_images/core/securemsm/trustzone/qsapps/libs/applib/proxy/build/sampleapp/scorpion/IADAANAA/tzlib_proxy.lib(prxy_qsee_shim.o) (SW_CipherDESData)
/local/mnt/workspace/CRMBuilds/TZ.BF.4.0.3.c1-00005-M8996AAAAANAZT-1_20170110_230814/b/HK11/trustzone_images/core/securemsm/trustzone/qsapps/libs/applib/proxy/build/sampleapp/scorpion/IADAANAA/tzlib_proxy.lib(prxy_ufsha.o)
                              /local/mnt/workspace/CRMBuilds/TZ.BF.4.0.3.c1-00005-M8996AAAAANAZT-1_20170110_230814/b/HK11/trustzone_images/core/securemsm/trustzone/qsapps/sampleapp/build/sampleapp/scorpion/IADAANAA/app_crypto.o (qsee_SW_Hash_Final)
/local/mnt/workspace/CRMBuilds/TZ.BF.4.0.3.c1-00005-M8996AAAAANAZT-1_20170110_230814/b/HK11/trustzone_images/core/securemsm/trustzone/qsapps/libs/applib/proxy/build/sampleapp/scorpion/IADAANAA/tzlib_proxy.lib(prxy_secmath.o)
                              /local/mnt/workspace/CRMBuilds/TZ.BF.4.0.3.c1-00005-M8996AAAAANAZT-1_20170110_230814/b/HK11/trustzone_images/core/securemsm/trustzone/qsapps/libs/applib/proxy/build/sampleapp/scorpion/IADAANAA/tzlib_proxy.lib(prxy_qsee_shim.o) (secmath_BIGINT_read_radix)
/local/mnt/workspace/CRMBuilds/TZ.BF.4.0.3.c1-00005-M8996AAAAANAZT-1_20170110_230814/b/HK11/trustzone_images/core/securemsm/trustzone/qsapps/libs/applib/proxy/build/sampleapp/scorpion/IADAANAA/tzlib_proxy.lib(prxy_secrsa.o)
                              /local/mnt/workspace/CRMBuilds/TZ.BF.4.0.3.c1-00005-M8996AAAAANAZT-1_20170110_230814/b/HK11/trustzone_images/core/securemsm/trustzone/qsapps/libs/applib/proxy/build/sampleapp/scorpion/IADAANAA/tzlib_proxy.lib(prxy_qsee_shim.o) (ce_rsa_decrypt)
/local/mnt/workspace/CRMBuilds/TZ.BF.4.0.3.c1-00005-M8996AAAAANAZT-1_20170110_230814/b/HK11/trustzone_images/core/securemsm/trustzone/qsapps/libs/applib/proxy/build/sampleapp/scorpion/IADAANAA/tzlib_proxy.lib(prxy_ecc.o)
                              /local/mnt/workspace/CRMBuilds/TZ.BF.4.0.3.c1-00005-M8996AAAAANAZT-1_20170110_230814/b/HK11/trustzone_images/core/securemsm/trustzone/qsapps/libs/applib/proxy/build/sampleapp/scorpion/IADAANAA/tzlib_proxy.lib(prxy_qsee_shim.o) (ECC_hash_to_bigval)
/local/mnt/workspace/CRMBuilds/TZ.BF.4.0.3.c1-00005-M8996AAAAANAZT-1_20170110_230814/b/HK11/trustzone_images/core/securemsm/trustzone/qsapps/libs/applib/qsee/build/sampleapp/scorpion/IADAANAA/tzapp_entrylib.lib(mink_shared_code.o)
                              /local/mnt/workspace/CRMBuilds/TZ.BF.4.0.3.c1-00005-M8996AAAAANAZT-1_20170110_230814/b/HK11/trustzone_images/core/securemsm/trustzone/qsapps/libs/applib/common_applib/build/sampleapp/scorpion/IADAANAA/tzapp_entrylib.lib(common_applib.o) (minkIPC)
/local/mnt/workspace/CRMBuilds/TZ.BF.4.0.3.c1-00005-M8996AAAAANAZT-1_20170110_230814/b/HK11/trustzone_images/core/securemsm/trustzone/qsapps/libs/applib/qsee/build/sampleapp/scorpion/IADAANAA/tzapp_entrylib.lib(qsee_env.o)
                              /local/mnt/workspace/CRMBuilds/TZ.BF.4.0.3.c1-00005-M8996AAAAANAZT-1_20170110_230814/b/HK11/trustzone_images/core/securemsm/trustzone/qsapps/sampleapp/build/sampleapp/scorpion/IADAANAA/app_smplserv_test.o (qsee_open)
/local/mnt/workspace/CRMBuilds/TZ.BF.4.0.3.c1-00005-M8996AAAAANAZT-1_20170110_230814/b/HK11/trustzone_images/core/securemsm/trustzone/qsapps/libs/applib/qsee/build/sampleapp/scorpion/IADAANAA/tzapp_entrylib.lib(qsee_core_shim.o)
                              /local/mnt/workspace/CRMBuilds/TZ.BF.4.0.3.c1-00005-M8996AAAAANAZT-1_20170110_230814/b/HK11/trustzone_images/core/securemsm/trustzone/qsapps/sampleapp/build/sampleapp/scorpion/IADAANAA/app_fuses.o (qsee_blow_sw_fuse)
/local/mnt/workspace/CRMBuilds/TZ.BF.4.0.3.c1-00005-M8996AAAAANAZT-1_20170110_230814/b/HK11/trustzone_images/core/securemsm/trustzone/qsapps/libs/applib/qsee/build/sampleapp/scorpion/IADAANAA/tzapp_entrylib.lib(qsee_deviceid.o)
                              /local/mnt/workspace/CRMBuilds/TZ.BF.4.0.3.c1-00005-M8996AAAAANAZT-1_20170110_230814/b/HK11/trustzone_images/core/securemsm/trustzone/qsapps/sampleapp/build/sampleapp/scorpion/IADAANAA/qsee_api_tests.o (qsee_read_jtag_id)
/local/mnt/workspace/CRMBuilds/TZ.BF.4.0.3.c1-00005-M8996AAAAANAZT-1_20170110_230814/b/HK11/trustzone_images/core/securemsm/trustzone/qsapps/libs/applib/qsee/build/sampleapp/scorpion/IADAANAA/tzapp_entrylib.lib(qsee_prng.o)
                              /local/mnt/workspace/CRMBuilds/TZ.BF.4.0.3.c1-00005-M8996AAAAANAZT-1_20170110_230814/b/HK11/trustzone_images/core/securemsm/trustzone/qsapps/sampleapp/build/sampleapp/scorpion/IADAANAA/qsee_api_tests.o (qsee_prng_getdata)
/local/mnt/workspace/CRMBuilds/TZ.BF.4.0.3.c1-00005-M8996AAAAANAZT-1_20170110_230814/b/HK11/trustzone_images/core/securemsm/trustzone/qsapps/libs/applib/qsee/build/sampleapp/scorpion/IADAANAA/tzapp_entrylib.lib(qsee_secdisp.o)
                              /local/mnt/workspace/CRMBuilds/TZ.BF.4.0.3.c1-00005-M8996AAAAANAZT-1_20170110_230814/b/HK11/trustzone_images/core/securemsm/sse/qsee/SecureUI/build/sampleapp/scorpion/IADAANAA/secure_ui.lib(SecureUI.o) (qsee_sd_get_session)
/local/mnt/workspace/CRMBuilds/TZ.BF.4.0.3.c1-00005-M8996AAAAANAZT-1_20170110_230814/b/HK11/trustzone_images/core/securemsm/trustzone/qsapps/libs/applib/qsee/build/sampleapp/scorpion/IADAANAA/tzapp_entrylib.lib(qsee_nsmem.o)
                              /local/mnt/workspace/CRMBuilds/TZ.BF.4.0.3.c1-00005-M8996AAAAANAZT-1_20170110_230814/b/HK11/trustzone_images/core/securemsm/trustzone/qsapps/sampleapp/build/sampleapp/scorpion/IADAANAA/qsee_api_tests.o (qsee_is_ns_range)
/local/mnt/workspace/CRMBuilds/TZ.BF.4.0.3.c1-00005-M8996AAAAANAZT-1_20170110_230814/b/HK11/trustzone_images/core/securemsm/trustzone/qsapps/libs/applib/qsee/build/sampleapp/scorpion/IADAANAA/tzapp_entrylib.lib(qsee_cmac.o)
                              /local/mnt/workspace/CRMBuilds/TZ.BF.4.0.3.c1-00005-M8996AAAAANAZT-1_20170110_230814/b/HK11/trustzone_images/core/securemsm/trustzone/qsapps/sampleapp/build/sampleapp/scorpion/IADAANAA/app_crypto.o (qsee_cmac)
/local/mnt/workspace/CRMBuilds/TZ.BF.4.0.3.c1-00005-M8996AAAAANAZT-1_20170110_230814/b/HK11/trustzone_images/core/securemsm/trustzone/qsapps/libs/applib/qsee/build/sampleapp/scorpion/IADAANAA/tzapp_entrylib.lib(qsee_crypto_shim.o)
                              /local/mnt/workspace/CRMBuilds/TZ.BF.4.0.3.c1-00005-M8996AAAAANAZT-1_20170110_230814/b/HK11/trustzone_images/core/securemsm/trustzone/qsapps/sampleapp/build/sampleapp/scorpion/IADAANAA/app_crypto.o (qsee_set_bandwidth)
/local/mnt/workspace/CRMBuilds/TZ.BF.4.0.3.c1-00005-M8996AAAAANAZT-1_20170110_230814/b/HK11/trustzone_images/core/securemsm/trustzone/qsapps/libs/applib/qsee/build/sampleapp/scorpion/IADAANAA/tzapp_entrylib.lib(qsee_timer_shim.o)
                              /local/mnt/workspace/CRMBuilds/TZ.BF.4.0.3.c1-00005-M8996AAAAANAZT-1_20170110_230814/b/HK11/trustzone_images/core/securemsm/trustzone/qsapps/sampleapp/build/sampleapp/scorpion/IADAANAA/app_crypto.o (qsee_get_uptime)
/local/mnt/workspace/CRMBuilds/TZ.BF.4.0.3.c1-00005-M8996AAAAANAZT-1_20170110_230814/b/HK11/trustzone_images/core/securemsm/trustzone/qsapps/libs/applib/qsee/build/sampleapp/scorpion/IADAANAA/tzapp_entrylib.lib(tzapp_syscall.o)
                              /local/mnt/workspace/CRMBuilds/TZ.BF.4.0.3.c1-00005-M8996AAAAANAZT-1_20170110_230814/b/HK11/trustzone_images/core/securemsm/trustzone/qsapps/libs/applib/qsee/build/sampleapp/scorpion/IADAANAA/src/tzapp_entry.o (app_export_init_info_to_qsee)
/local/mnt/workspace/CRMBuilds/TZ.BF.4.0.3.c1-00005-M8996AAAAANAZT-1_20170110_230814/b/HK11/trustzone_images/core/securemsm/trustzone/qsapps/libs/applib/qsee/build/sampleapp/scorpion/IADAANAA/tzapp_entrylib.lib(qsee_comstr.o)
                              /local/mnt/workspace/CRMBuilds/TZ.BF.4.0.3.c1-00005-M8996AAAAANAZT-1_20170110_230814/b/HK11/trustzone_images/core/securemsm/trustzone/qsapps/sampleapp/build/sampleapp/scorpion/IADAANAA/qsee_api_tests.o (qsee_strlcat)
/local/mnt/workspace/CRMBuilds/TZ.BF.4.0.3.c1-00005-M8996AAAAANAZT-1_20170110_230814/b/HK11/trustzone_images/core/securemsm/trustzone/qsapps/libs/applib/qsee/build/sampleapp/scorpion/IADAANAA/tzapp_entrylib.lib(stor.o)
                              /local/mnt/workspace/CRMBuilds/TZ.BF.4.0.3.c1-00005-M8996AAAAANAZT-1_20170110_230814/b/HK11/trustzone_images/core/securemsm/trustzone/qsapps/sampleapp/build/sampleapp/scorpion/IADAANAA/app_stor.o (qsee_stor_add_partition)
/local/mnt/workspace/CRMBuilds/TZ.BF.4.0.3.c1-00005-M8996AAAAANAZT-1_20170110_230814/b/HK11/trustzone_images/core/securemsm/trustzone/qsapps/libs/applib/qsee/build/sampleapp/scorpion/IADAANAA/tzapp_entrylib.lib(stor_gpt.o)
                              /local/mnt/workspace/CRMBuilds/TZ.BF.4.0.3.c1-00005-M8996AAAAANAZT-1_20170110_230814/b/HK11/trustzone_images/core/securemsm/trustzone/qsapps/libs/applib/qsee/build/sampleapp/scorpion/IADAANAA/tzapp_entrylib.lib(stor.o) (gpt_add_partition)
/local/mnt/workspace/CRMBuilds/TZ.BF.4.0.3.c1-00005-M8996AAAAANAZT-1_20170110_230814/b/HK11/trustzone_images/core/securemsm/trustzone/qsapps/libs/applib/qsee/build/sampleapp/scorpion/IADAANAA/tzapp_entrylib.lib(stor_rpmbw.o)
                              /local/mnt/workspace/CRMBuilds/TZ.BF.4.0.3.c1-00005-M8996AAAAANAZT-1_20170110_230814/b/HK11/trustzone_images/core/securemsm/trustzone/qsapps/libs/applib/qsee/build/sampleapp/scorpion/IADAANAA/tzapp_entrylib.lib(stor.o) (rpmbw_add_partition)
/local/mnt/workspace/CRMBuilds/TZ.BF.4.0.3.c1-00005-M8996AAAAANAZT-1_20170110_230814/b/HK11/trustzone_images/core/securemsm/trustzone/qsapps/libs/applib/qsee/build/sampleapp/scorpion/IADAANAA/tzapp_entrylib.lib(qsee_counter_shim.o)
                              /local/mnt/workspace/CRMBuilds/TZ.BF.4.0.3.c1-00005-M8996AAAAANAZT-1_20170110_230814/b/HK11/trustzone_images/core/securemsm/trustzone/qsapps/sampleapp/build/sampleapp/scorpion/IADAANAA/app_sfs.o (qsee_create_counter)
/local/mnt/workspace/CRMBuilds/TZ.BF.4.0.3.c1-00005-M8996AAAAANAZT-1_20170110_230814/b/HK11/trustzone_images/core/securemsm/trustzone/qsapps/libs/applib/qsee/build/sampleapp/scorpion/IADAANAA/tzapp_entrylib.lib(qsee_cipher.o)
                              /local/mnt/workspace/CRMBuilds/TZ.BF.4.0.3.c1-00005-M8996AAAAANAZT-1_20170110_230814/b/HK11/trustzone_images/core/securemsm/trustzone/qsapps/sampleapp/build/sampleapp/scorpion/IADAANAA/app_crypto.o (qsee_cipher_decrypt)
/local/mnt/workspace/CRMBuilds/TZ.BF.4.0.3.c1-00005-M8996AAAAANAZT-1_20170110_230814/b/HK11/trustzone_images/core/securemsm/trustzone/qsapps/libs/applib/qsee/build/sampleapp/scorpion/IADAANAA/tzapp_entrylib.lib(qsee_hash.o)
                              /local/mnt/workspace/CRMBuilds/TZ.BF.4.0.3.c1-00005-M8996AAAAANAZT-1_20170110_230814/b/HK11/trustzone_images/core/securemsm/trustzone/qsapps/sampleapp/build/sampleapp/scorpion/IADAANAA/app_crypto.o (qsee_hash)
/local/mnt/workspace/CRMBuilds/TZ.BF.4.0.3.c1-00005-M8996AAAAANAZT-1_20170110_230814/b/HK11/trustzone_images/core/securemsm/trustzone/qsapps/libs/applib/qsee/build/sampleapp/scorpion/IADAANAA/tzapp_entrylib.lib(qsee_hmac.o)
                              /local/mnt/workspace/CRMBuilds/TZ.BF.4.0.3.c1-00005-M8996AAAAANAZT-1_20170110_230814/b/HK11/trustzone_images/core/securemsm/trustzone/qsapps/sampleapp/build/sampleapp/scorpion/IADAANAA/app_crypto.o (qsee_hmac)
/local/mnt/workspace/CRMBuilds/TZ.BF.4.0.3.c1-00005-M8996AAAAANAZT-1_20170110_230814/b/HK11/trustzone_images/core/securemsm/trustzone/qsapps/libs/applib/qsee/build/sampleapp/scorpion/IADAANAA/tzapp_entrylib.lib(qsee_i2c.o)
                              /local/mnt/workspace/CRMBuilds/TZ.BF.4.0.3.c1-00005-M8996AAAAANAZT-1_20170110_230814/b/HK11/trustzone_images/core/securemsm/trustzone/qsapps/sampleapp/build/sampleapp/scorpion/IADAANAA/qsee_api_tests.o (qsee_i2c_close)
/local/mnt/workspace/CRMBuilds/TZ.BF.4.0.3.c1-00005-M8996AAAAANAZT-1_20170110_230814/b/HK11/trustzone_images/core/securemsm/trustzone/qsapps/libs/applib/qsee/build/sampleapp/scorpion/IADAANAA/tzapp_entrylib.lib(qsee_spi.o)
                              /local/mnt/workspace/CRMBuilds/TZ.BF.4.0.3.c1-00005-M8996AAAAANAZT-1_20170110_230814/b/HK11/trustzone_images/core/securemsm/trustzone/qsapps/sampleapp/build/sampleapp/scorpion/IADAANAA/qsee_api_tests.o (qsee_spi_close)
/local/mnt/workspace/CRMBuilds/TZ.BF.4.0.3.c1-00005-M8996AAAAANAZT-1_20170110_230814/b/HK11/trustzone_images/core/securemsm/trustzone/qsapps/libs/applib/qsee/build/sampleapp/scorpion/IADAANAA/tzapp_entrylib.lib(qsee_bulletin_board_shim.o)
                              /local/mnt/workspace/CRMBuilds/TZ.BF.4.0.3.c1-00005-M8996AAAAANAZT-1_20170110_230814/b/HK11/trustzone_images/core/securemsm/trustzone/qsapps/sampleapp/build/sampleapp/scorpion/IADAANAA/app_bulletin_board.o (qsee_bulletin_board_post)
/local/mnt/workspace/CRMBuilds/TZ.BF.4.0.3.c1-00005-M8996AAAAANAZT-1_20170110_230814/b/HK11/trustzone_images/core/securemsm/trustzone/qsapps/libs/applib/qsee/build/sampleapp/scorpion/IADAANAA/tzapp_entrylib.lib(qsee_tlmm.o)
                              /local/mnt/workspace/CRMBuilds/TZ.BF.4.0.3.c1-00005-M8996AAAAANAZT-1_20170110_230814/b/HK11/trustzone_images/core/securemsm/trustzone/qsapps/sampleapp/build/sampleapp/scorpion/IADAANAA/qsee_api_tests.o (qsee_tlmm_config_gpio_id)
/local/mnt/workspace/CRMBuilds/TZ.BF.4.0.3.c1-00005-M8996AAAAANAZT-1_20170110_230814/b/HK11/trustzone_images/core/securemsm/trustzone/qsapps/libs/applib/qsee/build/sampleapp/scorpion/IADAANAA/tzapp_entrylib.lib(qsee_sync.o)
                              /local/mnt/workspace/CRMBuilds/TZ.BF.4.0.3.c1-00005-M8996AAAAANAZT-1_20170110_230814/b/HK11/trustzone_images/core/securemsm/trustzone/qsapps/sampleapp/build/sampleapp/scorpion/IADAANAA/qsee_api_tests.o (qsee_spin)
/local/mnt/workspace/CRMBuilds/TZ.BF.4.0.3.c1-00005-M8996AAAAANAZT-1_20170110_230814/b/HK11/trustzone_images/core/securemsm/trustzone/qsapps/libs/applib/qsee/build/sampleapp/scorpion/IADAANAA/tzapp_entrylib.lib(qsee_dcache.o)
                              /local/mnt/workspace/CRMBuilds/TZ.BF.4.0.3.c1-00005-M8996AAAAANAZT-1_20170110_230814/b/HK11/trustzone_images/core/securemsm/trustzone/qsapps/sampleapp/build/sampleapp/scorpion/IADAANAA/qsee_api_tests.o (qsee_dcache_clean_region)
/local/mnt/workspace/CRMBuilds/TZ.BF.4.0.3.c1-00005-M8996AAAAANAZT-1_20170110_230814/b/HK11/trustzone_images/core/securemsm/trustzone/qsapps/libs/applib/qsee/build/sampleapp/scorpion/IADAANAA/tzapp_entrylib.lib(qsee_shared_buffer.o)
                              /local/mnt/workspace/CRMBuilds/TZ.BF.4.0.3.c1-00005-M8996AAAAANAZT-1_20170110_230814/b/HK11/trustzone_images/core/securemsm/trustzone/qsapps/sampleapp/build/sampleapp/scorpion/IADAANAA/app_main.o (qsee_deregister_shared_buffer)
/local/mnt/workspace/CRMBuilds/TZ.BF.4.0.3.c1-00005-M8996AAAAANAZT-1_20170110_230814/b/HK11/trustzone_images/core/securemsm/trustzone/qsapps/libs/applib/qsee/build/sampleapp/scorpion/IADAANAA/tzapp_entrylib.lib(qsee_oem_buffer.o)
                              /local/mnt/workspace/CRMBuilds/TZ.BF.4.0.3.c1-00005-M8996AAAAANAZT-1_20170110_230814/b/HK11/trustzone_images/core/securemsm/trustzone/qsapps/sampleapp/build/sampleapp/scorpion/IADAANAA/qsee_api_tests.o (qsee_get_oem_buffer_length)
/local/mnt/workspace/CRMBuilds/TZ.BF.4.0.3.c1-00005-M8996AAAAANAZT-1_20170110_230814/b/HK11/trustzone_images/core/securemsm/trustzone/qsapps/libs/applib/qsee/build/sampleapp/scorpion/IADAANAA/tzapp_entrylib.lib(qsee_intmask.o)
                              /local/mnt/workspace/CRMBuilds/TZ.BF.4.0.3.c1-00005-M8996AAAAANAZT-1_20170110_230814/b/HK11/trustzone_images/core/securemsm/trustzone/qsapps/sampleapp/build/sampleapp/scorpion/IADAANAA/qsee_api_tests.o (qsee_disable_all_interrupts)
/local/mnt/workspace/CRMBuilds/TZ.BF.4.0.3.c1-00005-M8996AAAAANAZT-1_20170110_230814/b/HK11/trustzone_images/core/securemsm/trustzone/qsapps/libs/applib/qsee/build/sampleapp/scorpion/IADAANAA/tzapp_entrylib.lib(qsee_trans_ns_addr.o)
                              /local/mnt/workspace/CRMBuilds/TZ.BF.4.0.3.c1-00005-M8996AAAAANAZT-1_20170110_230814/b/HK11/trustzone_images/core/securemsm/trustzone/qsapps/sampleapp/build/sampleapp/scorpion/IADAANAA/qsee_api_tests.o (qsee_trans_ns_addr)
/local/mnt/workspace/CRMBuilds/TZ.BF.4.0.3.c1-00005-M8996AAAAANAZT-1_20170110_230814/b/HK11/trustzone_images/core/securemsm/trustzone/qsapps/libs/applib/qsee/build/sampleapp/scorpion/IADAANAA/tzapp_entrylib.lib(qsee_appmessage.o)
                              /local/mnt/workspace/CRMBuilds/TZ.BF.4.0.3.c1-00005-M8996AAAAANAZT-1_20170110_230814/b/HK11/trustzone_images/core/securemsm/trustzone/qsapps/sampleapp/build/sampleapp/scorpion/IADAANAA/app_message_passing.o (qsee_decapsulate_inter_app_message)
/local/mnt/workspace/CRMBuilds/TZ.BF.4.0.3.c1-00005-M8996AAAAANAZT-1_20170110_230814/b/HK11/trustzone_images/core/securemsm/trustzone/qsapps/libs/applib/qsee/build/sampleapp/scorpion/IADAANAA/tzapp_entrylib.lib(sfs_api.o)
                              /local/mnt/workspace/CRMBuilds/TZ.BF.4.0.3.c1-00005-M8996AAAAANAZT-1_20170110_230814/b/HK11/trustzone_images/core/securemsm/trustzone/qsapps/sampleapp/build/sampleapp/scorpion/IADAANAA/app_sfs.o (qsee_sfs_clean_file_list)
/local/mnt/workspace/CRMBuilds/TZ.BF.4.0.3.c1-00005-M8996AAAAANAZT-1_20170110_230814/b/HK11/trustzone_images/core/securemsm/trustzone/qsapps/libs/applib/qsee/build/sampleapp/scorpion/IADAANAA/tzapp_entrylib.lib(tzapp_lib_main.o)
                              /local/mnt/workspace/CRMBuilds/TZ.BF.4.0.3.c1-00005-M8996AAAAANAZT-1_20170110_230814/b/HK11/trustzone_images/core/securemsm/trustzone/qsapps/libs/applib/common_applib/build/sampleapp/scorpion/IADAANAA/tzapp_entrylib.lib(common_applib.o) (CApp_invoke)
/local/mnt/workspace/CRMBuilds/TZ.BF.4.0.3.c1-00005-M8996AAAAANAZT-1_20170110_230814/b/HK11/trustzone_images/core/securemsm/trustzone/qsapps/libs/applib/qsee/build/sampleapp/scorpion/IADAANAA/tzapp_entrylib.lib(kthread_shared.o)
                              /local/mnt/workspace/CRMBuilds/TZ.BF.4.0.3.c1-00005-M8996AAAAANAZT-1_20170110_230814/b/HK11/trustzone_images/core/securemsm/trustzone/qsapps/libs/applib/qsee/build/sampleapp/scorpion/IADAANAA/tzapp_entrylib.lib(mink_shared_code.o) (mink_generic_syscall)
/local/mnt/workspace/CRMBuilds/TZ.BF.4.0.3.c1-00005-M8996AAAAANAZT-1_20170110_230814/b/HK11/trustzone_images/core/securemsm/trustzone/qsapps/libs/biometric/build/sampleapp/scorpion/IADAANAA/biometric_lib.lib(biometric.o)
                              /local/mnt/workspace/CRMBuilds/TZ.BF.4.0.3.c1-00005-M8996AAAAANAZT-1_20170110_230814/b/HK11/trustzone_images/core/securemsm/trustzone/qsapps/sampleapp/build/sampleapp/scorpion/IADAANAA/app_bio_lib.o (bio_get_auth_result)
/local/mnt/workspace/CRMBuilds/TZ.BF.4.0.3.c1-00005-M8996AAAAANAZT-1_20170110_230814/b/HK11/trustzone_images/core/securemsm/trustzone/qsapps/libs/biometric/build/sampleapp/scorpion/IADAANAA/biometric_lib.lib(biometric_serializer.o)
                              /local/mnt/workspace/CRMBuilds/TZ.BF.4.0.3.c1-00005-M8996AAAAANAZT-1_20170110_230814/b/HK11/trustzone_images/core/securemsm/trustzone/qsapps/libs/biometric/build/sampleapp/scorpion/IADAANAA/biometric_lib.lib(biometric.o) (bio_deserialize_auth_result)
/local/mnt/workspace/CRMBuilds/TZ.BF.4.0.3.c1-00005-M8996AAAAANAZT-1_20170110_230814/b/HK11/trustzone_images/core/securemsm/trustzone/qsee/mink/libstd/build/sampleapp/scorpion/IADAANAA/libstd.lib(strnlen.o)
                              /local/mnt/workspace/CRMBuilds/TZ.BF.4.0.3.c1-00005-M8996AAAAANAZT-1_20170110_230814/b/HK11/trustzone_images/core/securemsm/trustzone/qsapps/libs/biometric/build/sampleapp/scorpion/IADAANAA/biometric_lib.lib(biometric_serializer.o) (strnlen)
/local/mnt/workspace/CRMBuilds/TZ.BF.4.0.3.c1-00005-M8996AAAAANAZT-1_20170110_230814/b/HK11/trustzone_images/core/securemsm/trustzone/qsee/mink/libstd/build/sampleapp/scorpion/IADAANAA/libstd.lib(memcmp.o)
                              /local/mnt/workspace/CRMBuilds/TZ.BF.4.0.3.c1-00005-M8996AAAAANAZT-1_20170110_230814/b/HK11/trustzone_images/core/securemsm/trustzone/qsapps/sampleapp/build/sampleapp/scorpion/IADAANAA/app_smplserv_test.o (memcmp)
/local/mnt/workspace/CRMBuilds/TZ.BF.4.0.3.c1-00005-M8996AAAAANAZT-1_20170110_230814/b/HK11/trustzone_images/core/securemsm/trustzone/qsee/mink/libstd/build/sampleapp/scorpion/IADAANAA/libstd.lib(strlen.o)
                              /local/mnt/workspace/CRMBuilds/TZ.BF.4.0.3.c1-00005-M8996AAAAANAZT-1_20170110_230814/b/HK11/trustzone_images/core/securemsm/trustzone/qsapps/sampleapp/build/sampleapp/scorpion/IADAANAA/app_crypto.o (strlen)
/local/mnt/workspace/CRMBuilds/TZ.BF.4.0.3.c1-00005-M8996AAAAANAZT-1_20170110_230814/b/HK11/trustzone_images/core/securemsm/trustzone/qsee/mink/libstd/build/sampleapp/scorpion/IADAANAA/libstd.lib(strcmp.o)
                              /local/mnt/workspace/CRMBuilds/TZ.BF.4.0.3.c1-00005-M8996AAAAANAZT-1_20170110_230814/b/HK11/trustzone_images/core/securemsm/trustzone/qsapps/sampleapp/build/sampleapp/scorpion/IADAANAA/app_sfs.o (strcmp)
/local/mnt/workspace/CRMBuilds/TZ.BF.4.0.3.c1-00005-M8996AAAAANAZT-1_20170110_230814/b/HK11/trustzone_images/core/securemsm/trustzone/qsee/mink/libstd/build/sampleapp/scorpion/IADAANAA/libstd.lib(strncmp.o)
                              /local/mnt/workspace/CRMBuilds/TZ.BF.4.0.3.c1-00005-M8996AAAAANAZT-1_20170110_230814/b/HK11/trustzone_images/core/securemsm/trustzone/qsapps/sampleapp/build/sampleapp/scorpion/IADAANAA/app_sfs.o (strncmp)
/local/mnt/workspace/CRMBuilds/TZ.BF.4.0.3.c1-00005-M8996AAAAANAZT-1_20170110_230814/b/HK11/trustzone_images/core/securemsm/trustzone/qsee/mink/libstd/build/sampleapp/scorpion/IADAANAA/libstd.lib(printf.o)
                              /local/mnt/workspace/CRMBuilds/TZ.BF.4.0.3.c1-00005-M8996AAAAANAZT-1_20170110_230814/b/HK11/trustzone_images/core/securemsm/trustzone/qsapps/libs/applib/proxy/build/sampleapp/scorpion/IADAANAA/tzlib_proxy.lib(prxy_services.o) (vsnprintf)
/local/mnt/workspace/CRMBuilds/TZ.BF.4.0.3.c1-00005-M8996AAAAANAZT-1_20170110_230814/b/HK11/trustzone_images/core/securemsm/trustzone/qsee/mink/libstd/build/sampleapp/scorpion/IADAANAA/libstd.lib(memchr.o)
                              /local/mnt/workspace/CRMBuilds/TZ.BF.4.0.3.c1-00005-M8996AAAAANAZT-1_20170110_230814/b/HK11/trustzone_images/core/securemsm/trustzone/qsee/mink/libstd/build/sampleapp/scorpion/IADAANAA/libstd.lib(printf.o) (memchr)
/afs/localcell/cm/gv2.6/sysname/pkg.@sys/qct/software/llvm/release/arm/3.5.2.4/lib/clang/3.5.2/lib/linux/libclang_rt.builtins-arm.a(aeabi_dcmp.S.o)
                              /local/mnt/workspace/CRMBuilds/TZ.BF.4.0.3.c1-00005-M8996AAAAANAZT-1_20170110_230814/b/HK11/trustzone_images/core/securemsm/trustzone/qsapps/sampleapp/build/sampleapp/scorpion/IADAANAA/app_main.o (__aeabi_dcmpeq)
/afs/localcell/cm/gv2.6/sysname/pkg.@sys/qct/software/llvm/release/arm/3.5.2.4/lib/clang/3.5.2/lib/linux/libclang_rt.builtins-arm.a(aeabi_memcpy.S.o)
                              /local/mnt/workspace/CRMBuilds/TZ.BF.4.0.3.c1-00005-M8996AAAAANAZT-1_20170110_230814/b/HK11/trustzone_images/core/securemsm/trustzone/qsapps/sampleapp/build/sampleapp/scorpion/IADAANAA/app_main.o (__aeabi_memcpy)
/afs/localcell/cm/gv2.6/sysname/pkg.@sys/qct/software/llvm/release/arm/3.5.2.4/lib/clang/3.5.2/lib/linux/libclang_rt.builtins-arm.a(aeabi_memmove.S.o)
                              /local/mnt/workspace/CRMBuilds/TZ.BF.4.0.3.c1-00005-M8996AAAAANAZT-1_20170110_230814/b/HK11/trustzone_images/core/securemsm/trustzone/qsapps/libs/applib/qsee/build/sampleapp/scorpion/IADAANAA/tzapp_entrylib.lib(qsee_comstr.o) (__aeabi_memmove)
/afs/localcell/cm/gv2.6/sysname/pkg.@sys/qct/software/llvm/release/arm/3.5.2.4/lib/clang/3.5.2/lib/linux/libclang_rt.builtins-arm.a(aeabi_memset.S.o)
                              /local/mnt/workspace/CRMBuilds/TZ.BF.4.0.3.c1-00005-M8996AAAAANAZT-1_20170110_230814/b/HK11/trustzone_images/core/securemsm/trustzone/qsapps/sampleapp/build/sampleapp/scorpion/IADAANAA/app_smplserv_test.o (__aeabi_memset)
/afs/localcell/cm/gv2.6/sysname/pkg.@sys/qct/software/llvm/release/arm/3.5.2.4/lib/clang/3.5.2/lib/linux/libclang_rt.builtins-arm.a(aeabi_uldivmod.S.o)
                              /local/mnt/workspace/CRMBuilds/TZ.BF.4.0.3.c1-00005-M8996AAAAANAZT-1_20170110_230814/b/HK11/trustzone_images/core/securemsm/trustzone/qsapps/sampleapp/build/sampleapp/scorpion/IADAANAA/app_sfs.o (__aeabi_uldivmod)
/afs/localcell/cm/gv2.6/sysname/pkg.@sys/qct/software/llvm/release/arm/3.5.2.4/lib/clang/3.5.2/lib/linux/libclang_rt.builtins-arm.a(adddf3.c.o)
                              /local/mnt/workspace/CRMBuilds/TZ.BF.4.0.3.c1-00005-M8996AAAAANAZT-1_20170110_230814/b/HK11/trustzone_images/core/securemsm/trustzone/qsapps/sampleapp/build/sampleapp/scorpion/IADAANAA/app_main.o (__aeabi_dadd)
/afs/localcell/cm/gv2.6/sysname/pkg.@sys/qct/software/llvm/release/arm/3.5.2.4/lib/clang/3.5.2/lib/linux/libclang_rt.builtins-arm.a(comparedf2.c.o)
                              /afs/localcell/cm/gv2.6/sysname/pkg.@sys/qct/software/llvm/release/arm/3.5.2.4/lib/clang/3.5.2/lib/linux/libclang_rt.builtins-arm.a(aeabi_dcmp.S.o) (__eqdf2)
/afs/localcell/cm/gv2.6/sysname/pkg.@sys/qct/software/llvm/release/arm/3.5.2.4/lib/clang/3.5.2/lib/linux/libclang_rt.builtins-arm.a(divsf3.c.o)
                              /local/mnt/workspace/CRMBuilds/TZ.BF.4.0.3.c1-00005-M8996AAAAANAZT-1_20170110_230814/b/HK11/trustzone_images/core/securemsm/trustzone/qsapps/sampleapp/build/sampleapp/scorpion/IADAANAA/app_crypto.o (__aeabi_fdiv)
/afs/localcell/cm/gv2.6/sysname/pkg.@sys/qct/software/llvm/release/arm/3.5.2.4/lib/clang/3.5.2/lib/linux/libclang_rt.builtins-arm.a(extendsfdf2.c.o)
                              /local/mnt/workspace/CRMBuilds/TZ.BF.4.0.3.c1-00005-M8996AAAAANAZT-1_20170110_230814/b/HK11/trustzone_images/core/securemsm/trustzone/qsapps/sampleapp/build/sampleapp/scorpion/IADAANAA/app_main.o (__aeabi_f2d)
/afs/localcell/cm/gv2.6/sysname/pkg.@sys/qct/software/llvm/release/arm/3.5.2.4/lib/clang/3.5.2/lib/linux/libclang_rt.builtins-arm.a(fixdfsi.c.o)
                              /local/mnt/workspace/CRMBuilds/TZ.BF.4.0.3.c1-00005-M8996AAAAANAZT-1_20170110_230814/b/HK11/trustzone_images/core/securemsm/trustzone/qsapps/sampleapp/build/sampleapp/scorpion/IADAANAA/app_crypto.o (__aeabi_d2iz)
/afs/localcell/cm/gv2.6/sysname/pkg.@sys/qct/software/llvm/release/arm/3.5.2.4/lib/clang/3.5.2/lib/linux/libclang_rt.builtins-arm.a(floatundisf.c.o)
                              /local/mnt/workspace/CRMBuilds/TZ.BF.4.0.3.c1-00005-M8996AAAAANAZT-1_20170110_230814/b/HK11/trustzone_images/core/securemsm/trustzone/qsapps/sampleapp/build/sampleapp/scorpion/IADAANAA/app_crypto.o (__aeabi_ul2f)
/afs/localcell/cm/gv2.6/sysname/pkg.@sys/qct/software/llvm/release/arm/3.5.2.4/lib/clang/3.5.2/lib/linux/libclang_rt.builtins-arm.a(floatunsisf.c.o)
                              /local/mnt/workspace/CRMBuilds/TZ.BF.4.0.3.c1-00005-M8996AAAAANAZT-1_20170110_230814/b/HK11/trustzone_images/core/securemsm/trustzone/qsapps/sampleapp/build/sampleapp/scorpion/IADAANAA/app_crypto.o (__aeabi_ui2f)
/afs/localcell/cm/gv2.6/sysname/pkg.@sys/qct/software/llvm/release/arm/3.5.2.4/lib/clang/3.5.2/lib/linux/libclang_rt.builtins-arm.a(muldf3.c.o)
                              /local/mnt/workspace/CRMBuilds/TZ.BF.4.0.3.c1-00005-M8996AAAAANAZT-1_20170110_230814/b/HK11/trustzone_images/core/securemsm/trustzone/qsapps/sampleapp/build/sampleapp/scorpion/IADAANAA/app_main.o (__aeabi_dmul)
/afs/localcell/cm/gv2.6/sysname/pkg.@sys/qct/software/llvm/release/arm/3.5.2.4/lib/clang/3.5.2/lib/linux/libclang_rt.builtins-arm.a(mulsf3.c.o)
                              /local/mnt/workspace/CRMBuilds/TZ.BF.4.0.3.c1-00005-M8996AAAAANAZT-1_20170110_230814/b/HK11/trustzone_images/core/securemsm/trustzone/qsapps/sampleapp/build/sampleapp/scorpion/IADAANAA/app_crypto.o (__aeabi_fmul)
/afs/localcell/cm/gv2.6/sysname/pkg.@sys/qct/software/llvm/release/arm/3.5.2.4/lib/clang/3.5.2/lib/linux/libclang_rt.builtins-arm.a(truncdfsf2.c.o)
                              /local/mnt/workspace/CRMBuilds/TZ.BF.4.0.3.c1-00005-M8996AAAAANAZT-1_20170110_230814/b/HK11/trustzone_images/core/securemsm/trustzone/qsapps/sampleapp/build/sampleapp/scorpion/IADAANAA/app_main.o (__aeabi_d2f)
/afs/localcell/cm/gv2.6/sysname/pkg.@sys/qct/software/llvm/release/arm/3.5.2.4/lib/clang/3.5.2/lib/linux/libclang_rt.builtins-arm.a(udivmoddi4.c.o)
                              /afs/localcell/cm/gv2.6/sysname/pkg.@sys/qct/software/llvm/release/arm/3.5.2.4/lib/clang/3.5.2/lib/linux/libclang_rt.builtins-arm.a(aeabi_uldivmod.S.o) (__udivmoddi4)
/afs/localcell/cm/gv2.6/sysname/pkg.@sys/qct/software/llvm/release/arm/3.5.2.4/lib/clang/3.5.2/lib/linux/libclang_rt.builtins-arm.a(udivsi3.c.o)
                              /afs/localcell/cm/gv2.6/sysname/pkg.@sys/qct/software/llvm/release/arm/3.5.2.4/lib/clang/3.5.2/lib/linux/libclang_rt.builtins-arm.a(udivmoddi4.c.o) (__aeabi_uidiv)
/afs/localcell/cm/gv2.6/sysname/pkg.@sys/qct/software/llvm/release/arm/3.5.2.4/lib/clang/3.5.2/lib/linux/libclang_rt.builtins-arm.a(umoddi3.c.o)
                              /local/mnt/workspace/CRMBuilds/TZ.BF.4.0.3.c1-00005-M8996AAAAANAZT-1_20170110_230814/b/HK11/trustzone_images/core/securemsm/trustzone/qsee/mink/libstd/build/sampleapp/scorpion/IADAANAA/libstd.lib(printf.o) (__umoddi3)
/afs/localcell/cm/gv2.6/sysname/pkg.@sys/qct/software/llvm/release/arm/3.5.2.4/lib/clang/3.5.2/lib/linux/libclang_rt.builtins-arm.a(umodsi3.c.o)
                              /afs/localcell/cm/gv2.6/sysname/pkg.@sys/qct/software/llvm/release/arm/3.5.2.4/lib/clang/3.5.2/lib/linux/libclang_rt.builtins-arm.a(udivmoddi4.c.o) (__umodsi3)
/local/mnt/workspace/CRMBuilds/TZ.BF.4.0.3.c1-00005-M8996AAAAANAZT-1_20170110_230814/b/HK11/trustzone_images/core/securemsm/sse/qsee/SecureTouch/drTs/lib/build/sampleapp/scorpion/IADAANAA/touch_lib.lib(01_open.o)
                              /local/mnt/workspace/CRMBuilds/TZ.BF.4.0.3.c1-00005-M8996AAAAANAZT-1_20170110_230814/b/HK11/trustzone_images/core/securemsm/sse/qsee/SecureUILib/lib/build/sampleapp/scorpion/IADAANAA/secure_ui_lib.lib(01_startTouch.o) (touchOpen)
/local/mnt/workspace/CRMBuilds/TZ.BF.4.0.3.c1-00005-M8996AAAAANAZT-1_20170110_230814/b/HK11/trustzone_images/core/securemsm/sse/qsee/SecureTouch/drTs/lib/build/sampleapp/scorpion/IADAANAA/touch_lib.lib(02_close.o)
                              /local/mnt/workspace/CRMBuilds/TZ.BF.4.0.3.c1-00005-M8996AAAAANAZT-1_20170110_230814/b/HK11/trustzone_images/core/securemsm/sse/qsee/SecureUILib/lib/build/sampleapp/scorpion/IADAANAA/secure_ui_lib.lib(03_stopTouch.o) (touchClose)
/local/mnt/workspace/CRMBuilds/TZ.BF.4.0.3.c1-00005-M8996AAAAANAZT-1_20170110_230814/b/HK11/trustzone_images/core/securemsm/sse/qsee/SecureTouch/drTs/lib/build/sampleapp/scorpion/IADAANAA/touch_lib.lib(03_getData.o)
                              /local/mnt/workspace/CRMBuilds/TZ.BF.4.0.3.c1-00005-M8996AAAAANAZT-1_20170110_230814/b/HK11/trustzone_images/core/securemsm/sse/qsee/SecureUILib/lib/build/sampleapp/scorpion/IADAANAA/secure_ui_lib.lib(02_processTouch.o) (touchGetData)
/local/mnt/workspace/CRMBuilds/TZ.BF.4.0.3.c1-00005-M8996AAAAANAZT-1_20170110_230814/b/HK11/trustzone_images/core/securemsm/trustzone/qsapps/libs/applib/common_applib/build/sampleapp/scorpion/IADAANAA/tzapp_entrylib.lib(gpPersistObjCommon.o)
                              /local/mnt/workspace/CRMBuilds/TZ.BF.4.0.3.c1-00005-M8996AAAAANAZT-1_20170110_230814/b/HK11/trustzone_images/core/securemsm/trustzone/qsapps/libs/applib/qsee/build/sampleapp/scorpion/IADAANAA/tzapp_entrylib.lib(sfs_api.o) (gpCommon_Close_Object)
/local/mnt/workspace/CRMBuilds/TZ.BF.4.0.3.c1-00005-M8996AAAAANAZT-1_20170110_230814/b/HK11/trustzone_images/core/securemsm/trustzone/qsapps/libs/applib/common_applib/build/sampleapp/scorpion/IADAANAA/tzapp_entrylib.lib(gpPersistentObjects.o)
                              /local/mnt/workspace/CRMBuilds/TZ.BF.4.0.3.c1-00005-M8996AAAAANAZT-1_20170110_230814/b/HK11/trustzone_images/core/securemsm/trustzone/qsapps/libs/applib/qsee/build/sampleapp/scorpion/IADAANAA/tzapp_entrylib.lib(sfs_api.o) (TEE_AllocatePersistentObjectEnumerator)
/local/mnt/workspace/CRMBuilds/TZ.BF.4.0.3.c1-00005-M8996AAAAANAZT-1_20170110_230814/b/HK11/trustzone_images/core/securemsm/trustzone/qsapps/libs/applib/common_applib/build/sampleapp/scorpion/IADAANAA/tzapp_entrylib.lib(gpPersistObjData.o)
                              /local/mnt/workspace/CRMBuilds/TZ.BF.4.0.3.c1-00005-M8996AAAAANAZT-1_20170110_230814/b/HK11/trustzone_images/core/securemsm/trustzone/qsapps/libs/applib/common_applib/build/sampleapp/scorpion/IADAANAA/tzapp_entrylib.lib(gpPersistObjCommon.o) (gpData_Close_Object)
/local/mnt/workspace/CRMBuilds/TZ.BF.4.0.3.c1-00005-M8996AAAAANAZT-1_20170110_230814/b/HK11/trustzone_images/core/securemsm/trustzone/qsapps/libs/applib/common_applib/build/sampleapp/scorpion/IADAANAA/tzapp_entrylib.lib(gpPersistObjHandler.o)
                              /local/mnt/workspace/CRMBuilds/TZ.BF.4.0.3.c1-00005-M8996AAAAANAZT-1_20170110_230814/b/HK11/trustzone_images/core/securemsm/trustzone/qsapps/libs/applib/common_applib/build/sampleapp/scorpion/IADAANAA/tzapp_entrylib.lib(gpPersistObjCommon.o) (gpHandler_Close_Handle)
/local/mnt/workspace/CRMBuilds/TZ.BF.4.0.3.c1-00005-M8996AAAAANAZT-1_20170110_230814/b/HK11/trustzone_images/core/securemsm/trustzone/qsapps/libs/applib/common_applib/build/sampleapp/scorpion/IADAANAA/tzapp_entrylib.lib(gpPersistObjIndex.o)
                              /local/mnt/workspace/CRMBuilds/TZ.BF.4.0.3.c1-00005-M8996AAAAANAZT-1_20170110_230814/b/HK11/trustzone_images/core/securemsm/trustzone/qsapps/libs/applib/common_applib/build/sampleapp/scorpion/IADAANAA/tzapp_entrylib.lib(gpPersistObjHandler.o) (gpIndex_Create_Entry)
/local/mnt/workspace/CRMBuilds/TZ.BF.4.0.3.c1-00005-M8996AAAAANAZT-1_20170110_230814/b/HK11/trustzone_images/core/securemsm/trustzone/qsapps/libs/applib/common_applib/build/sampleapp/scorpion/IADAANAA/tzapp_entrylib.lib(gpPersistObjVersion.o)
                              /local/mnt/workspace/CRMBuilds/TZ.BF.4.0.3.c1-00005-M8996AAAAANAZT-1_20170110_230814/b/HK11/trustzone_images/core/securemsm/trustzone/qsapps/libs/applib/common_applib/build/sampleapp/scorpion/IADAANAA/tzapp_entrylib.lib(gpPersistObjIndex.o) (gpVersion_Delete_Version)
/local/mnt/workspace/CRMBuilds/TZ.BF.4.0.3.c1-00005-M8996AAAAANAZT-1_20170110_230814/b/HK11/trustzone_images/core/securemsm/trustzone/qsapps/libs/applib/common_applib/build/sampleapp/scorpion/IADAANAA/tzapp_entrylib.lib(gpPersistObjCrypto.o)
                              /local/mnt/workspace/CRMBuilds/TZ.BF.4.0.3.c1-00005-M8996AAAAANAZT-1_20170110_230814/b/HK11/trustzone_images/core/securemsm/trustzone/qsapps/libs/applib/common_applib/build/sampleapp/scorpion/IADAANAA/tzapp_entrylib.lib(gpPersistObjData.o) (gpCrypto_Decrypt)
/local/mnt/workspace/CRMBuilds/TZ.BF.4.0.3.c1-00005-M8996AAAAANAZT-1_20170110_230814/b/HK11/trustzone_images/core/securemsm/trustzone/qsapps/libs/applib/common_applib/build/sampleapp/scorpion/IADAANAA/tzapp_entrylib.lib(gpPersistObjFileIO.o)
                              /local/mnt/workspace/CRMBuilds/TZ.BF.4.0.3.c1-00005-M8996AAAAANAZT-1_20170110_230814/b/HK11/trustzone_images/core/securemsm/trustzone/qsapps/libs/applib/common_applib/build/sampleapp/scorpion/IADAANAA/tzapp_entrylib.lib(gpPersistObjData.o) (gpFileIO_Read_File)
/local/mnt/workspace/CRMBuilds/TZ.BF.4.0.3.c1-00005-M8996AAAAANAZT-1_20170110_230814/b/HK11/trustzone_images/core/securemsm/trustzone/qsapps/libs/applib/common_applib/build/sampleapp/scorpion/IADAANAA/tzapp_entrylib.lib(gpFileService.o)
                              /local/mnt/workspace/CRMBuilds/TZ.BF.4.0.3.c1-00005-M8996AAAAANAZT-1_20170110_230814/b/HK11/trustzone_images/core/securemsm/trustzone/qsapps/libs/applib/common_applib/build/sampleapp/scorpion/IADAANAA/tzapp_entrylib.lib(gpPersistObjFileIO.o) (gpFileRead)
/local/mnt/workspace/CRMBuilds/TZ.BF.4.0.3.c1-00005-M8996AAAAANAZT-1_20170110_230814/b/HK11/trustzone_images/core/securemsm/trustzone/qsapps/libs/applib/qsee/build/sampleapp/scorpion/IADAANAA/tzapp_entrylib.lib(qsee_cfg_prop_shim.o)
                              /local/mnt/workspace/CRMBuilds/TZ.BF.4.0.3.c1-00005-M8996AAAAANAZT-1_20170110_230814/b/HK11/trustzone_images/core/securemsm/trustzone/qsapps/libs/applib/common_applib/build/sampleapp/scorpion/IADAANAA/tzapp_entrylib.lib(gpPersistObjCommon.o) (qsee_cfg_getpropval)
/local/mnt/workspace/CRMBuilds/TZ.BF.4.0.3.c1-00005-M8996AAAAANAZT-1_20170110_230814/b/HK11/trustzone_images/core/securemsm/trustzone/qsapps/libs/applib/qsee/build/sampleapp/scorpion/IADAANAA/tzapp_entrylib.lib(gpPersistObjPanic.o)
                              /local/mnt/workspace/CRMBuilds/TZ.BF.4.0.3.c1-00005-M8996AAAAANAZT-1_20170110_230814/b/HK11/trustzone_images/core/securemsm/trustzone/qsapps/libs/applib/common_applib/build/sampleapp/scorpion/IADAANAA/tzapp_entrylib.lib(gpPersistentObjects.o) (GPMemoryMgmt_verifyHandle)
/local/mnt/workspace/CRMBuilds/TZ.BF.4.0.3.c1-00005-M8996AAAAANAZT-1_20170110_230814/b/HK11/trustzone_images/core/securemsm/trustzone/qsee/mink/libstd/build/sampleapp/scorpion/IADAANAA/libstd.lib(strlcat.o)
                              /local/mnt/workspace/CRMBuilds/TZ.BF.4.0.3.c1-00005-M8996AAAAANAZT-1_20170110_230814/b/HK11/trustzone_images/core/securemsm/trustzone/qsapps/libs/applib/common_applib/build/sampleapp/scorpion/IADAANAA/tzapp_entrylib.lib(gpPersistObjCommon.o) (strlcat)
/local/mnt/workspace/CRMBuilds/TZ.BF.4.0.3.c1-00005-M8996AAAAANAZT-1_20170110_230814/b/HK11/trustzone_images/core/securemsm/trustzone/qsee/mink/libstd/build/sampleapp/scorpion/IADAANAA/libstd.lib(memset.o)
                              /afs/localcell/cm/gv2.6/sysname/pkg.@sys/qct/software/llvm/release/arm/3.5.2.4/lib/clang/3.5.2/lib/linux/libclang_rt.builtins-arm.a(aeabi_memset.S.o) (memset)
/local/mnt/workspace/CRMBuilds/TZ.BF.4.0.3.c1-00005-M8996AAAAANAZT-1_20170110_230814/b/HK11/trustzone_images/core/securemsm/trustzone/qsee/mink/libstd/build/sampleapp/scorpion/IADAANAA/libstd.lib(memcpy.o)
                              /afs/localcell/cm/gv2.6/sysname/pkg.@sys/qct/software/llvm/release/arm/3.5.2.4/lib/clang/3.5.2/lib/linux/libclang_rt.builtins-arm.a(aeabi_memcpy.S.o) (memcpy)
/local/mnt/workspace/CRMBuilds/TZ.BF.4.0.3.c1-00005-M8996AAAAANAZT-1_20170110_230814/b/HK11/trustzone_images/core/securemsm/trustzone/qsee/mink/libstd/build/sampleapp/scorpion/IADAANAA/libstd.lib(memmove.o)
                              /afs/localcell/cm/gv2.6/sysname/pkg.@sys/qct/software/llvm/release/arm/3.5.2.4/lib/clang/3.5.2/lib/linux/libclang_rt.builtins-arm.a(aeabi_memmove.S.o) (memmove)
/local/mnt/workspace/CRMBuilds/TZ.BF.4.0.3.c1-00005-M8996AAAAANAZT-1_20170110_230814/b/HK11/trustzone_images/core/securemsm/sse/SecureTouch/controller/build/sampleapp/scorpion/IADAANAA/drts_controller_msm8996.lib(atmel_mxt_ts.o)
                              /local/mnt/workspace/CRMBuilds/TZ.BF.4.0.3.c1-00005-M8996AAAAANAZT-1_20170110_230814/b/HK11/trustzone_images/core/securemsm/sse/qsee/SecureTouch/drTs/lib/build/sampleapp/scorpion/IADAANAA/touch_lib.lib(01_open.o) (atmel_drTsClose)
/local/mnt/workspace/CRMBuilds/TZ.BF.4.0.3.c1-00005-M8996AAAAANAZT-1_20170110_230814/b/HK11/trustzone_images/core/securemsm/sse/SecureTouch/controller/build/sampleapp/scorpion/IADAANAA/drts_controller_msm8996.lib(synaptics_ts.o)
                              /local/mnt/workspace/CRMBuilds/TZ.BF.4.0.3.c1-00005-M8996AAAAANAZT-1_20170110_230814/b/HK11/trustzone_images/core/securemsm/sse/qsee/SecureTouch/drTs/lib/build/sampleapp/scorpion/IADAANAA/touch_lib.lib(01_open.o) (synaptics_drTsClose)
/local/mnt/workspace/CRMBuilds/TZ.BF.4.0.3.c1-00005-M8996AAAAANAZT-1_20170110_230814/b/HK11/trustzone_images/core/securemsm/sse/log/build/sampleapp/scorpion/IADAANAA/sselog.lib(sselog.o)
                              /local/mnt/workspace/CRMBuilds/TZ.BF.4.0.3.c1-00005-M8996AAAAANAZT-1_20170110_230814/b/HK11/trustzone_images/core/securemsm/sse/SecureTouch/controller/build/sampleapp/scorpion/IADAANAA/drts_controller_msm8996.lib(atmel_mxt_ts.o) (dumpHex)
/local/mnt/workspace/CRMBuilds/TZ.BF.4.0.3.c1-00005-M8996AAAAANAZT-1_20170110_230814/b/HK11/trustzone_images/core/securemsm/sse/qsee/SecureTouch/drTs/controller/build/sampleapp/scorpion/IADAANAA/touch_controller_i2c_msm8996.lib(atmel_mxt_ts_i2c.o)
                              /local/mnt/workspace/CRMBuilds/TZ.BF.4.0.3.c1-00005-M8996AAAAANAZT-1_20170110_230814/b/HK11/trustzone_images/core/securemsm/sse/SecureTouch/controller/build/sampleapp/scorpion/IADAANAA/drts_controller_msm8996.lib(atmel_mxt_ts.o) (atmel_i2cClose)
/local/mnt/workspace/CRMBuilds/TZ.BF.4.0.3.c1-00005-M8996AAAAANAZT-1_20170110_230814/b/HK11/trustzone_images/core/securemsm/sse/qsee/SecureTouch/drTs/controller/build/sampleapp/scorpion/IADAANAA/touch_controller_i2c_msm8996.lib(synaptics_ts_i2c.o)
                              /local/mnt/workspace/CRMBuilds/TZ.BF.4.0.3.c1-00005-M8996AAAAANAZT-1_20170110_230814/b/HK11/trustzone_images/core/securemsm/sse/SecureTouch/controller/build/sampleapp/scorpion/IADAANAA/drts_controller_msm8996.lib(synaptics_ts.o) (synaptics_i2cClose)

Allocating common symbols
Common symbol       size              file

apps_request_resp   0x14              /local/mnt/workspace/CRMBuilds/TZ.BF.4.0.3.c1-00005-M8996AAAAANAZT-1_20170110_230814/b/HK11/trustzone_images/core/securemsm/trustzone/qsapps/libs/applib/common_applib/build/sampleapp/scorpion/IADAANAA/tzapp_entrylib.lib(common_applib.o)
red_dot             0x28              /local/mnt/workspace/CRMBuilds/TZ.BF.4.0.3.c1-00005-M8996AAAAANAZT-1_20170110_230814/b/HK11/trustzone_images/core/securemsm/trustzone/qsapps/sampleapp/build/sampleapp/scorpion/IADAANAA/app_secure_ui.o
aes_large_plain_text2
                    0x8000            /local/mnt/workspace/CRMBuilds/TZ.BF.4.0.3.c1-00005-M8996AAAAANAZT-1_20170110_230814/b/HK11/trustzone_images/core/securemsm/trustzone/qsapps/sampleapp/build/sampleapp/scorpion/IADAANAA/app_crypto.o
gClientInfo         0x1c              /local/mnt/workspace/CRMBuilds/TZ.BF.4.0.3.c1-00005-M8996AAAAANAZT-1_20170110_230814/b/HK11/trustzone_images/core/securemsm/trustzone/qsapps/sampleapp/build/sampleapp/scorpion/IADAANAA/app_stor.o
aes_large_cipher_text2
                    0x8400            /local/mnt/workspace/CRMBuilds/TZ.BF.4.0.3.c1-00005-M8996AAAAANAZT-1_20170110_230814/b/HK11/trustzone_images/core/securemsm/trustzone/qsapps/sampleapp/build/sampleapp/scorpion/IADAANAA/app_crypto.o
green_dot           0x28              /local/mnt/workspace/CRMBuilds/TZ.BF.4.0.3.c1-00005-M8996AAAAANAZT-1_20170110_230814/b/HK11/trustzone_images/core/securemsm/trustzone/qsapps/sampleapp/build/sampleapp/scorpion/IADAANAA/app_secure_ui.o
aes_large_plain_text_1
                    0x400             /local/mnt/workspace/CRMBuilds/TZ.BF.4.0.3.c1-00005-M8996AAAAANAZT-1_20170110_230814/b/HK11/trustzone_images/core/securemsm/trustzone/qsapps/sampleapp/build/sampleapp/scorpion/IADAANAA/app_crypto.o
cipher_key          0x10              /local/mnt/workspace/CRMBuilds/TZ.BF.4.0.3.c1-00005-M8996AAAAANAZT-1_20170110_230814/b/HK11/trustzone_images/core/securemsm/trustzone/qsapps/sampleapp/build/sampleapp/scorpion/IADAANAA/app_cmnlib.o
aes_performance     0x8000            /local/mnt/workspace/CRMBuilds/TZ.BF.4.0.3.c1-00005-M8996AAAAANAZT-1_20170110_230814/b/HK11/trustzone_images/core/securemsm/trustzone/qsapps/sampleapp/build/sampleapp/scorpion/IADAANAA/app_crypto.o
image_dot           0x28              /local/mnt/workspace/CRMBuilds/TZ.BF.4.0.3.c1-00005-M8996AAAAANAZT-1_20170110_230814/b/HK11/trustzone_images/core/securemsm/trustzone/qsapps/sampleapp/build/sampleapp/scorpion/IADAANAA/app_secure_ui.o
aes_large_cipher_text3
                    0x8400            /local/mnt/workspace/CRMBuilds/TZ.BF.4.0.3.c1-00005-M8996AAAAANAZT-1_20170110_230814/b/HK11/trustzone_images/core/securemsm/trustzone/qsapps/sampleapp/build/sampleapp/scorpion/IADAANAA/app_crypto.o
aes_large_cipher_text_1
                    0x400             /local/mnt/workspace/CRMBuilds/TZ.BF.4.0.3.c1-00005-M8996AAAAANAZT-1_20170110_230814/b/HK11/trustzone_images/core/securemsm/trustzone/qsapps/sampleapp/build/sampleapp/scorpion/IADAANAA/app_crypto.o

Discarded input sections

 .text          0x00000000        0x0 /local/mnt/workspace/CRMBuilds/TZ.BF.4.0.3.c1-00005-M8996AAAAANAZT-1_20170110_230814/b/HK11/trustzone_images/core/securemsm/trustzone/qsapps/libs/applib/qsee/build/sampleapp/scorpion/IADAANAA/src/tzapp_entry.o
 .data          0x00000000        0x0 /local/mnt/workspace/CRMBuilds/TZ.BF.4.0.3.c1-00005-M8996AAAAANAZT-1_20170110_230814/b/HK11/trustzone_images/core/securemsm/trustzone/qsapps/libs/applib/qsee/build/sampleapp/scorpion/IADAANAA/src/tzapp_entry.o
 .bss           0x00000000        0x0 /local/mnt/workspace/CRMBuilds/TZ.BF.4.0.3.c1-00005-M8996AAAAANAZT-1_20170110_230814/b/HK11/trustzone_images/core/securemsm/trustzone/qsapps/libs/applib/qsee/build/sampleapp/scorpion/IADAANAA/src/tzapp_entry.o
 .data          0x00000000        0x0 /local/mnt/workspace/CRMBuilds/TZ.BF.4.0.3.c1-00005-M8996AAAAANAZT-1_20170110_230814/b/HK11/trustzone_images/core/securemsm/trustzone/qsapps/sampleapp/build/sampleapp/scorpion/IADAANAA/app_main.o
 .ARM.exidx     0x00000000       0x18 /local/mnt/workspace/CRMBuilds/TZ.BF.4.0.3.c1-00005-M8996AAAAANAZT-1_20170110_230814/b/HK11/trustzone_images/core/securemsm/trustzone/qsapps/sampleapp/build/sampleapp/scorpion/IADAANAA/app_main.o
 .bss           0x00000000        0x0 /local/mnt/workspace/CRMBuilds/TZ.BF.4.0.3.c1-00005-M8996AAAAANAZT-1_20170110_230814/b/HK11/trustzone_images/core/securemsm/trustzone/qsapps/sampleapp/build/sampleapp/scorpion/IADAANAA/app_smplserv_test.o
 .ARM.exidx     0x00000000       0x10 /local/mnt/workspace/CRMBuilds/TZ.BF.4.0.3.c1-00005-M8996AAAAANAZT-1_20170110_230814/b/HK11/trustzone_images/core/securemsm/trustzone/qsapps/sampleapp/build/sampleapp/scorpion/IADAANAA/app_smplserv_test.o
 .bss           0x00000000        0x0 /local/mnt/workspace/CRMBuilds/TZ.BF.4.0.3.c1-00005-M8996AAAAANAZT-1_20170110_230814/b/HK11/trustzone_images/core/securemsm/trustzone/qsapps/sampleapp/build/sampleapp/scorpion/IADAANAA/app_smplcert_test.o
 .ARM.exidx     0x00000000        0x8 /local/mnt/workspace/CRMBuilds/TZ.BF.4.0.3.c1-00005-M8996AAAAANAZT-1_20170110_230814/b/HK11/trustzone_images/core/securemsm/trustzone/qsapps/sampleapp/build/sampleapp/scorpion/IADAANAA/app_smplcert_test.o
 .ARM.exidx     0x00000000      0x1e8 /local/mnt/workspace/CRMBuilds/TZ.BF.4.0.3.c1-00005-M8996AAAAANAZT-1_20170110_230814/b/HK11/trustzone_images/core/securemsm/trustzone/qsapps/sampleapp/build/sampleapp/scorpion/IADAANAA/app_crypto.o
 .data          0x00000000        0x0 /local/mnt/workspace/CRMBuilds/TZ.BF.4.0.3.c1-00005-M8996AAAAANAZT-1_20170110_230814/b/HK11/trustzone_images/core/securemsm/trustzone/qsapps/sampleapp/build/sampleapp/scorpion/IADAANAA/app_sfs.o
 .bss           0x00000000        0x0 /local/mnt/workspace/CRMBuilds/TZ.BF.4.0.3.c1-00005-M8996AAAAANAZT-1_20170110_230814/b/HK11/trustzone_images/core/securemsm/trustzone/qsapps/sampleapp/build/sampleapp/scorpion/IADAANAA/app_sfs.o
 .ARM.exidx     0x00000000       0x60 /local/mnt/workspace/CRMBuilds/TZ.BF.4.0.3.c1-00005-M8996AAAAANAZT-1_20170110_230814/b/HK11/trustzone_images/core/securemsm/trustzone/qsapps/sampleapp/build/sampleapp/scorpion/IADAANAA/app_sfs.o
 .ARM.exidx     0x00000000       0x48 /local/mnt/workspace/CRMBuilds/TZ.BF.4.0.3.c1-00005-M8996AAAAANAZT-1_20170110_230814/b/HK11/trustzone_images/core/securemsm/trustzone/qsapps/sampleapp/build/sampleapp/scorpion/IADAANAA/app_rsa.o
 .rodata        0x00000000        0x5 /local/mnt/workspace/CRMBuilds/TZ.BF.4.0.3.c1-00005-M8996AAAAANAZT-1_20170110_230814/b/HK11/trustzone_images/core/securemsm/trustzone/qsapps/sampleapp/build/sampleapp/scorpion/IADAANAA/app_rsa.o
 .data          0x00000000        0x0 /local/mnt/workspace/CRMBuilds/TZ.BF.4.0.3.c1-00005-M8996AAAAANAZT-1_20170110_230814/b/HK11/trustzone_images/core/securemsm/trustzone/qsapps/sampleapp/build/sampleapp/scorpion/IADAANAA/qsee_api_tests.o
 .ARM.exidx     0x00000000       0x80 /local/mnt/workspace/CRMBuilds/TZ.BF.4.0.3.c1-00005-M8996AAAAANAZT-1_20170110_230814/b/HK11/trustzone_images/core/securemsm/trustzone/qsapps/sampleapp/build/sampleapp/scorpion/IADAANAA/qsee_api_tests.o
 .bss           0x00000000        0x0 /local/mnt/workspace/CRMBuilds/TZ.BF.4.0.3.c1-00005-M8996AAAAANAZT-1_20170110_230814/b/HK11/trustzone_images/core/securemsm/trustzone/qsapps/sampleapp/build/sampleapp/scorpion/IADAANAA/app_cmnlib.o
 .ARM.exidx     0x00000000       0x18 /local/mnt/workspace/CRMBuilds/TZ.BF.4.0.3.c1-00005-M8996AAAAANAZT-1_20170110_230814/b/HK11/trustzone_images/core/securemsm/trustzone/qsapps/sampleapp/build/sampleapp/scorpion/IADAANAA/app_cmnlib.o
 .rodata        0x00000000        0x5 /local/mnt/workspace/CRMBuilds/TZ.BF.4.0.3.c1-00005-M8996AAAAANAZT-1_20170110_230814/b/HK11/trustzone_images/core/securemsm/trustzone/qsapps/sampleapp/build/sampleapp/scorpion/IADAANAA/app_cmnlib.o
 .data          0x00000000        0x0 /local/mnt/workspace/CRMBuilds/TZ.BF.4.0.3.c1-00005-M8996AAAAANAZT-1_20170110_230814/b/HK11/trustzone_images/core/securemsm/trustzone/qsapps/sampleapp/build/sampleapp/scorpion/IADAANAA/app_message_passing.o
 .bss           0x00000000        0x0 /local/mnt/workspace/CRMBuilds/TZ.BF.4.0.3.c1-00005-M8996AAAAANAZT-1_20170110_230814/b/HK11/trustzone_images/core/securemsm/trustzone/qsapps/sampleapp/build/sampleapp/scorpion/IADAANAA/app_message_passing.o
 .ARM.exidx     0x00000000        0x8 /local/mnt/workspace/CRMBuilds/TZ.BF.4.0.3.c1-00005-M8996AAAAANAZT-1_20170110_230814/b/HK11/trustzone_images/core/securemsm/trustzone/qsapps/sampleapp/build/sampleapp/scorpion/IADAANAA/app_message_passing.o
 .data          0x00000000        0x0 /local/mnt/workspace/CRMBuilds/TZ.BF.4.0.3.c1-00005-M8996AAAAANAZT-1_20170110_230814/b/HK11/trustzone_images/core/securemsm/trustzone/qsapps/sampleapp/build/sampleapp/scorpion/IADAANAA/app_fuses.o
 .bss           0x00000000        0x0 /local/mnt/workspace/CRMBuilds/TZ.BF.4.0.3.c1-00005-M8996AAAAANAZT-1_20170110_230814/b/HK11/trustzone_images/core/securemsm/trustzone/qsapps/sampleapp/build/sampleapp/scorpion/IADAANAA/app_fuses.o
 .ARM.exidx     0x00000000       0x10 /local/mnt/workspace/CRMBuilds/TZ.BF.4.0.3.c1-00005-M8996AAAAANAZT-1_20170110_230814/b/HK11/trustzone_images/core/securemsm/trustzone/qsapps/sampleapp/build/sampleapp/scorpion/IADAANAA/app_fuses.o
 .ARM.exidx     0x00000000       0x68 /local/mnt/workspace/CRMBuilds/TZ.BF.4.0.3.c1-00005-M8996AAAAANAZT-1_20170110_230814/b/HK11/trustzone_images/core/securemsm/trustzone/qsapps/sampleapp/build/sampleapp/scorpion/IADAANAA/app_stor.o
 .data          0x00000000        0x0 /local/mnt/workspace/CRMBuilds/TZ.BF.4.0.3.c1-00005-M8996AAAAANAZT-1_20170110_230814/b/HK11/trustzone_images/core/securemsm/trustzone/qsapps/sampleapp/build/sampleapp/scorpion/IADAANAA/app_content_protection.o
 .bss           0x00000000        0x0 /local/mnt/workspace/CRMBuilds/TZ.BF.4.0.3.c1-00005-M8996AAAAANAZT-1_20170110_230814/b/HK11/trustzone_images/core/securemsm/trustzone/qsapps/sampleapp/build/sampleapp/scorpion/IADAANAA/app_content_protection.o
 .ARM.exidx     0x00000000       0x10 /local/mnt/workspace/CRMBuilds/TZ.BF.4.0.3.c1-00005-M8996AAAAANAZT-1_20170110_230814/b/HK11/trustzone_images/core/securemsm/trustzone/qsapps/sampleapp/build/sampleapp/scorpion/IADAANAA/app_content_protection.o
 .data          0x00000000        0x0 /local/mnt/workspace/CRMBuilds/TZ.BF.4.0.3.c1-00005-M8996AAAAANAZT-1_20170110_230814/b/HK11/trustzone_images/core/securemsm/trustzone/qsapps/sampleapp/build/sampleapp/scorpion/IADAANAA/app_secure_ui.o
 .ARM.exidx     0x00000000       0x40 /local/mnt/workspace/CRMBuilds/TZ.BF.4.0.3.c1-00005-M8996AAAAANAZT-1_20170110_230814/b/HK11/trustzone_images/core/securemsm/trustzone/qsapps/sampleapp/build/sampleapp/scorpion/IADAANAA/app_secure_ui.o
 .data          0x00000000        0x0 /local/mnt/workspace/CRMBuilds/TZ.BF.4.0.3.c1-00005-M8996AAAAANAZT-1_20170110_230814/b/HK11/trustzone_images/core/securemsm/trustzone/qsapps/sampleapp/build/sampleapp/scorpion/IADAANAA/app_bio_lib.o
 .ARM.exidx     0x00000000       0x98 /local/mnt/workspace/CRMBuilds/TZ.BF.4.0.3.c1-00005-M8996AAAAANAZT-1_20170110_230814/b/HK11/trustzone_images/core/securemsm/trustzone/qsapps/sampleapp/build/sampleapp/scorpion/IADAANAA/app_bio_lib.o
 .data          0x00000000        0x0 /local/mnt/workspace/CRMBuilds/TZ.BF.4.0.3.c1-00005-M8996AAAAANAZT-1_20170110_230814/b/HK11/trustzone_images/core/securemsm/trustzone/qsapps/sampleapp/build/sampleapp/scorpion/IADAANAA/app_bulletin_board.o
 .ARM.exidx     0x00000000       0x98 /local/mnt/workspace/CRMBuilds/TZ.BF.4.0.3.c1-00005-M8996AAAAANAZT-1_20170110_230814/b/HK11/trustzone_images/core/securemsm/trustzone/qsapps/sampleapp/build/sampleapp/scorpion/IADAANAA/app_bulletin_board.o
 .text          0x00000000        0x0 /local/mnt/workspace/CRMBuilds/TZ.BF.4.0.3.c1-00005-M8996AAAAANAZT-1_20170110_230814/b/HK11/trustzone_images/core/securemsm/trustzone/qsapps/sampleapp/build/sampleapp/scorpion/IADAANAA/metadata.o
 .data          0x00000000        0x0 /local/mnt/workspace/CRMBuilds/TZ.BF.4.0.3.c1-00005-M8996AAAAANAZT-1_20170110_230814/b/HK11/trustzone_images/core/securemsm/trustzone/qsapps/sampleapp/build/sampleapp/scorpion/IADAANAA/metadata.o
 .data          0x00000000        0x0 /local/mnt/workspace/CRMBuilds/TZ.BF.4.0.3.c1-00005-M8996AAAAANAZT-1_20170110_230814/b/HK11/trustzone_images/core/kernel/libstd/build/sampleapp/scorpion/IADAANAA/libstd.lib(memscpy.o)
 .bss           0x00000000        0x0 /local/mnt/workspace/CRMBuilds/TZ.BF.4.0.3.c1-00005-M8996AAAAANAZT-1_20170110_230814/b/HK11/trustzone_images/core/kernel/libstd/build/sampleapp/scorpion/IADAANAA/libstd.lib(memscpy.o)
 .ARM.exidx     0x00000000        0x8 /local/mnt/workspace/CRMBuilds/TZ.BF.4.0.3.c1-00005-M8996AAAAANAZT-1_20170110_230814/b/HK11/trustzone_images/core/kernel/libstd/build/sampleapp/scorpion/IADAANAA/libstd.lib(memscpy.o)
 .data          0x00000000        0x0 /local/mnt/workspace/CRMBuilds/TZ.BF.4.0.3.c1-00005-M8996AAAAANAZT-1_20170110_230814/b/HK11/trustzone_images/core/kernel/libstd/build/sampleapp/scorpion/IADAANAA/libstd.lib(strlcpy.o)
 .bss           0x00000000        0x0 /local/mnt/workspace/CRMBuilds/TZ.BF.4.0.3.c1-00005-M8996AAAAANAZT-1_20170110_230814/b/HK11/trustzone_images/core/kernel/libstd/build/sampleapp/scorpion/IADAANAA/libstd.lib(strlcpy.o)
 .ARM.exidx     0x00000000        0x8 /local/mnt/workspace/CRMBuilds/TZ.BF.4.0.3.c1-00005-M8996AAAAANAZT-1_20170110_230814/b/HK11/trustzone_images/core/kernel/libstd/build/sampleapp/scorpion/IADAANAA/libstd.lib(strlcpy.o)
 .data          0x00000000        0x0 /local/mnt/workspace/CRMBuilds/TZ.BF.4.0.3.c1-00005-M8996AAAAANAZT-1_20170110_230814/b/HK11/trustzone_images/core/kernel/libstd/build/sampleapp/scorpion/IADAANAA/libstd.lib(secure_memset.o)
 .bss           0x00000000        0x0 /local/mnt/workspace/CRMBuilds/TZ.BF.4.0.3.c1-00005-M8996AAAAANAZT-1_20170110_230814/b/HK11/trustzone_images/core/kernel/libstd/build/sampleapp/scorpion/IADAANAA/libstd.lib(secure_memset.o)
 .ARM.exidx     0x00000000        0x8 /local/mnt/workspace/CRMBuilds/TZ.BF.4.0.3.c1-00005-M8996AAAAANAZT-1_20170110_230814/b/HK11/trustzone_images/core/kernel/libstd/build/sampleapp/scorpion/IADAANAA/libstd.lib(secure_memset.o)
 .data          0x00000000        0x0 /local/mnt/workspace/CRMBuilds/TZ.BF.4.0.3.c1-00005-M8996AAAAANAZT-1_20170110_230814/b/HK11/trustzone_images/core/kernel/libstd/build/sampleapp/scorpion/IADAANAA/libstd.lib(timesafe_memcmp.o)
 .bss           0x00000000        0x0 /local/mnt/workspace/CRMBuilds/TZ.BF.4.0.3.c1-00005-M8996AAAAANAZT-1_20170110_230814/b/HK11/trustzone_images/core/kernel/libstd/build/sampleapp/scorpion/IADAANAA/libstd.lib(timesafe_memcmp.o)
 .ARM.exidx     0x00000000        0x8 /local/mnt/workspace/CRMBuilds/TZ.BF.4.0.3.c1-00005-M8996AAAAANAZT-1_20170110_230814/b/HK11/trustzone_images/core/kernel/libstd/build/sampleapp/scorpion/IADAANAA/libstd.lib(timesafe_memcmp.o)
 .data          0x00000000        0x0 /local/mnt/workspace/CRMBuilds/TZ.BF.4.0.3.c1-00005-M8996AAAAANAZT-1_20170110_230814/b/HK11/trustzone_images/core/kernel/libstd/build/sampleapp/scorpion/IADAANAA/libstd.lib(timesafe_strncmp.o)
 .bss           0x00000000        0x0 /local/mnt/workspace/CRMBuilds/TZ.BF.4.0.3.c1-00005-M8996AAAAANAZT-1_20170110_230814/b/HK11/trustzone_images/core/kernel/libstd/build/sampleapp/scorpion/IADAANAA/libstd.lib(timesafe_strncmp.o)
 .ARM.exidx     0x00000000        0x8 /local/mnt/workspace/CRMBuilds/TZ.BF.4.0.3.c1-00005-M8996AAAAANAZT-1_20170110_230814/b/HK11/trustzone_images/core/kernel/libstd/build/sampleapp/scorpion/IADAANAA/libstd.lib(timesafe_strncmp.o)
 .ARM.exidx     0x00000000       0x90 /local/mnt/workspace/CRMBuilds/TZ.BF.4.0.3.c1-00005-M8996AAAAANAZT-1_20170110_230814/b/HK11/trustzone_images/core/securemsm/sse/qsee/SecureUI/build/sampleapp/scorpion/IADAANAA/secure_ui.lib(SecureUI.o)
 .ARM.exidx     0x00000000       0x28 /local/mnt/workspace/CRMBuilds/TZ.BF.4.0.3.c1-00005-M8996AAAAANAZT-1_20170110_230814/b/HK11/trustzone_images/core/securemsm/sse/qsee/SecureUILib/lib/build/sampleapp/scorpion/IADAANAA/secure_ui_lib.lib(SecureUILib.o)
 .data          0x00000000        0x0 /local/mnt/workspace/CRMBuilds/TZ.BF.4.0.3.c1-00005-M8996AAAAANAZT-1_20170110_230814/b/HK11/trustzone_images/core/securemsm/sse/qsee/SecureUILib/lib/build/sampleapp/scorpion/IADAANAA/secure_ui_lib.lib(01_startTouch.o)
 .bss           0x00000000        0x0 /local/mnt/workspace/CRMBuilds/TZ.BF.4.0.3.c1-00005-M8996AAAAANAZT-1_20170110_230814/b/HK11/trustzone_images/core/securemsm/sse/qsee/SecureUILib/lib/build/sampleapp/scorpion/IADAANAA/secure_ui_lib.lib(01_startTouch.o)
 .ARM.exidx     0x00000000        0x8 /local/mnt/workspace/CRMBuilds/TZ.BF.4.0.3.c1-00005-M8996AAAAANAZT-1_20170110_230814/b/HK11/trustzone_images/core/securemsm/sse/qsee/SecureUILib/lib/build/sampleapp/scorpion/IADAANAA/secure_ui_lib.lib(01_startTouch.o)
 .data          0x00000000        0x0 /local/mnt/workspace/CRMBuilds/TZ.BF.4.0.3.c1-00005-M8996AAAAANAZT-1_20170110_230814/b/HK11/trustzone_images/core/securemsm/sse/qsee/SecureUILib/lib/build/sampleapp/scorpion/IADAANAA/secure_ui_lib.lib(02_processTouch.o)
 .bss           0x00000000        0x0 /local/mnt/workspace/CRMBuilds/TZ.BF.4.0.3.c1-00005-M8996AAAAANAZT-1_20170110_230814/b/HK11/trustzone_images/core/securemsm/sse/qsee/SecureUILib/lib/build/sampleapp/scorpion/IADAANAA/secure_ui_lib.lib(02_processTouch.o)
 .ARM.exidx     0x00000000        0x8 /local/mnt/workspace/CRMBuilds/TZ.BF.4.0.3.c1-00005-M8996AAAAANAZT-1_20170110_230814/b/HK11/trustzone_images/core/securemsm/sse/qsee/SecureUILib/lib/build/sampleapp/scorpion/IADAANAA/secure_ui_lib.lib(02_processTouch.o)
 .data          0x00000000        0x0 /local/mnt/workspace/CRMBuilds/TZ.BF.4.0.3.c1-00005-M8996AAAAANAZT-1_20170110_230814/b/HK11/trustzone_images/core/securemsm/sse/qsee/SecureUILib/lib/build/sampleapp/scorpion/IADAANAA/secure_ui_lib.lib(03_stopTouch.o)
 .bss           0x00000000        0x0 /local/mnt/workspace/CRMBuilds/TZ.BF.4.0.3.c1-00005-M8996AAAAANAZT-1_20170110_230814/b/HK11/trustzone_images/core/securemsm/sse/qsee/SecureUILib/lib/build/sampleapp/scorpion/IADAANAA/secure_ui_lib.lib(03_stopTouch.o)
 .ARM.exidx     0x00000000       0x10 /local/mnt/workspace/CRMBuilds/TZ.BF.4.0.3.c1-00005-M8996AAAAANAZT-1_20170110_230814/b/HK11/trustzone_images/core/securemsm/sse/qsee/SecureUILib/lib/build/sampleapp/scorpion/IADAANAA/secure_ui_lib.lib(03_stopTouch.o)
 .group         0x00000000        0xc /local/mnt/workspace/CRMBuilds/TZ.BF.4.0.3.c1-00005-M8996AAAAANAZT-1_20170110_230814/b/HK11/trustzone_images/core/securemsm/trustzone/qsapps/libs/applib/common_applib/build/sampleapp/scorpion/IADAANAA/tzapp_entrylib.lib(common_applib.o)
 .ARM.exidx     0x00000000      0x108 /local/mnt/workspace/CRMBuilds/TZ.BF.4.0.3.c1-00005-M8996AAAAANAZT-1_20170110_230814/b/HK11/trustzone_images/core/securemsm/trustzone/qsapps/libs/applib/common_applib/build/sampleapp/scorpion/IADAANAA/tzapp_entrylib.lib(common_applib.o)
 .ARM.exidx.text.tz_module_open
                0x00000000        0x8 /local/mnt/workspace/CRMBuilds/TZ.BF.4.0.3.c1-00005-M8996AAAAANAZT-1_20170110_230814/b/HK11/trustzone_images/core/securemsm/trustzone/qsapps/libs/applib/common_applib/build/sampleapp/scorpion/IADAANAA/tzapp_entrylib.lib(common_applib.o)
 .data          0x00000000        0x0 /local/mnt/workspace/CRMBuilds/TZ.BF.4.0.3.c1-00005-M8996AAAAANAZT-1_20170110_230814/b/HK11/trustzone_images/core/securemsm/trustzone/qsapps/libs/applib/proxy/build/sampleapp/scorpion/IADAANAA/tzlib_proxy.lib(prxy_services.o)
 .bss           0x00000000        0x0 /local/mnt/workspace/CRMBuilds/TZ.BF.4.0.3.c1-00005-M8996AAAAANAZT-1_20170110_230814/b/HK11/trustzone_images/core/securemsm/trustzone/qsapps/libs/applib/proxy/build/sampleapp/scorpion/IADAANAA/tzlib_proxy.lib(prxy_services.o)
 .ARM.exidx     0x00000000      0x100 /local/mnt/workspace/CRMBuilds/TZ.BF.4.0.3.c1-00005-M8996AAAAANAZT-1_20170110_230814/b/HK11/trustzone_images/core/securemsm/trustzone/qsapps/libs/applib/proxy/build/sampleapp/scorpion/IADAANAA/tzlib_proxy.lib(prxy_services.o)
 .data          0x00000000        0x0 /local/mnt/workspace/CRMBuilds/TZ.BF.4.0.3.c1-00005-M8996AAAAANAZT-1_20170110_230814/b/HK11/trustzone_images/core/securemsm/trustzone/qsapps/libs/applib/proxy/build/sampleapp/scorpion/IADAANAA/tzlib_proxy.lib(prxy_qsee_shim.o)
 .bss           0x00000000        0x0 /local/mnt/workspace/CRMBuilds/TZ.BF.4.0.3.c1-00005-M8996AAAAANAZT-1_20170110_230814/b/HK11/trustzone_images/core/securemsm/trustzone/qsapps/libs/applib/proxy/build/sampleapp/scorpion/IADAANAA/tzlib_proxy.lib(prxy_qsee_shim.o)
 .ARM.exidx     0x00000000      0x108 /local/mnt/workspace/CRMBuilds/TZ.BF.4.0.3.c1-00005-M8996AAAAANAZT-1_20170110_230814/b/HK11/trustzone_images/core/securemsm/trustzone/qsapps/libs/applib/proxy/build/sampleapp/scorpion/IADAANAA/tzlib_proxy.lib(prxy_qsee_shim.o)
 .data          0x00000000        0x0 /local/mnt/workspace/CRMBuilds/TZ.BF.4.0.3.c1-00005-M8996AAAAANAZT-1_20170110_230814/b/HK11/trustzone_images/core/securemsm/trustzone/qsapps/libs/applib/proxy/build/sampleapp/scorpion/IADAANAA/tzlib_proxy.lib(prxy_ufaes.o)
 .bss           0x00000000        0x0 /local/mnt/workspace/CRMBuilds/TZ.BF.4.0.3.c1-00005-M8996AAAAANAZT-1_20170110_230814/b/HK11/trustzone_images/core/securemsm/trustzone/qsapps/libs/applib/proxy/build/sampleapp/scorpion/IADAANAA/tzlib_proxy.lib(prxy_ufaes.o)
 .ARM.exidx     0x00000000       0x48 /local/mnt/workspace/CRMBuilds/TZ.BF.4.0.3.c1-00005-M8996AAAAANAZT-1_20170110_230814/b/HK11/trustzone_images/core/securemsm/trustzone/qsapps/libs/applib/proxy/build/sampleapp/scorpion/IADAANAA/tzlib_proxy.lib(prxy_ufaes.o)
 .data          0x00000000        0x0 /local/mnt/workspace/CRMBuilds/TZ.BF.4.0.3.c1-00005-M8996AAAAANAZT-1_20170110_230814/b/HK11/trustzone_images/core/securemsm/trustzone/qsapps/libs/applib/proxy/build/sampleapp/scorpion/IADAANAA/tzlib_proxy.lib(prxy_ufdes.o)
 .bss           0x00000000        0x0 /local/mnt/workspace/CRMBuilds/TZ.BF.4.0.3.c1-00005-M8996AAAAANAZT-1_20170110_230814/b/HK11/trustzone_images/core/securemsm/trustzone/qsapps/libs/applib/proxy/build/sampleapp/scorpion/IADAANAA/tzlib_proxy.lib(prxy_ufdes.o)
 .ARM.exidx     0x00000000       0x20 /local/mnt/workspace/CRMBuilds/TZ.BF.4.0.3.c1-00005-M8996AAAAANAZT-1_20170110_230814/b/HK11/trustzone_images/core/securemsm/trustzone/qsapps/libs/applib/proxy/build/sampleapp/scorpion/IADAANAA/tzlib_proxy.lib(prxy_ufdes.o)
 .data          0x00000000        0x0 /local/mnt/workspace/CRMBuilds/TZ.BF.4.0.3.c1-00005-M8996AAAAANAZT-1_20170110_230814/b/HK11/trustzone_images/core/securemsm/trustzone/qsapps/libs/applib/proxy/build/sampleapp/scorpion/IADAANAA/tzlib_proxy.lib(prxy_ufsha.o)
 .bss           0x00000000        0x0 /local/mnt/workspace/CRMBuilds/TZ.BF.4.0.3.c1-00005-M8996AAAAANAZT-1_20170110_230814/b/HK11/trustzone_images/core/securemsm/trustzone/qsapps/libs/applib/proxy/build/sampleapp/scorpion/IADAANAA/tzlib_proxy.lib(prxy_ufsha.o)
 .ARM.exidx     0x00000000       0x28 /local/mnt/workspace/CRMBuilds/TZ.BF.4.0.3.c1-00005-M8996AAAAANAZT-1_20170110_230814/b/HK11/trustzone_images/core/securemsm/trustzone/qsapps/libs/applib/proxy/build/sampleapp/scorpion/IADAANAA/tzlib_proxy.lib(prxy_ufsha.o)
 .data          0x00000000        0x0 /local/mnt/workspace/CRMBuilds/TZ.BF.4.0.3.c1-00005-M8996AAAAANAZT-1_20170110_230814/b/HK11/trustzone_images/core/securemsm/trustzone/qsapps/libs/applib/proxy/build/sampleapp/scorpion/IADAANAA/tzlib_proxy.lib(prxy_secmath.o)
 .bss           0x00000000        0x0 /local/mnt/workspace/CRMBuilds/TZ.BF.4.0.3.c1-00005-M8996AAAAANAZT-1_20170110_230814/b/HK11/trustzone_images/core/securemsm/trustzone/qsapps/libs/applib/proxy/build/sampleapp/scorpion/IADAANAA/tzlib_proxy.lib(prxy_secmath.o)
 .ARM.exidx     0x00000000       0x10 /local/mnt/workspace/CRMBuilds/TZ.BF.4.0.3.c1-00005-M8996AAAAANAZT-1_20170110_230814/b/HK11/trustzone_images/core/securemsm/trustzone/qsapps/libs/applib/proxy/build/sampleapp/scorpion/IADAANAA/tzlib_proxy.lib(prxy_secmath.o)
 .data          0x00000000        0x0 /local/mnt/workspace/CRMBuilds/TZ.BF.4.0.3.c1-00005-M8996AAAAANAZT-1_20170110_230814/b/HK11/trustzone_images/core/securemsm/trustzone/qsapps/libs/applib/proxy/build/sampleapp/scorpion/IADAANAA/tzlib_proxy.lib(prxy_secrsa.o)
 .bss           0x00000000        0x0 /local/mnt/workspace/CRMBuilds/TZ.BF.4.0.3.c1-00005-M8996AAAAANAZT-1_20170110_230814/b/HK11/trustzone_images/core/securemsm/trustzone/qsapps/libs/applib/proxy/build/sampleapp/scorpion/IADAANAA/tzlib_proxy.lib(prxy_secrsa.o)
 .ARM.exidx     0x00000000       0x50 /local/mnt/workspace/CRMBuilds/TZ.BF.4.0.3.c1-00005-M8996AAAAANAZT-1_20170110_230814/b/HK11/trustzone_images/core/securemsm/trustzone/qsapps/libs/applib/proxy/build/sampleapp/scorpion/IADAANAA/tzlib_proxy.lib(prxy_secrsa.o)
 .data          0x00000000        0x0 /local/mnt/workspace/CRMBuilds/TZ.BF.4.0.3.c1-00005-M8996AAAAANAZT-1_20170110_230814/b/HK11/trustzone_images/core/securemsm/trustzone/qsapps/libs/applib/proxy/build/sampleapp/scorpion/IADAANAA/tzlib_proxy.lib(prxy_ecc.o)
 .bss           0x00000000        0x0 /local/mnt/workspace/CRMBuilds/TZ.BF.4.0.3.c1-00005-M8996AAAAANAZT-1_20170110_230814/b/HK11/trustzone_images/core/securemsm/trustzone/qsapps/libs/applib/proxy/build/sampleapp/scorpion/IADAANAA/tzlib_proxy.lib(prxy_ecc.o)
 .ARM.exidx     0x00000000       0x88 /local/mnt/workspace/CRMBuilds/TZ.BF.4.0.3.c1-00005-M8996AAAAANAZT-1_20170110_230814/b/HK11/trustzone_images/core/securemsm/trustzone/qsapps/libs/applib/proxy/build/sampleapp/scorpion/IADAANAA/tzlib_proxy.lib(prxy_ecc.o)
 .data          0x00000000        0x0 /local/mnt/workspace/CRMBuilds/TZ.BF.4.0.3.c1-00005-M8996AAAAANAZT-1_20170110_230814/b/HK11/trustzone_images/core/securemsm/trustzone/qsapps/libs/applib/qsee/build/sampleapp/scorpion/IADAANAA/tzapp_entrylib.lib(mink_shared_code.o)
 .bss           0x00000000        0x0 /local/mnt/workspace/CRMBuilds/TZ.BF.4.0.3.c1-00005-M8996AAAAANAZT-1_20170110_230814/b/HK11/trustzone_images/core/securemsm/trustzone/qsapps/libs/applib/qsee/build/sampleapp/scorpion/IADAANAA/tzapp_entrylib.lib(mink_shared_code.o)
 .ARM.exidx     0x00000000       0x20 /local/mnt/workspace/CRMBuilds/TZ.BF.4.0.3.c1-00005-M8996AAAAANAZT-1_20170110_230814/b/HK11/trustzone_images/core/securemsm/trustzone/qsapps/libs/applib/qsee/build/sampleapp/scorpion/IADAANAA/tzapp_entrylib.lib(mink_shared_code.o)
 .data          0x00000000        0x0 /local/mnt/workspace/CRMBuilds/TZ.BF.4.0.3.c1-00005-M8996AAAAANAZT-1_20170110_230814/b/HK11/trustzone_images/core/securemsm/trustzone/qsapps/libs/applib/qsee/build/sampleapp/scorpion/IADAANAA/tzapp_entrylib.lib(qsee_env.o)
 .ARM.exidx     0x00000000       0x28 /local/mnt/workspace/CRMBuilds/TZ.BF.4.0.3.c1-00005-M8996AAAAANAZT-1_20170110_230814/b/HK11/trustzone_images/core/securemsm/trustzone/qsapps/libs/applib/qsee/build/sampleapp/scorpion/IADAANAA/tzapp_entrylib.lib(qsee_env.o)
 .data          0x00000000        0x0 /local/mnt/workspace/CRMBuilds/TZ.BF.4.0.3.c1-00005-M8996AAAAANAZT-1_20170110_230814/b/HK11/trustzone_images/core/securemsm/trustzone/qsapps/libs/applib/qsee/build/sampleapp/scorpion/IADAANAA/tzapp_entrylib.lib(qsee_core_shim.o)
 .bss           0x00000000        0x0 /local/mnt/workspace/CRMBuilds/TZ.BF.4.0.3.c1-00005-M8996AAAAANAZT-1_20170110_230814/b/HK11/trustzone_images/core/securemsm/trustzone/qsapps/libs/applib/qsee/build/sampleapp/scorpion/IADAANAA/tzapp_entrylib.lib(qsee_core_shim.o)
 .ARM.exidx     0x00000000       0x60 /local/mnt/workspace/CRMBuilds/TZ.BF.4.0.3.c1-00005-M8996AAAAANAZT-1_20170110_230814/b/HK11/trustzone_images/core/securemsm/trustzone/qsapps/libs/applib/qsee/build/sampleapp/scorpion/IADAANAA/tzapp_entrylib.lib(qsee_core_shim.o)
 .data          0x00000000        0x0 /local/mnt/workspace/CRMBuilds/TZ.BF.4.0.3.c1-00005-M8996AAAAANAZT-1_20170110_230814/b/HK11/trustzone_images/core/securemsm/trustzone/qsapps/libs/applib/qsee/build/sampleapp/scorpion/IADAANAA/tzapp_entrylib.lib(qsee_deviceid.o)
 .bss           0x00000000        0x0 /local/mnt/workspace/CRMBuilds/TZ.BF.4.0.3.c1-00005-M8996AAAAANAZT-1_20170110_230814/b/HK11/trustzone_images/core/securemsm/trustzone/qsapps/libs/applib/qsee/build/sampleapp/scorpion/IADAANAA/tzapp_entrylib.lib(qsee_deviceid.o)
 .ARM.exidx     0x00000000       0x18 /local/mnt/workspace/CRMBuilds/TZ.BF.4.0.3.c1-00005-M8996AAAAANAZT-1_20170110_230814/b/HK11/trustzone_images/core/securemsm/trustzone/qsapps/libs/applib/qsee/build/sampleapp/scorpion/IADAANAA/tzapp_entrylib.lib(qsee_deviceid.o)
 .data          0x00000000        0x0 /local/mnt/workspace/CRMBuilds/TZ.BF.4.0.3.c1-00005-M8996AAAAANAZT-1_20170110_230814/b/HK11/trustzone_images/core/securemsm/trustzone/qsapps/libs/applib/qsee/build/sampleapp/scorpion/IADAANAA/tzapp_entrylib.lib(qsee_prng.o)
 .bss           0x00000000        0x0 /local/mnt/workspace/CRMBuilds/TZ.BF.4.0.3.c1-00005-M8996AAAAANAZT-1_20170110_230814/b/HK11/trustzone_images/core/securemsm/trustzone/qsapps/libs/applib/qsee/build/sampleapp/scorpion/IADAANAA/tzapp_entrylib.lib(qsee_prng.o)
 .ARM.exidx     0x00000000        0x8 /local/mnt/workspace/CRMBuilds/TZ.BF.4.0.3.c1-00005-M8996AAAAANAZT-1_20170110_230814/b/HK11/trustzone_images/core/securemsm/trustzone/qsapps/libs/applib/qsee/build/sampleapp/scorpion/IADAANAA/tzapp_entrylib.lib(qsee_prng.o)
 .data          0x00000000        0x0 /local/mnt/workspace/CRMBuilds/TZ.BF.4.0.3.c1-00005-M8996AAAAANAZT-1_20170110_230814/b/HK11/trustzone_images/core/securemsm/trustzone/qsapps/libs/applib/qsee/build/sampleapp/scorpion/IADAANAA/tzapp_entrylib.lib(qsee_secdisp.o)
 .bss           0x00000000        0x0 /local/mnt/workspace/CRMBuilds/TZ.BF.4.0.3.c1-00005-M8996AAAAANAZT-1_20170110_230814/b/HK11/trustzone_images/core/securemsm/trustzone/qsapps/libs/applib/qsee/build/sampleapp/scorpion/IADAANAA/tzapp_entrylib.lib(qsee_secdisp.o)
 .ARM.exidx     0x00000000       0x10 /local/mnt/workspace/CRMBuilds/TZ.BF.4.0.3.c1-00005-M8996AAAAANAZT-1_20170110_230814/b/HK11/trustzone_images/core/securemsm/trustzone/qsapps/libs/applib/qsee/build/sampleapp/scorpion/IADAANAA/tzapp_entrylib.lib(qsee_secdisp.o)
 .data          0x00000000        0x0 /local/mnt/workspace/CRMBuilds/TZ.BF.4.0.3.c1-00005-M8996AAAAANAZT-1_20170110_230814/b/HK11/trustzone_images/core/securemsm/trustzone/qsapps/libs/applib/qsee/build/sampleapp/scorpion/IADAANAA/tzapp_entrylib.lib(qsee_nsmem.o)
 .bss           0x00000000        0x0 /local/mnt/workspace/CRMBuilds/TZ.BF.4.0.3.c1-00005-M8996AAAAANAZT-1_20170110_230814/b/HK11/trustzone_images/core/securemsm/trustzone/qsapps/libs/applib/qsee/build/sampleapp/scorpion/IADAANAA/tzapp_entrylib.lib(qsee_nsmem.o)
 .ARM.exidx     0x00000000       0x20 /local/mnt/workspace/CRMBuilds/TZ.BF.4.0.3.c1-00005-M8996AAAAANAZT-1_20170110_230814/b/HK11/trustzone_images/core/securemsm/trustzone/qsapps/libs/applib/qsee/build/sampleapp/scorpion/IADAANAA/tzapp_entrylib.lib(qsee_nsmem.o)
 .data          0x00000000        0x0 /local/mnt/workspace/CRMBuilds/TZ.BF.4.0.3.c1-00005-M8996AAAAANAZT-1_20170110_230814/b/HK11/trustzone_images/core/securemsm/trustzone/qsapps/libs/applib/qsee/build/sampleapp/scorpion/IADAANAA/tzapp_entrylib.lib(qsee_cmac.o)
 .bss           0x00000000        0x0 /local/mnt/workspace/CRMBuilds/TZ.BF.4.0.3.c1-00005-M8996AAAAANAZT-1_20170110_230814/b/HK11/trustzone_images/core/securemsm/trustzone/qsapps/libs/applib/qsee/build/sampleapp/scorpion/IADAANAA/tzapp_entrylib.lib(qsee_cmac.o)
 .ARM.exidx     0x00000000        0x8 /local/mnt/workspace/CRMBuilds/TZ.BF.4.0.3.c1-00005-M8996AAAAANAZT-1_20170110_230814/b/HK11/trustzone_images/core/securemsm/trustzone/qsapps/libs/applib/qsee/build/sampleapp/scorpion/IADAANAA/tzapp_entrylib.lib(qsee_cmac.o)
 .data          0x00000000        0x0 /local/mnt/workspace/CRMBuilds/TZ.BF.4.0.3.c1-00005-M8996AAAAANAZT-1_20170110_230814/b/HK11/trustzone_images/core/securemsm/trustzone/qsapps/libs/applib/qsee/build/sampleapp/scorpion/IADAANAA/tzapp_entrylib.lib(qsee_crypto_shim.o)
 .bss           0x00000000        0x0 /local/mnt/workspace/CRMBuilds/TZ.BF.4.0.3.c1-00005-M8996AAAAANAZT-1_20170110_230814/b/HK11/trustzone_images/core/securemsm/trustzone/qsapps/libs/applib/qsee/build/sampleapp/scorpion/IADAANAA/tzapp_entrylib.lib(qsee_crypto_shim.o)
 .ARM.exidx     0x00000000       0x10 /local/mnt/workspace/CRMBuilds/TZ.BF.4.0.3.c1-00005-M8996AAAAANAZT-1_20170110_230814/b/HK11/trustzone_images/core/securemsm/trustzone/qsapps/libs/applib/qsee/build/sampleapp/scorpion/IADAANAA/tzapp_entrylib.lib(qsee_crypto_shim.o)
 .data          0x00000000        0x0 /local/mnt/workspace/CRMBuilds/TZ.BF.4.0.3.c1-00005-M8996AAAAANAZT-1_20170110_230814/b/HK11/trustzone_images/core/securemsm/trustzone/qsapps/libs/applib/qsee/build/sampleapp/scorpion/IADAANAA/tzapp_entrylib.lib(qsee_timer_shim.o)
 .bss           0x00000000        0x0 /local/mnt/workspace/CRMBuilds/TZ.BF.4.0.3.c1-00005-M8996AAAAANAZT-1_20170110_230814/b/HK11/trustzone_images/core/securemsm/trustzone/qsapps/libs/applib/qsee/build/sampleapp/scorpion/IADAANAA/tzapp_entrylib.lib(qsee_timer_shim.o)
 .ARM.exidx     0x00000000       0x18 /local/mnt/workspace/CRMBuilds/TZ.BF.4.0.3.c1-00005-M8996AAAAANAZT-1_20170110_230814/b/HK11/trustzone_images/core/securemsm/trustzone/qsapps/libs/applib/qsee/build/sampleapp/scorpion/IADAANAA/tzapp_entrylib.lib(qsee_timer_shim.o)
 .text          0x00000000        0x0 /local/mnt/workspace/CRMBuilds/TZ.BF.4.0.3.c1-00005-M8996AAAAANAZT-1_20170110_230814/b/HK11/trustzone_images/core/securemsm/trustzone/qsapps/libs/applib/qsee/build/sampleapp/scorpion/IADAANAA/tzapp_entrylib.lib(tzapp_syscall.o)
 .data          0x00000000        0x0 /local/mnt/workspace/CRMBuilds/TZ.BF.4.0.3.c1-00005-M8996AAAAANAZT-1_20170110_230814/b/HK11/trustzone_images/core/securemsm/trustzone/qsapps/libs/applib/qsee/build/sampleapp/scorpion/IADAANAA/tzapp_entrylib.lib(tzapp_syscall.o)
 .bss           0x00000000        0x0 /local/mnt/workspace/CRMBuilds/TZ.BF.4.0.3.c1-00005-M8996AAAAANAZT-1_20170110_230814/b/HK11/trustzone_images/core/securemsm/trustzone/qsapps/libs/applib/qsee/build/sampleapp/scorpion/IADAANAA/tzapp_entrylib.lib(tzapp_syscall.o)
 .data          0x00000000        0x0 /local/mnt/workspace/CRMBuilds/TZ.BF.4.0.3.c1-00005-M8996AAAAANAZT-1_20170110_230814/b/HK11/trustzone_images/core/securemsm/trustzone/qsapps/libs/applib/qsee/build/sampleapp/scorpion/IADAANAA/tzapp_entrylib.lib(qsee_comstr.o)
 .bss           0x00000000        0x0 /local/mnt/workspace/CRMBuilds/TZ.BF.4.0.3.c1-00005-M8996AAAAANAZT-1_20170110_230814/b/HK11/trustzone_images/core/securemsm/trustzone/qsapps/libs/applib/qsee/build/sampleapp/scorpion/IADAANAA/tzapp_entrylib.lib(qsee_comstr.o)
 .ARM.exidx     0x00000000       0x58 /local/mnt/workspace/CRMBuilds/TZ.BF.4.0.3.c1-00005-M8996AAAAANAZT-1_20170110_230814/b/HK11/trustzone_images/core/securemsm/trustzone/qsapps/libs/applib/qsee/build/sampleapp/scorpion/IADAANAA/tzapp_entrylib.lib(qsee_comstr.o)
 .data          0x00000000        0x0 /local/mnt/workspace/CRMBuilds/TZ.BF.4.0.3.c1-00005-M8996AAAAANAZT-1_20170110_230814/b/HK11/trustzone_images/core/securemsm/trustzone/qsapps/libs/applib/qsee/build/sampleapp/scorpion/IADAANAA/tzapp_entrylib.lib(stor.o)
 .bss           0x00000000        0x0 /local/mnt/workspace/CRMBuilds/TZ.BF.4.0.3.c1-00005-M8996AAAAANAZT-1_20170110_230814/b/HK11/trustzone_images/core/securemsm/trustzone/qsapps/libs/applib/qsee/build/sampleapp/scorpion/IADAANAA/tzapp_entrylib.lib(stor.o)
 .ARM.exidx     0x00000000       0x58 /local/mnt/workspace/CRMBuilds/TZ.BF.4.0.3.c1-00005-M8996AAAAANAZT-1_20170110_230814/b/HK11/trustzone_images/core/securemsm/trustzone/qsapps/libs/applib/qsee/build/sampleapp/scorpion/IADAANAA/tzapp_entrylib.lib(stor.o)
 .ARM.exidx     0x00000000       0x70 /local/mnt/workspace/CRMBuilds/TZ.BF.4.0.3.c1-00005-M8996AAAAANAZT-1_20170110_230814/b/HK11/trustzone_images/core/securemsm/trustzone/qsapps/libs/applib/qsee/build/sampleapp/scorpion/IADAANAA/tzapp_entrylib.lib(stor_gpt.o)
 .data          0x00000000        0x0 /local/mnt/workspace/CRMBuilds/TZ.BF.4.0.3.c1-00005-M8996AAAAANAZT-1_20170110_230814/b/HK11/trustzone_images/core/securemsm/trustzone/qsapps/libs/applib/qsee/build/sampleapp/scorpion/IADAANAA/tzapp_entrylib.lib(stor_rpmbw.o)
 .bss           0x00000000        0x0 /local/mnt/workspace/CRMBuilds/TZ.BF.4.0.3.c1-00005-M8996AAAAANAZT-1_20170110_230814/b/HK11/trustzone_images/core/securemsm/trustzone/qsapps/libs/applib/qsee/build/sampleapp/scorpion/IADAANAA/tzapp_entrylib.lib(stor_rpmbw.o)
 .ARM.exidx     0x00000000       0x50 /local/mnt/workspace/CRMBuilds/TZ.BF.4.0.3.c1-00005-M8996AAAAANAZT-1_20170110_230814/b/HK11/trustzone_images/core/securemsm/trustzone/qsapps/libs/applib/qsee/build/sampleapp/scorpion/IADAANAA/tzapp_entrylib.lib(stor_rpmbw.o)
 .data          0x00000000        0x0 /local/mnt/workspace/CRMBuilds/TZ.BF.4.0.3.c1-00005-M8996AAAAANAZT-1_20170110_230814/b/HK11/trustzone_images/core/securemsm/trustzone/qsapps/libs/applib/qsee/build/sampleapp/scorpion/IADAANAA/tzapp_entrylib.lib(qsee_counter_shim.o)
 .bss           0x00000000        0x0 /local/mnt/workspace/CRMBuilds/TZ.BF.4.0.3.c1-00005-M8996AAAAANAZT-1_20170110_230814/b/HK11/trustzone_images/core/securemsm/trustzone/qsapps/libs/applib/qsee/build/sampleapp/scorpion/IADAANAA/tzapp_entrylib.lib(qsee_counter_shim.o)
 .ARM.exidx     0x00000000       0x38 /local/mnt/workspace/CRMBuilds/TZ.BF.4.0.3.c1-00005-M8996AAAAANAZT-1_20170110_230814/b/HK11/trustzone_images/core/securemsm/trustzone/qsapps/libs/applib/qsee/build/sampleapp/scorpion/IADAANAA/tzapp_entrylib.lib(qsee_counter_shim.o)
 .data          0x00000000        0x0 /local/mnt/workspace/CRMBuilds/TZ.BF.4.0.3.c1-00005-M8996AAAAANAZT-1_20170110_230814/b/HK11/trustzone_images/core/securemsm/trustzone/qsapps/libs/applib/qsee/build/sampleapp/scorpion/IADAANAA/tzapp_entrylib.lib(qsee_cipher.o)
 .bss           0x00000000        0x0 /local/mnt/workspace/CRMBuilds/TZ.BF.4.0.3.c1-00005-M8996AAAAANAZT-1_20170110_230814/b/HK11/trustzone_images/core/securemsm/trustzone/qsapps/libs/applib/qsee/build/sampleapp/scorpion/IADAANAA/tzapp_entrylib.lib(qsee_cipher.o)
 .ARM.exidx     0x00000000       0x40 /local/mnt/workspace/CRMBuilds/TZ.BF.4.0.3.c1-00005-M8996AAAAANAZT-1_20170110_230814/b/HK11/trustzone_images/core/securemsm/trustzone/qsapps/libs/applib/qsee/build/sampleapp/scorpion/IADAANAA/tzapp_entrylib.lib(qsee_cipher.o)
 .data          0x00000000        0x0 /local/mnt/workspace/CRMBuilds/TZ.BF.4.0.3.c1-00005-M8996AAAAANAZT-1_20170110_230814/b/HK11/trustzone_images/core/securemsm/trustzone/qsapps/libs/applib/qsee/build/sampleapp/scorpion/IADAANAA/tzapp_entrylib.lib(qsee_hash.o)
 .bss           0x00000000        0x0 /local/mnt/workspace/CRMBuilds/TZ.BF.4.0.3.c1-00005-M8996AAAAANAZT-1_20170110_230814/b/HK11/trustzone_images/core/securemsm/trustzone/qsapps/libs/applib/qsee/build/sampleapp/scorpion/IADAANAA/tzapp_entrylib.lib(qsee_hash.o)
 .ARM.exidx     0x00000000       0x48 /local/mnt/workspace/CRMBuilds/TZ.BF.4.0.3.c1-00005-M8996AAAAANAZT-1_20170110_230814/b/HK11/trustzone_images/core/securemsm/trustzone/qsapps/libs/applib/qsee/build/sampleapp/scorpion/IADAANAA/tzapp_entrylib.lib(qsee_hash.o)
 .data          0x00000000        0x0 /local/mnt/workspace/CRMBuilds/TZ.BF.4.0.3.c1-00005-M8996AAAAANAZT-1_20170110_230814/b/HK11/trustzone_images/core/securemsm/trustzone/qsapps/libs/applib/qsee/build/sampleapp/scorpion/IADAANAA/tzapp_entrylib.lib(qsee_hmac.o)
 .bss           0x00000000        0x0 /local/mnt/workspace/CRMBuilds/TZ.BF.4.0.3.c1-00005-M8996AAAAANAZT-1_20170110_230814/b/HK11/trustzone_images/core/securemsm/trustzone/qsapps/libs/applib/qsee/build/sampleapp/scorpion/IADAANAA/tzapp_entrylib.lib(qsee_hmac.o)
 .ARM.exidx     0x00000000       0x38 /local/mnt/workspace/CRMBuilds/TZ.BF.4.0.3.c1-00005-M8996AAAAANAZT-1_20170110_230814/b/HK11/trustzone_images/core/securemsm/trustzone/qsapps/libs/applib/qsee/build/sampleapp/scorpion/IADAANAA/tzapp_entrylib.lib(qsee_hmac.o)
 .data          0x00000000        0x0 /local/mnt/workspace/CRMBuilds/TZ.BF.4.0.3.c1-00005-M8996AAAAANAZT-1_20170110_230814/b/HK11/trustzone_images/core/securemsm/trustzone/qsapps/libs/applib/qsee/build/sampleapp/scorpion/IADAANAA/tzapp_entrylib.lib(qsee_i2c.o)
 .bss           0x00000000        0x0 /local/mnt/workspace/CRMBuilds/TZ.BF.4.0.3.c1-00005-M8996AAAAANAZT-1_20170110_230814/b/HK11/trustzone_images/core/securemsm/trustzone/qsapps/libs/applib/qsee/build/sampleapp/scorpion/IADAANAA/tzapp_entrylib.lib(qsee_i2c.o)
 .ARM.exidx     0x00000000       0x28 /local/mnt/workspace/CRMBuilds/TZ.BF.4.0.3.c1-00005-M8996AAAAANAZT-1_20170110_230814/b/HK11/trustzone_images/core/securemsm/trustzone/qsapps/libs/applib/qsee/build/sampleapp/scorpion/IADAANAA/tzapp_entrylib.lib(qsee_i2c.o)
 .data          0x00000000        0x0 /local/mnt/workspace/CRMBuilds/TZ.BF.4.0.3.c1-00005-M8996AAAAANAZT-1_20170110_230814/b/HK11/trustzone_images/core/securemsm/trustzone/qsapps/libs/applib/qsee/build/sampleapp/scorpion/IADAANAA/tzapp_entrylib.lib(qsee_spi.o)
 .bss           0x00000000        0x0 /local/mnt/workspace/CRMBuilds/TZ.BF.4.0.3.c1-00005-M8996AAAAANAZT-1_20170110_230814/b/HK11/trustzone_images/core/securemsm/trustzone/qsapps/libs/applib/qsee/build/sampleapp/scorpion/IADAANAA/tzapp_entrylib.lib(qsee_spi.o)
 .ARM.exidx     0x00000000       0x30 /local/mnt/workspace/CRMBuilds/TZ.BF.4.0.3.c1-00005-M8996AAAAANAZT-1_20170110_230814/b/HK11/trustzone_images/core/securemsm/trustzone/qsapps/libs/applib/qsee/build/sampleapp/scorpion/IADAANAA/tzapp_entrylib.lib(qsee_spi.o)
 .data          0x00000000        0x0 /local/mnt/workspace/CRMBuilds/TZ.BF.4.0.3.c1-00005-M8996AAAAANAZT-1_20170110_230814/b/HK11/trustzone_images/core/securemsm/trustzone/qsapps/libs/applib/qsee/build/sampleapp/scorpion/IADAANAA/tzapp_entrylib.lib(qsee_bulletin_board_shim.o)
 .bss           0x00000000        0x0 /local/mnt/workspace/CRMBuilds/TZ.BF.4.0.3.c1-00005-M8996AAAAANAZT-1_20170110_230814/b/HK11/trustzone_images/core/securemsm/trustzone/qsapps/libs/applib/qsee/build/sampleapp/scorpion/IADAANAA/tzapp_entrylib.lib(qsee_bulletin_board_shim.o)
 .ARM.exidx     0x00000000       0x10 /local/mnt/workspace/CRMBuilds/TZ.BF.4.0.3.c1-00005-M8996AAAAANAZT-1_20170110_230814/b/HK11/trustzone_images/core/securemsm/trustzone/qsapps/libs/applib/qsee/build/sampleapp/scorpion/IADAANAA/tzapp_entrylib.lib(qsee_bulletin_board_shim.o)
 .data          0x00000000        0x0 /local/mnt/workspace/CRMBuilds/TZ.BF.4.0.3.c1-00005-M8996AAAAANAZT-1_20170110_230814/b/HK11/trustzone_images/core/securemsm/trustzone/qsapps/libs/applib/qsee/build/sampleapp/scorpion/IADAANAA/tzapp_entrylib.lib(qsee_tlmm.o)
 .ARM.exidx     0x00000000       0x38 /local/mnt/workspace/CRMBuilds/TZ.BF.4.0.3.c1-00005-M8996AAAAANAZT-1_20170110_230814/b/HK11/trustzone_images/core/securemsm/trustzone/qsapps/libs/applib/qsee/build/sampleapp/scorpion/IADAANAA/tzapp_entrylib.lib(qsee_tlmm.o)
 .data          0x00000000        0x0 /local/mnt/workspace/CRMBuilds/TZ.BF.4.0.3.c1-00005-M8996AAAAANAZT-1_20170110_230814/b/HK11/trustzone_images/core/securemsm/trustzone/qsapps/libs/applib/qsee/build/sampleapp/scorpion/IADAANAA/tzapp_entrylib.lib(qsee_sync.o)
 .bss           0x00000000        0x0 /local/mnt/workspace/CRMBuilds/TZ.BF.4.0.3.c1-00005-M8996AAAAANAZT-1_20170110_230814/b/HK11/trustzone_images/core/securemsm/trustzone/qsapps/libs/applib/qsee/build/sampleapp/scorpion/IADAANAA/tzapp_entrylib.lib(qsee_sync.o)
 .ARM.exidx     0x00000000        0x8 /local/mnt/workspace/CRMBuilds/TZ.BF.4.0.3.c1-00005-M8996AAAAANAZT-1_20170110_230814/b/HK11/trustzone_images/core/securemsm/trustzone/qsapps/libs/applib/qsee/build/sampleapp/scorpion/IADAANAA/tzapp_entrylib.lib(qsee_sync.o)
 .data          0x00000000        0x0 /local/mnt/workspace/CRMBuilds/TZ.BF.4.0.3.c1-00005-M8996AAAAANAZT-1_20170110_230814/b/HK11/trustzone_images/core/securemsm/trustzone/qsapps/libs/applib/qsee/build/sampleapp/scorpion/IADAANAA/tzapp_entrylib.lib(qsee_dcache.o)
 .bss           0x00000000        0x0 /local/mnt/workspace/CRMBuilds/TZ.BF.4.0.3.c1-00005-M8996AAAAANAZT-1_20170110_230814/b/HK11/trustzone_images/core/securemsm/trustzone/qsapps/libs/applib/qsee/build/sampleapp/scorpion/IADAANAA/tzapp_entrylib.lib(qsee_dcache.o)
 .ARM.exidx     0x00000000       0x18 /local/mnt/workspace/CRMBuilds/TZ.BF.4.0.3.c1-00005-M8996AAAAANAZT-1_20170110_230814/b/HK11/trustzone_images/core/securemsm/trustzone/qsapps/libs/applib/qsee/build/sampleapp/scorpion/IADAANAA/tzapp_entrylib.lib(qsee_dcache.o)
 .data          0x00000000        0x0 /local/mnt/workspace/CRMBuilds/TZ.BF.4.0.3.c1-00005-M8996AAAAANAZT-1_20170110_230814/b/HK11/trustzone_images/core/securemsm/trustzone/qsapps/libs/applib/qsee/build/sampleapp/scorpion/IADAANAA/tzapp_entrylib.lib(qsee_shared_buffer.o)
 .bss           0x00000000        0x0 /local/mnt/workspace/CRMBuilds/TZ.BF.4.0.3.c1-00005-M8996AAAAANAZT-1_20170110_230814/b/HK11/trustzone_images/core/securemsm/trustzone/qsapps/libs/applib/qsee/build/sampleapp/scorpion/IADAANAA/tzapp_entrylib.lib(qsee_shared_buffer.o)
 .ARM.exidx     0x00000000       0x10 /local/mnt/workspace/CRMBuilds/TZ.BF.4.0.3.c1-00005-M8996AAAAANAZT-1_20170110_230814/b/HK11/trustzone_images/core/securemsm/trustzone/qsapps/libs/applib/qsee/build/sampleapp/scorpion/IADAANAA/tzapp_entrylib.lib(qsee_shared_buffer.o)
 .data          0x00000000        0x0 /local/mnt/workspace/CRMBuilds/TZ.BF.4.0.3.c1-00005-M8996AAAAANAZT-1_20170110_230814/b/HK11/trustzone_images/core/securemsm/trustzone/qsapps/libs/applib/qsee/build/sampleapp/scorpion/IADAANAA/tzapp_entrylib.lib(qsee_oem_buffer.o)
 .bss           0x00000000        0x0 /local/mnt/workspace/CRMBuilds/TZ.BF.4.0.3.c1-00005-M8996AAAAANAZT-1_20170110_230814/b/HK11/trustzone_images/core/securemsm/trustzone/qsapps/libs/applib/qsee/build/sampleapp/scorpion/IADAANAA/tzapp_entrylib.lib(qsee_oem_buffer.o)
 .ARM.exidx     0x00000000       0x20 /local/mnt/workspace/CRMBuilds/TZ.BF.4.0.3.c1-00005-M8996AAAAANAZT-1_20170110_230814/b/HK11/trustzone_images/core/securemsm/trustzone/qsapps/libs/applib/qsee/build/sampleapp/scorpion/IADAANAA/tzapp_entrylib.lib(qsee_oem_buffer.o)
 .data          0x00000000        0x0 /local/mnt/workspace/CRMBuilds/TZ.BF.4.0.3.c1-00005-M8996AAAAANAZT-1_20170110_230814/b/HK11/trustzone_images/core/securemsm/trustzone/qsapps/libs/applib/qsee/build/sampleapp/scorpion/IADAANAA/tzapp_entrylib.lib(qsee_intmask.o)
 .bss           0x00000000        0x0 /local/mnt/workspace/CRMBuilds/TZ.BF.4.0.3.c1-00005-M8996AAAAANAZT-1_20170110_230814/b/HK11/trustzone_images/core/securemsm/trustzone/qsapps/libs/applib/qsee/build/sampleapp/scorpion/IADAANAA/tzapp_entrylib.lib(qsee_intmask.o)
 .ARM.exidx     0x00000000       0x18 /local/mnt/workspace/CRMBuilds/TZ.BF.4.0.3.c1-00005-M8996AAAAANAZT-1_20170110_230814/b/HK11/trustzone_images/core/securemsm/trustzone/qsapps/libs/applib/qsee/build/sampleapp/scorpion/IADAANAA/tzapp_entrylib.lib(qsee_intmask.o)
 .data          0x00000000        0x0 /local/mnt/workspace/CRMBuilds/TZ.BF.4.0.3.c1-00005-M8996AAAAANAZT-1_20170110_230814/b/HK11/trustzone_images/core/securemsm/trustzone/qsapps/libs/applib/qsee/build/sampleapp/scorpion/IADAANAA/tzapp_entrylib.lib(qsee_trans_ns_addr.o)
 .bss           0x00000000        0x0 /local/mnt/workspace/CRMBuilds/TZ.BF.4.0.3.c1-00005-M8996AAAAANAZT-1_20170110_230814/b/HK11/trustzone_images/core/securemsm/trustzone/qsapps/libs/applib/qsee/build/sampleapp/scorpion/IADAANAA/tzapp_entrylib.lib(qsee_trans_ns_addr.o)
 .ARM.exidx     0x00000000        0x8 /local/mnt/workspace/CRMBuilds/TZ.BF.4.0.3.c1-00005-M8996AAAAANAZT-1_20170110_230814/b/HK11/trustzone_images/core/securemsm/trustzone/qsapps/libs/applib/qsee/build/sampleapp/scorpion/IADAANAA/tzapp_entrylib.lib(qsee_trans_ns_addr.o)
 .data          0x00000000        0x0 /local/mnt/workspace/CRMBuilds/TZ.BF.4.0.3.c1-00005-M8996AAAAANAZT-1_20170110_230814/b/HK11/trustzone_images/core/securemsm/trustzone/qsapps/libs/applib/qsee/build/sampleapp/scorpion/IADAANAA/tzapp_entrylib.lib(qsee_appmessage.o)
 .bss           0x00000000        0x0 /local/mnt/workspace/CRMBuilds/TZ.BF.4.0.3.c1-00005-M8996AAAAANAZT-1_20170110_230814/b/HK11/trustzone_images/core/securemsm/trustzone/qsapps/libs/applib/qsee/build/sampleapp/scorpion/IADAANAA/tzapp_entrylib.lib(qsee_appmessage.o)
 .ARM.exidx     0x00000000       0x18 /local/mnt/workspace/CRMBuilds/TZ.BF.4.0.3.c1-00005-M8996AAAAANAZT-1_20170110_230814/b/HK11/trustzone_images/core/securemsm/trustzone/qsapps/libs/applib/qsee/build/sampleapp/scorpion/IADAANAA/tzapp_entrylib.lib(qsee_appmessage.o)
 .data          0x00000000        0x0 /local/mnt/workspace/CRMBuilds/TZ.BF.4.0.3.c1-00005-M8996AAAAANAZT-1_20170110_230814/b/HK11/trustzone_images/core/securemsm/trustzone/qsapps/libs/applib/qsee/build/sampleapp/scorpion/IADAANAA/tzapp_entrylib.lib(sfs_api.o)
 .ARM.exidx     0x00000000       0x70 /local/mnt/workspace/CRMBuilds/TZ.BF.4.0.3.c1-00005-M8996AAAAANAZT-1_20170110_230814/b/HK11/trustzone_images/core/securemsm/trustzone/qsapps/libs/applib/qsee/build/sampleapp/scorpion/IADAANAA/tzapp_entrylib.lib(sfs_api.o)
 .data          0x00000000        0x0 /local/mnt/workspace/CRMBuilds/TZ.BF.4.0.3.c1-00005-M8996AAAAANAZT-1_20170110_230814/b/HK11/trustzone_images/core/securemsm/trustzone/qsapps/libs/applib/qsee/build/sampleapp/scorpion/IADAANAA/tzapp_entrylib.lib(tzapp_lib_main.o)
 .bss           0x00000000        0x0 /local/mnt/workspace/CRMBuilds/TZ.BF.4.0.3.c1-00005-M8996AAAAANAZT-1_20170110_230814/b/HK11/trustzone_images/core/securemsm/trustzone/qsapps/libs/applib/qsee/build/sampleapp/scorpion/IADAANAA/tzapp_entrylib.lib(tzapp_lib_main.o)
 .ARM.exidx     0x00000000       0x40 /local/mnt/workspace/CRMBuilds/TZ.BF.4.0.3.c1-00005-M8996AAAAANAZT-1_20170110_230814/b/HK11/trustzone_images/core/securemsm/trustzone/qsapps/libs/applib/qsee/build/sampleapp/scorpion/IADAANAA/tzapp_entrylib.lib(tzapp_lib_main.o)
 .text          0x00000000        0x0 /local/mnt/workspace/CRMBuilds/TZ.BF.4.0.3.c1-00005-M8996AAAAANAZT-1_20170110_230814/b/HK11/trustzone_images/core/securemsm/trustzone/qsapps/libs/applib/qsee/build/sampleapp/scorpion/IADAANAA/tzapp_entrylib.lib(kthread_shared.o)
 .data          0x00000000        0x0 /local/mnt/workspace/CRMBuilds/TZ.BF.4.0.3.c1-00005-M8996AAAAANAZT-1_20170110_230814/b/HK11/trustzone_images/core/securemsm/trustzone/qsapps/libs/applib/qsee/build/sampleapp/scorpion/IADAANAA/tzapp_entrylib.lib(kthread_shared.o)
 .bss           0x00000000        0x0 /local/mnt/workspace/CRMBuilds/TZ.BF.4.0.3.c1-00005-M8996AAAAANAZT-1_20170110_230814/b/HK11/trustzone_images/core/securemsm/trustzone/qsapps/libs/applib/qsee/build/sampleapp/scorpion/IADAANAA/tzapp_entrylib.lib(kthread_shared.o)
 .data          0x00000000        0x0 /local/mnt/workspace/CRMBuilds/TZ.BF.4.0.3.c1-00005-M8996AAAAANAZT-1_20170110_230814/b/HK11/trustzone_images/core/securemsm/trustzone/qsapps/libs/biometric/build/sampleapp/scorpion/IADAANAA/biometric_lib.lib(biometric.o)
 .ARM.exidx     0x00000000       0x28 /local/mnt/workspace/CRMBuilds/TZ.BF.4.0.3.c1-00005-M8996AAAAANAZT-1_20170110_230814/b/HK11/trustzone_images/core/securemsm/trustzone/qsapps/libs/biometric/build/sampleapp/scorpion/IADAANAA/biometric_lib.lib(biometric.o)
 .data          0x00000000        0x0 /local/mnt/workspace/CRMBuilds/TZ.BF.4.0.3.c1-00005-M8996AAAAANAZT-1_20170110_230814/b/HK11/trustzone_images/core/securemsm/trustzone/qsapps/libs/biometric/build/sampleapp/scorpion/IADAANAA/biometric_lib.lib(biometric_serializer.o)
 .ARM.exidx     0x00000000       0x30 /local/mnt/workspace/CRMBuilds/TZ.BF.4.0.3.c1-00005-M8996AAAAANAZT-1_20170110_230814/b/HK11/trustzone_images/core/securemsm/trustzone/qsapps/libs/biometric/build/sampleapp/scorpion/IADAANAA/biometric_lib.lib(biometric_serializer.o)
 .data          0x00000000        0x0 /local/mnt/workspace/CRMBuilds/TZ.BF.4.0.3.c1-00005-M8996AAAAANAZT-1_20170110_230814/b/HK11/trustzone_images/core/securemsm/trustzone/qsee/mink/libstd/build/sampleapp/scorpion/IADAANAA/libstd.lib(strnlen.o)
 .bss           0x00000000        0x0 /local/mnt/workspace/CRMBuilds/TZ.BF.4.0.3.c1-00005-M8996AAAAANAZT-1_20170110_230814/b/HK11/trustzone_images/core/securemsm/trustzone/qsee/mink/libstd/build/sampleapp/scorpion/IADAANAA/libstd.lib(strnlen.o)
 .ARM.exidx     0x00000000        0x8 /local/mnt/workspace/CRMBuilds/TZ.BF.4.0.3.c1-00005-M8996AAAAANAZT-1_20170110_230814/b/HK11/trustzone_images/core/securemsm/trustzone/qsee/mink/libstd/build/sampleapp/scorpion/IADAANAA/libstd.lib(strnlen.o)
 .data          0x00000000        0x0 /local/mnt/workspace/CRMBuilds/TZ.BF.4.0.3.c1-00005-M8996AAAAANAZT-1_20170110_230814/b/HK11/trustzone_images/core/securemsm/trustzone/qsee/mink/libstd/build/sampleapp/scorpion/IADAANAA/libstd.lib(memcmp.o)
 .bss           0x00000000        0x0 /local/mnt/workspace/CRMBuilds/TZ.BF.4.0.3.c1-00005-M8996AAAAANAZT-1_20170110_230814/b/HK11/trustzone_images/core/securemsm/trustzone/qsee/mink/libstd/build/sampleapp/scorpion/IADAANAA/libstd.lib(memcmp.o)
 .ARM.exidx     0x00000000        0x8 /local/mnt/workspace/CRMBuilds/TZ.BF.4.0.3.c1-00005-M8996AAAAANAZT-1_20170110_230814/b/HK11/trustzone_images/core/securemsm/trustzone/qsee/mink/libstd/build/sampleapp/scorpion/IADAANAA/libstd.lib(memcmp.o)
 .data          0x00000000        0x0 /local/mnt/workspace/CRMBuilds/TZ.BF.4.0.3.c1-00005-M8996AAAAANAZT-1_20170110_230814/b/HK11/trustzone_images/core/securemsm/trustzone/qsee/mink/libstd/build/sampleapp/scorpion/IADAANAA/libstd.lib(strlen.o)
 .bss           0x00000000        0x0 /local/mnt/workspace/CRMBuilds/TZ.BF.4.0.3.c1-00005-M8996AAAAANAZT-1_20170110_230814/b/HK11/trustzone_images/core/securemsm/trustzone/qsee/mink/libstd/build/sampleapp/scorpion/IADAANAA/libstd.lib(strlen.o)
 .ARM.exidx     0x00000000        0x8 /local/mnt/workspace/CRMBuilds/TZ.BF.4.0.3.c1-00005-M8996AAAAANAZT-1_20170110_230814/b/HK11/trustzone_images/core/securemsm/trustzone/qsee/mink/libstd/build/sampleapp/scorpion/IADAANAA/libstd.lib(strlen.o)
 .data          0x00000000        0x0 /local/mnt/workspace/CRMBuilds/TZ.BF.4.0.3.c1-00005-M8996AAAAANAZT-1_20170110_230814/b/HK11/trustzone_images/core/securemsm/trustzone/qsee/mink/libstd/build/sampleapp/scorpion/IADAANAA/libstd.lib(strcmp.o)
 .bss           0x00000000        0x0 /local/mnt/workspace/CRMBuilds/TZ.BF.4.0.3.c1-00005-M8996AAAAANAZT-1_20170110_230814/b/HK11/trustzone_images/core/securemsm/trustzone/qsee/mink/libstd/build/sampleapp/scorpion/IADAANAA/libstd.lib(strcmp.o)
 .ARM.exidx     0x00000000        0x8 /local/mnt/workspace/CRMBuilds/TZ.BF.4.0.3.c1-00005-M8996AAAAANAZT-1_20170110_230814/b/HK11/trustzone_images/core/securemsm/trustzone/qsee/mink/libstd/build/sampleapp/scorpion/IADAANAA/libstd.lib(strcmp.o)
 .data          0x00000000        0x0 /local/mnt/workspace/CRMBuilds/TZ.BF.4.0.3.c1-00005-M8996AAAAANAZT-1_20170110_230814/b/HK11/trustzone_images/core/securemsm/trustzone/qsee/mink/libstd/build/sampleapp/scorpion/IADAANAA/libstd.lib(strncmp.o)
 .bss           0x00000000        0x0 /local/mnt/workspace/CRMBuilds/TZ.BF.4.0.3.c1-00005-M8996AAAAANAZT-1_20170110_230814/b/HK11/trustzone_images/core/securemsm/trustzone/qsee/mink/libstd/build/sampleapp/scorpion/IADAANAA/libstd.lib(strncmp.o)
 .ARM.exidx     0x00000000        0x8 /local/mnt/workspace/CRMBuilds/TZ.BF.4.0.3.c1-00005-M8996AAAAANAZT-1_20170110_230814/b/HK11/trustzone_images/core/securemsm/trustzone/qsee/mink/libstd/build/sampleapp/scorpion/IADAANAA/libstd.lib(strncmp.o)
 .data          0x00000000        0x0 /local/mnt/workspace/CRMBuilds/TZ.BF.4.0.3.c1-00005-M8996AAAAANAZT-1_20170110_230814/b/HK11/trustzone_images/core/securemsm/trustzone/qsee/mink/libstd/build/sampleapp/scorpion/IADAANAA/libstd.lib(printf.o)
 .bss           0x00000000        0x0 /local/mnt/workspace/CRMBuilds/TZ.BF.4.0.3.c1-00005-M8996AAAAANAZT-1_20170110_230814/b/HK11/trustzone_images/core/securemsm/trustzone/qsee/mink/libstd/build/sampleapp/scorpion/IADAANAA/libstd.lib(printf.o)
 .ARM.exidx     0x00000000       0x58 /local/mnt/workspace/CRMBuilds/TZ.BF.4.0.3.c1-00005-M8996AAAAANAZT-1_20170110_230814/b/HK11/trustzone_images/core/securemsm/trustzone/qsee/mink/libstd/build/sampleapp/scorpion/IADAANAA/libstd.lib(printf.o)
 .data          0x00000000        0x0 /local/mnt/workspace/CRMBuilds/TZ.BF.4.0.3.c1-00005-M8996AAAAANAZT-1_20170110_230814/b/HK11/trustzone_images/core/securemsm/trustzone/qsee/mink/libstd/build/sampleapp/scorpion/IADAANAA/libstd.lib(memchr.o)
 .bss           0x00000000        0x0 /local/mnt/workspace/CRMBuilds/TZ.BF.4.0.3.c1-00005-M8996AAAAANAZT-1_20170110_230814/b/HK11/trustzone_images/core/securemsm/trustzone/qsee/mink/libstd/build/sampleapp/scorpion/IADAANAA/libstd.lib(memchr.o)
 .ARM.exidx     0x00000000        0x8 /local/mnt/workspace/CRMBuilds/TZ.BF.4.0.3.c1-00005-M8996AAAAANAZT-1_20170110_230814/b/HK11/trustzone_images/core/securemsm/trustzone/qsee/mink/libstd/build/sampleapp/scorpion/IADAANAA/libstd.lib(memchr.o)
 .data          0x00000000        0x0 /afs/localcell/cm/gv2.6/sysname/pkg.@sys/qct/software/llvm/release/arm/3.5.2.4/lib/clang/3.5.2/lib/linux/libclang_rt.builtins-arm.a(aeabi_dcmp.S.o)
 .bss           0x00000000        0x0 /afs/localcell/cm/gv2.6/sysname/pkg.@sys/qct/software/llvm/release/arm/3.5.2.4/lib/clang/3.5.2/lib/linux/libclang_rt.builtins-arm.a(aeabi_dcmp.S.o)
 .data          0x00000000        0x0 /afs/localcell/cm/gv2.6/sysname/pkg.@sys/qct/software/llvm/release/arm/3.5.2.4/lib/clang/3.5.2/lib/linux/libclang_rt.builtins-arm.a(aeabi_memcpy.S.o)
 .bss           0x00000000        0x0 /afs/localcell/cm/gv2.6/sysname/pkg.@sys/qct/software/llvm/release/arm/3.5.2.4/lib/clang/3.5.2/lib/linux/libclang_rt.builtins-arm.a(aeabi_memcpy.S.o)
 .data          0x00000000        0x0 /afs/localcell/cm/gv2.6/sysname/pkg.@sys/qct/software/llvm/release/arm/3.5.2.4/lib/clang/3.5.2/lib/linux/libclang_rt.builtins-arm.a(aeabi_memmove.S.o)
 .bss           0x00000000        0x0 /afs/localcell/cm/gv2.6/sysname/pkg.@sys/qct/software/llvm/release/arm/3.5.2.4/lib/clang/3.5.2/lib/linux/libclang_rt.builtins-arm.a(aeabi_memmove.S.o)
 .data          0x00000000        0x0 /afs/localcell/cm/gv2.6/sysname/pkg.@sys/qct/software/llvm/release/arm/3.5.2.4/lib/clang/3.5.2/lib/linux/libclang_rt.builtins-arm.a(aeabi_memset.S.o)
 .bss           0x00000000        0x0 /afs/localcell/cm/gv2.6/sysname/pkg.@sys/qct/software/llvm/release/arm/3.5.2.4/lib/clang/3.5.2/lib/linux/libclang_rt.builtins-arm.a(aeabi_memset.S.o)
 .data          0x00000000        0x0 /afs/localcell/cm/gv2.6/sysname/pkg.@sys/qct/software/llvm/release/arm/3.5.2.4/lib/clang/3.5.2/lib/linux/libclang_rt.builtins-arm.a(aeabi_uldivmod.S.o)
 .bss           0x00000000        0x0 /afs/localcell/cm/gv2.6/sysname/pkg.@sys/qct/software/llvm/release/arm/3.5.2.4/lib/clang/3.5.2/lib/linux/libclang_rt.builtins-arm.a(aeabi_uldivmod.S.o)
 .data          0x00000000        0x0 /afs/localcell/cm/gv2.6/sysname/pkg.@sys/qct/software/llvm/release/arm/3.5.2.4/lib/clang/3.5.2/lib/linux/libclang_rt.builtins-arm.a(adddf3.c.o)
 .bss           0x00000000        0x0 /afs/localcell/cm/gv2.6/sysname/pkg.@sys/qct/software/llvm/release/arm/3.5.2.4/lib/clang/3.5.2/lib/linux/libclang_rt.builtins-arm.a(adddf3.c.o)
 .ARM.exidx     0x00000000        0x8 /afs/localcell/cm/gv2.6/sysname/pkg.@sys/qct/software/llvm/release/arm/3.5.2.4/lib/clang/3.5.2/lib/linux/libclang_rt.builtins-arm.a(adddf3.c.o)
 .data          0x00000000        0x0 /afs/localcell/cm/gv2.6/sysname/pkg.@sys/qct/software/llvm/release/arm/3.5.2.4/lib/clang/3.5.2/lib/linux/libclang_rt.builtins-arm.a(comparedf2.c.o)
 .bss           0x00000000        0x0 /afs/localcell/cm/gv2.6/sysname/pkg.@sys/qct/software/llvm/release/arm/3.5.2.4/lib/clang/3.5.2/lib/linux/libclang_rt.builtins-arm.a(comparedf2.c.o)
 .ARM.exidx     0x00000000       0x38 /afs/localcell/cm/gv2.6/sysname/pkg.@sys/qct/software/llvm/release/arm/3.5.2.4/lib/clang/3.5.2/lib/linux/libclang_rt.builtins-arm.a(comparedf2.c.o)
 .data          0x00000000        0x0 /afs/localcell/cm/gv2.6/sysname/pkg.@sys/qct/software/llvm/release/arm/3.5.2.4/lib/clang/3.5.2/lib/linux/libclang_rt.builtins-arm.a(divsf3.c.o)
 .bss           0x00000000        0x0 /afs/localcell/cm/gv2.6/sysname/pkg.@sys/qct/software/llvm/release/arm/3.5.2.4/lib/clang/3.5.2/lib/linux/libclang_rt.builtins-arm.a(divsf3.c.o)
 .ARM.exidx     0x00000000        0x8 /afs/localcell/cm/gv2.6/sysname/pkg.@sys/qct/software/llvm/release/arm/3.5.2.4/lib/clang/3.5.2/lib/linux/libclang_rt.builtins-arm.a(divsf3.c.o)
 .data          0x00000000        0x0 /afs/localcell/cm/gv2.6/sysname/pkg.@sys/qct/software/llvm/release/arm/3.5.2.4/lib/clang/3.5.2/lib/linux/libclang_rt.builtins-arm.a(extendsfdf2.c.o)
 .bss           0x00000000        0x0 /afs/localcell/cm/gv2.6/sysname/pkg.@sys/qct/software/llvm/release/arm/3.5.2.4/lib/clang/3.5.2/lib/linux/libclang_rt.builtins-arm.a(extendsfdf2.c.o)
 .ARM.exidx     0x00000000        0x8 /afs/localcell/cm/gv2.6/sysname/pkg.@sys/qct/software/llvm/release/arm/3.5.2.4/lib/clang/3.5.2/lib/linux/libclang_rt.builtins-arm.a(extendsfdf2.c.o)
 .data          0x00000000        0x0 /afs/localcell/cm/gv2.6/sysname/pkg.@sys/qct/software/llvm/release/arm/3.5.2.4/lib/clang/3.5.2/lib/linux/libclang_rt.builtins-arm.a(fixdfsi.c.o)
 .bss           0x00000000        0x0 /afs/localcell/cm/gv2.6/sysname/pkg.@sys/qct/software/llvm/release/arm/3.5.2.4/lib/clang/3.5.2/lib/linux/libclang_rt.builtins-arm.a(fixdfsi.c.o)
 .ARM.exidx     0x00000000        0x8 /afs/localcell/cm/gv2.6/sysname/pkg.@sys/qct/software/llvm/release/arm/3.5.2.4/lib/clang/3.5.2/lib/linux/libclang_rt.builtins-arm.a(fixdfsi.c.o)
 .data          0x00000000        0x0 /afs/localcell/cm/gv2.6/sysname/pkg.@sys/qct/software/llvm/release/arm/3.5.2.4/lib/clang/3.5.2/lib/linux/libclang_rt.builtins-arm.a(floatundisf.c.o)
 .bss           0x00000000        0x0 /afs/localcell/cm/gv2.6/sysname/pkg.@sys/qct/software/llvm/release/arm/3.5.2.4/lib/clang/3.5.2/lib/linux/libclang_rt.builtins-arm.a(floatundisf.c.o)
 .ARM.exidx     0x00000000        0x8 /afs/localcell/cm/gv2.6/sysname/pkg.@sys/qct/software/llvm/release/arm/3.5.2.4/lib/clang/3.5.2/lib/linux/libclang_rt.builtins-arm.a(floatundisf.c.o)
 .data          0x00000000        0x0 /afs/localcell/cm/gv2.6/sysname/pkg.@sys/qct/software/llvm/release/arm/3.5.2.4/lib/clang/3.5.2/lib/linux/libclang_rt.builtins-arm.a(floatunsisf.c.o)
 .bss           0x00000000        0x0 /afs/localcell/cm/gv2.6/sysname/pkg.@sys/qct/software/llvm/release/arm/3.5.2.4/lib/clang/3.5.2/lib/linux/libclang_rt.builtins-arm.a(floatunsisf.c.o)
 .ARM.exidx     0x00000000        0x8 /afs/localcell/cm/gv2.6/sysname/pkg.@sys/qct/software/llvm/release/arm/3.5.2.4/lib/clang/3.5.2/lib/linux/libclang_rt.builtins-arm.a(floatunsisf.c.o)
 .data          0x00000000        0x0 /afs/localcell/cm/gv2.6/sysname/pkg.@sys/qct/software/llvm/release/arm/3.5.2.4/lib/clang/3.5.2/lib/linux/libclang_rt.builtins-arm.a(muldf3.c.o)
 .bss           0x00000000        0x0 /afs/localcell/cm/gv2.6/sysname/pkg.@sys/qct/software/llvm/release/arm/3.5.2.4/lib/clang/3.5.2/lib/linux/libclang_rt.builtins-arm.a(muldf3.c.o)
 .ARM.exidx     0x00000000        0x8 /afs/localcell/cm/gv2.6/sysname/pkg.@sys/qct/software/llvm/release/arm/3.5.2.4/lib/clang/3.5.2/lib/linux/libclang_rt.builtins-arm.a(muldf3.c.o)
 .data          0x00000000        0x0 /afs/localcell/cm/gv2.6/sysname/pkg.@sys/qct/software/llvm/release/arm/3.5.2.4/lib/clang/3.5.2/lib/linux/libclang_rt.builtins-arm.a(mulsf3.c.o)
 .bss           0x00000000        0x0 /afs/localcell/cm/gv2.6/sysname/pkg.@sys/qct/software/llvm/release/arm/3.5.2.4/lib/clang/3.5.2/lib/linux/libclang_rt.builtins-arm.a(mulsf3.c.o)
 .ARM.exidx     0x00000000        0x8 /afs/localcell/cm/gv2.6/sysname/pkg.@sys/qct/software/llvm/release/arm/3.5.2.4/lib/clang/3.5.2/lib/linux/libclang_rt.builtins-arm.a(mulsf3.c.o)
 .data          0x00000000        0x0 /afs/localcell/cm/gv2.6/sysname/pkg.@sys/qct/software/llvm/release/arm/3.5.2.4/lib/clang/3.5.2/lib/linux/libclang_rt.builtins-arm.a(truncdfsf2.c.o)
 .bss           0x00000000        0x0 /afs/localcell/cm/gv2.6/sysname/pkg.@sys/qct/software/llvm/release/arm/3.5.2.4/lib/clang/3.5.2/lib/linux/libclang_rt.builtins-arm.a(truncdfsf2.c.o)
 .ARM.exidx     0x00000000        0x8 /afs/localcell/cm/gv2.6/sysname/pkg.@sys/qct/software/llvm/release/arm/3.5.2.4/lib/clang/3.5.2/lib/linux/libclang_rt.builtins-arm.a(truncdfsf2.c.o)
 .data          0x00000000        0x0 /afs/localcell/cm/gv2.6/sysname/pkg.@sys/qct/software/llvm/release/arm/3.5.2.4/lib/clang/3.5.2/lib/linux/libclang_rt.builtins-arm.a(udivmoddi4.c.o)
 .bss           0x00000000        0x0 /afs/localcell/cm/gv2.6/sysname/pkg.@sys/qct/software/llvm/release/arm/3.5.2.4/lib/clang/3.5.2/lib/linux/libclang_rt.builtins-arm.a(udivmoddi4.c.o)
 .ARM.exidx     0x00000000        0x8 /afs/localcell/cm/gv2.6/sysname/pkg.@sys/qct/software/llvm/release/arm/3.5.2.4/lib/clang/3.5.2/lib/linux/libclang_rt.builtins-arm.a(udivmoddi4.c.o)
 .data          0x00000000        0x0 /afs/localcell/cm/gv2.6/sysname/pkg.@sys/qct/software/llvm/release/arm/3.5.2.4/lib/clang/3.5.2/lib/linux/libclang_rt.builtins-arm.a(udivsi3.c.o)
 .bss           0x00000000        0x0 /afs/localcell/cm/gv2.6/sysname/pkg.@sys/qct/software/llvm/release/arm/3.5.2.4/lib/clang/3.5.2/lib/linux/libclang_rt.builtins-arm.a(udivsi3.c.o)
 .ARM.exidx     0x00000000        0x8 /afs/localcell/cm/gv2.6/sysname/pkg.@sys/qct/software/llvm/release/arm/3.5.2.4/lib/clang/3.5.2/lib/linux/libclang_rt.builtins-arm.a(udivsi3.c.o)
 .data          0x00000000        0x0 /afs/localcell/cm/gv2.6/sysname/pkg.@sys/qct/software/llvm/release/arm/3.5.2.4/lib/clang/3.5.2/lib/linux/libclang_rt.builtins-arm.a(umoddi3.c.o)
 .bss           0x00000000        0x0 /afs/localcell/cm/gv2.6/sysname/pkg.@sys/qct/software/llvm/release/arm/3.5.2.4/lib/clang/3.5.2/lib/linux/libclang_rt.builtins-arm.a(umoddi3.c.o)
 .ARM.exidx     0x00000000        0x8 /afs/localcell/cm/gv2.6/sysname/pkg.@sys/qct/software/llvm/release/arm/3.5.2.4/lib/clang/3.5.2/lib/linux/libclang_rt.builtins-arm.a(umoddi3.c.o)
 .data          0x00000000        0x0 /afs/localcell/cm/gv2.6/sysname/pkg.@sys/qct/software/llvm/release/arm/3.5.2.4/lib/clang/3.5.2/lib/linux/libclang_rt.builtins-arm.a(umodsi3.c.o)
 .bss           0x00000000        0x0 /afs/localcell/cm/gv2.6/sysname/pkg.@sys/qct/software/llvm/release/arm/3.5.2.4/lib/clang/3.5.2/lib/linux/libclang_rt.builtins-arm.a(umodsi3.c.o)
 .ARM.exidx     0x00000000        0x8 /afs/localcell/cm/gv2.6/sysname/pkg.@sys/qct/software/llvm/release/arm/3.5.2.4/lib/clang/3.5.2/lib/linux/libclang_rt.builtins-arm.a(umodsi3.c.o)
 .ARM.exidx     0x00000000        0x8 /local/mnt/workspace/CRMBuilds/TZ.BF.4.0.3.c1-00005-M8996AAAAANAZT-1_20170110_230814/b/HK11/trustzone_images/core/securemsm/sse/qsee/SecureTouch/drTs/lib/build/sampleapp/scorpion/IADAANAA/touch_lib.lib(01_open.o)
 .data          0x00000000        0x0 /local/mnt/workspace/CRMBuilds/TZ.BF.4.0.3.c1-00005-M8996AAAAANAZT-1_20170110_230814/b/HK11/trustzone_images/core/securemsm/sse/qsee/SecureTouch/drTs/lib/build/sampleapp/scorpion/IADAANAA/touch_lib.lib(02_close.o)
 .bss           0x00000000        0x0 /local/mnt/workspace/CRMBuilds/TZ.BF.4.0.3.c1-00005-M8996AAAAANAZT-1_20170110_230814/b/HK11/trustzone_images/core/securemsm/sse/qsee/SecureTouch/drTs/lib/build/sampleapp/scorpion/IADAANAA/touch_lib.lib(02_close.o)
 .ARM.exidx     0x00000000        0x8 /local/mnt/workspace/CRMBuilds/TZ.BF.4.0.3.c1-00005-M8996AAAAANAZT-1_20170110_230814/b/HK11/trustzone_images/core/securemsm/sse/qsee/SecureTouch/drTs/lib/build/sampleapp/scorpion/IADAANAA/touch_lib.lib(02_close.o)
 .data          0x00000000        0x0 /local/mnt/workspace/CRMBuilds/TZ.BF.4.0.3.c1-00005-M8996AAAAANAZT-1_20170110_230814/b/HK11/trustzone_images/core/securemsm/sse/qsee/SecureTouch/drTs/lib/build/sampleapp/scorpion/IADAANAA/touch_lib.lib(03_getData.o)
 .ARM.exidx     0x00000000       0x10 /local/mnt/workspace/CRMBuilds/TZ.BF.4.0.3.c1-00005-M8996AAAAANAZT-1_20170110_230814/b/HK11/trustzone_images/core/securemsm/sse/qsee/SecureTouch/drTs/lib/build/sampleapp/scorpion/IADAANAA/touch_lib.lib(03_getData.o)
 .data          0x00000000        0x0 /local/mnt/workspace/CRMBuilds/TZ.BF.4.0.3.c1-00005-M8996AAAAANAZT-1_20170110_230814/b/HK11/trustzone_images/core/securemsm/trustzone/qsapps/libs/applib/common_applib/build/sampleapp/scorpion/IADAANAA/tzapp_entrylib.lib(gpPersistObjCommon.o)
 .ARM.exidx     0x00000000       0x40 /local/mnt/workspace/CRMBuilds/TZ.BF.4.0.3.c1-00005-M8996AAAAANAZT-1_20170110_230814/b/HK11/trustzone_images/core/securemsm/trustzone/qsapps/libs/applib/common_applib/build/sampleapp/scorpion/IADAANAA/tzapp_entrylib.lib(gpPersistObjCommon.o)
 .data          0x00000000        0x0 /local/mnt/workspace/CRMBuilds/TZ.BF.4.0.3.c1-00005-M8996AAAAANAZT-1_20170110_230814/b/HK11/trustzone_images/core/securemsm/trustzone/qsapps/libs/applib/common_applib/build/sampleapp/scorpion/IADAANAA/tzapp_entrylib.lib(gpPersistentObjects.o)
 .bss           0x00000000        0x0 /local/mnt/workspace/CRMBuilds/TZ.BF.4.0.3.c1-00005-M8996AAAAANAZT-1_20170110_230814/b/HK11/trustzone_images/core/securemsm/trustzone/qsapps/libs/applib/common_applib/build/sampleapp/scorpion/IADAANAA/tzapp_entrylib.lib(gpPersistentObjects.o)
 .ARM.exidx     0x00000000       0x70 /local/mnt/workspace/CRMBuilds/TZ.BF.4.0.3.c1-00005-M8996AAAAANAZT-1_20170110_230814/b/HK11/trustzone_images/core/securemsm/trustzone/qsapps/libs/applib/common_applib/build/sampleapp/scorpion/IADAANAA/tzapp_entrylib.lib(gpPersistentObjects.o)
 .data          0x00000000        0x0 /local/mnt/workspace/CRMBuilds/TZ.BF.4.0.3.c1-00005-M8996AAAAANAZT-1_20170110_230814/b/HK11/trustzone_images/core/securemsm/trustzone/qsapps/libs/applib/common_applib/build/sampleapp/scorpion/IADAANAA/tzapp_entrylib.lib(gpPersistObjData.o)
 .ARM.exidx     0x00000000       0x88 /local/mnt/workspace/CRMBuilds/TZ.BF.4.0.3.c1-00005-M8996AAAAANAZT-1_20170110_230814/b/HK11/trustzone_images/core/securemsm/trustzone/qsapps/libs/applib/common_applib/build/sampleapp/scorpion/IADAANAA/tzapp_entrylib.lib(gpPersistObjData.o)
 .ARM.exidx     0x00000000       0x38 /local/mnt/workspace/CRMBuilds/TZ.BF.4.0.3.c1-00005-M8996AAAAANAZT-1_20170110_230814/b/HK11/trustzone_images/core/securemsm/trustzone/qsapps/libs/applib/common_applib/build/sampleapp/scorpion/IADAANAA/tzapp_entrylib.lib(gpPersistObjHandler.o)
 .data          0x00000000        0x0 /local/mnt/workspace/CRMBuilds/TZ.BF.4.0.3.c1-00005-M8996AAAAANAZT-1_20170110_230814/b/HK11/trustzone_images/core/securemsm/trustzone/qsapps/libs/applib/common_applib/build/sampleapp/scorpion/IADAANAA/tzapp_entrylib.lib(gpPersistObjIndex.o)
 .ARM.exidx     0x00000000       0x60 /local/mnt/workspace/CRMBuilds/TZ.BF.4.0.3.c1-00005-M8996AAAAANAZT-1_20170110_230814/b/HK11/trustzone_images/core/securemsm/trustzone/qsapps/libs/applib/common_applib/build/sampleapp/scorpion/IADAANAA/tzapp_entrylib.lib(gpPersistObjIndex.o)
 .ARM.exidx     0x00000000       0x48 /local/mnt/workspace/CRMBuilds/TZ.BF.4.0.3.c1-00005-M8996AAAAANAZT-1_20170110_230814/b/HK11/trustzone_images/core/securemsm/trustzone/qsapps/libs/applib/common_applib/build/sampleapp/scorpion/IADAANAA/tzapp_entrylib.lib(gpPersistObjVersion.o)
 .data          0x00000000        0x0 /local/mnt/workspace/CRMBuilds/TZ.BF.4.0.3.c1-00005-M8996AAAAANAZT-1_20170110_230814/b/HK11/trustzone_images/core/securemsm/trustzone/qsapps/libs/applib/common_applib/build/sampleapp/scorpion/IADAANAA/tzapp_entrylib.lib(gpPersistObjCrypto.o)
 .ARM.exidx     0x00000000       0x38 /local/mnt/workspace/CRMBuilds/TZ.BF.4.0.3.c1-00005-M8996AAAAANAZT-1_20170110_230814/b/HK11/trustzone_images/core/securemsm/trustzone/qsapps/libs/applib/common_applib/build/sampleapp/scorpion/IADAANAA/tzapp_entrylib.lib(gpPersistObjCrypto.o)
 .data          0x00000000        0x0 /local/mnt/workspace/CRMBuilds/TZ.BF.4.0.3.c1-00005-M8996AAAAANAZT-1_20170110_230814/b/HK11/trustzone_images/core/securemsm/trustzone/qsapps/libs/applib/common_applib/build/sampleapp/scorpion/IADAANAA/tzapp_entrylib.lib(gpPersistObjFileIO.o)
 .bss           0x00000000        0x0 /local/mnt/workspace/CRMBuilds/TZ.BF.4.0.3.c1-00005-M8996AAAAANAZT-1_20170110_230814/b/HK11/trustzone_images/core/securemsm/trustzone/qsapps/libs/applib/common_applib/build/sampleapp/scorpion/IADAANAA/tzapp_entrylib.lib(gpPersistObjFileIO.o)
 .ARM.exidx     0x00000000       0x40 /local/mnt/workspace/CRMBuilds/TZ.BF.4.0.3.c1-00005-M8996AAAAANAZT-1_20170110_230814/b/HK11/trustzone_images/core/securemsm/trustzone/qsapps/libs/applib/common_applib/build/sampleapp/scorpion/IADAANAA/tzapp_entrylib.lib(gpPersistObjFileIO.o)
 .data          0x00000000        0x0 /local/mnt/workspace/CRMBuilds/TZ.BF.4.0.3.c1-00005-M8996AAAAANAZT-1_20170110_230814/b/HK11/trustzone_images/core/securemsm/trustzone/qsapps/libs/applib/common_applib/build/sampleapp/scorpion/IADAANAA/tzapp_entrylib.lib(gpFileService.o)
 .bss           0x00000000        0x0 /local/mnt/workspace/CRMBuilds/TZ.BF.4.0.3.c1-00005-M8996AAAAANAZT-1_20170110_230814/b/HK11/trustzone_images/core/securemsm/trustzone/qsapps/libs/applib/common_applib/build/sampleapp/scorpion/IADAANAA/tzapp_entrylib.lib(gpFileService.o)
 .ARM.exidx     0x00000000       0x20 /local/mnt/workspace/CRMBuilds/TZ.BF.4.0.3.c1-00005-M8996AAAAANAZT-1_20170110_230814/b/HK11/trustzone_images/core/securemsm/trustzone/qsapps/libs/applib/common_applib/build/sampleapp/scorpion/IADAANAA/tzapp_entrylib.lib(gpFileService.o)
 .data          0x00000000        0x0 /local/mnt/workspace/CRMBuilds/TZ.BF.4.0.3.c1-00005-M8996AAAAANAZT-1_20170110_230814/b/HK11/trustzone_images/core/securemsm/trustzone/qsapps/libs/applib/qsee/build/sampleapp/scorpion/IADAANAA/tzapp_entrylib.lib(qsee_cfg_prop_shim.o)
 .bss           0x00000000        0x0 /local/mnt/workspace/CRMBuilds/TZ.BF.4.0.3.c1-00005-M8996AAAAANAZT-1_20170110_230814/b/HK11/trustzone_images/core/securemsm/trustzone/qsapps/libs/applib/qsee/build/sampleapp/scorpion/IADAANAA/tzapp_entrylib.lib(qsee_cfg_prop_shim.o)
 .ARM.exidx     0x00000000        0x8 /local/mnt/workspace/CRMBuilds/TZ.BF.4.0.3.c1-00005-M8996AAAAANAZT-1_20170110_230814/b/HK11/trustzone_images/core/securemsm/trustzone/qsapps/libs/applib/qsee/build/sampleapp/scorpion/IADAANAA/tzapp_entrylib.lib(qsee_cfg_prop_shim.o)
 .data          0x00000000        0x0 /local/mnt/workspace/CRMBuilds/TZ.BF.4.0.3.c1-00005-M8996AAAAANAZT-1_20170110_230814/b/HK11/trustzone_images/core/securemsm/trustzone/qsapps/libs/applib/qsee/build/sampleapp/scorpion/IADAANAA/tzapp_entrylib.lib(gpPersistObjPanic.o)
 .bss           0x00000000        0x0 /local/mnt/workspace/CRMBuilds/TZ.BF.4.0.3.c1-00005-M8996AAAAANAZT-1_20170110_230814/b/HK11/trustzone_images/core/securemsm/trustzone/qsapps/libs/applib/qsee/build/sampleapp/scorpion/IADAANAA/tzapp_entrylib.lib(gpPersistObjPanic.o)
 .ARM.exidx     0x00000000       0x10 /local/mnt/workspace/CRMBuilds/TZ.BF.4.0.3.c1-00005-M8996AAAAANAZT-1_20170110_230814/b/HK11/trustzone_images/core/securemsm/trustzone/qsapps/libs/applib/qsee/build/sampleapp/scorpion/IADAANAA/tzapp_entrylib.lib(gpPersistObjPanic.o)
 .data          0x00000000        0x0 /local/mnt/workspace/CRMBuilds/TZ.BF.4.0.3.c1-00005-M8996AAAAANAZT-1_20170110_230814/b/HK11/trustzone_images/core/securemsm/trustzone/qsee/mink/libstd/build/sampleapp/scorpion/IADAANAA/libstd.lib(strlcat.o)
 .bss           0x00000000        0x0 /local/mnt/workspace/CRMBuilds/TZ.BF.4.0.3.c1-00005-M8996AAAAANAZT-1_20170110_230814/b/HK11/trustzone_images/core/securemsm/trustzone/qsee/mink/libstd/build/sampleapp/scorpion/IADAANAA/libstd.lib(strlcat.o)
 .ARM.exidx     0x00000000        0x8 /local/mnt/workspace/CRMBuilds/TZ.BF.4.0.3.c1-00005-M8996AAAAANAZT-1_20170110_230814/b/HK11/trustzone_images/core/securemsm/trustzone/qsee/mink/libstd/build/sampleapp/scorpion/IADAANAA/libstd.lib(strlcat.o)
 .data          0x00000000        0x0 /local/mnt/workspace/CRMBuilds/TZ.BF.4.0.3.c1-00005-M8996AAAAANAZT-1_20170110_230814/b/HK11/trustzone_images/core/securemsm/trustzone/qsee/mink/libstd/build/sampleapp/scorpion/IADAANAA/libstd.lib(memset.o)
 .bss           0x00000000        0x0 /local/mnt/workspace/CRMBuilds/TZ.BF.4.0.3.c1-00005-M8996AAAAANAZT-1_20170110_230814/b/HK11/trustzone_images/core/securemsm/trustzone/qsee/mink/libstd/build/sampleapp/scorpion/IADAANAA/libstd.lib(memset.o)
 .ARM.exidx     0x00000000        0x8 /local/mnt/workspace/CRMBuilds/TZ.BF.4.0.3.c1-00005-M8996AAAAANAZT-1_20170110_230814/b/HK11/trustzone_images/core/securemsm/trustzone/qsee/mink/libstd/build/sampleapp/scorpion/IADAANAA/libstd.lib(memset.o)
 .data          0x00000000        0x0 /local/mnt/workspace/CRMBuilds/TZ.BF.4.0.3.c1-00005-M8996AAAAANAZT-1_20170110_230814/b/HK11/trustzone_images/core/securemsm/trustzone/qsee/mink/libstd/build/sampleapp/scorpion/IADAANAA/libstd.lib(memcpy.o)
 .bss           0x00000000        0x0 /local/mnt/workspace/CRMBuilds/TZ.BF.4.0.3.c1-00005-M8996AAAAANAZT-1_20170110_230814/b/HK11/trustzone_images/core/securemsm/trustzone/qsee/mink/libstd/build/sampleapp/scorpion/IADAANAA/libstd.lib(memcpy.o)
 .ARM.exidx     0x00000000        0x8 /local/mnt/workspace/CRMBuilds/TZ.BF.4.0.3.c1-00005-M8996AAAAANAZT-1_20170110_230814/b/HK11/trustzone_images/core/securemsm/trustzone/qsee/mink/libstd/build/sampleapp/scorpion/IADAANAA/libstd.lib(memcpy.o)
 .data          0x00000000        0x0 /local/mnt/workspace/CRMBuilds/TZ.BF.4.0.3.c1-00005-M8996AAAAANAZT-1_20170110_230814/b/HK11/trustzone_images/core/securemsm/trustzone/qsee/mink/libstd/build/sampleapp/scorpion/IADAANAA/libstd.lib(memmove.o)
 .bss           0x00000000        0x0 /local/mnt/workspace/CRMBuilds/TZ.BF.4.0.3.c1-00005-M8996AAAAANAZT-1_20170110_230814/b/HK11/trustzone_images/core/securemsm/trustzone/qsee/mink/libstd/build/sampleapp/scorpion/IADAANAA/libstd.lib(memmove.o)
 .ARM.exidx     0x00000000        0x8 /local/mnt/workspace/CRMBuilds/TZ.BF.4.0.3.c1-00005-M8996AAAAANAZT-1_20170110_230814/b/HK11/trustzone_images/core/securemsm/trustzone/qsee/mink/libstd/build/sampleapp/scorpion/IADAANAA/libstd.lib(memmove.o)
 .data          0x00000000        0x0 /local/mnt/workspace/CRMBuilds/TZ.BF.4.0.3.c1-00005-M8996AAAAANAZT-1_20170110_230814/b/HK11/trustzone_images/core/securemsm/sse/SecureTouch/controller/build/sampleapp/scorpion/IADAANAA/drts_controller_msm8996.lib(atmel_mxt_ts.o)
 .ARM.exidx     0x00000000       0x48 /local/mnt/workspace/CRMBuilds/TZ.BF.4.0.3.c1-00005-M8996AAAAANAZT-1_20170110_230814/b/HK11/trustzone_images/core/securemsm/sse/SecureTouch/controller/build/sampleapp/scorpion/IADAANAA/drts_controller_msm8996.lib(atmel_mxt_ts.o)
 .data          0x00000000        0x0 /local/mnt/workspace/CRMBuilds/TZ.BF.4.0.3.c1-00005-M8996AAAAANAZT-1_20170110_230814/b/HK11/trustzone_images/core/securemsm/sse/SecureTouch/controller/build/sampleapp/scorpion/IADAANAA/drts_controller_msm8996.lib(synaptics_ts.o)
 .ARM.exidx     0x00000000       0x28 /local/mnt/workspace/CRMBuilds/TZ.BF.4.0.3.c1-00005-M8996AAAAANAZT-1_20170110_230814/b/HK11/trustzone_images/core/securemsm/sse/SecureTouch/controller/build/sampleapp/scorpion/IADAANAA/drts_controller_msm8996.lib(synaptics_ts.o)
 .data          0x00000000        0x0 /local/mnt/workspace/CRMBuilds/TZ.BF.4.0.3.c1-00005-M8996AAAAANAZT-1_20170110_230814/b/HK11/trustzone_images/core/securemsm/sse/log/build/sampleapp/scorpion/IADAANAA/sselog.lib(sselog.o)
 .bss           0x00000000        0x0 /local/mnt/workspace/CRMBuilds/TZ.BF.4.0.3.c1-00005-M8996AAAAANAZT-1_20170110_230814/b/HK11/trustzone_images/core/securemsm/sse/log/build/sampleapp/scorpion/IADAANAA/sselog.lib(sselog.o)
 .ARM.exidx     0x00000000        0x8 /local/mnt/workspace/CRMBuilds/TZ.BF.4.0.3.c1-00005-M8996AAAAANAZT-1_20170110_230814/b/HK11/trustzone_images/core/securemsm/sse/log/build/sampleapp/scorpion/IADAANAA/sselog.lib(sselog.o)
 .data          0x00000000        0x0 /local/mnt/workspace/CRMBuilds/TZ.BF.4.0.3.c1-00005-M8996AAAAANAZT-1_20170110_230814/b/HK11/trustzone_images/core/securemsm/sse/qsee/SecureTouch/drTs/controller/build/sampleapp/scorpion/IADAANAA/touch_controller_i2c_msm8996.lib(atmel_mxt_ts_i2c.o)
 .bss           0x00000000        0x0 /local/mnt/workspace/CRMBuilds/TZ.BF.4.0.3.c1-00005-M8996AAAAANAZT-1_20170110_230814/b/HK11/trustzone_images/core/securemsm/sse/qsee/SecureTouch/drTs/controller/build/sampleapp/scorpion/IADAANAA/touch_controller_i2c_msm8996.lib(atmel_mxt_ts_i2c.o)
 .ARM.exidx     0x00000000       0x18 /local/mnt/workspace/CRMBuilds/TZ.BF.4.0.3.c1-00005-M8996AAAAANAZT-1_20170110_230814/b/HK11/trustzone_images/core/securemsm/sse/qsee/SecureTouch/drTs/controller/build/sampleapp/scorpion/IADAANAA/touch_controller_i2c_msm8996.lib(atmel_mxt_ts_i2c.o)
 .data          0x00000000        0x0 /local/mnt/workspace/CRMBuilds/TZ.BF.4.0.3.c1-00005-M8996AAAAANAZT-1_20170110_230814/b/HK11/trustzone_images/core/securemsm/sse/qsee/SecureTouch/drTs/controller/build/sampleapp/scorpion/IADAANAA/touch_controller_i2c_msm8996.lib(synaptics_ts_i2c.o)
 .bss           0x00000000        0x0 /local/mnt/workspace/CRMBuilds/TZ.BF.4.0.3.c1-00005-M8996AAAAANAZT-1_20170110_230814/b/HK11/trustzone_images/core/securemsm/sse/qsee/SecureTouch/drTs/controller/build/sampleapp/scorpion/IADAANAA/touch_controller_i2c_msm8996.lib(synaptics_ts_i2c.o)
 .ARM.exidx     0x00000000       0x20 /local/mnt/workspace/CRMBuilds/TZ.BF.4.0.3.c1-00005-M8996AAAAANAZT-1_20170110_230814/b/HK11/trustzone_images/core/securemsm/sse/qsee/SecureTouch/drTs/controller/build/sampleapp/scorpion/IADAANAA/touch_controller_i2c_msm8996.lib(synaptics_ts_i2c.o)

Memory Configuration

Name             Origin             Length             Attributes
*default*        0x00000000         0xffffffff

Linker script and memory map


.text           0x00000000    0x39de8
 *\tzapp_entry.o(SORT(TZAPPENTRYCODE))
 TZAPPENTRYCODE
                0x00000000       0x4c /local/mnt/workspace/CRMBuilds/TZ.BF.4.0.3.c1-00005-M8996AAAAANAZT-1_20170110_230814/b/HK11/trustzone_images/core/securemsm/trustzone/qsapps/libs/applib/qsee/build/sampleapp/scorpion/IADAANAA/src/tzapp_entry.o
                0x00000000                __main
                0x00000000                TZAPPENTRY
                0x00000000                _main
                0x0000003c                get_cmnlib_ctx_ptr
 *(SORT(.text) SORT(.text.*) SORT(kthread_shared))
 *fill*         0x0000004c        0x4 
 .text          0x00000050      0x160 /afs/localcell/cm/gv2.6/sysname/pkg.@sys/qct/software/llvm/release/arm/3.5.2.4/lib/clang/3.5.2/lib/linux/libclang_rt.builtins-arm.a(truncdfsf2.c.o)
                0x00000050                __aeabi_d2f
                0x00000050                __truncdfsf2
 .text          0x000001b0      0x398 /afs/localcell/cm/gv2.6/sysname/pkg.@sys/qct/software/llvm/release/arm/3.5.2.4/lib/clang/3.5.2/lib/linux/libclang_rt.builtins-arm.a(adddf3.c.o)
                0x000001b0                __adddf3
                0x000001b0                __aeabi_dadd
 .text          0x00000548      0x320 /afs/localcell/cm/gv2.6/sysname/pkg.@sys/qct/software/llvm/release/arm/3.5.2.4/lib/clang/3.5.2/lib/linux/libclang_rt.builtins-arm.a(muldf3.c.o)
                0x00000548                __aeabi_dmul
                0x00000548                __muldf3
 .text          0x00000868     0x13ac /local/mnt/workspace/CRMBuilds/TZ.BF.4.0.3.c1-00005-M8996AAAAANAZT-1_20170110_230814/b/HK11/trustzone_images/core/securemsm/trustzone/qsapps/sampleapp/build/sampleapp/scorpion/IADAANAA/app_main.o
                0x00000868                tz_app_init
                0x00000890                tz_app_cmd_handler
                0x00001c00                tz_app_shutdown
 .text          0x00001c14      0x190 /local/mnt/workspace/CRMBuilds/TZ.BF.4.0.3.c1-00005-M8996AAAAANAZT-1_20170110_230814/b/HK11/trustzone_images/core/securemsm/trustzone/qsapps/sampleapp/build/sampleapp/scorpion/IADAANAA/app_smplserv_test.o
                0x00001c14                run_smplserv_test
                0x00001ce4                run_smplserv_crash_test
 .text          0x00001da4       0x9c /local/mnt/workspace/CRMBuilds/TZ.BF.4.0.3.c1-00005-M8996AAAAANAZT-1_20170110_230814/b/HK11/trustzone_images/core/securemsm/trustzone/qsapps/sampleapp/build/sampleapp/scorpion/IADAANAA/app_smplcert_test.o
                0x00001da4                run_smplcert_test
 .text          0x00001e40     0x83d4 /local/mnt/workspace/CRMBuilds/TZ.BF.4.0.3.c1-00005-M8996AAAAANAZT-1_20170110_230814/b/HK11/trustzone_images/core/securemsm/trustzone/qsapps/sampleapp/build/sampleapp/scorpion/IADAANAA/app_crypto.o
                0x00001e40                tz_app_crypto_aes_func
                0x000022cc                tz_app_crypto_triple_des_func
                0x00002640                tz_app_crypto_triple_des_large_func
                0x00002908                tz_app_crypto_aes_large_func
                0x00002ca4                tz_app_crypto_aes_xts_func
                0x000030d0                tz_app_crypto_aes_ccm_func
                0x000035bc                tz_app_crypto_aes_block_func
                0x000038b8                tz_app_crypto_hash_func
                0x00003948                tz_app_crypto_hash_block_func
                0x00003a98                tz_app_crypto_hash_aes_func
                0x00003ec0                tz_app_crypto_hmac_func
                0x00003fa0                tz_app_crypto_cmac_func
                0x00004024                tz_app_crypto_aes_perf
                0x00004120                tz_app_crypto_triple_des_perf
                0x0000421c                tz_app_crypto_aes_xts_perf
                0x00004354                tz_app_crypto_hash_perf
                0x000043b0                tz_app_crypto_hash_aes_perf
                0x00004570                tz_app_crypto_hmac_perf
                0x000045cc                tz_app_crypto_cmac_perf
                0x00004630                tz_app_aes_func
                0x00004a7c                tz_app_des_func
                0x00004cfc                tz_app_aes_xts_func
                0x00004f50                tz_app_aes_ccm_func
                0x0000525c                tz_app_hash_func
                0x00005368                tz_app_hash_aes_func
                0x0000559c                tz_app_hmac_func
                0x000056d4                tz_app_cmac_func
                0x0000580c                tz_app_aes_perf
                0x00005e98                tz_app_des_perf
                0x00006178                tz_app_aes_xts_perf
                0x00006494                tz_app_hash_perf
                0x000066e8                tz_app_hash_aes_perf
                0x00006ba4                tz_app_hmac_perf
                0x00006e74                tz_app_cmac_perf
                0x0000714c                tz_app_kdf_perf
                0x0000746c                tz_app_crypto_kdf
                0x00007720                tz_app_crypto_ecdh_func
                0x000077e0                tz_app_crypto_ecdsa_func
                0x0000789c                tz_app_crypto_generic_ecdsa_func
                0x00008320                tz_app_crypto_generic_ecdh_func
                0x00008514                tz_app_ecdh_func
                0x00008580                tz_app_ecdsa_func
                0x00008610                tz_app_generic_ecdh_func
                0x0000866c                tz_app_generic_ecdsa_func
                0x000086ec                tz_app_ufcrypto_aes_func
                0x00008af0                tz_app_ufcrypto_aes_gcm_func
                0x00008e60                tz_app_ufcrypto_hash_func
                0x00008f28                tz_app_ufcrypto_hmac_func
                0x0000904c                tz_app_sw_aes_func
                0x00009350                tz_app_sw_hash_func
                0x00009424                tz_app_sw_hmac_func
                0x0000955c                tz_app_ufcrypto_aes_perf
                0x000096a4                tz_app_ufcrypto_hash_perf
                0x0000975c                tz_app_ufcrypto_hmac_perf
                0x000097fc                tz_app_sw_aes_perf
                0x00009aac                tz_app_sw_aes_gcm_perf
                0x00009cd4                tz_app_sw_hash_perf
                0x00009e90                tz_app_sw_hmac_perf
                0x0000a060                tz_app_crypto_test
                0x0000a0b0                tz_app_crypto_func_test
                0x0000a168                tz_app_crypto_perf_test
 .text          0x0000a214     0x3ea4 /local/mnt/workspace/CRMBuilds/TZ.BF.4.0.3.c1-00005-M8996AAAAANAZT-1_20170110_230814/b/HK11/trustzone_images/core/securemsm/trustzone/qsapps/sampleapp/build/sampleapp/scorpion/IADAANAA/app_sfs.o
                0x0000a214                smplap_sfs_unit_open
                0x0000a410                smplap_sfs_unit_read_write
                0x0000a770                smplap_sfs_unit_get_size
                0x0000a9ac                smplap_sfs_unit_seek
                0x0000b6ec                smplap_sfs_unit_rm
                0x0000b7e8                smplap_sfs_unit_file_list
                0x0000ba64                smplap_sfs_basic_use_cases
                0x0000c34c                smplap_sfs_perf_test
                0x0000c9b4                smplap_sfs_unit_test_suite
                0x0000c9f0                tz_app_sfs
                0x0000d378                tz_app_counter
                0x0000da24                tz_app_fs
 .text          0x0000e0b8      0xc54 /local/mnt/workspace/CRMBuilds/TZ.BF.4.0.3.c1-00005-M8996AAAAANAZT-1_20170110_230814/b/HK11/trustzone_images/core/securemsm/trustzone/qsapps/sampleapp/build/sampleapp/scorpion/IADAANAA/app_rsa.o
                0x0000e0b8                init_key
                0x0000e0ec                free_key
                0x0000e0f8                tzt_test_crypto_rsa_enc_dec_vect
                0x0000e294                test_crypto_rsa_enc_dec
                0x0000e488                tzt_test_crypto_rsa_sign_verify_vect
                0x0000e650                test_crypto_rsa_sign_verify
                0x0000e878                test_crypto_rsa_byte_count
                0x0000e8dc                test_crypto_rsa_CRT_verify
                0x0000ecc0                tz_app_crypto_rsa_test
 .text          0x0000ed0c     0x1000 /local/mnt/workspace/CRMBuilds/TZ.BF.4.0.3.c1-00005-M8996AAAAANAZT-1_20170110_230814/b/HK11/trustzone_images/core/securemsm/trustzone/qsapps/sampleapp/build/sampleapp/scorpion/IADAANAA/qsee_api_tests.o
                0x0000ed0c                run_core_test
                0x0000ee38                run_securechannel_test
                0x0000ee5c                run_misc_test
                0x0000efe4                run_tlmm_tests
                0x0000f144                run_buses_spi_test
                0x0000f288                run_buses_test
                0x0000f2f4                security_state_test
                0x0000f3b4                run_abort_test
                0x0000f3d0                run_cache_test
                0x0000f448                run_sharedbuffer_test
                0x0000f4b4                run_spin_test
                0x0000f4bc                run_trans_test
                0x0000f584                run_oem_buf_test
                0x0000fa44                run_intlock_tests
                0x0000fbd4                run_blsp_modify_ownership_test
                0x0000fc24                run_log_bitmask_test
 .text          0x0000fd0c      0x344 /local/mnt/workspace/CRMBuilds/TZ.BF.4.0.3.c1-00005-M8996AAAAANAZT-1_20170110_230814/b/HK11/trustzone_images/core/securemsm/trustzone/qsapps/sampleapp/build/sampleapp/scorpion/IADAANAA/app_cmnlib.o
                0x0000fd0c                copy_S_BIGINT
                0x0000fd4c                test_crypto_rsa_complementary
                0x0000ff4c                tz_app_cmnlib_test
 .text          0x00010050      0x160 /local/mnt/workspace/CRMBuilds/TZ.BF.4.0.3.c1-00005-M8996AAAAANAZT-1_20170110_230814/b/HK11/trustzone_images/core/securemsm/trustzone/qsapps/sampleapp/build/sampleapp/scorpion/IADAANAA/app_message_passing.o
                0x00010050                run_message_passing_test
 .text          0x000101b0       0xcc /local/mnt/workspace/CRMBuilds/TZ.BF.4.0.3.c1-00005-M8996AAAAANAZT-1_20170110_230814/b/HK11/trustzone_images/core/securemsm/trustzone/qsapps/sampleapp/build/sampleapp/scorpion/IADAANAA/app_fuses.o
                0x000101b0                run_fuse_test
                0x000101c8                run_sw_fuse_test
 .text          0x0001027c     0x12a8 /local/mnt/workspace/CRMBuilds/TZ.BF.4.0.3.c1-00005-M8996AAAAANAZT-1_20170110_230814/b/HK11/trustzone_images/core/securemsm/trustzone/qsapps/sampleapp/build/sampleapp/scorpion/IADAANAA/app_stor.o
                0x0001027c                BufferBackup
                0x000102c4                BufferRestore
                0x0001030c                qsee_stor_memset
                0x0001031c                qsee_stor_deviceInitTest
                0x00010370                qsee_stor_deviceAddOpenPartitionTest
                0x0001046c                qsee_stor_devRWSingleContTest
                0x00010690                qsee_stor_devRWSingleAltTest
                0x000108e8                qsee_stor_devRWDoubleContTest
                0x00010b80                qsee_stor_devRWDoubleAltTest
                0x00010e38                qsee_stor_AdversarialTest
                0x00010fbc                qsee_stor_devRWAdversarialTest
                0x00011240                qsee_stor_RWSProfileTest
                0x00011470                run_stor_test
 .text          0x00011524      0x4f4 /local/mnt/workspace/CRMBuilds/TZ.BF.4.0.3.c1-00005-M8996AAAAANAZT-1_20170110_230814/b/HK11/trustzone_images/core/securemsm/trustzone/qsapps/sampleapp/build/sampleapp/scorpion/IADAANAA/app_content_protection.o
                0x00011524                mem_seg_copy
                0x00011728                Content_Protection_Copy_NonsecureToSecure
 .text          0x00011a18      0x6f8 /local/mnt/workspace/CRMBuilds/TZ.BF.4.0.3.c1-00005-M8996AAAAANAZT-1_20170110_230814/b/HK11/trustzone_images/core/securemsm/trustzone/qsapps/sampleapp/build/sampleapp/scorpion/IADAANAA/app_secure_ui.o
                0x00011a18                stop_disp
                0x00011a24                copy_dot
                0x00011b20                get_display_properties
                0x00011b58                start_disp_fullscreen
                0x00011bec                show_image
                0x00011d80                run_display_test
                0x00011dd0                run_touch_test
 .text          0x00012110     0x29f0 /local/mnt/workspace/CRMBuilds/TZ.BF.4.0.3.c1-00005-M8996AAAAANAZT-1_20170110_230814/b/HK11/trustzone_images/core/securemsm/trustzone/qsapps/sampleapp/build/sampleapp/scorpion/IADAANAA/app_bio_lib.o
                0x00012110                run_bio_lib_tests
 .text          0x00014b00     0x1858 /local/mnt/workspace/CRMBuilds/TZ.BF.4.0.3.c1-00005-M8996AAAAANAZT-1_20170110_230814/b/HK11/trustzone_images/core/securemsm/trustzone/qsapps/sampleapp/build/sampleapp/scorpion/IADAANAA/app_bulletin_board.o
                0x00014b00                run_bulletin_board_tests
 .text          0x00016358       0x18 /local/mnt/workspace/CRMBuilds/TZ.BF.4.0.3.c1-00005-M8996AAAAANAZT-1_20170110_230814/b/HK11/trustzone_images/core/kernel/libstd/build/sampleapp/scorpion/IADAANAA/libstd.lib(memscpy.o)
                0x00016358                memscpy
 .text          0x00016370       0x32 /local/mnt/workspace/CRMBuilds/TZ.BF.4.0.3.c1-00005-M8996AAAAANAZT-1_20170110_230814/b/HK11/trustzone_images/core/kernel/libstd/build/sampleapp/scorpion/IADAANAA/libstd.lib(strlcpy.o)
                0x00016370                strlcpy
 *fill*         0x000163a2        0x2 
 .text          0x000163a4       0x18 /local/mnt/workspace/CRMBuilds/TZ.BF.4.0.3.c1-00005-M8996AAAAANAZT-1_20170110_230814/b/HK11/trustzone_images/core/kernel/libstd/build/sampleapp/scorpion/IADAANAA/libstd.lib(secure_memset.o)
                0x000163a4                secure_memset
 .text          0x000163bc       0x38 /local/mnt/workspace/CRMBuilds/TZ.BF.4.0.3.c1-00005-M8996AAAAANAZT-1_20170110_230814/b/HK11/trustzone_images/core/kernel/libstd/build/sampleapp/scorpion/IADAANAA/libstd.lib(timesafe_memcmp.o)
                0x000163bc                timesafe_memcmp
 .text          0x000163f4       0x72 /local/mnt/workspace/CRMBuilds/TZ.BF.4.0.3.c1-00005-M8996AAAAANAZT-1_20170110_230814/b/HK11/trustzone_images/core/kernel/libstd/build/sampleapp/scorpion/IADAANAA/libstd.lib(timesafe_strncmp.o)
                0x000163f4                timesafe_strncmp
 *fill*         0x00016466        0x2 
 .text          0x00016468     0x1e14 /local/mnt/workspace/CRMBuilds/TZ.BF.4.0.3.c1-00005-M8996AAAAANAZT-1_20170110_230814/b/HK11/trustzone_images/core/securemsm/sse/qsee/SecureUI/build/sampleapp/scorpion/IADAANAA/secure_ui.lib(SecureUI.o)
                0x00016468                sec_ui_get_disp_properties
                0x000165ac                sec_ui_start_disp_fullscreen
                0x0001700c                session_is_unchanged
                0x0001711c                sec_ui_stop_disp
                0x000174b0                sec_ui_show_buf
                0x000177c8                sec_ui_copy_to_buffer
                0x00017a6c                sec_ui_hlos_release
                0x00017ae8                sec_ui_alloc_app_buffer
                0x00017e1c                sec_ui_free_app_buffer
 .text          0x0001827c      0x10c /local/mnt/workspace/CRMBuilds/TZ.BF.4.0.3.c1-00005-M8996AAAAANAZT-1_20170110_230814/b/HK11/trustzone_images/core/securemsm/sse/qsee/SecureUILib/lib/build/sampleapp/scorpion/IADAANAA/secure_ui_lib.lib(SecureUILib.o)
                0x0001827c                secUiProcessCmd
                0x000182fc                secUiCmd
                0x00018344                secUiRegisterTouchCallback
                0x00018354                secUiTouchIsActive
                0x0001836c                secUiSetPanelSize
 .text          0x00018388       0xd8 /local/mnt/workspace/CRMBuilds/TZ.BF.4.0.3.c1-00005-M8996AAAAANAZT-1_20170110_230814/b/HK11/trustzone_images/core/securemsm/sse/qsee/SecureUILib/lib/build/sampleapp/scorpion/IADAANAA/secure_ui_lib.lib(01_startTouch.o)
                0x00018388                processCmdStartTouch
 .text          0x00018460      0x1dc /local/mnt/workspace/CRMBuilds/TZ.BF.4.0.3.c1-00005-M8996AAAAANAZT-1_20170110_230814/b/HK11/trustzone_images/core/securemsm/sse/qsee/SecureUILib/lib/build/sampleapp/scorpion/IADAANAA/secure_ui_lib.lib(02_processTouch.o)
                0x00018460                processCmdProcessTouch
 .text          0x0001863c       0xb8 /local/mnt/workspace/CRMBuilds/TZ.BF.4.0.3.c1-00005-M8996AAAAANAZT-1_20170110_230814/b/HK11/trustzone_images/core/securemsm/sse/qsee/SecureUILib/lib/build/sampleapp/scorpion/IADAANAA/secure_ui_lib.lib(03_stopTouch.o)
                0x0001863c                secUiTouchStop
                0x00018698                processCmdStopTouch
 .text          0x000186f4      0x770 /local/mnt/workspace/CRMBuilds/TZ.BF.4.0.3.c1-00005-M8996AAAAANAZT-1_20170110_230814/b/HK11/trustzone_images/core/securemsm/trustzone/qsapps/libs/applib/common_applib/build/sampleapp/scorpion/IADAANAA/tzapp_entrylib.lib(common_applib.o)
                0x000186f4                qsee_err_fatal
                0x00018714                platform_err_fatal
                0x00018718                platform_get_random
                0x0001871c                __stack_chk_fail
                0x00018720                _sys_command_string
                0x0001872c                get_app_req_resp
                0x00018738                qsee_read_register
                0x00018758                qsee_request_service
                0x000187d8                qsee_prepare_shared_buf_for_nosecure_read
                0x000187f8                qsee_prepare_shared_buf_for_secure_read
                0x00018818                qsee_set_global_flag
                0x00018838                qsee_get_global_flag
                0x00018858                qsee_oem_process_cmd
                0x0001887c                qsee_enforce_hdmi_hdcp_encryption
                0x0001889c                qsee_write_hdcp2p2_key_riv_enable
                0x000188c0                qsee_read_hdcp2p2_min_encryption_level
                0x000188e0                qsee_write_hdcp2p2_min_encryption_level
                0x00018900                qsee_get_hdcp_min_enc_level
                0x00018920                qsee_set_hdcp_min_enc_level
                0x00018940                qsee_write_hdcp1_key
                0x00018960                qsee_set_hdcp_cpi_assert
                0x00018980                qsee_get_secure_state
                0x000189a0                qsee_malloc
                0x000189a8                qsee_realloc
                0x000189dc                qsee_realloc_common
                0x00018a58                qsee_free
                0x00018a88                qsee_cmnlib_malloc
                0x00018abc                qsee_cmnlib_free
                0x00018aec                tzlib_app_entry
                0x00018c24                get_ta_app_name
                0x00018c34                get_app_md
 .text.tz_module_open
                0x00018e64        0xc /local/mnt/workspace/CRMBuilds/TZ.BF.4.0.3.c1-00005-M8996AAAAANAZT-1_20170110_230814/b/HK11/trustzone_images/core/securemsm/trustzone/qsapps/libs/applib/common_applib/build/sampleapp/scorpion/IADAANAA/tzapp_entrylib.lib(common_applib.o)
                0x00018e64                tz_module_open
 .text          0x00018e70      0x580 /local/mnt/workspace/CRMBuilds/TZ.BF.4.0.3.c1-00005-M8996AAAAANAZT-1_20170110_230814/b/HK11/trustzone_images/core/securemsm/trustzone/qsapps/libs/applib/proxy/build/sampleapp/scorpion/IADAANAA/tzlib_proxy.lib(prxy_services.o)
                0x00018e70                qsee_kdf
                0x00018ea4                qsee_log
                0x00018f30                qsee_log_set_mask
                0x00018f54                qsee_log_get_mask
                0x00018f7c                open
                0x00018fbc                read
                0x00018fe8                write
                0x00019014                close
                0x00019038                lstat
                0x0001905c                mkdir
                0x00019080                frename
                0x000190a4                opendir
                0x000190c8                readdir
                0x000190ec                rmdir
                0x00019110                testdir
                0x00019134                file_get_partition_free_size
                0x00019158                fstat
                0x0001917c                lseek
                0x000191a8                time_getsystime
                0x000191cc                time_getutcsec
                0x000191f0                time_is_leap_year
                0x00019214                remove
                0x00019238                unlink
                0x0001925c                link
                0x00019280                telldir
                0x000192a4                fsync
                0x000192c8                openat
                0x00019304                unlinkat
                0x00019330                fcntl
                0x00019370                creat
                0x00019394                file_dir_chown_chmod
                0x000193c8                get_error_number
 .text          0x000193f0      0x2c4 /local/mnt/workspace/CRMBuilds/TZ.BF.4.0.3.c1-00005-M8996AAAAANAZT-1_20170110_230814/b/HK11/trustzone_images/core/securemsm/trustzone/qsapps/libs/applib/proxy/build/sampleapp/scorpion/IADAANAA/tzlib_proxy.lib(prxy_qsee_shim.o)
                0x000193f0                qsee_rsa_key_gen
                0x00019400                qsee_secpkcs8_parse
                0x00019410                qsee_rsa_sign_hash
                0x00019444                qsee_rsa_verify_signature
                0x00019478                qsee_rsa_encrypt
                0x000194a4                qsee_rsa_decrypt
                0x000194d0                qsee_BIGINT_read_unsigned_bin
                0x000194e0                qsee_util_init_s_bigint
                0x000194f0                qsee_util_free_s_bigint
                0x000194f4                qsee_BIGINT_read_radix
                0x00019508                qsee_rsa_exptmod
                0x0001952c                qsee_util_count_bytes
                0x00019530                qsee_SW_ECC_PubPrivate_Key_generate
                0x00019544                qsee_SW_ECDH_Shared_Key_Derive
                0x00019558                qsee_SW_ECDSA_Sign
                0x0001956c                qsee_SW_ECDSA_Verify
                0x00019580                qsee_ECC_hash_to_bigval
                0x00019584                qsee_toggle_random_bit
                0x00019588                qsee_get_random_bytes
                0x0001958c                qsee_in_curveP
                0x0001959c                qsee_SW_GENERIC_ECC_init
                0x000195d4                qsee_SW_GENERIC_ECDSA_sign
                0x000195f4                qsee_SW_GENERIC_ECDSA_verify
                0x00019614                qsee_SW_GENERIC_ECDH_shared_key_derive
                0x00019628                qsee_SW_GENERIC_ECC_keypair_generate
                0x0001963c                qsee_SW_GENERIC_ECC_binary_to_bigval
                0x0001965c                qsee_SW_GENERIC_ECC_bigval_to_binary
                0x0001967c                qsee_SW_GENERIC_ECC_compare
                0x00019690                qsee_SW_GENERIC_ECC_convert_input_to_bigval
                0x000196a4                qsee_SW_Cipher_DES_Init
                0x000196a8                qsee_SW_Cipher_DES_DeInit
                0x000196ac                qsee_SW_CipherDESData
                0x000196b0                qsee_SW_Cipher_DES_SetParam
 .text          0x000196b4      0x198 /local/mnt/workspace/CRMBuilds/TZ.BF.4.0.3.c1-00005-M8996AAAAANAZT-1_20170110_230814/b/HK11/trustzone_images/core/securemsm/trustzone/qsapps/libs/applib/proxy/build/sampleapp/scorpion/IADAANAA/tzlib_proxy.lib(prxy_ufaes.o)
                0x000196b4                qsee_SW_Cipher_Init
                0x000196d8                qsee_SW_Cipher_DeInit
                0x000196fc                qsee_SW_Cipher_Reset
                0x00019720                qsee_SW_CipherData
                0x00019754                qsee_SW_Cipher_SetParam
                0x00019788                qsee_SW_Cipher_GetParam
                0x000197bc                qsee_SW_AE_UpdateData
                0x000197f0                qsee_SW_AE_FinalData
                0x00019824                qsee_SW_AE_UpdateAAD
 .text          0x0001984c       0xb0 /local/mnt/workspace/CRMBuilds/TZ.BF.4.0.3.c1-00005-M8996AAAAANAZT-1_20170110_230814/b/HK11/trustzone_images/core/securemsm/trustzone/qsapps/libs/applib/proxy/build/sampleapp/scorpion/IADAANAA/tzlib_proxy.lib(prxy_ufdes.o)
                0x0001984c                SW_Cipher_DES_Init
                0x00019870                SW_Cipher_DES_DeInit
                0x00019894                SW_CipherDESData
                0x000198c8                SW_Cipher_DES_SetParam
 .text          0x000198fc       0xc8 /local/mnt/workspace/CRMBuilds/TZ.BF.4.0.3.c1-00005-M8996AAAAANAZT-1_20170110_230814/b/HK11/trustzone_images/core/securemsm/trustzone/qsapps/libs/applib/proxy/build/sampleapp/scorpion/IADAANAA/tzlib_proxy.lib(prxy_ufsha.o)
                0x000198fc                qsee_SW_Hash_Init
                0x00019920                qsee_SW_Hash_Update
                0x00019948                qsee_SW_Hash_Final
                0x0001996c                qsee_SW_Hmac
                0x000199a0                qsee_SW_Hash_Reset
 .text          0x000199c4       0x50 /local/mnt/workspace/CRMBuilds/TZ.BF.4.0.3.c1-00005-M8996AAAAANAZT-1_20170110_230814/b/HK11/trustzone_images/core/securemsm/trustzone/qsapps/libs/applib/proxy/build/sampleapp/scorpion/IADAANAA/tzlib_proxy.lib(prxy_secmath.o)
                0x000199c4                secmath_BIGINT_read_unsigned_bin
                0x000199ec                secmath_BIGINT_read_radix
 .text          0x00019a14      0x1c8 /local/mnt/workspace/CRMBuilds/TZ.BF.4.0.3.c1-00005-M8996AAAAANAZT-1_20170110_230814/b/HK11/trustzone_images/core/securemsm/trustzone/qsapps/libs/applib/proxy/build/sampleapp/scorpion/IADAANAA/tzlib_proxy.lib(prxy_secrsa.o)
                0x00019a14                secpkcs8_parse
                0x00019a3c                ce_rsa_key_gen
                0x00019a70                ce_rsa_encrypt
                0x00019aa4                ce_rsa_decrypt
                0x00019ad8                ce_rsa_sign_hash
                0x00019b0c                ce_rsa_verify_signature
                0x00019b40                ce_util_init_s_bigint
                0x00019b64                ce_util_free_s_bigint
                0x00019b84                ce_util_count_bytes
                0x00019ba8                ce_rsa_exptmod
 .text          0x00019bdc      0x2ec /local/mnt/workspace/CRMBuilds/TZ.BF.4.0.3.c1-00005-M8996AAAAANAZT-1_20170110_230814/b/HK11/trustzone_images/core/securemsm/trustzone/qsapps/libs/applib/proxy/build/sampleapp/scorpion/IADAANAA/tzlib_proxy.lib(prxy_ecc.o)
                0x00019bdc                SW_ECC_PubPrivate_Key_generate
                0x00019c00                SW_ECDH_Shared_Key_Derive
                0x00019c28                SW_ECDSA_Sign
                0x00019c50                SW_ECDSA_Verify
                0x00019c78                ECC_hash_to_bigval
                0x00019ca0                toggle_random_bit
                0x00019cc4                in_curveP
                0x00019ce8                get_random_bytes
                0x00019d0c                SW_GENERIC_ECC_init
                0x00019d40                SW_GENERIC_ECDSA_sign
                0x00019d74                SW_GENERIC_ECDSA_verify
                0x00019da8                SW_GENERIC_ECDH_shared_key_derive
                0x00019ddc                SW_GENERIC_ECC_keypair_generate
                0x00019e04                SW_GENERIC_ECC_binary_to_bigval
                0x00019e38                SW_GENERIC_ECC_bigval_to_binary
                0x00019e6c                SW_GENERIC_ECC_compare
                0x00019e94                SW_GENERIC_ECC_convert_input_to_bigval
 .text          0x00019ec8      0x2a0 /local/mnt/workspace/CRMBuilds/TZ.BF.4.0.3.c1-00005-M8996AAAAANAZT-1_20170110_230814/b/HK11/trustzone_images/core/securemsm/trustzone/qsapps/libs/applib/qsee/build/sampleapp/scorpion/IADAANAA/tzapp_entrylib.lib(mink_shared_code.o)
                0x00019ec8                UThread_syscall
                0x00019ee8                minkIPC
                0x0001a014                minkServerLoop
                0x0001a128                minkServerEntry
 .text          0x0001a168      0x230 /local/mnt/workspace/CRMBuilds/TZ.BF.4.0.3.c1-00005-M8996AAAAANAZT-1_20170110_230814/b/HK11/trustzone_images/core/securemsm/trustzone/qsapps/libs/applib/qsee/build/sampleapp/scorpion/IADAANAA/tzapp_entrylib.lib(qsee_env.o)
                0x0001a168                qsee_set_env
                0x0001a184                qsee_open
                0x0001a1ec                qsee_open_singleton
                0x0001a2ec                qsee_printf_ap
                0x0001a354                qsee_printf
 .text          0x0001a398      0x204 /local/mnt/workspace/CRMBuilds/TZ.BF.4.0.3.c1-00005-M8996AAAAANAZT-1_20170110_230814/b/HK11/trustzone_images/core/securemsm/trustzone/qsapps/libs/applib/qsee/build/sampleapp/scorpion/IADAANAA/tzapp_entrylib.lib(qsee_core_shim.o)
                0x0001a398                qsee_exec_protect_memory
                0x0001a3bc                qsee_is_sw_fuse_blown
                0x0001a3dc                qsee_blow_sw_fuse
                0x0001a3fc                qsee_ks_decrypt
                0x0001a44c                qsee_ks_get_key
                0x0001a4b4                qsee_ks_delete_key
                0x0001a4d4                qsee_ce_pipe_key_select
                0x0001a4f8                qsee_ce_disable_sequence
                0x0001a518                qsee_ice_set_context_config
                0x0001a53c                qsee_hdmi_status_read
                0x0001a55c                qsee_get_tz_app_id
                0x0001a57c                qsee_blsp_modify_ownership
 .text          0x0001a59c      0x100 /local/mnt/workspace/CRMBuilds/TZ.BF.4.0.3.c1-00005-M8996AAAAANAZT-1_20170110_230814/b/HK11/trustzone_images/core/securemsm/trustzone/qsapps/libs/applib/qsee/build/sampleapp/scorpion/IADAANAA/tzapp_entrylib.lib(qsee_deviceid.o)
                0x0001a59c                qsee_read_jtag_id
                0x0001a5f0                qsee_read_serial_num
                0x0001a644                qsee_get_device_uuid
 .text          0x0001a69c       0x54 /local/mnt/workspace/CRMBuilds/TZ.BF.4.0.3.c1-00005-M8996AAAAANAZT-1_20170110_230814/b/HK11/trustzone_images/core/securemsm/trustzone/qsapps/libs/applib/qsee/build/sampleapp/scorpion/IADAANAA/tzapp_entrylib.lib(qsee_prng.o)
                0x0001a69c                qsee_prng_getdata
 .text          0x0001a6f0       0xb8 /local/mnt/workspace/CRMBuilds/TZ.BF.4.0.3.c1-00005-M8996AAAAANAZT-1_20170110_230814/b/HK11/trustzone_images/core/securemsm/trustzone/qsapps/libs/applib/qsee/build/sampleapp/scorpion/IADAANAA/tzapp_entrylib.lib(qsee_secdisp.o)
                0x0001a6f0                qsee_sd_get_session
                0x0001a74c                qsee_sd_set_stop_allowed
 .text          0x0001a7a8      0x1ec /local/mnt/workspace/CRMBuilds/TZ.BF.4.0.3.c1-00005-M8996AAAAANAZT-1_20170110_230814/b/HK11/trustzone_images/core/securemsm/trustzone/qsapps/libs/applib/qsee/build/sampleapp/scorpion/IADAANAA/tzapp_entrylib.lib(qsee_nsmem.o)
                0x0001a7a8                qsee_is_s_tag_area
                0x0001a840                qsee_is_ns_range
                0x0001a8ac                qsee_vm_mem_count
                0x0001a924                qsee_tag_mem
 .text          0x0001a994       0x94 /local/mnt/workspace/CRMBuilds/TZ.BF.4.0.3.c1-00005-M8996AAAAANAZT-1_20170110_230814/b/HK11/trustzone_images/core/securemsm/trustzone/qsapps/libs/applib/qsee/build/sampleapp/scorpion/IADAANAA/tzapp_entrylib.lib(qsee_cmac.o)
                0x0001a994                qsee_cmac
 .text          0x0001aa28       0x4c /local/mnt/workspace/CRMBuilds/TZ.BF.4.0.3.c1-00005-M8996AAAAANAZT-1_20170110_230814/b/HK11/trustzone_images/core/securemsm/trustzone/qsapps/libs/applib/qsee/build/sampleapp/scorpion/IADAANAA/tzapp_entrylib.lib(qsee_crypto_shim.o)
                0x0001aa28                qsee_crypto_lock_engine
                0x0001aa50                qsee_set_bandwidth
 .text          0x0001aa74       0x64 /local/mnt/workspace/CRMBuilds/TZ.BF.4.0.3.c1-00005-M8996AAAAANAZT-1_20170110_230814/b/HK11/trustzone_images/core/securemsm/trustzone/qsapps/libs/applib/qsee/build/sampleapp/scorpion/IADAANAA/tzapp_entrylib.lib(qsee_timer_shim.o)
                0x0001aa74                qsee_get_uptime
                0x0001aa98                qsee_wdog_stop
                0x0001aab8                qsee_wdog_pet
 .text          0x0001aad8      0x292 /local/mnt/workspace/CRMBuilds/TZ.BF.4.0.3.c1-00005-M8996AAAAANAZT-1_20170110_230814/b/HK11/trustzone_images/core/securemsm/trustzone/qsapps/libs/applib/qsee/build/sampleapp/scorpion/IADAANAA/tzapp_entrylib.lib(qsee_comstr.o)
                0x0001aad8                cmp_char_i
                0x0001aafc                qsee_strnicmp
                0x0001ab2c                qsee_strlcpy
                0x0001ab60                qsee_strlcat
                0x0001abc4                qsee_wstrlen
                0x0001abe0                qsee_wstrlcpy
                0x0001ac24                qsee_wstrlcat
                0x0001ac58                qsee_strtowstr
                0x0001acc8                qsee_wstrtostr
                0x0001ad10                qsee_wstrchr
                0x0001ad40                qsee_wstrcmp
 *fill*         0x0001ad6a        0x2 
 .text          0x0001ad6c      0x192 /local/mnt/workspace/CRMBuilds/TZ.BF.4.0.3.c1-00005-M8996AAAAANAZT-1_20170110_230814/b/HK11/trustzone_images/core/securemsm/trustzone/qsapps/libs/applib/qsee/build/sampleapp/scorpion/IADAANAA/tzapp_entrylib.lib(stor.o)
                0x0001ad6c                check_rpmb_handle
                0x0001ad98                qsee_stor_device_init
                0x0001adb4                qsee_stor_open_partition
                0x0001addc                qsee_stor_device_get_info
                0x0001ae00                qsee_stor_client_get_info
                0x0001ae28                qsee_stor_add_partition
                0x0001ae48                qsee_stor_read_sectors
                0x0001ae80                qsee_stor_write_sectors
                0x0001aeb8                qsee_stor_read_wp_config
                0x0001aec8                qsee_stor_write_wp_config
                0x0001aed8                qsee_stor_remove_client
 *fill*         0x0001aefe        0x2 
 .text          0x0001af00     0x159c /local/mnt/workspace/CRMBuilds/TZ.BF.4.0.3.c1-00005-M8996AAAAANAZT-1_20170110_230814/b/HK11/trustzone_images/core/securemsm/trustzone/qsapps/libs/applib/qsee/build/sampleapp/scorpion/IADAANAA/tzapp_entrylib.lib(stor_gpt.o)
                0x0001af00                add_gpt_device_handle
                0x0001b04c                add_gpt_client
                0x0001b150                gpt_dev_init
                0x0001b33c                gpt_qsee_read_sectors
                0x0001b5a8                gpt_qsee_write_sectors
                0x0001b80c                gpt_add_partitions
                0x0001bb7c                gpt_config_partitions
                0x0001bcec                gpt_init
                0x0001bf68                gpt_open_partition
                0x0001c050                gpt_device_get_info
                0x0001c158                gpt_client_get_info
                0x0001c268                gpt_add_partition
                0x0001c2c8                gpt_read_sectors
                0x0001c3a8                gpt_write_sectors
 .text          0x0001c49c      0x1da /local/mnt/workspace/CRMBuilds/TZ.BF.4.0.3.c1-00005-M8996AAAAANAZT-1_20170110_230814/b/HK11/trustzone_images/core/securemsm/trustzone/qsapps/libs/applib/qsee/build/sampleapp/scorpion/IADAANAA/tzapp_entrylib.lib(stor_rpmbw.o)
                0x0001c49c                rpmbw_init
                0x0001c4c8                rpmbw_open_partition
                0x0001c4f8                rpmbw_device_get_info
                0x0001c528                rpmbw_client_get_info
                0x0001c558                rpmbw_add_partition
                0x0001c584                rpmbw_read_sectors
                0x0001c5bc                rpmbw_write_sectors
                0x0001c5f4                rpmbw_read_wp_config
                0x0001c620                rpmbw_write_wp_config
                0x0001c64c                rpmbw_remove_client
 *fill*         0x0001c676        0x2 
 .text          0x0001c678       0xe8 /local/mnt/workspace/CRMBuilds/TZ.BF.4.0.3.c1-00005-M8996AAAAANAZT-1_20170110_230814/b/HK11/trustzone_images/core/securemsm/trustzone/qsapps/libs/applib/qsee/build/sampleapp/scorpion/IADAANAA/tzapp_entrylib.lib(qsee_counter_shim.o)
                0x0001c678                qsee_counter_set_folder
                0x0001c6a0                qsee_create_counter
                0x0001c6c0                qsee_query_counter
                0x0001c6e0                qsee_increment_counter
                0x0001c700                qsee_delete_counter
                0x0001c720                qsee_query_rpmb_version
                0x0001c740                qsee_query_rpmb_enablement
 .text          0x0001c760      0x48c /local/mnt/workspace/CRMBuilds/TZ.BF.4.0.3.c1-00005-M8996AAAAANAZT-1_20170110_230814/b/HK11/trustzone_images/core/securemsm/trustzone/qsapps/libs/applib/qsee/build/sampleapp/scorpion/IADAANAA/tzapp_entrylib.lib(qsee_cipher.o)
                0x0001c760                qsee_cipher_init
                0x0001c7c4                qsee_cipher_free_ctx
                0x0001c7f0                qsee_cipher_set_param
                0x0001c930                qsee_cipher_get_param
                0x0001ca60                qsee_cipher_encrypt
                0x0001cb00                qsee_cipher_decrypt
                0x0001cba0                qsee_cipher_reset
 .text          0x0001cbec      0x54c /local/mnt/workspace/CRMBuilds/TZ.BF.4.0.3.c1-00005-M8996AAAAANAZT-1_20170110_230814/b/HK11/trustzone_images/core/securemsm/trustzone/qsapps/libs/applib/qsee/build/sampleapp/scorpion/IADAANAA/tzapp_entrylib.lib(qsee_hash.o)
                0x0001cbec                qsee_hash_init
                0x0001cc4c                qsee_hash_free_ctx
                0x0001cc78                qsee_hash_update
                0x0001ccec                qsee_hash_final
                0x0001cd60                qsee_hash_set_param
                0x0001ce70                qsee_hash
                0x0001cee4                qsee_hashcipher_encrypt
                0x0001cfe8                qsee_hashcipher_decrypt
                0x0001d0ec                qsee_hash_reset
 .text          0x0001d138      0x274 /local/mnt/workspace/CRMBuilds/TZ.BF.4.0.3.c1-00005-M8996AAAAANAZT-1_20170110_230814/b/HK11/trustzone_images/core/securemsm/trustzone/qsapps/libs/applib/qsee/build/sampleapp/scorpion/IADAANAA/tzapp_entrylib.lib(qsee_hmac.o)
                0x0001d138                qsee_hmac_init
                0x0001d1a8                qsee_hmac_free_ctx
                0x0001d1d4                qsee_hmac_update
                0x0001d248                qsee_hmac_final
                0x0001d2bc                qsee_hmac_set_param
                0x0001d344                qsee_hmac
 .text          0x0001d3ac      0x31c /local/mnt/workspace/CRMBuilds/TZ.BF.4.0.3.c1-00005-M8996AAAAANAZT-1_20170110_230814/b/HK11/trustzone_images/core/securemsm/trustzone/qsapps/libs/applib/qsee/build/sampleapp/scorpion/IADAANAA/tzapp_entrylib.lib(qsee_i2c.o)
                0x0001d3ac                qsee_i2c_open
                0x0001d448                qsee_i2c_close
                0x0001d4d4                qsee_i2c_read
                0x0001d618                qsee_i2c_write
 .text          0x0001d6c8      0x3a8 /local/mnt/workspace/CRMBuilds/TZ.BF.4.0.3.c1-00005-M8996AAAAANAZT-1_20170110_230814/b/HK11/trustzone_images/core/securemsm/trustzone/qsapps/libs/applib/qsee/build/sampleapp/scorpion/IADAANAA/tzapp_entrylib.lib(qsee_spi.o)
                0x0001d6c8                qsee_spi_open
                0x0001d724                qsee_spi_close
                0x0001d780                qsee_spi_read
                0x0001d8b4                qsee_spi_write
                0x0001d95c                qsee_spi_full_duplex
 .text          0x0001da70       0x8c /local/mnt/workspace/CRMBuilds/TZ.BF.4.0.3.c1-00005-M8996AAAAANAZT-1_20170110_230814/b/HK11/trustzone_images/core/securemsm/trustzone/qsapps/libs/applib/qsee/build/sampleapp/scorpion/IADAANAA/tzapp_entrylib.lib(qsee_bulletin_board_shim.o)
                0x0001da70                qsee_bulletin_board_post
                0x0001daac                qsee_bulletin_board_read
 .text          0x0001dafc      0x30c /local/mnt/workspace/CRMBuilds/TZ.BF.4.0.3.c1-00005-M8996AAAAANAZT-1_20170110_230814/b/HK11/trustzone_images/core/securemsm/trustzone/qsapps/libs/applib/qsee/build/sampleapp/scorpion/IADAANAA/tzapp_entrylib.lib(qsee_tlmm.o)
                0x0001dafc                qsee_tlmm_get_gpio_id
                0x0001db84                qsee_tlmm_release_gpio_id
                0x0001dbdc                qsee_tlmm_config_gpio_id
                0x0001dca0                qsee_tlmm_gpio_id_out
                0x0001dd20                qsee_tlmm_gpio_id_in
                0x0001dd98                qsee_tlmm_select_gpio_id_mode
 .text          0x0001de08       0x5c /local/mnt/workspace/CRMBuilds/TZ.BF.4.0.3.c1-00005-M8996AAAAANAZT-1_20170110_230814/b/HK11/trustzone_images/core/securemsm/trustzone/qsapps/libs/applib/qsee/build/sampleapp/scorpion/IADAANAA/tzapp_entrylib.lib(qsee_sync.o)
                0x0001de08                qsee_spin
 .text          0x0001de64      0x120 /local/mnt/workspace/CRMBuilds/TZ.BF.4.0.3.c1-00005-M8996AAAAANAZT-1_20170110_230814/b/HK11/trustzone_images/core/securemsm/trustzone/qsapps/libs/applib/qsee/build/sampleapp/scorpion/IADAANAA/tzapp_entrylib.lib(qsee_dcache.o)
                0x0001de64                qsee_dcache_clean_region
                0x0001dec4                qsee_dcache_flush_region
                0x0001df24                qsee_dcache_inval_region
 .text          0x0001df84      0x104 /local/mnt/workspace/CRMBuilds/TZ.BF.4.0.3.c1-00005-M8996AAAAANAZT-1_20170110_230814/b/HK11/trustzone_images/core/securemsm/trustzone/qsapps/libs/applib/qsee/build/sampleapp/scorpion/IADAANAA/tzapp_entrylib.lib(qsee_shared_buffer.o)
                0x0001df84                qsee_register_shared_buffer
                0x0001e010                qsee_deregister_shared_buffer
 .text          0x0001e088      0x15c /local/mnt/workspace/CRMBuilds/TZ.BF.4.0.3.c1-00005-M8996AAAAANAZT-1_20170110_230814/b/HK11/trustzone_images/core/securemsm/trustzone/qsapps/libs/applib/qsee/build/sampleapp/scorpion/IADAANAA/tzapp_entrylib.lib(qsee_oem_buffer.o)
                0x0001e088                qsee_get_oem_buffer_length
                0x0001e104                qsee_read_oem_buffer
                0x0001e174                qsee_write_oem_buffer
 .text          0x0001e1e4      0x14c /local/mnt/workspace/CRMBuilds/TZ.BF.4.0.3.c1-00005-M8996AAAAANAZT-1_20170110_230814/b/HK11/trustzone_images/core/securemsm/trustzone/qsapps/libs/applib/qsee/build/sampleapp/scorpion/IADAANAA/tzapp_entrylib.lib(qsee_intmask.o)
                0x0001e1e4                qsee_disable_all_interrupts
                0x0001e250                qsee_set_intmask
                0x0001e2c4                qsee_get_intmask
 .text          0x0001e330       0xa8 /local/mnt/workspace/CRMBuilds/TZ.BF.4.0.3.c1-00005-M8996AAAAANAZT-1_20170110_230814/b/HK11/trustzone_images/core/securemsm/trustzone/qsapps/libs/applib/qsee/build/sampleapp/scorpion/IADAANAA/tzapp_entrylib.lib(qsee_trans_ns_addr.o)
                0x0001e330                qsee_trans_ns_addr
 .text          0x0001e3d8      0x198 /local/mnt/workspace/CRMBuilds/TZ.BF.4.0.3.c1-00005-M8996AAAAANAZT-1_20170110_230814/b/HK11/trustzone_images/core/securemsm/trustzone/qsapps/libs/applib/qsee/build/sampleapp/scorpion/IADAANAA/tzapp_entrylib.lib(qsee_appmessage.o)
                0x0001e3d8                qsee_encapsulate_inter_app_message
                0x0001e4b8                qsee_decapsulate_inter_app_message
 .text          0x0001e570      0x7bc /local/mnt/workspace/CRMBuilds/TZ.BF.4.0.3.c1-00005-M8996AAAAANAZT-1_20170110_230814/b/HK11/trustzone_images/core/securemsm/trustzone/qsapps/libs/applib/qsee/build/sampleapp/scorpion/IADAANAA/tzapp_entrylib.lib(sfs_api.o)
                0x0001e570                qsee_sfs_open
                0x0001e748                qsee_sfs_close
                0x0001e74c                qsee_sfs_read
                0x0001e7e4                qsee_sfs_write
                0x0001e854                qsee_sfs_seek
                0x0001e948                qsee_sfs_getSize
                0x0001e9f0                qsee_sfs_mkdir
                0x0001e9f4                qsee_sfs_rmdir
                0x0001e9f8                qsee_sfs_rm
                0x0001ea84                qsee_sfs_error
                0x0001ea90                qsee_sfs_get_file_list
                0x0001ecb0                qsee_sfs_clean_file_list
                0x0001ecec                qsee_sfs_is_anti_rollback_enabled
 .text          0x0001ed2c       0xdc /local/mnt/workspace/CRMBuilds/TZ.BF.4.0.3.c1-00005-M8996AAAAANAZT-1_20170110_230814/b/HK11/trustzone_images/core/securemsm/trustzone/qsapps/libs/applib/qsee/build/sampleapp/scorpion/IADAANAA/tzapp_entrylib.lib(tzapp_lib_main.o)
                0x0001ed2c                get_app_stack_base
                0x0001ed38                get_app_stack_size
                0x0001ed50                get_app_heap_base
                0x0001ed5c                get_app_heap_size
                0x0001ed74                CApp_handleRequest
                0x0001ed90                CApp_invoke
                0x0001edf0                secure_app_init
                0x0001edfc                secure_app_shutdown
 kthread_shared
                0x0001ee08       0x2c /local/mnt/workspace/CRMBuilds/TZ.BF.4.0.3.c1-00005-M8996AAAAANAZT-1_20170110_230814/b/HK11/trustzone_images/core/securemsm/trustzone/qsapps/libs/applib/qsee/build/sampleapp/scorpion/IADAANAA/tzapp_entrylib.lib(kthread_shared.o)
                0x0001ee08                mink_generic_syscall
 .text          0x0001ee34      0x3fc /local/mnt/workspace/CRMBuilds/TZ.BF.4.0.3.c1-00005-M8996AAAAANAZT-1_20170110_230814/b/HK11/trustzone_images/core/securemsm/trustzone/qsapps/libs/biometric/build/sampleapp/scorpion/IADAANAA/biometric_lib.lib(biometric.o)
                0x0001ee34                bio_set_auth_result
                0x0001efb4                bio_get_auth_result
                0x0001f120                bio_wait_for_hlos_event
 .text          0x0001f230      0x680 /local/mnt/workspace/CRMBuilds/TZ.BF.4.0.3.c1-00005-M8996AAAAANAZT-1_20170110_230814/b/HK11/trustzone_images/core/securemsm/trustzone/qsapps/libs/biometric/build/sampleapp/scorpion/IADAANAA/biometric_lib.lib(biometric_serializer.o)
                0x0001f230                bio_serialize_auth_result
                0x0001f46c                bio_deserialize_auth_result
                0x0001f73c                bio_serialize_file_poll_event_data
                0x0001f86c                bio_parse_listener_response
 .text          0x0001f8b0       0x16 /local/mnt/workspace/CRMBuilds/TZ.BF.4.0.3.c1-00005-M8996AAAAANAZT-1_20170110_230814/b/HK11/trustzone_images/core/securemsm/trustzone/qsee/mink/libstd/build/sampleapp/scorpion/IADAANAA/libstd.lib(strnlen.o)
                0x0001f8b0                strnlen
 *fill*         0x0001f8c6        0x2 
 .text          0x0001f8c8       0x22 /local/mnt/workspace/CRMBuilds/TZ.BF.4.0.3.c1-00005-M8996AAAAANAZT-1_20170110_230814/b/HK11/trustzone_images/core/securemsm/trustzone/qsee/mink/libstd/build/sampleapp/scorpion/IADAANAA/libstd.lib(memcmp.o)
                0x0001f8c8                memcmp
 *fill*         0x0001f8ea        0x2 
 .text          0x0001f8ec       0x44 /local/mnt/workspace/CRMBuilds/TZ.BF.4.0.3.c1-00005-M8996AAAAANAZT-1_20170110_230814/b/HK11/trustzone_images/core/securemsm/trustzone/qsee/mink/libstd/build/sampleapp/scorpion/IADAANAA/libstd.lib(strlen.o)
                0x0001f8ec                strlen
 .text          0x0001f930       0x2e /local/mnt/workspace/CRMBuilds/TZ.BF.4.0.3.c1-00005-M8996AAAAANAZT-1_20170110_230814/b/HK11/trustzone_images/core/securemsm/trustzone/qsee/mink/libstd/build/sampleapp/scorpion/IADAANAA/libstd.lib(strcmp.o)
                0x0001f930                strcmp
 *fill*         0x0001f95e        0x2 
 .text          0x0001f960       0x46 /local/mnt/workspace/CRMBuilds/TZ.BF.4.0.3.c1-00005-M8996AAAAANAZT-1_20170110_230814/b/HK11/trustzone_images/core/securemsm/trustzone/qsee/mink/libstd/build/sampleapp/scorpion/IADAANAA/libstd.lib(strncmp.o)
                0x0001f960                strncmp
 *fill*         0x0001f9a6        0x2 
 .text          0x0001f9a8      0xc40 /local/mnt/workspace/CRMBuilds/TZ.BF.4.0.3.c1-00005-M8996AAAAANAZT-1_20170110_230814/b/HK11/trustzone_images/core/securemsm/trustzone/qsee/mink/libstd/build/sampleapp/scorpion/IADAANAA/libstd.lib(printf.o)
                0x0001f9a8                __towrite
                0x0001f9e4                __fwritex
                0x0001fa88                vfprintf
                0x00020378                vsnprintf
                0x00020444                snprintf
 .text          0x000205e8       0xa8 /local/mnt/workspace/CRMBuilds/TZ.BF.4.0.3.c1-00005-M8996AAAAANAZT-1_20170110_230814/b/HK11/trustzone_images/core/securemsm/trustzone/qsee/mink/libstd/build/sampleapp/scorpion/IADAANAA/libstd.lib(memchr.o)
                0x000205e8                memchr
 .text          0x00020690       0xa0 /afs/localcell/cm/gv2.6/sysname/pkg.@sys/qct/software/llvm/release/arm/3.5.2.4/lib/clang/3.5.2/lib/linux/libclang_rt.builtins-arm.a(aeabi_dcmp.S.o)
                0x00020690                __aeabi_dcmpeq
                0x000206b0                __aeabi_dcmplt
                0x000206d0                __aeabi_dcmple
                0x000206f0                __aeabi_dcmpge
                0x00020710                __aeabi_dcmpgt
 .text          0x00020730        0x4 /afs/localcell/cm/gv2.6/sysname/pkg.@sys/qct/software/llvm/release/arm/3.5.2.4/lib/clang/3.5.2/lib/linux/libclang_rt.builtins-arm.a(aeabi_memcpy.S.o)
                0x00020730                __aeabi_memcpy
                0x00020730                __aeabi_memcpy4
                0x00020730                __aeabi_memcpy8
 .text          0x00020734        0x4 /afs/localcell/cm/gv2.6/sysname/pkg.@sys/qct/software/llvm/release/arm/3.5.2.4/lib/clang/3.5.2/lib/linux/libclang_rt.builtins-arm.a(aeabi_memmove.S.o)
                0x00020734                __aeabi_memmove8
                0x00020734                __aeabi_memmove
                0x00020734                __aeabi_memmove4
 .text          0x00020738       0x1c /afs/localcell/cm/gv2.6/sysname/pkg.@sys/qct/software/llvm/release/arm/3.5.2.4/lib/clang/3.5.2/lib/linux/libclang_rt.builtins-arm.a(aeabi_memset.S.o)
                0x00020738                __aeabi_memset
                0x00020738                __aeabi_memset8
                0x00020738                __aeabi_memset4
                0x00020748                __aeabi_memclr8
                0x00020748                __aeabi_memclr
                0x00020748                __aeabi_memclr4
 .text          0x00020754       0x24 /afs/localcell/cm/gv2.6/sysname/pkg.@sys/qct/software/llvm/release/arm/3.5.2.4/lib/clang/3.5.2/lib/linux/libclang_rt.builtins-arm.a(aeabi_uldivmod.S.o)
                0x00020754                __aeabi_uldivmod
 .text          0x00020778      0x4be /afs/localcell/cm/gv2.6/sysname/pkg.@sys/qct/software/llvm/release/arm/3.5.2.4/lib/clang/3.5.2/lib/linux/libclang_rt.builtins-arm.a(comparedf2.c.o)
                0x00020778                __ledf2
                0x00020838                __gedf2
                0x000208f8                __aeabi_dcmpun
                0x000208f8                __unorddf2
                0x00020938                __eqdf2
                0x000209f8                __ltdf2
                0x00020ab8                __nedf2
                0x00020b78                __gtdf2
 *fill*         0x00020c36        0x2 
 .text          0x00020c38      0x190 /afs/localcell/cm/gv2.6/sysname/pkg.@sys/qct/software/llvm/release/arm/3.5.2.4/lib/clang/3.5.2/lib/linux/libclang_rt.builtins-arm.a(divsf3.c.o)
                0x00020c38                __divsf3
                0x00020c38                __aeabi_fdiv
 .text          0x00020dc8       0x7c /afs/localcell/cm/gv2.6/sysname/pkg.@sys/qct/software/llvm/release/arm/3.5.2.4/lib/clang/3.5.2/lib/linux/libclang_rt.builtins-arm.a(extendsfdf2.c.o)
                0x00020dc8                __extendsfdf2
                0x00020dc8                __aeabi_f2d
 .text          0x00020e44       0x5e /afs/localcell/cm/gv2.6/sysname/pkg.@sys/qct/software/llvm/release/arm/3.5.2.4/lib/clang/3.5.2/lib/linux/libclang_rt.builtins-arm.a(fixdfsi.c.o)
                0x00020e44                __fixdfsi
                0x00020e44                __aeabi_d2iz
 *fill*         0x00020ea2        0x2 
 .text          0x00020ea4       0xe4 /afs/localcell/cm/gv2.6/sysname/pkg.@sys/qct/software/llvm/release/arm/3.5.2.4/lib/clang/3.5.2/lib/linux/libclang_rt.builtins-arm.a(floatundisf.c.o)
                0x00020ea4                __floatundisf
                0x00020ea4                __aeabi_ul2f
 .text          0x00020f88       0x68 /afs/localcell/cm/gv2.6/sysname/pkg.@sys/qct/software/llvm/release/arm/3.5.2.4/lib/clang/3.5.2/lib/linux/libclang_rt.builtins-arm.a(floatunsisf.c.o)
                0x00020f88                __aeabi_ui2f
                0x00020f88                __floatunsisf
 .text          0x00020ff0      0x168 /afs/localcell/cm/gv2.6/sysname/pkg.@sys/qct/software/llvm/release/arm/3.5.2.4/lib/clang/3.5.2/lib/linux/libclang_rt.builtins-arm.a(mulsf3.c.o)
                0x00020ff0                __mulsf3
                0x00020ff0                __aeabi_fmul
 .text          0x00021158      0x416 /afs/localcell/cm/gv2.6/sysname/pkg.@sys/qct/software/llvm/release/arm/3.5.2.4/lib/clang/3.5.2/lib/linux/libclang_rt.builtins-arm.a(udivmoddi4.c.o)
                0x00021158                __udivmoddi4
 *fill*         0x0002156e        0x2 
 .text          0x00021570      0x154 /afs/localcell/cm/gv2.6/sysname/pkg.@sys/qct/software/llvm/release/arm/3.5.2.4/lib/clang/3.5.2/lib/linux/libclang_rt.builtins-arm.a(udivsi3.c.o)
                0x00021570                __udivsi3
                0x00021570                __aeabi_uidiv
 .text          0x000216c4       0x18 /afs/localcell/cm/gv2.6/sysname/pkg.@sys/qct/software/llvm/release/arm/3.5.2.4/lib/clang/3.5.2/lib/linux/libclang_rt.builtins-arm.a(umoddi3.c.o)
                0x000216c4                __umoddi3
 .text          0x000216dc       0x10 /afs/localcell/cm/gv2.6/sysname/pkg.@sys/qct/software/llvm/release/arm/3.5.2.4/lib/clang/3.5.2/lib/linux/libclang_rt.builtins-arm.a(umodsi3.c.o)
                0x000216dc                __umodsi3
 .text          0x000216ec       0xd4 /local/mnt/workspace/CRMBuilds/TZ.BF.4.0.3.c1-00005-M8996AAAAANAZT-1_20170110_230814/b/HK11/trustzone_images/core/securemsm/sse/qsee/SecureTouch/drTs/lib/build/sampleapp/scorpion/IADAANAA/touch_lib.lib(01_open.o)
                0x000216ec                touchOpen
 .text          0x000217c0       0xa0 /local/mnt/workspace/CRMBuilds/TZ.BF.4.0.3.c1-00005-M8996AAAAANAZT-1_20170110_230814/b/HK11/trustzone_images/core/securemsm/sse/qsee/SecureTouch/drTs/lib/build/sampleapp/scorpion/IADAANAA/touch_lib.lib(02_close.o)
                0x000217c0                touchClose
 .text          0x00021860      0x110 /local/mnt/workspace/CRMBuilds/TZ.BF.4.0.3.c1-00005-M8996AAAAANAZT-1_20170110_230814/b/HK11/trustzone_images/core/securemsm/sse/qsee/SecureTouch/drTs/lib/build/sampleapp/scorpion/IADAANAA/touch_lib.lib(03_getData.o)
                0x00021860                touchGetData
                0x000218f8                drNotifyEvent
 .text          0x00021970      0x5e4 /local/mnt/workspace/CRMBuilds/TZ.BF.4.0.3.c1-00005-M8996AAAAANAZT-1_20170110_230814/b/HK11/trustzone_images/core/securemsm/trustzone/qsapps/libs/applib/common_applib/build/sampleapp/scorpion/IADAANAA/tzapp_entrylib.lib(gpPersistObjCommon.o)
                0x00021970                gpCommon_Copy_Attributes
                0x00021acc                gpCommon_Init_Handles
                0x00021bac                gpCommon_Init_App_Info
                0x00021c08                gpCommon_Clean_Attributes
                0x00021c50                gpCommon_Clean_Object_Handle
                0x00021c90                gpCommon_Get_Object_Info
                0x00021cec                gpCommon_Close_Object
                0x00021d98                gpCommon_Get_File_Path
 .text          0x00021f54      0xef4 /local/mnt/workspace/CRMBuilds/TZ.BF.4.0.3.c1-00005-M8996AAAAANAZT-1_20170110_230814/b/HK11/trustzone_images/core/securemsm/trustzone/qsapps/libs/applib/common_applib/build/sampleapp/scorpion/IADAANAA/tzapp_entrylib.lib(gpPersistentObjects.o)
                0x00021f54                TEE_OpenPersistentObject
                0x00022150                TEE_CreatePersistentObject
                0x000223bc                TEE_CloseAndDeletePersistentObject1
                0x000224b4                TEE_CloseAndDeletePersistentObject
                0x000224b8                TEE_ReadObjectData
                0x000225cc                TEE_WriteObjectData
                0x00022750                TEE_TruncateObjectData
                0x00022898                TEE_SeekObjectData
                0x00022974                TEE_RenamePersistentObject
                0x00022a7c                TEE_AllocatePersistentObjectEnumerator
                0x00022b78                TEE_FreePersistentObjectEnumerator
                0x00022bf0                TEE_ResetPersistentObjectEnumerator
                0x00022c70                TEE_StartPersistentObjectEnumerator
                0x00022d64                TEE_GetNextPersistentObject
 .text          0x00022e48     0x26b4 /local/mnt/workspace/CRMBuilds/TZ.BF.4.0.3.c1-00005-M8996AAAAANAZT-1_20170110_230814/b/HK11/trustzone_images/core/securemsm/trustzone/qsapps/libs/applib/common_applib/build/sampleapp/scorpion/IADAANAA/tzapp_entrylib.lib(gpPersistObjData.o)
                0x00022e48                gpData_Create_Object
                0x00023624                gpData_Delete_Object
                0x0002373c                gpData_Open_Object
                0x00023898                gpData_Close_Object
                0x000238d0                gpData_Write_Data
                0x00023db0                gpData_Read_Data
                0x00023fc0                gpData_Trunc_Data
                0x00024238                gpData_Seek_Data
 .text          0x000254fc      0x6ec /local/mnt/workspace/CRMBuilds/TZ.BF.4.0.3.c1-00005-M8996AAAAANAZT-1_20170110_230814/b/HK11/trustzone_images/core/securemsm/trustzone/qsapps/libs/applib/common_applib/build/sampleapp/scorpion/IADAANAA/tzapp_entrylib.lib(gpPersistObjHandler.o)
                0x000254fc                gpHandler_Create_Handle
                0x00025804                gpHandler_Delete_Handle
                0x0002589c                gpHandler_Close_Handle
                0x000259d0                gpHandler_Open_Handle
                0x00025a68                gpHandler_Update_Handle
                0x00025ac8                gpHandler_Rename_Handle
 .text          0x00025be8     0x13cc /local/mnt/workspace/CRMBuilds/TZ.BF.4.0.3.c1-00005-M8996AAAAANAZT-1_20170110_230814/b/HK11/trustzone_images/core/securemsm/trustzone/qsapps/libs/applib/common_applib/build/sampleapp/scorpion/IADAANAA/tzapp_entrylib.lib(gpPersistObjIndex.o)
                0x00025be8                index_Get_Index_Info
                0x00025e24                gpIndex_Create_Entry
                0x00026004                gpIndex_Delete_Entry
                0x00026134                gpIndex_Get_Entry
                0x000263a8                gpIndex_Set_Entry
                0x000264e4                gpIndex_Rename_Entry
                0x000266f8                gpIndex_Get_Enum_Entry
                0x00026920                gpIndex_Get_Index_Info
 .text          0x00026fb4      0xe08 /local/mnt/workspace/CRMBuilds/TZ.BF.4.0.3.c1-00005-M8996AAAAANAZT-1_20170110_230814/b/HK11/trustzone_images/core/securemsm/trustzone/qsapps/libs/applib/common_applib/build/sampleapp/scorpion/IADAANAA/tzapp_entrylib.lib(gpPersistObjVersion.o)
                0x00026fb4                version_Is_Rpmb_Usage_Enabled
                0x00027068                gpVersion_Get_Version
                0x00027664                gpVersion_Set_Version
                0x00027884                gpVersion_Inc_Version
                0x000278c0                gpVersion_Delete_Version
 .text          0x00027dbc      0x990 /local/mnt/workspace/CRMBuilds/TZ.BF.4.0.3.c1-00005-M8996AAAAANAZT-1_20170110_230814/b/HK11/trustzone_images/core/securemsm/trustzone/qsapps/libs/applib/common_applib/build/sampleapp/scorpion/IADAANAA/tzapp_entrylib.lib(gpPersistObjCrypto.o)
                0x00027dbc                gpCrypto_Encrypt
                0x00028138                gpCrypto_Integrity_Protect
                0x0002830c                gpCrypto_Decrypt
                0x000284f8                gpCrypto_Integrity_Verify
 .text          0x0002874c      0x39c /local/mnt/workspace/CRMBuilds/TZ.BF.4.0.3.c1-00005-M8996AAAAANAZT-1_20170110_230814/b/HK11/trustzone_images/core/securemsm/trustzone/qsapps/libs/applib/common_applib/build/sampleapp/scorpion/IADAANAA/tzapp_entrylib.lib(gpPersistObjFileIO.o)
                0x0002874c                fileIO_Read_Data
                0x000287b0                fileIO_Write_Data
                0x0002881c                fileIO_Remove_Data
                0x00028878                fileIO_Rename_Data
                0x000288d4                gpFileIO_Read_File
                0x00028960                gpFileIO_Write_File
                0x00028a08                gpFileIO_Remove_File
                0x00028a6c                gpFileIO_Rename_File
 .text          0x00028ae8      0x774 /local/mnt/workspace/CRMBuilds/TZ.BF.4.0.3.c1-00005-M8996AAAAANAZT-1_20170110_230814/b/HK11/trustzone_images/core/securemsm/trustzone/qsapps/libs/applib/common_applib/build/sampleapp/scorpion/IADAANAA/tzapp_entrylib.lib(gpFileService.o)
                0x00028ae8                gpFileRead
                0x00028d64                gpFileWrite
                0x00028fe4                gpFileRemove
                0x00029114                gpFileRename
 .text          0x0002925c       0x24 /local/mnt/workspace/CRMBuilds/TZ.BF.4.0.3.c1-00005-M8996AAAAANAZT-1_20170110_230814/b/HK11/trustzone_images/core/securemsm/trustzone/qsapps/libs/applib/qsee/build/sampleapp/scorpion/IADAANAA/tzapp_entrylib.lib(qsee_cfg_prop_shim.o)
                0x0002925c                qsee_cfg_getpropval
 .text          0x00029280        0x8 /local/mnt/workspace/CRMBuilds/TZ.BF.4.0.3.c1-00005-M8996AAAAANAZT-1_20170110_230814/b/HK11/trustzone_images/core/securemsm/trustzone/qsapps/libs/applib/qsee/build/sampleapp/scorpion/IADAANAA/tzapp_entrylib.lib(gpPersistObjPanic.o)
                0x00029280                TEE_Panic
                0x00029284                GPMemoryMgmt_verifyHandle
 .text          0x00029288       0x64 /local/mnt/workspace/CRMBuilds/TZ.BF.4.0.3.c1-00005-M8996AAAAANAZT-1_20170110_230814/b/HK11/trustzone_images/core/securemsm/trustzone/qsee/mink/libstd/build/sampleapp/scorpion/IADAANAA/libstd.lib(strlcat.o)
                0x00029288                strlcat
 .text          0x000292ec       0x46 /local/mnt/workspace/CRMBuilds/TZ.BF.4.0.3.c1-00005-M8996AAAAANAZT-1_20170110_230814/b/HK11/trustzone_images/core/securemsm/trustzone/qsee/mink/libstd/build/sampleapp/scorpion/IADAANAA/libstd.lib(memset.o)
                0x000292ec                memset
 *fill*         0x00029332        0x2 
 .text          0x00029334      0x372 /local/mnt/workspace/CRMBuilds/TZ.BF.4.0.3.c1-00005-M8996AAAAANAZT-1_20170110_230814/b/HK11/trustzone_images/core/securemsm/trustzone/qsee/mink/libstd/build/sampleapp/scorpion/IADAANAA/libstd.lib(memcpy.o)
                0x00029334                memcpy
 *fill*         0x000296a6        0x2 
 .text          0x000296a8       0xf6 /local/mnt/workspace/CRMBuilds/TZ.BF.4.0.3.c1-00005-M8996AAAAANAZT-1_20170110_230814/b/HK11/trustzone_images/core/securemsm/trustzone/qsee/mink/libstd/build/sampleapp/scorpion/IADAANAA/libstd.lib(memmove.o)
                0x000296a8                memmove
 *fill*         0x0002979e        0x2 
 .text          0x000297a0      0x6dc /local/mnt/workspace/CRMBuilds/TZ.BF.4.0.3.c1-00005-M8996AAAAANAZT-1_20170110_230814/b/HK11/trustzone_images/core/securemsm/sse/SecureTouch/controller/build/sampleapp/scorpion/IADAANAA/drts_controller_msm8996.lib(atmel_mxt_ts.o)
                0x000297a0                dumpT9
                0x000297a4                dumpT100
                0x000297a8                dumpT15
                0x000297ac                dumpT42
                0x000297b0                processT9
                0x00029840                processT100
                0x00029928                atmel_drTsOpen
                0x00029cdc                atmel_drTsClose
                0x00029d2c                atmel_drTsProcessEvents
 .text          0x00029e7c      0x7e8 /local/mnt/workspace/CRMBuilds/TZ.BF.4.0.3.c1-00005-M8996AAAAANAZT-1_20170110_230814/b/HK11/trustzone_images/core/securemsm/sse/SecureTouch/controller/build/sampleapp/scorpion/IADAANAA/drts_controller_msm8996.lib(synaptics_ts.o)
                0x00029e7c                synReadF12
                0x0002a050                synaptics_drTsOpen
                0x0002a4f0                synaptics_drTsClose
                0x0002a540                synaptics_drTsProcessEvents
 .text          0x0002a664       0x8c /local/mnt/workspace/CRMBuilds/TZ.BF.4.0.3.c1-00005-M8996AAAAANAZT-1_20170110_230814/b/HK11/trustzone_images/core/securemsm/sse/log/build/sampleapp/scorpion/IADAANAA/sselog.lib(sselog.o)
                0x0002a664                dumpHex
 .text          0x0002a6f0      0x15c /local/mnt/workspace/CRMBuilds/TZ.BF.4.0.3.c1-00005-M8996AAAAANAZT-1_20170110_230814/b/HK11/trustzone_images/core/securemsm/sse/qsee/SecureTouch/drTs/controller/build/sampleapp/scorpion/IADAANAA/touch_controller_i2c_msm8996.lib(atmel_mxt_ts_i2c.o)
                0x0002a6f0                atmel_i2cReadReg
                0x0002a794                atmel_i2cOpen
                0x0002a7f0                atmel_i2cClose
 .text          0x0002a84c      0x130 /local/mnt/workspace/CRMBuilds/TZ.BF.4.0.3.c1-00005-M8996AAAAANAZT-1_20170110_230814/b/HK11/trustzone_images/core/securemsm/sse/qsee/SecureTouch/drTs/controller/build/sampleapp/scorpion/IADAANAA/touch_controller_i2c_msm8996.lib(synaptics_ts_i2c.o)
                0x0002a84c                synaptics_i2cReadReg
                0x0002a8e8                synaptics_i2cWriteReg
                0x0002a934                synaptics_i2cOpen
                0x0002a958                synaptics_i2cClose
 *(SORT(tzapp_syscall_asm))
 *fill*         0x0002a97c       0x84 
 tzapp_syscall_asm
                0x0002aa00       0x88 /local/mnt/workspace/CRMBuilds/TZ.BF.4.0.3.c1-00005-M8996AAAAANAZT-1_20170110_230814/b/HK11/trustzone_images/core/securemsm/trustzone/qsapps/libs/applib/qsee/build/sampleapp/scorpion/IADAANAA/tzapp_entrylib.lib(tzapp_syscall.o)
                0x0002aa00                app_export_init_info_to_qsee
                0x0002aa38                qsee_wait_default_signal_syscall
                0x0002aa64                qsee_generic_syscall
 tzapp_syscall_asm.__stub
                0x0002aa88       0x30 linker stubs
 *(SORT(.rodata))
 *fill*         0x0002aab8        0x8 
 .rodata        0x0002aac0       0x14 /local/mnt/workspace/CRMBuilds/TZ.BF.4.0.3.c1-00005-M8996AAAAANAZT-1_20170110_230814/b/HK11/trustzone_images/core/securemsm/sse/qsee/SecureUI/build/sampleapp/scorpion/IADAANAA/secure_ui.lib(SecureUI.o)
 *fill*         0x0002aad4        0xc 
 .rodata        0x0002aae0       0x30 /local/mnt/workspace/CRMBuilds/TZ.BF.4.0.3.c1-00005-M8996AAAAANAZT-1_20170110_230814/b/HK11/trustzone_images/core/securemsm/trustzone/qsapps/libs/applib/qsee/build/sampleapp/scorpion/IADAANAA/tzapp_entrylib.lib(qsee_cipher.o)
 .rodata        0x0002ab10       0x20 /local/mnt/workspace/CRMBuilds/TZ.BF.4.0.3.c1-00005-M8996AAAAANAZT-1_20170110_230814/b/HK11/trustzone_images/core/securemsm/trustzone/qsapps/libs/applib/qsee/build/sampleapp/scorpion/IADAANAA/tzapp_entrylib.lib(qsee_tlmm.o)
 .rodata        0x0002ab30       0x58 /local/mnt/workspace/CRMBuilds/TZ.BF.4.0.3.c1-00005-M8996AAAAANAZT-1_20170110_230814/b/HK11/trustzone_images/core/securemsm/trustzone/qsapps/libs/applib/qsee/build/sampleapp/scorpion/IADAANAA/tzapp_entrylib.lib(qsee_appmessage.o)
 .rodata        0x0002ab88       0xc0 /local/mnt/workspace/CRMBuilds/TZ.BF.4.0.3.c1-00005-M8996AAAAANAZT-1_20170110_230814/b/HK11/trustzone_images/core/securemsm/trustzone/qsapps/sampleapp/build/sampleapp/scorpion/IADAANAA/app_bio_lib.o
 .rodata        0x0002ac48       0x40 /local/mnt/workspace/CRMBuilds/TZ.BF.4.0.3.c1-00005-M8996AAAAANAZT-1_20170110_230814/b/HK11/trustzone_images/core/securemsm/trustzone/qsapps/sampleapp/build/sampleapp/scorpion/IADAANAA/app_bulletin_board.o
 .rodata        0x0002ac88       0x24 /local/mnt/workspace/CRMBuilds/TZ.BF.4.0.3.c1-00005-M8996AAAAANAZT-1_20170110_230814/b/HK11/trustzone_images/core/securemsm/trustzone/qsapps/sampleapp/build/sampleapp/scorpion/IADAANAA/app_main.o
 .rodata        0x0002acac       0xe0 /local/mnt/workspace/CRMBuilds/TZ.BF.4.0.3.c1-00005-M8996AAAAANAZT-1_20170110_230814/b/HK11/trustzone_images/core/securemsm/trustzone/qsapps/sampleapp/build/sampleapp/scorpion/IADAANAA/app_crypto.o
 .rodata        0x0002ad8c        0x4 /local/mnt/workspace/CRMBuilds/TZ.BF.4.0.3.c1-00005-M8996AAAAANAZT-1_20170110_230814/b/HK11/trustzone_images/core/securemsm/trustzone/qsapps/sampleapp/build/sampleapp/scorpion/IADAANAA/metadata.o
                0x0002ad8c                TA_ACCEPT_BUF_SIZE
 .rodata        0x0002ad90        0xc /local/mnt/workspace/CRMBuilds/TZ.BF.4.0.3.c1-00005-M8996AAAAANAZT-1_20170110_230814/b/HK11/trustzone_images/core/securemsm/trustzone/qsapps/libs/applib/qsee/build/sampleapp/scorpion/IADAANAA/tzapp_entrylib.lib(qsee_hash.o)
 .rodata        0x0002ad9c        0xc /local/mnt/workspace/CRMBuilds/TZ.BF.4.0.3.c1-00005-M8996AAAAANAZT-1_20170110_230814/b/HK11/trustzone_images/core/securemsm/trustzone/qsapps/libs/applib/qsee/build/sampleapp/scorpion/IADAANAA/tzapp_entrylib.lib(qsee_i2c.o)
 .rodata        0x0002ada8        0xc /local/mnt/workspace/CRMBuilds/TZ.BF.4.0.3.c1-00005-M8996AAAAANAZT-1_20170110_230814/b/HK11/trustzone_images/core/securemsm/trustzone/qsapps/libs/applib/qsee/build/sampleapp/scorpion/IADAANAA/tzapp_entrylib.lib(qsee_oem_buffer.o)
 .rodata        0x0002adb4       0x7e /local/mnt/workspace/CRMBuilds/TZ.BF.4.0.3.c1-00005-M8996AAAAANAZT-1_20170110_230814/b/HK11/trustzone_images/core/securemsm/trustzone/qsapps/sampleapp/build/sampleapp/scorpion/IADAANAA/app_sfs.o
 .rodata        0x0002ae32      0x1d0 /local/mnt/workspace/CRMBuilds/TZ.BF.4.0.3.c1-00005-M8996AAAAANAZT-1_20170110_230814/b/HK11/trustzone_images/core/securemsm/trustzone/qsee/mink/libstd/build/sampleapp/scorpion/IADAANAA/libstd.lib(printf.o)
 *(SORT(EXCLUDE_FILE(*metadata.o) .rodata.*))
 *fill*         0x0002b002        0x2 
 .rodata.cst8   0x0002b004        0x8 /local/mnt/workspace/CRMBuilds/TZ.BF.4.0.3.c1-00005-M8996AAAAANAZT-1_20170110_230814/b/HK11/trustzone_images/core/securemsm/trustzone/qsapps/sampleapp/build/sampleapp/scorpion/IADAANAA/app_crypto.o
 .rodata.cst16  0x0002b00c       0x10 /local/mnt/workspace/CRMBuilds/TZ.BF.4.0.3.c1-00005-M8996AAAAANAZT-1_20170110_230814/b/HK11/trustzone_images/core/securemsm/trustzone/qsapps/libs/applib/qsee/build/sampleapp/scorpion/IADAANAA/tzapp_entrylib.lib(qsee_tlmm.o)
 .rodata.cst16  0x0002b01c       0x10 /local/mnt/workspace/CRMBuilds/TZ.BF.4.0.3.c1-00005-M8996AAAAANAZT-1_20170110_230814/b/HK11/trustzone_images/core/securemsm/trustzone/qsapps/libs/biometric/build/sampleapp/scorpion/IADAANAA/biometric_lib.lib(biometric_serializer.o)
 .rodata.str1.1
                0x0002b02c      0xf64 /local/mnt/workspace/CRMBuilds/TZ.BF.4.0.3.c1-00005-M8996AAAAANAZT-1_20170110_230814/b/HK11/trustzone_images/core/securemsm/trustzone/qsapps/sampleapp/build/sampleapp/scorpion/IADAANAA/app_main.o
 .rodata.str1.1
                0x0002bf90      0x18a /local/mnt/workspace/CRMBuilds/TZ.BF.4.0.3.c1-00005-M8996AAAAANAZT-1_20170110_230814/b/HK11/trustzone_images/core/securemsm/trustzone/qsapps/sampleapp/build/sampleapp/scorpion/IADAANAA/app_smplserv_test.o
 .rodata.str1.1
                0x0002c11a       0x7f /local/mnt/workspace/CRMBuilds/TZ.BF.4.0.3.c1-00005-M8996AAAAANAZT-1_20170110_230814/b/HK11/trustzone_images/core/securemsm/trustzone/qsapps/sampleapp/build/sampleapp/scorpion/IADAANAA/app_smplcert_test.o
 .rodata.str1.1
                0x0002c199     0x2cf5 /local/mnt/workspace/CRMBuilds/TZ.BF.4.0.3.c1-00005-M8996AAAAANAZT-1_20170110_230814/b/HK11/trustzone_images/core/securemsm/trustzone/qsapps/sampleapp/build/sampleapp/scorpion/IADAANAA/app_crypto.o
 .rodata.str1.1
                0x0002ee8e     0x201d /local/mnt/workspace/CRMBuilds/TZ.BF.4.0.3.c1-00005-M8996AAAAANAZT-1_20170110_230814/b/HK11/trustzone_images/core/securemsm/trustzone/qsapps/sampleapp/build/sampleapp/scorpion/IADAANAA/app_sfs.o
                               0x2061 (size before relaxing)
 .rodata.str1.1
                0x00030eab     0x204b /local/mnt/workspace/CRMBuilds/TZ.BF.4.0.3.c1-00005-M8996AAAAANAZT-1_20170110_230814/b/HK11/trustzone_images/core/securemsm/trustzone/qsapps/sampleapp/build/sampleapp/scorpion/IADAANAA/app_rsa.o
                               0x2063 (size before relaxing)
 .rodata.str1.1
                0x00032ef6     0x13fb /local/mnt/workspace/CRMBuilds/TZ.BF.4.0.3.c1-00005-M8996AAAAANAZT-1_20170110_230814/b/HK11/trustzone_images/core/securemsm/trustzone/qsapps/sampleapp/build/sampleapp/scorpion/IADAANAA/qsee_api_tests.o
                               0x1400 (size before relaxing)
 .rodata.str1.1
                0x000342f1      0x24f /local/mnt/workspace/CRMBuilds/TZ.BF.4.0.3.c1-00005-M8996AAAAANAZT-1_20170110_230814/b/HK11/trustzone_images/core/securemsm/trustzone/qsapps/sampleapp/build/sampleapp/scorpion/IADAANAA/app_cmnlib.o
 .rodata.str1.1
                0x00034540      0x156 /local/mnt/workspace/CRMBuilds/TZ.BF.4.0.3.c1-00005-M8996AAAAANAZT-1_20170110_230814/b/HK11/trustzone_images/core/securemsm/trustzone/qsapps/sampleapp/build/sampleapp/scorpion/IADAANAA/app_message_passing.o
 .rodata.str1.1
                0x00034696      0x174 /local/mnt/workspace/CRMBuilds/TZ.BF.4.0.3.c1-00005-M8996AAAAANAZT-1_20170110_230814/b/HK11/trustzone_images/core/securemsm/trustzone/qsapps/sampleapp/build/sampleapp/scorpion/IADAANAA/app_fuses.o
 .rodata.str1.1
                0x0003480a     0x1a09 /local/mnt/workspace/CRMBuilds/TZ.BF.4.0.3.c1-00005-M8996AAAAANAZT-1_20170110_230814/b/HK11/trustzone_images/core/securemsm/trustzone/qsapps/sampleapp/build/sampleapp/scorpion/IADAANAA/app_stor.o
                               0x1a30 (size before relaxing)
 .rodata.str1.1
                0x00036213      0x4b3 /local/mnt/workspace/CRMBuilds/TZ.BF.4.0.3.c1-00005-M8996AAAAANAZT-1_20170110_230814/b/HK11/trustzone_images/core/securemsm/trustzone/qsapps/sampleapp/build/sampleapp/scorpion/IADAANAA/app_content_protection.o
 .rodata.str1.1
                0x000366c6      0x1e7 /local/mnt/workspace/CRMBuilds/TZ.BF.4.0.3.c1-00005-M8996AAAAANAZT-1_20170110_230814/b/HK11/trustzone_images/core/securemsm/trustzone/qsapps/sampleapp/build/sampleapp/scorpion/IADAANAA/app_secure_ui.o
 .rodata.str1.1
                0x000368ad      0xa96 /local/mnt/workspace/CRMBuilds/TZ.BF.4.0.3.c1-00005-M8996AAAAANAZT-1_20170110_230814/b/HK11/trustzone_images/core/securemsm/trustzone/qsapps/sampleapp/build/sampleapp/scorpion/IADAANAA/app_bio_lib.o
                                0xaa9 (size before relaxing)
 .rodata.str1.1
                0x00037343      0x5f9 /local/mnt/workspace/CRMBuilds/TZ.BF.4.0.3.c1-00005-M8996AAAAANAZT-1_20170110_230814/b/HK11/trustzone_images/core/securemsm/trustzone/qsapps/sampleapp/build/sampleapp/scorpion/IADAANAA/app_bulletin_board.o
                                0x694 (size before relaxing)
 .rodata.str1.1
                0x0003793c      0x8e1 /local/mnt/workspace/CRMBuilds/TZ.BF.4.0.3.c1-00005-M8996AAAAANAZT-1_20170110_230814/b/HK11/trustzone_images/core/securemsm/sse/qsee/SecureUI/build/sampleapp/scorpion/IADAANAA/secure_ui.lib(SecureUI.o)
                                0x906 (size before relaxing)
 .rodata.str1.1
                0x0003821d       0x4e /local/mnt/workspace/CRMBuilds/TZ.BF.4.0.3.c1-00005-M8996AAAAANAZT-1_20170110_230814/b/HK11/trustzone_images/core/securemsm/sse/qsee/SecureUILib/lib/build/sampleapp/scorpion/IADAANAA/secure_ui_lib.lib(01_startTouch.o)
 .rodata.str1.1
                0x0003826b       0x64 /local/mnt/workspace/CRMBuilds/TZ.BF.4.0.3.c1-00005-M8996AAAAANAZT-1_20170110_230814/b/HK11/trustzone_images/core/securemsm/sse/qsee/SecureUILib/lib/build/sampleapp/scorpion/IADAANAA/secure_ui_lib.lib(02_processTouch.o)
                                 0x7a (size before relaxing)
 .rodata.str1.1
                0x000382cf       0x2f /local/mnt/workspace/CRMBuilds/TZ.BF.4.0.3.c1-00005-M8996AAAAANAZT-1_20170110_230814/b/HK11/trustzone_images/core/securemsm/sse/qsee/SecureUILib/lib/build/sampleapp/scorpion/IADAANAA/secure_ui_lib.lib(03_stopTouch.o)
                                 0x5a (size before relaxing)
 .rodata.str1.1
                0x000382fe        0x7 /local/mnt/workspace/CRMBuilds/TZ.BF.4.0.3.c1-00005-M8996AAAAANAZT-1_20170110_230814/b/HK11/trustzone_images/core/securemsm/trustzone/qsapps/libs/applib/common_applib/build/sampleapp/scorpion/IADAANAA/tzapp_entrylib.lib(common_applib.o)
                                  0x9 (size before relaxing)
 .rodata.str1.1
                0x00000000        0x1 /local/mnt/workspace/CRMBuilds/TZ.BF.4.0.3.c1-00005-M8996AAAAANAZT-1_20170110_230814/b/HK11/trustzone_images/core/securemsm/trustzone/qsapps/libs/applib/qsee/build/sampleapp/scorpion/IADAANAA/tzapp_entrylib.lib(qsee_core_shim.o)
 .rodata.str1.1
                0x00038305       0x6f /local/mnt/workspace/CRMBuilds/TZ.BF.4.0.3.c1-00005-M8996AAAAANAZT-1_20170110_230814/b/HK11/trustzone_images/core/securemsm/trustzone/qsapps/libs/applib/qsee/build/sampleapp/scorpion/IADAANAA/tzapp_entrylib.lib(qsee_spi.o)
 .rodata.str1.1
                0x00038374       0xb7 /local/mnt/workspace/CRMBuilds/TZ.BF.4.0.3.c1-00005-M8996AAAAANAZT-1_20170110_230814/b/HK11/trustzone_images/core/securemsm/trustzone/qsapps/libs/applib/qsee/build/sampleapp/scorpion/IADAANAA/tzapp_entrylib.lib(qsee_dcache.o)
 .rodata.str1.1
                0x0003842b       0xe5 /local/mnt/workspace/CRMBuilds/TZ.BF.4.0.3.c1-00005-M8996AAAAANAZT-1_20170110_230814/b/HK11/trustzone_images/core/securemsm/trustzone/qsapps/libs/applib/qsee/build/sampleapp/scorpion/IADAANAA/tzapp_entrylib.lib(qsee_shared_buffer.o)
 .rodata.str1.1
                0x00038510       0xa8 /local/mnt/workspace/CRMBuilds/TZ.BF.4.0.3.c1-00005-M8996AAAAANAZT-1_20170110_230814/b/HK11/trustzone_images/core/securemsm/trustzone/qsapps/libs/applib/qsee/build/sampleapp/scorpion/IADAANAA/tzapp_entrylib.lib(sfs_api.o)
                                 0xc0 (size before relaxing)
 .rodata.str1.1
                0x000385b8      0x286 /local/mnt/workspace/CRMBuilds/TZ.BF.4.0.3.c1-00005-M8996AAAAANAZT-1_20170110_230814/b/HK11/trustzone_images/core/securemsm/trustzone/qsapps/libs/biometric/build/sampleapp/scorpion/IADAANAA/biometric_lib.lib(biometric.o)
                                0x28d (size before relaxing)
 .rodata.str1.1
                0x0003883e      0x381 /local/mnt/workspace/CRMBuilds/TZ.BF.4.0.3.c1-00005-M8996AAAAANAZT-1_20170110_230814/b/HK11/trustzone_images/core/securemsm/trustzone/qsapps/libs/biometric/build/sampleapp/scorpion/IADAANAA/biometric_lib.lib(biometric_serializer.o)
 .rodata.str1.1
                0x00038bbf       0x11 /local/mnt/workspace/CRMBuilds/TZ.BF.4.0.3.c1-00005-M8996AAAAANAZT-1_20170110_230814/b/HK11/trustzone_images/core/securemsm/trustzone/qsee/mink/libstd/build/sampleapp/scorpion/IADAANAA/libstd.lib(printf.o)
 .rodata.cst16  0x00038bd0       0x10 /local/mnt/workspace/CRMBuilds/TZ.BF.4.0.3.c1-00005-M8996AAAAANAZT-1_20170110_230814/b/HK11/trustzone_images/core/securemsm/trustzone/qsee/mink/libstd/build/sampleapp/scorpion/IADAANAA/libstd.lib(printf.o)
 .rodata.str1.1
                0x00038be0       0x3f /local/mnt/workspace/CRMBuilds/TZ.BF.4.0.3.c1-00005-M8996AAAAANAZT-1_20170110_230814/b/HK11/trustzone_images/core/securemsm/sse/qsee/SecureTouch/drTs/lib/build/sampleapp/scorpion/IADAANAA/touch_lib.lib(01_open.o)
 .rodata.str1.1
                0x00038c1f       0x9d /local/mnt/workspace/CRMBuilds/TZ.BF.4.0.3.c1-00005-M8996AAAAANAZT-1_20170110_230814/b/HK11/trustzone_images/core/securemsm/sse/qsee/SecureTouch/drTs/lib/build/sampleapp/scorpion/IADAANAA/touch_lib.lib(02_close.o)
 .rodata.str1.1
                0x00038cbc       0xae /local/mnt/workspace/CRMBuilds/TZ.BF.4.0.3.c1-00005-M8996AAAAANAZT-1_20170110_230814/b/HK11/trustzone_images/core/securemsm/sse/qsee/SecureTouch/drTs/lib/build/sampleapp/scorpion/IADAANAA/touch_lib.lib(03_getData.o)
                                 0xb8 (size before relaxing)
 .rodata.str1.1
                0x00038d6a       0xb1 /local/mnt/workspace/CRMBuilds/TZ.BF.4.0.3.c1-00005-M8996AAAAANAZT-1_20170110_230814/b/HK11/trustzone_images/core/securemsm/trustzone/qsapps/libs/applib/common_applib/build/sampleapp/scorpion/IADAANAA/tzapp_entrylib.lib(gpPersistObjCommon.o)
                                 0xcb (size before relaxing)
 .rodata.str1.1
                0x00038e1b      0x172 /local/mnt/workspace/CRMBuilds/TZ.BF.4.0.3.c1-00005-M8996AAAAANAZT-1_20170110_230814/b/HK11/trustzone_images/core/securemsm/trustzone/qsapps/libs/applib/common_applib/build/sampleapp/scorpion/IADAANAA/tzapp_entrylib.lib(gpPersistentObjects.o)
                                0x18a (size before relaxing)
 .rodata.str1.1
                0x00038f8d      0x31c /local/mnt/workspace/CRMBuilds/TZ.BF.4.0.3.c1-00005-M8996AAAAANAZT-1_20170110_230814/b/HK11/trustzone_images/core/securemsm/trustzone/qsapps/libs/applib/common_applib/build/sampleapp/scorpion/IADAANAA/tzapp_entrylib.lib(gpPersistObjData.o)
                                0x334 (size before relaxing)
 .rodata.str1.1
                0x000392a9       0xcc /local/mnt/workspace/CRMBuilds/TZ.BF.4.0.3.c1-00005-M8996AAAAANAZT-1_20170110_230814/b/HK11/trustzone_images/core/securemsm/trustzone/qsapps/libs/applib/common_applib/build/sampleapp/scorpion/IADAANAA/tzapp_entrylib.lib(gpPersistObjHandler.o)
                                 0xe4 (size before relaxing)
 .rodata.str1.1
                0x00039375      0x182 /local/mnt/workspace/CRMBuilds/TZ.BF.4.0.3.c1-00005-M8996AAAAANAZT-1_20170110_230814/b/HK11/trustzone_images/core/securemsm/trustzone/qsapps/libs/applib/common_applib/build/sampleapp/scorpion/IADAANAA/tzapp_entrylib.lib(gpPersistObjIndex.o)
                                0x19f (size before relaxing)
 .rodata.str1.1
                0x000394f7      0x1e5 /local/mnt/workspace/CRMBuilds/TZ.BF.4.0.3.c1-00005-M8996AAAAANAZT-1_20170110_230814/b/HK11/trustzone_images/core/securemsm/trustzone/qsapps/libs/applib/common_applib/build/sampleapp/scorpion/IADAANAA/tzapp_entrylib.lib(gpPersistObjVersion.o)
                                0x202 (size before relaxing)
 .rodata.str1.1
                0x000396dc      0x163 /local/mnt/workspace/CRMBuilds/TZ.BF.4.0.3.c1-00005-M8996AAAAANAZT-1_20170110_230814/b/HK11/trustzone_images/core/securemsm/trustzone/qsapps/libs/applib/common_applib/build/sampleapp/scorpion/IADAANAA/tzapp_entrylib.lib(gpPersistObjCrypto.o)
                                0x17b (size before relaxing)
 .rodata.str1.1
                0x0003983f       0x9a /local/mnt/workspace/CRMBuilds/TZ.BF.4.0.3.c1-00005-M8996AAAAANAZT-1_20170110_230814/b/HK11/trustzone_images/core/securemsm/trustzone/qsapps/libs/applib/common_applib/build/sampleapp/scorpion/IADAANAA/tzapp_entrylib.lib(gpPersistObjFileIO.o)
                                 0xb2 (size before relaxing)
 .rodata.str1.1
                0x000398d9       0x31 /local/mnt/workspace/CRMBuilds/TZ.BF.4.0.3.c1-00005-M8996AAAAANAZT-1_20170110_230814/b/HK11/trustzone_images/core/securemsm/trustzone/qsapps/libs/applib/common_applib/build/sampleapp/scorpion/IADAANAA/tzapp_entrylib.lib(gpFileService.o)
                                 0x49 (size before relaxing)
 .rodata.str1.1
                0x0003990a      0x189 /local/mnt/workspace/CRMBuilds/TZ.BF.4.0.3.c1-00005-M8996AAAAANAZT-1_20170110_230814/b/HK11/trustzone_images/core/securemsm/sse/SecureTouch/controller/build/sampleapp/scorpion/IADAANAA/drts_controller_msm8996.lib(atmel_mxt_ts.o)
 .rodata.str1.1
                0x00039a93      0x2a6 /local/mnt/workspace/CRMBuilds/TZ.BF.4.0.3.c1-00005-M8996AAAAANAZT-1_20170110_230814/b/HK11/trustzone_images/core/securemsm/sse/SecureTouch/controller/build/sampleapp/scorpion/IADAANAA/drts_controller_msm8996.lib(synaptics_ts.o)
                                0x303 (size before relaxing)
 .rodata.str1.1
                0x00039d39        0x6 /local/mnt/workspace/CRMBuilds/TZ.BF.4.0.3.c1-00005-M8996AAAAANAZT-1_20170110_230814/b/HK11/trustzone_images/core/securemsm/sse/log/build/sampleapp/scorpion/IADAANAA/sselog.lib(sselog.o)
 .rodata.str1.1
                0x00039d3f       0x5a /local/mnt/workspace/CRMBuilds/TZ.BF.4.0.3.c1-00005-M8996AAAAANAZT-1_20170110_230814/b/HK11/trustzone_images/core/securemsm/sse/qsee/SecureTouch/drTs/controller/build/sampleapp/scorpion/IADAANAA/touch_controller_i2c_msm8996.lib(atmel_mxt_ts_i2c.o)
 .rodata.str1.1
                0x00039d99       0x45 /local/mnt/workspace/CRMBuilds/TZ.BF.4.0.3.c1-00005-M8996AAAAANAZT-1_20170110_230814/b/HK11/trustzone_images/core/securemsm/sse/qsee/SecureTouch/drTs/controller/build/sampleapp/scorpion/IADAANAA/touch_controller_i2c_msm8996.lib(synaptics_ts_i2c.o)
                                 0x87 (size before relaxing)
 *metadata.o(SORT(.rodata.str1.1))
 .rodata.str1.1
                0x00039dde        0xa /local/mnt/workspace/CRMBuilds/TZ.BF.4.0.3.c1-00005-M8996AAAAANAZT-1_20170110_230814/b/HK11/trustzone_images/core/securemsm/trustzone/qsapps/sampleapp/build/sampleapp/scorpion/IADAANAA/metadata.o

.glue_7         0x00039de8        0x0
 .glue_7        0x00000000        0x0 linker stubs

.glue_7t        0x00039de8        0x0
 .glue_7t       0x00000000        0x0 linker stubs

.vfp11_veneer   0x00039de8        0x0
 .vfp11_veneer  0x00000000        0x0 linker stubs

.v4_bx          0x00039de8        0x0
 .v4_bx         0x00000000        0x0 linker stubs

.dynbss         0x00039de8        0x0
 .dynbss        0x00000000        0x0 /local/mnt/workspace/CRMBuilds/TZ.BF.4.0.3.c1-00005-M8996AAAAANAZT-1_20170110_230814/b/HK11/trustzone_images/core/securemsm/trustzone/qsapps/libs/applib/qsee/build/sampleapp/scorpion/IADAANAA/src/tzapp_entry.o

.plt            0x00039de8        0x0
 .plt           0x00000000        0x0 /local/mnt/workspace/CRMBuilds/TZ.BF.4.0.3.c1-00005-M8996AAAAANAZT-1_20170110_230814/b/HK11/trustzone_images/core/securemsm/trustzone/qsapps/libs/applib/qsee/build/sampleapp/scorpion/IADAANAA/src/tzapp_entry.o

.iplt           0x00039de8        0x0
 .iplt          0x00000000        0x0 /local/mnt/workspace/CRMBuilds/TZ.BF.4.0.3.c1-00005-M8996AAAAANAZT-1_20170110_230814/b/HK11/trustzone_images/core/securemsm/trustzone/qsapps/libs/applib/qsee/build/sampleapp/scorpion/IADAANAA/src/tzapp_entry.o

.sentinel       0x00039de8       0x32
 *(SORT(.rodata.sentinel))
 .rodata.sentinel
                0x00039de8       0x32 /local/mnt/workspace/CRMBuilds/TZ.BF.4.0.3.c1-00005-M8996AAAAANAZT-1_20170110_230814/b/HK11/trustzone_images/core/securemsm/trustzone/qsapps/sampleapp/build/sampleapp/scorpion/IADAANAA/metadata.o
                0x00039de8                TA_METADATA
                0x00000001                ASSERT ((SIZEOF (.sentinel) != 0x0), No sentinel section defined.)

.metadata_check
                0x00039e1a        0x0
 *metadata.o(SORT(.rodata.*))
                0x00000001                ASSERT ((SIZEOF (.metadata_check) == 0x0), New metadata not accounted for here)

.data           0x0003a000    0x300f2
 *(SORT(.data) SORT(TZAPPENTRYSTACK) SORT(.bss) SORT(COMMON))
 .data          0x0003a000     0x4a10 /local/mnt/workspace/CRMBuilds/TZ.BF.4.0.3.c1-00005-M8996AAAAANAZT-1_20170110_230814/b/HK11/trustzone_images/core/securemsm/trustzone/qsapps/sampleapp/build/sampleapp/scorpion/IADAANAA/app_crypto.o
 *fill*         0x0003ea10       0x70 
 .bss           0x0003ea80      0x220 /local/mnt/workspace/CRMBuilds/TZ.BF.4.0.3.c1-00005-M8996AAAAANAZT-1_20170110_230814/b/HK11/trustzone_images/core/securemsm/trustzone/qsapps/sampleapp/build/sampleapp/scorpion/IADAANAA/app_crypto.o
 *fill*         0x0003eca0       0x60 
 COMMON         0x0003ed00    0x21000 /local/mnt/workspace/CRMBuilds/TZ.BF.4.0.3.c1-00005-M8996AAAAANAZT-1_20170110_230814/b/HK11/trustzone_images/core/securemsm/trustzone/qsapps/sampleapp/build/sampleapp/scorpion/IADAANAA/app_crypto.o
                0x0003ed00                aes_large_plain_text2
                0x00046d00                aes_large_cipher_text2
                0x0004f100                aes_large_plain_text_1
                0x0004f500                aes_performance
                0x00057500                aes_large_cipher_text3
                0x0005f900                aes_large_cipher_text_1
 .bss           0x0005fd00      0x600 /local/mnt/workspace/CRMBuilds/TZ.BF.4.0.3.c1-00005-M8996AAAAANAZT-1_20170110_230814/b/HK11/trustzone_images/core/securemsm/trustzone/qsapps/sampleapp/build/sampleapp/scorpion/IADAANAA/qsee_api_tests.o
 TZAPPENTRYSTACK
                0x00060300       0x80 /local/mnt/workspace/CRMBuilds/TZ.BF.4.0.3.c1-00005-M8996AAAAANAZT-1_20170110_230814/b/HK11/trustzone_images/core/securemsm/trustzone/qsapps/libs/applib/qsee/build/sampleapp/scorpion/IADAANAA/src/tzapp_entry.o
 .data          0x00060380       0x12 /local/mnt/workspace/CRMBuilds/TZ.BF.4.0.3.c1-00005-M8996AAAAANAZT-1_20170110_230814/b/HK11/trustzone_images/core/securemsm/trustzone/qsapps/sampleapp/build/sampleapp/scorpion/IADAANAA/app_smplserv_test.o
 *fill*         0x00060392        0xe 
 .data          0x000603a0      0x515 /local/mnt/workspace/CRMBuilds/TZ.BF.4.0.3.c1-00005-M8996AAAAANAZT-1_20170110_230814/b/HK11/trustzone_images/core/securemsm/trustzone/qsapps/sampleapp/build/sampleapp/scorpion/IADAANAA/app_cmnlib.o
 *fill*         0x000608b5        0xb 
 .bss           0x000608c0      0x121 /local/mnt/workspace/CRMBuilds/TZ.BF.4.0.3.c1-00005-M8996AAAAANAZT-1_20170110_230814/b/HK11/trustzone_images/core/securemsm/trustzone/qsapps/sampleapp/build/sampleapp/scorpion/IADAANAA/app_bulletin_board.o
 *fill*         0x000609e1        0xf 
 .bss           0x000609f0       0x20 /local/mnt/workspace/CRMBuilds/TZ.BF.4.0.3.c1-00005-M8996AAAAANAZT-1_20170110_230814/b/HK11/trustzone_images/core/securemsm/sse/qsee/SecureUI/build/sampleapp/scorpion/IADAANAA/secure_ui.lib(SecureUI.o)
 .data          0x00060a10      0x240 /local/mnt/workspace/CRMBuilds/TZ.BF.4.0.3.c1-00005-M8996AAAAANAZT-1_20170110_230814/b/HK11/trustzone_images/core/securemsm/trustzone/qsapps/libs/applib/common_applib/build/sampleapp/scorpion/IADAANAA/tzapp_entrylib.lib(common_applib.o)
                0x00060a10                magic_num
                0x00060a24                magic_num_index_array
                0x00060a30                mem_magic_number
                0x00060a3c                __stack_chk_guard
 .bss           0x00060c50       0x88 /local/mnt/workspace/CRMBuilds/TZ.BF.4.0.3.c1-00005-M8996AAAAANAZT-1_20170110_230814/b/HK11/trustzone_images/core/securemsm/trustzone/qsapps/libs/applib/common_applib/build/sampleapp/scorpion/IADAANAA/tzapp_entrylib.lib(common_applib.o)
                0x00060c50                pgCmnlib
 *fill*         0x00060cd8        0x8 
 .bss           0x00060ce0      0x140 /local/mnt/workspace/CRMBuilds/TZ.BF.4.0.3.c1-00005-M8996AAAAANAZT-1_20170110_230814/b/HK11/trustzone_images/core/securemsm/trustzone/qsapps/libs/applib/qsee/build/sampleapp/scorpion/IADAANAA/tzapp_entrylib.lib(qsee_env.o)
 .bss           0x00060e20      0x724 /local/mnt/workspace/CRMBuilds/TZ.BF.4.0.3.c1-00005-M8996AAAAANAZT-1_20170110_230814/b/HK11/trustzone_images/core/securemsm/trustzone/qsapps/libs/applib/qsee/build/sampleapp/scorpion/IADAANAA/tzapp_entrylib.lib(stor_gpt.o)
 *fill*         0x00061544        0xc 
 .bss           0x00061550      0x121 /local/mnt/workspace/CRMBuilds/TZ.BF.4.0.3.c1-00005-M8996AAAAANAZT-1_20170110_230814/b/HK11/trustzone_images/core/securemsm/trustzone/qsapps/libs/biometric/build/sampleapp/scorpion/IADAANAA/biometric_lib.lib(biometric.o)
 *fill*         0x00061671        0xf 
 .bss           0x00061680     0x1044 /local/mnt/workspace/CRMBuilds/TZ.BF.4.0.3.c1-00005-M8996AAAAANAZT-1_20170110_230814/b/HK11/trustzone_images/core/securemsm/trustzone/qsapps/libs/applib/common_applib/build/sampleapp/scorpion/IADAANAA/tzapp_entrylib.lib(gpPersistObjData.o)
 *fill*         0x000626c4        0xc 
 .bss           0x000626d0      0x488 /local/mnt/workspace/CRMBuilds/TZ.BF.4.0.3.c1-00005-M8996AAAAANAZT-1_20170110_230814/b/HK11/trustzone_images/core/securemsm/trustzone/qsapps/libs/applib/common_applib/build/sampleapp/scorpion/IADAANAA/tzapp_entrylib.lib(gpPersistObjVersion.o)
 *fill*         0x00062b58        0x8 
 .bss           0x00062b60       0x50 /local/mnt/workspace/CRMBuilds/TZ.BF.4.0.3.c1-00005-M8996AAAAANAZT-1_20170110_230814/b/HK11/trustzone_images/core/securemsm/trustzone/qsapps/libs/applib/common_applib/build/sampleapp/scorpion/IADAANAA/tzapp_entrylib.lib(gpPersistObjCrypto.o)
 .bss           0x00062bb0       0xc0 /local/mnt/workspace/CRMBuilds/TZ.BF.4.0.3.c1-00005-M8996AAAAANAZT-1_20170110_230814/b/HK11/trustzone_images/core/securemsm/sse/SecureTouch/controller/build/sampleapp/scorpion/IADAANAA/drts_controller_msm8996.lib(atmel_mxt_ts.o)
 .bss           0x00062c70       0x20 /local/mnt/workspace/CRMBuilds/TZ.BF.4.0.3.c1-00005-M8996AAAAANAZT-1_20170110_230814/b/HK11/trustzone_images/core/securemsm/trustzone/qsapps/sampleapp/build/sampleapp/scorpion/IADAANAA/app_main.o
                0x00062c70                b4
                0x00062c78                after
                0x00062c80                time_diff
                0x00062c88                average_time_diff
 .bss           0x00062c90     0x1810 /local/mnt/workspace/CRMBuilds/TZ.BF.4.0.3.c1-00005-M8996AAAAANAZT-1_20170110_230814/b/HK11/trustzone_images/core/securemsm/trustzone/qsapps/sampleapp/build/sampleapp/scorpion/IADAANAA/app_stor.o
                0x00062c90                gDevHandle
                0x00062c98                gClientHandle
                0x00062ca0                gBackupBuff
                0x00063ca0                gBuff
                0x000640a0                gBuff2
 .data          0x000644a0       0x64 /local/mnt/workspace/CRMBuilds/TZ.BF.4.0.3.c1-00005-M8996AAAAANAZT-1_20170110_230814/b/HK11/trustzone_images/core/securemsm/sse/qsee/SecureUI/build/sampleapp/scorpion/IADAANAA/secure_ui.lib(SecureUI.o)
 *fill*         0x00064504        0x4 
 .bss           0x00064508        0x8 /local/mnt/workspace/CRMBuilds/TZ.BF.4.0.3.c1-00005-M8996AAAAANAZT-1_20170110_230814/b/HK11/trustzone_images/core/securemsm/trustzone/qsapps/libs/applib/qsee/build/sampleapp/scorpion/IADAANAA/tzapp_entrylib.lib(qsee_tlmm.o)
 .data          0x00064510       0x10 /local/mnt/workspace/CRMBuilds/TZ.BF.4.0.3.c1-00005-M8996AAAAANAZT-1_20170110_230814/b/HK11/trustzone_images/core/securemsm/trustzone/qsapps/sampleapp/build/sampleapp/scorpion/IADAANAA/app_smplcert_test.o
 .data          0x00064520      0xcc7 /local/mnt/workspace/CRMBuilds/TZ.BF.4.0.3.c1-00005-M8996AAAAANAZT-1_20170110_230814/b/HK11/trustzone_images/core/securemsm/trustzone/qsapps/sampleapp/build/sampleapp/scorpion/IADAANAA/app_rsa.o
                0x00064520                oaep_msg_1
                0x0006453c                oaep_seed_1
                0x00064550                oaep_enc_1
                0x000645d0                oaep_msg_2
                0x000645fd                oaep_seed_2
                0x00064611                oaep_enc_2
                0x00064711                oaep_msg_3
                0x00064748                oaep_seed_3
                0x0006478e                oaep_enc_3
                0x0006480e                oaep_msg_4
                0x00064821                oaep_seed_4
                0x0006490b                oaep_enc_4
                0x00064a0b                pss_msg_1
                0x00064ae4                pss_salt_1
                0x00064af8                pss_sig_1
                0x00064b78                pss_msg_2
                0x00064b95                pss_salt_2
                0x00064ba9                pss_sig_2
                0x00064ca9                pss_msg_3
                0x00064d82                pss_sig_3
                0x00064e02                pss_msg_4
                0x00064ee7                pss_sig_4
                0x00064fe7                pss_msg_5
                0x00065067                pss_sig_5
 *fill*         0x000651e7        0x1 
 .bss           0x000651e8      0x103 /local/mnt/workspace/CRMBuilds/TZ.BF.4.0.3.c1-00005-M8996AAAAANAZT-1_20170110_230814/b/HK11/trustzone_images/core/securemsm/trustzone/qsapps/sampleapp/build/sampleapp/scorpion/IADAANAA/app_rsa.o
                0x000651e8                pss_salt_3
                0x000651e9                pss_salt_4
                0x000651ea                pss_salt_5
 *fill*         0x000652eb        0x1 
 .data          0x000652ec        0xc /local/mnt/workspace/CRMBuilds/TZ.BF.4.0.3.c1-00005-M8996AAAAANAZT-1_20170110_230814/b/HK11/trustzone_images/core/securemsm/trustzone/qsapps/sampleapp/build/sampleapp/scorpion/IADAANAA/app_stor.o
                0x000652ec                rpmb_device_id
                0x000652f0                gpt_device_id
                0x000652f4                gDeviceID
 COMMON         0x000652f8       0x1c /local/mnt/workspace/CRMBuilds/TZ.BF.4.0.3.c1-00005-M8996AAAAANAZT-1_20170110_230814/b/HK11/trustzone_images/core/securemsm/trustzone/qsapps/sampleapp/build/sampleapp/scorpion/IADAANAA/app_stor.o
                0x000652f8                gClientInfo
 .bss           0x00065314      0x990 /local/mnt/workspace/CRMBuilds/TZ.BF.4.0.3.c1-00005-M8996AAAAANAZT-1_20170110_230814/b/HK11/trustzone_images/core/securemsm/trustzone/qsapps/sampleapp/build/sampleapp/scorpion/IADAANAA/app_secure_ui.o
                0x00065314                dispH
                0x00065318                dispW
                0x0006531c                dispS
                0x00065320                pixelW
                0x00065324                rotation
                0x00065328                g_screen
                0x0006532c                g_screen_last
 .bss           0x00065ca4       0xa0 /local/mnt/workspace/CRMBuilds/TZ.BF.4.0.3.c1-00005-M8996AAAAANAZT-1_20170110_230814/b/HK11/trustzone_images/core/securemsm/trustzone/qsapps/sampleapp/build/sampleapp/scorpion/IADAANAA/app_bio_lib.o
 .bss           0x00065d44     0x1000 /local/mnt/workspace/CRMBuilds/TZ.BF.4.0.3.c1-00005-M8996AAAAANAZT-1_20170110_230814/b/HK11/trustzone_images/core/securemsm/trustzone/qsapps/sampleapp/build/sampleapp/scorpion/IADAANAA/metadata.o
                0x00065d44                ta_acceptBuf
 .data          0x00066d44        0xc /local/mnt/workspace/CRMBuilds/TZ.BF.4.0.3.c1-00005-M8996AAAAANAZT-1_20170110_230814/b/HK11/trustzone_images/core/securemsm/sse/qsee/SecureUILib/lib/build/sampleapp/scorpion/IADAANAA/secure_ui_lib.lib(SecureUILib.o)
                0x00066d44                g_sid
                0x00066d48                g_width
                0x00066d4c                g_height
 .bss           0x00066d50        0x4 /local/mnt/workspace/CRMBuilds/TZ.BF.4.0.3.c1-00005-M8996AAAAANAZT-1_20170110_230814/b/HK11/trustzone_images/core/securemsm/sse/qsee/SecureUILib/lib/build/sampleapp/scorpion/IADAANAA/secure_ui_lib.lib(SecureUILib.o)
                0x00066d50                g_touch_callback
 COMMON         0x00066d54       0x14 /local/mnt/workspace/CRMBuilds/TZ.BF.4.0.3.c1-00005-M8996AAAAANAZT-1_20170110_230814/b/HK11/trustzone_images/core/securemsm/trustzone/qsapps/libs/applib/common_applib/build/sampleapp/scorpion/IADAANAA/tzapp_entrylib.lib(common_applib.o)
                0x00066d54                apps_request_resp
 .data          0x00066d68        0x4 /local/mnt/workspace/CRMBuilds/TZ.BF.4.0.3.c1-00005-M8996AAAAANAZT-1_20170110_230814/b/HK11/trustzone_images/core/securemsm/trustzone/qsapps/libs/applib/qsee/build/sampleapp/scorpion/IADAANAA/tzapp_entrylib.lib(stor_gpt.o)
 .bss           0x00066d6c        0x4 /local/mnt/workspace/CRMBuilds/TZ.BF.4.0.3.c1-00005-M8996AAAAANAZT-1_20170110_230814/b/HK11/trustzone_images/core/securemsm/trustzone/qsapps/libs/applib/qsee/build/sampleapp/scorpion/IADAANAA/tzapp_entrylib.lib(sfs_api.o)
 .bss           0x00066d70       0x90 /local/mnt/workspace/CRMBuilds/TZ.BF.4.0.3.c1-00005-M8996AAAAANAZT-1_20170110_230814/b/HK11/trustzone_images/core/securemsm/trustzone/qsapps/libs/biometric/build/sampleapp/scorpion/IADAANAA/biometric_lib.lib(biometric_serializer.o)
 .data          0x00066e00        0x4 /local/mnt/workspace/CRMBuilds/TZ.BF.4.0.3.c1-00005-M8996AAAAANAZT-1_20170110_230814/b/HK11/trustzone_images/core/securemsm/sse/qsee/SecureTouch/drTs/lib/build/sampleapp/scorpion/IADAANAA/touch_lib.lib(01_open.o)
                0x00066e00                g_drTs_sid
 .bss           0x00066e04        0xc /local/mnt/workspace/CRMBuilds/TZ.BF.4.0.3.c1-00005-M8996AAAAANAZT-1_20170110_230814/b/HK11/trustzone_images/core/securemsm/sse/qsee/SecureTouch/drTs/lib/build/sampleapp/scorpion/IADAANAA/touch_lib.lib(01_open.o)
                0x00066e04                g_ts_dr_func
 .bss           0x00066e10        0x4 /local/mnt/workspace/CRMBuilds/TZ.BF.4.0.3.c1-00005-M8996AAAAANAZT-1_20170110_230814/b/HK11/trustzone_images/core/securemsm/sse/qsee/SecureTouch/drTs/lib/build/sampleapp/scorpion/IADAANAA/touch_lib.lib(03_getData.o)
                0x00066e10                g_fingers_ptr
 .bss           0x00066e14       0x81 /local/mnt/workspace/CRMBuilds/TZ.BF.4.0.3.c1-00005-M8996AAAAANAZT-1_20170110_230814/b/HK11/trustzone_images/core/securemsm/trustzone/qsapps/libs/applib/common_applib/build/sampleapp/scorpion/IADAANAA/tzapp_entrylib.lib(gpPersistObjCommon.o)
 *fill*         0x00066e95        0x3 
 .data          0x00066e98     0x1110 /local/mnt/workspace/CRMBuilds/TZ.BF.4.0.3.c1-00005-M8996AAAAANAZT-1_20170110_230814/b/HK11/trustzone_images/core/securemsm/trustzone/qsapps/libs/applib/common_applib/build/sampleapp/scorpion/IADAANAA/tzapp_entrylib.lib(gpPersistObjHandler.o)
 .bss           0x00067fa8        0x4 /local/mnt/workspace/CRMBuilds/TZ.BF.4.0.3.c1-00005-M8996AAAAANAZT-1_20170110_230814/b/HK11/trustzone_images/core/securemsm/trustzone/qsapps/libs/applib/common_applib/build/sampleapp/scorpion/IADAANAA/tzapp_entrylib.lib(gpPersistObjHandler.o)
 .bss           0x00067fac     0x2024 /local/mnt/workspace/CRMBuilds/TZ.BF.4.0.3.c1-00005-M8996AAAAANAZT-1_20170110_230814/b/HK11/trustzone_images/core/securemsm/trustzone/qsapps/libs/applib/common_applib/build/sampleapp/scorpion/IADAANAA/tzapp_entrylib.lib(gpPersistObjIndex.o)
 .data          0x00069fd0        0x1 /local/mnt/workspace/CRMBuilds/TZ.BF.4.0.3.c1-00005-M8996AAAAANAZT-1_20170110_230814/b/HK11/trustzone_images/core/securemsm/trustzone/qsapps/libs/applib/common_applib/build/sampleapp/scorpion/IADAANAA/tzapp_entrylib.lib(gpPersistObjVersion.o)
 *fill*         0x00069fd1        0x3 
 .bss           0x00069fd4       0x96 /local/mnt/workspace/CRMBuilds/TZ.BF.4.0.3.c1-00005-M8996AAAAANAZT-1_20170110_230814/b/HK11/trustzone_images/core/securemsm/sse/SecureTouch/controller/build/sampleapp/scorpion/IADAANAA/drts_controller_msm8996.lib(synaptics_ts.o)
 COMMON         0x0006a06a       0x10 /local/mnt/workspace/CRMBuilds/TZ.BF.4.0.3.c1-00005-M8996AAAAANAZT-1_20170110_230814/b/HK11/trustzone_images/core/securemsm/trustzone/qsapps/sampleapp/build/sampleapp/scorpion/IADAANAA/app_cmnlib.o
                0x0006a06a                cipher_key
 COMMON         0x0006a07a       0x78 /local/mnt/workspace/CRMBuilds/TZ.BF.4.0.3.c1-00005-M8996AAAAANAZT-1_20170110_230814/b/HK11/trustzone_images/core/securemsm/trustzone/qsapps/sampleapp/build/sampleapp/scorpion/IADAANAA/app_secure_ui.o
                0x0006a07a                red_dot
                0x0006a0a2                green_dot
                0x0006a0ca                image_dot

.rel.text
 *(SORT(.rel.text))

.rel.rodata
 *(SORT(.rel.rodata))

.data.rel.ro.local
                0x0006a0f8      0x570
 *(SORT(.data.rel.ro.local))
 .data.rel.ro.local
                0x0006a0f8       0x10 /local/mnt/workspace/CRMBuilds/TZ.BF.4.0.3.c1-00005-M8996AAAAANAZT-1_20170110_230814/b/HK11/trustzone_images/core/securemsm/trustzone/qsapps/sampleapp/build/sampleapp/scorpion/IADAANAA/app_bio_lib.o
 .data.rel.ro.local
                0x0006a108       0x88 /local/mnt/workspace/CRMBuilds/TZ.BF.4.0.3.c1-00005-M8996AAAAANAZT-1_20170110_230814/b/HK11/trustzone_images/core/securemsm/trustzone/qsee/mink/libstd/build/sampleapp/scorpion/IADAANAA/libstd.lib(printf.o)
 .data.rel.ro.local
                0x0006a190      0x4bc /local/mnt/workspace/CRMBuilds/TZ.BF.4.0.3.c1-00005-M8996AAAAANAZT-1_20170110_230814/b/HK11/trustzone_images/core/securemsm/trustzone/qsapps/sampleapp/build/sampleapp/scorpion/IADAANAA/app_crypto.o
 .data.rel.ro.local
                0x0006a64c       0x14 /local/mnt/workspace/CRMBuilds/TZ.BF.4.0.3.c1-00005-M8996AAAAANAZT-1_20170110_230814/b/HK11/trustzone_images/core/securemsm/trustzone/qsapps/sampleapp/build/sampleapp/scorpion/IADAANAA/app_bulletin_board.o
 .data.rel.ro.local
                0x0006a660        0x8 /local/mnt/workspace/CRMBuilds/TZ.BF.4.0.3.c1-00005-M8996AAAAANAZT-1_20170110_230814/b/HK11/trustzone_images/core/securemsm/trustzone/qsapps/libs/biometric/build/sampleapp/scorpion/IADAANAA/biometric_lib.lib(biometric.o)

.data.rel.ro    0x0006a668       0xcc
 *(SORT(.data.rel.ro))
 .data.rel.ro   0x0006a668       0xb4 /local/mnt/workspace/CRMBuilds/TZ.BF.4.0.3.c1-00005-M8996AAAAANAZT-1_20170110_230814/b/HK11/trustzone_images/core/securemsm/trustzone/qsapps/sampleapp/build/sampleapp/scorpion/IADAANAA/app_crypto.o
 .data.rel.ro   0x0006a71c       0x18 /local/mnt/workspace/CRMBuilds/TZ.BF.4.0.3.c1-00005-M8996AAAAANAZT-1_20170110_230814/b/HK11/trustzone_images/core/securemsm/sse/qsee/SecureUILib/lib/build/sampleapp/scorpion/IADAANAA/secure_ui_lib.lib(SecureUILib.o)

.rel.data
 *(SORT(.rel.data))

.rel.plt        0x0006a734        0x0
 *(SORT(.rel.plt))
 .rel.plt       0x00000000        0x0 /local/mnt/workspace/CRMBuilds/TZ.BF.4.0.3.c1-00005-M8996AAAAANAZT-1_20170110_230814/b/HK11/trustzone_images/core/securemsm/trustzone/qsapps/libs/applib/qsee/build/sampleapp/scorpion/IADAANAA/src/tzapp_entry.o

.gnu.version_d  0x0006a734        0x0
 .gnu.version_d
                0x00000000        0x0 /local/mnt/workspace/CRMBuilds/TZ.BF.4.0.3.c1-00005-M8996AAAAANAZT-1_20170110_230814/b/HK11/trustzone_images/core/securemsm/trustzone/qsapps/libs/applib/qsee/build/sampleapp/scorpion/IADAANAA/src/tzapp_entry.o

.gnu.version    0x0006a734        0x0
 .gnu.version   0x00000000        0x0 /local/mnt/workspace/CRMBuilds/TZ.BF.4.0.3.c1-00005-M8996AAAAANAZT-1_20170110_230814/b/HK11/trustzone_images/core/securemsm/trustzone/qsapps/libs/applib/qsee/build/sampleapp/scorpion/IADAANAA/src/tzapp_entry.o

.gnu.version_r  0x0006a734        0x0
 .gnu.version_r
                0x00000000        0x0 /local/mnt/workspace/CRMBuilds/TZ.BF.4.0.3.c1-00005-M8996AAAAANAZT-1_20170110_230814/b/HK11/trustzone_images/core/securemsm/trustzone/qsapps/libs/applib/qsee/build/sampleapp/scorpion/IADAANAA/src/tzapp_entry.o

.data.rel       0x0006a734      0x248
 *(SORT(.data.rel))
 .data.rel      0x0006a734      0x104 /local/mnt/workspace/CRMBuilds/TZ.BF.4.0.3.c1-00005-M8996AAAAANAZT-1_20170110_230814/b/HK11/trustzone_images/core/securemsm/trustzone/qsapps/sampleapp/build/sampleapp/scorpion/IADAANAA/app_crypto.o
                0x0006a734                aes_ccm_test_vectors_1
                0x0006a770                hash_aes_test_vectors
 .data.rel      0x0006a838      0x144 /local/mnt/workspace/CRMBuilds/TZ.BF.4.0.3.c1-00005-M8996AAAAANAZT-1_20170110_230814/b/HK11/trustzone_images/core/securemsm/trustzone/qsapps/sampleapp/build/sampleapp/scorpion/IADAANAA/app_rsa.o
                0x0006a838                oaep_key_list
                0x0006a848                oaep_test_vectors
                0x0006a8c8                pss_key_list
                0x0006a8dc                pss_test_vectors

.data.rel.local
                0x0006a980     0x1194
 *(SORT(.data.rel.local))
 .data.rel.local
                0x0006a980      0xea4 /local/mnt/workspace/CRMBuilds/TZ.BF.4.0.3.c1-00005-M8996AAAAANAZT-1_20170110_230814/b/HK11/trustzone_images/core/securemsm/trustzone/qsapps/sampleapp/build/sampleapp/scorpion/IADAANAA/app_crypto.o
                0x0006a980                aes_ccm_test_vectors_uf
 *fill*         0x0006b824        0xc 
 .data.rel.local
                0x0006b830       0xb8 /local/mnt/workspace/CRMBuilds/TZ.BF.4.0.3.c1-00005-M8996AAAAANAZT-1_20170110_230814/b/HK11/trustzone_images/core/securemsm/trustzone/qsapps/sampleapp/build/sampleapp/scorpion/IADAANAA/app_bio_lib.o
 *fill*         0x0006b8e8        0x8 
 .data.rel.local
                0x0006b8f0       0x1c /local/mnt/workspace/CRMBuilds/TZ.BF.4.0.3.c1-00005-M8996AAAAANAZT-1_20170110_230814/b/HK11/trustzone_images/core/securemsm/trustzone/qsapps/libs/biometric/build/sampleapp/scorpion/IADAANAA/biometric_lib.lib(biometric.o)
 *fill*         0x0006b90c        0x4 
 .data.rel.local
                0x0006b910       0x84 /local/mnt/workspace/CRMBuilds/TZ.BF.4.0.3.c1-00005-M8996AAAAANAZT-1_20170110_230814/b/HK11/trustzone_images/core/securemsm/sse/SecureTouch/controller/build/sampleapp/scorpion/IADAANAA/drts_controller_msm8996.lib(atmel_mxt_ts.o)
 *fill*         0x0006b994        0xc 
 .data.rel.local
                0x0006b9a0       0x2c /local/mnt/workspace/CRMBuilds/TZ.BF.4.0.3.c1-00005-M8996AAAAANAZT-1_20170110_230814/b/HK11/trustzone_images/core/securemsm/sse/qsee/SecureTouch/drTs/controller/build/sampleapp/scorpion/IADAANAA/touch_controller_i2c_msm8996.lib(atmel_mxt_ts_i2c.o)
 *fill*         0x0006b9cc        0x4 
 .data.rel.local
                0x0006b9d0       0x2c /local/mnt/workspace/CRMBuilds/TZ.BF.4.0.3.c1-00005-M8996AAAAANAZT-1_20170110_230814/b/HK11/trustzone_images/core/securemsm/sse/qsee/SecureTouch/drTs/controller/build/sampleapp/scorpion/IADAANAA/touch_controller_i2c_msm8996.lib(synaptics_ts_i2c.o)
 .data.rel.local
                0x0006b9fc       0xfc /local/mnt/workspace/CRMBuilds/TZ.BF.4.0.3.c1-00005-M8996AAAAANAZT-1_20170110_230814/b/HK11/trustzone_images/core/securemsm/trustzone/qsapps/sampleapp/build/sampleapp/scorpion/IADAANAA/app_rsa.o
                0x0006b9fc                pad_version_string
                0x0006ba04                hash_id
                0x0006ba10                OAEP_string
                0x0006ba18                PSS_string
                0x0006ba20                rsa_lab_opae_key_1
                0x0006ba38                rsa_lab_opae_key_2
                0x0006ba50                rsa_lab_opae_key_3
                0x0006ba68                rsa_lab_opae_key_4
                0x0006ba80                rsa_lab_pss_key_1
                0x0006ba98                rsa_lab_pss_key_2
                0x0006bab0                rsa_lab_pss_key_3
                0x0006bac8                rsa_lab_pss_key_4
                0x0006bae0                rsa_lab_pss_key_5
 .data.rel.local
                0x0006baf8       0x14 /local/mnt/workspace/CRMBuilds/TZ.BF.4.0.3.c1-00005-M8996AAAAANAZT-1_20170110_230814/b/HK11/trustzone_images/core/securemsm/trustzone/qsapps/sampleapp/build/sampleapp/scorpion/IADAANAA/app_bulletin_board.o
 .data.rel.local
                0x0006bb0c        0x4 /local/mnt/workspace/CRMBuilds/TZ.BF.4.0.3.c1-00005-M8996AAAAANAZT-1_20170110_230814/b/HK11/trustzone_images/core/securemsm/trustzone/qsapps/sampleapp/build/sampleapp/scorpion/IADAANAA/metadata.o
                0x0006bb0c                TA_APP_NAME
 .data.rel.local
                0x0006bb10        0x4 /local/mnt/workspace/CRMBuilds/TZ.BF.4.0.3.c1-00005-M8996AAAAANAZT-1_20170110_230814/b/HK11/trustzone_images/core/securemsm/trustzone/qsapps/libs/applib/common_applib/build/sampleapp/scorpion/IADAANAA/tzapp_entrylib.lib(common_applib.o)
                0x0006bb10                dummy_str

TZ_APP_STACK    0x0006bb14     0x8000
                0x0006bb14                Image$$TZ_APP_STACK$$ZI$$Base = .
                0x00073b14                . = (. + 0x8000)
 *fill*         0x0006bb14     0x8000 
                0x00073b14                Image$$TZ_APP_STACK$$ZI$$Limit = .

TZ_APP_HEAP     0x00073b14     0x8000
                0x00073b14                Image$$TZ_APP_HEAP$$ZI$$Base = .
                0x0007bb14                . = (. + 0x8000)
 *fill*         0x00073b14     0x8000 
                0x0007bb14                Image$$TZ_APP_HEAP$$ZI$$Limit = .

.got            0x0007c000      0x128
 *(SORT(.got.plt))
 .got.plt       0x0007c000        0xc /local/mnt/workspace/CRMBuilds/TZ.BF.4.0.3.c1-00005-M8996AAAAANAZT-1_20170110_230814/b/HK11/trustzone_images/core/securemsm/trustzone/qsapps/libs/applib/qsee/build/sampleapp/scorpion/IADAANAA/src/tzapp_entry.o
                0x0007c000                _GLOBAL_OFFSET_TABLE_
 *(SORT(.igot.plt))
 .igot.plt      0x00000000        0x0 /local/mnt/workspace/CRMBuilds/TZ.BF.4.0.3.c1-00005-M8996AAAAANAZT-1_20170110_230814/b/HK11/trustzone_images/core/securemsm/trustzone/qsapps/libs/applib/qsee/build/sampleapp/scorpion/IADAANAA/src/tzapp_entry.o
 *(SORT(.got))
 .got           0x0007c00c      0x11c /local/mnt/workspace/CRMBuilds/TZ.BF.4.0.3.c1-00005-M8996AAAAANAZT-1_20170110_230814/b/HK11/trustzone_images/core/securemsm/trustzone/qsapps/libs/applib/qsee/build/sampleapp/scorpion/IADAANAA/src/tzapp_entry.o
 *(SORT(.igot))

.dynamic        0x0007d000       0x58
 *(SORT(.dynamic))
 .dynamic       0x0007d000       0x58 /local/mnt/workspace/CRMBuilds/TZ.BF.4.0.3.c1-00005-M8996AAAAANAZT-1_20170110_230814/b/HK11/trustzone_images/core/securemsm/trustzone/qsapps/libs/applib/qsee/build/sampleapp/scorpion/IADAANAA/src/tzapp_entry.o
                0x0007d000                _DYNAMIC

.rel.dyn        0x0007e000      0xdc8
 *(SORT(.rel.dyn))
 .rel.got       0x0007e000      0x238 /local/mnt/workspace/CRMBuilds/TZ.BF.4.0.3.c1-00005-M8996AAAAANAZT-1_20170110_230814/b/HK11/trustzone_images/core/securemsm/trustzone/qsapps/libs/applib/qsee/build/sampleapp/scorpion/IADAANAA/src/tzapp_entry.o
 .rel.iplt      0x00000000        0x0 /local/mnt/workspace/CRMBuilds/TZ.BF.4.0.3.c1-00005-M8996AAAAANAZT-1_20170110_230814/b/HK11/trustzone_images/core/securemsm/trustzone/qsapps/libs/applib/qsee/build/sampleapp/scorpion/IADAANAA/src/tzapp_entry.o
 .relTZAPPENTRYCODE
                0x0007e238        0x8 /local/mnt/workspace/CRMBuilds/TZ.BF.4.0.3.c1-00005-M8996AAAAANAZT-1_20170110_230814/b/HK11/trustzone_images/core/securemsm/trustzone/qsapps/libs/applib/qsee/build/sampleapp/scorpion/IADAANAA/src/tzapp_entry.o
 .rel.data.rel  0x0007e240      0x218 /local/mnt/workspace/CRMBuilds/TZ.BF.4.0.3.c1-00005-M8996AAAAANAZT-1_20170110_230814/b/HK11/trustzone_images/core/securemsm/trustzone/qsapps/libs/applib/qsee/build/sampleapp/scorpion/IADAANAA/src/tzapp_entry.o
 .rel.data.rel.local
                0x0007e458      0x3c0 /local/mnt/workspace/CRMBuilds/TZ.BF.4.0.3.c1-00005-M8996AAAAANAZT-1_20170110_230814/b/HK11/trustzone_images/core/securemsm/trustzone/qsapps/libs/applib/qsee/build/sampleapp/scorpion/IADAANAA/src/tzapp_entry.o
 .rel.data.rel.ro.local
                0x0007e818      0x508 /local/mnt/workspace/CRMBuilds/TZ.BF.4.0.3.c1-00005-M8996AAAAANAZT-1_20170110_230814/b/HK11/trustzone_images/core/securemsm/trustzone/qsapps/libs/applib/qsee/build/sampleapp/scorpion/IADAANAA/src/tzapp_entry.o
 .rel.data.rel.ro
                0x0007ed20       0xa8 /local/mnt/workspace/CRMBuilds/TZ.BF.4.0.3.c1-00005-M8996AAAAANAZT-1_20170110_230814/b/HK11/trustzone_images/core/securemsm/trustzone/qsapps/libs/applib/qsee/build/sampleapp/scorpion/IADAANAA/src/tzapp_entry.o

.gnu.attributes
 *(SORT(.gnu.attributes))

.note.gnu.arm.ident
 *(SORT(.note.gnu.arm.ident))

/DISCARD/
 *(SORT(.hash))
 *(SORT(.dynsym))
 *(SORT(.dynstr))
 *(SORT(.ARM.exidx*))
 *(SORT(.note.GNU-stack))
 *(SORT(.gnu_debuglink))
 *(SORT(.gnu.lto_*))
 *(SORT(.init))
 *(SORT(.fini))
START GROUP
LOAD /local/mnt/workspace/CRMBuilds/TZ.BF.4.0.3.c1-00005-M8996AAAAANAZT-1_20170110_230814/b/HK11/trustzone_images/core/kernel/libstd/build/sampleapp/scorpion/IADAANAA/libstd.lib
LOAD /local/mnt/workspace/CRMBuilds/TZ.BF.4.0.3.c1-00005-M8996AAAAANAZT-1_20170110_230814/b/HK11/trustzone_images/core/securemsm/sse/SecureTouch/controller/build/sampleapp/scorpion/IADAANAA/drts_controller_msm8996.lib
LOAD /local/mnt/workspace/CRMBuilds/TZ.BF.4.0.3.c1-00005-M8996AAAAANAZT-1_20170110_230814/b/HK11/trustzone_images/core/securemsm/sse/log/build/sampleapp/scorpion/IADAANAA/sselog.lib
LOAD /local/mnt/workspace/CRMBuilds/TZ.BF.4.0.3.c1-00005-M8996AAAAANAZT-1_20170110_230814/b/HK11/trustzone_images/core/securemsm/sse/qsee/SecureTouch/drTs/controller/build/sampleapp/scorpion/IADAANAA/touch_controller_i2c_msm8996.lib
LOAD /local/mnt/workspace/CRMBuilds/TZ.BF.4.0.3.c1-00005-M8996AAAAANAZT-1_20170110_230814/b/HK11/trustzone_images/core/securemsm/sse/qsee/SecureTouch/drTs/lib/build/sampleapp/scorpion/IADAANAA/touch_lib.lib
LOAD /local/mnt/workspace/CRMBuilds/TZ.BF.4.0.3.c1-00005-M8996AAAAANAZT-1_20170110_230814/b/HK11/trustzone_images/core/securemsm/sse/qsee/SecureUI/build/sampleapp/scorpion/IADAANAA/secure_ui.lib
LOAD /local/mnt/workspace/CRMBuilds/TZ.BF.4.0.3.c1-00005-M8996AAAAANAZT-1_20170110_230814/b/HK11/trustzone_images/core/securemsm/sse/qsee/SecureUILib/lib/build/sampleapp/scorpion/IADAANAA/secure_ui_lib.lib
LOAD /local/mnt/workspace/CRMBuilds/TZ.BF.4.0.3.c1-00005-M8996AAAAANAZT-1_20170110_230814/b/HK11/trustzone_images/core/securemsm/trustzone/qsapps/libs/applib/common_applib/build/sampleapp/scorpion/IADAANAA/tzapp_entrylib.lib
LOAD /local/mnt/workspace/CRMBuilds/TZ.BF.4.0.3.c1-00005-M8996AAAAANAZT-1_20170110_230814/b/HK11/trustzone_images/core/securemsm/trustzone/qsapps/libs/applib/proxy/build/sampleapp/scorpion/IADAANAA/tzlib_proxy.lib
LOAD /local/mnt/workspace/CRMBuilds/TZ.BF.4.0.3.c1-00005-M8996AAAAANAZT-1_20170110_230814/b/HK11/trustzone_images/core/securemsm/trustzone/qsapps/libs/applib/qsee/build/sampleapp/scorpion/IADAANAA/tzapp_entrylib.lib
LOAD /local/mnt/workspace/CRMBuilds/TZ.BF.4.0.3.c1-00005-M8996AAAAANAZT-1_20170110_230814/b/HK11/trustzone_images/core/securemsm/trustzone/qsapps/libs/biometric/build/sampleapp/scorpion/IADAANAA/biometric_lib.lib
LOAD /local/mnt/workspace/CRMBuilds/TZ.BF.4.0.3.c1-00005-M8996AAAAANAZT-1_20170110_230814/b/HK11/trustzone_images/core/securemsm/trustzone/qsee/mink/libstd/build/sampleapp/scorpion/IADAANAA/libstd.lib
LOAD /afs/localcell/cm/gv2.6/sysname/pkg.@sys/qct/software/llvm/release/arm/3.5.2.4/tools/lib32/lib/libc.a
LOAD /afs/localcell/cm/gv2.6/sysname/pkg.@sys/qct/software/llvm/release/arm/3.5.2.4/lib/clang/3.5.2/lib/linux/libclang_rt.builtins-arm.a
LOAD /local/mnt/workspace/CRMBuilds/TZ.BF.4.0.3.c1-00005-M8996AAAAANAZT-1_20170110_230814/b/HK11/trustzone_images/core/securemsm/trustzone/qsapps/libs/applib/qsee/build/sampleapp/scorpion/IADAANAA/src/tzapp_entry.o
LOAD /local/mnt/workspace/CRMBuilds/TZ.BF.4.0.3.c1-00005-M8996AAAAANAZT-1_20170110_230814/b/HK11/trustzone_images/core/securemsm/trustzone/qsapps/sampleapp/build/sampleapp/scorpion/IADAANAA/app_main.o
LOAD /local/mnt/workspace/CRMBuilds/TZ.BF.4.0.3.c1-00005-M8996AAAAANAZT-1_20170110_230814/b/HK11/trustzone_images/core/securemsm/trustzone/qsapps/sampleapp/build/sampleapp/scorpion/IADAANAA/app_smplserv_test.o
LOAD /local/mnt/workspace/CRMBuilds/TZ.BF.4.0.3.c1-00005-M8996AAAAANAZT-1_20170110_230814/b/HK11/trustzone_images/core/securemsm/trustzone/qsapps/sampleapp/build/sampleapp/scorpion/IADAANAA/app_smplcert_test.o
LOAD /local/mnt/workspace/CRMBuilds/TZ.BF.4.0.3.c1-00005-M8996AAAAANAZT-1_20170110_230814/b/HK11/trustzone_images/core/securemsm/trustzone/qsapps/sampleapp/build/sampleapp/scorpion/IADAANAA/app_crypto.o
LOAD /local/mnt/workspace/CRMBuilds/TZ.BF.4.0.3.c1-00005-M8996AAAAANAZT-1_20170110_230814/b/HK11/trustzone_images/core/securemsm/trustzone/qsapps/sampleapp/build/sampleapp/scorpion/IADAANAA/app_sfs.o
LOAD /local/mnt/workspace/CRMBuilds/TZ.BF.4.0.3.c1-00005-M8996AAAAANAZT-1_20170110_230814/b/HK11/trustzone_images/core/securemsm/trustzone/qsapps/sampleapp/build/sampleapp/scorpion/IADAANAA/app_rsa.o
LOAD /local/mnt/workspace/CRMBuilds/TZ.BF.4.0.3.c1-00005-M8996AAAAANAZT-1_20170110_230814/b/HK11/trustzone_images/core/securemsm/trustzone/qsapps/sampleapp/build/sampleapp/scorpion/IADAANAA/qsee_api_tests.o
LOAD /local/mnt/workspace/CRMBuilds/TZ.BF.4.0.3.c1-00005-M8996AAAAANAZT-1_20170110_230814/b/HK11/trustzone_images/core/securemsm/trustzone/qsapps/sampleapp/build/sampleapp/scorpion/IADAANAA/app_cmnlib.o
LOAD /local/mnt/workspace/CRMBuilds/TZ.BF.4.0.3.c1-00005-M8996AAAAANAZT-1_20170110_230814/b/HK11/trustzone_images/core/securemsm/trustzone/qsapps/sampleapp/build/sampleapp/scorpion/IADAANAA/app_message_passing.o
LOAD /local/mnt/workspace/CRMBuilds/TZ.BF.4.0.3.c1-00005-M8996AAAAANAZT-1_20170110_230814/b/HK11/trustzone_images/core/securemsm/trustzone/qsapps/sampleapp/build/sampleapp/scorpion/IADAANAA/app_fuses.o
LOAD /local/mnt/workspace/CRMBuilds/TZ.BF.4.0.3.c1-00005-M8996AAAAANAZT-1_20170110_230814/b/HK11/trustzone_images/core/securemsm/trustzone/qsapps/sampleapp/build/sampleapp/scorpion/IADAANAA/app_stor.o
LOAD /local/mnt/workspace/CRMBuilds/TZ.BF.4.0.3.c1-00005-M8996AAAAANAZT-1_20170110_230814/b/HK11/trustzone_images/core/securemsm/trustzone/qsapps/sampleapp/build/sampleapp/scorpion/IADAANAA/app_content_protection.o
LOAD /local/mnt/workspace/CRMBuilds/TZ.BF.4.0.3.c1-00005-M8996AAAAANAZT-1_20170110_230814/b/HK11/trustzone_images/core/securemsm/trustzone/qsapps/sampleapp/build/sampleapp/scorpion/IADAANAA/app_secure_ui.o
LOAD /local/mnt/workspace/CRMBuilds/TZ.BF.4.0.3.c1-00005-M8996AAAAANAZT-1_20170110_230814/b/HK11/trustzone_images/core/securemsm/trustzone/qsapps/sampleapp/build/sampleapp/scorpion/IADAANAA/app_bio_lib.o
LOAD /local/mnt/workspace/CRMBuilds/TZ.BF.4.0.3.c1-00005-M8996AAAAANAZT-1_20170110_230814/b/HK11/trustzone_images/core/securemsm/trustzone/qsapps/sampleapp/build/sampleapp/scorpion/IADAANAA/app_bulletin_board.o
LOAD /local/mnt/workspace/CRMBuilds/TZ.BF.4.0.3.c1-00005-M8996AAAAANAZT-1_20170110_230814/b/HK11/trustzone_images/core/securemsm/trustzone/qsapps/sampleapp/build/sampleapp/scorpion/IADAANAA/metadata.o
END GROUP
OUTPUT(/local/mnt/workspace/CRMBuilds/TZ.BF.4.0.3.c1-00005-M8996AAAAANAZT-1_20170110_230814/b/HK11/trustzone_images/core/bsp/trustzone/qsapps/sampleapp/build/IADAANAA/smplap32.elf elf32-littlearm)

.ARM.attributes
                0x00000000       0x3d
 .ARM.attributes
                0x00000000       0x37 /local/mnt/workspace/CRMBuilds/TZ.BF.4.0.3.c1-00005-M8996AAAAANAZT-1_20170110_230814/b/HK11/trustzone_images/core/securemsm/trustzone/qsapps/sampleapp/build/sampleapp/scorpion/IADAANAA/app_main.o
 .ARM.attributes
                0x00000037       0x37 /local/mnt/workspace/CRMBuilds/TZ.BF.4.0.3.c1-00005-M8996AAAAANAZT-1_20170110_230814/b/HK11/trustzone_images/core/securemsm/trustzone/qsapps/sampleapp/build/sampleapp/scorpion/IADAANAA/app_smplserv_test.o
 .ARM.attributes
                0x0000006e       0x37 /local/mnt/workspace/CRMBuilds/TZ.BF.4.0.3.c1-00005-M8996AAAAANAZT-1_20170110_230814/b/HK11/trustzone_images/core/securemsm/trustzone/qsapps/sampleapp/build/sampleapp/scorpion/IADAANAA/app_smplcert_test.o
 .ARM.attributes
                0x000000a5       0x37 /local/mnt/workspace/CRMBuilds/TZ.BF.4.0.3.c1-00005-M8996AAAAANAZT-1_20170110_230814/b/HK11/trustzone_images/core/securemsm/trustzone/qsapps/sampleapp/build/sampleapp/scorpion/IADAANAA/app_crypto.o
 .ARM.attributes
                0x000000dc       0x37 /local/mnt/workspace/CRMBuilds/TZ.BF.4.0.3.c1-00005-M8996AAAAANAZT-1_20170110_230814/b/HK11/trustzone_images/core/securemsm/trustzone/qsapps/sampleapp/build/sampleapp/scorpion/IADAANAA/app_sfs.o
 .ARM.attributes
                0x00000113       0x37 /local/mnt/workspace/CRMBuilds/TZ.BF.4.0.3.c1-00005-M8996AAAAANAZT-1_20170110_230814/b/HK11/trustzone_images/core/securemsm/trustzone/qsapps/sampleapp/build/sampleapp/scorpion/IADAANAA/app_rsa.o
 .ARM.attributes
                0x0000014a       0x37 /local/mnt/workspace/CRMBuilds/TZ.BF.4.0.3.c1-00005-M8996AAAAANAZT-1_20170110_230814/b/HK11/trustzone_images/core/securemsm/trustzone/qsapps/sampleapp/build/sampleapp/scorpion/IADAANAA/qsee_api_tests.o
 .ARM.attributes
                0x00000181       0x37 /local/mnt/workspace/CRMBuilds/TZ.BF.4.0.3.c1-00005-M8996AAAAANAZT-1_20170110_230814/b/HK11/trustzone_images/core/securemsm/trustzone/qsapps/sampleapp/build/sampleapp/scorpion/IADAANAA/app_cmnlib.o
 .ARM.attributes
                0x000001b8       0x37 /local/mnt/workspace/CRMBuilds/TZ.BF.4.0.3.c1-00005-M8996AAAAANAZT-1_20170110_230814/b/HK11/trustzone_images/core/securemsm/trustzone/qsapps/sampleapp/build/sampleapp/scorpion/IADAANAA/app_message_passing.o
 .ARM.attributes
                0x000001ef       0x37 /local/mnt/workspace/CRMBuilds/TZ.BF.4.0.3.c1-00005-M8996AAAAANAZT-1_20170110_230814/b/HK11/trustzone_images/core/securemsm/trustzone/qsapps/sampleapp/build/sampleapp/scorpion/IADAANAA/app_fuses.o
 .ARM.attributes
                0x00000226       0x37 /local/mnt/workspace/CRMBuilds/TZ.BF.4.0.3.c1-00005-M8996AAAAANAZT-1_20170110_230814/b/HK11/trustzone_images/core/securemsm/trustzone/qsapps/sampleapp/build/sampleapp/scorpion/IADAANAA/app_stor.o
 .ARM.attributes
                0x0000025d       0x37 /local/mnt/workspace/CRMBuilds/TZ.BF.4.0.3.c1-00005-M8996AAAAANAZT-1_20170110_230814/b/HK11/trustzone_images/core/securemsm/trustzone/qsapps/sampleapp/build/sampleapp/scorpion/IADAANAA/app_content_protection.o
 .ARM.attributes
                0x00000294       0x37 /local/mnt/workspace/CRMBuilds/TZ.BF.4.0.3.c1-00005-M8996AAAAANAZT-1_20170110_230814/b/HK11/trustzone_images/core/securemsm/trustzone/qsapps/sampleapp/build/sampleapp/scorpion/IADAANAA/app_secure_ui.o
 .ARM.attributes
                0x000002cb       0x37 /local/mnt/workspace/CRMBuilds/TZ.BF.4.0.3.c1-00005-M8996AAAAANAZT-1_20170110_230814/b/HK11/trustzone_images/core/securemsm/trustzone/qsapps/sampleapp/build/sampleapp/scorpion/IADAANAA/app_bio_lib.o
 .ARM.attributes
                0x00000302       0x37 /local/mnt/workspace/CRMBuilds/TZ.BF.4.0.3.c1-00005-M8996AAAAANAZT-1_20170110_230814/b/HK11/trustzone_images/core/securemsm/trustzone/qsapps/sampleapp/build/sampleapp/scorpion/IADAANAA/app_bulletin_board.o
 .ARM.attributes
                0x00000339       0x37 /local/mnt/workspace/CRMBuilds/TZ.BF.4.0.3.c1-00005-M8996AAAAANAZT-1_20170110_230814/b/HK11/trustzone_images/core/securemsm/trustzone/qsapps/sampleapp/build/sampleapp/scorpion/IADAANAA/metadata.o
 .ARM.attributes
                0x00000370       0x37 /local/mnt/workspace/CRMBuilds/TZ.BF.4.0.3.c1-00005-M8996AAAAANAZT-1_20170110_230814/b/HK11/trustzone_images/core/kernel/libstd/build/sampleapp/scorpion/IADAANAA/libstd.lib(memscpy.o)
 .ARM.attributes
                0x000003a7       0x37 /local/mnt/workspace/CRMBuilds/TZ.BF.4.0.3.c1-00005-M8996AAAAANAZT-1_20170110_230814/b/HK11/trustzone_images/core/kernel/libstd/build/sampleapp/scorpion/IADAANAA/libstd.lib(strlcpy.o)
 .ARM.attributes
                0x000003de       0x37 /local/mnt/workspace/CRMBuilds/TZ.BF.4.0.3.c1-00005-M8996AAAAANAZT-1_20170110_230814/b/HK11/trustzone_images/core/kernel/libstd/build/sampleapp/scorpion/IADAANAA/libstd.lib(secure_memset.o)
 .ARM.attributes
                0x00000415       0x37 /local/mnt/workspace/CRMBuilds/TZ.BF.4.0.3.c1-00005-M8996AAAAANAZT-1_20170110_230814/b/HK11/trustzone_images/core/kernel/libstd/build/sampleapp/scorpion/IADAANAA/libstd.lib(timesafe_memcmp.o)
 .ARM.attributes
                0x0000044c       0x37 /local/mnt/workspace/CRMBuilds/TZ.BF.4.0.3.c1-00005-M8996AAAAANAZT-1_20170110_230814/b/HK11/trustzone_images/core/kernel/libstd/build/sampleapp/scorpion/IADAANAA/libstd.lib(timesafe_strncmp.o)
 .ARM.attributes
                0x00000483       0x37 /local/mnt/workspace/CRMBuilds/TZ.BF.4.0.3.c1-00005-M8996AAAAANAZT-1_20170110_230814/b/HK11/trustzone_images/core/securemsm/sse/qsee/SecureUI/build/sampleapp/scorpion/IADAANAA/secure_ui.lib(SecureUI.o)
 .ARM.attributes
                0x000004ba       0x37 /local/mnt/workspace/CRMBuilds/TZ.BF.4.0.3.c1-00005-M8996AAAAANAZT-1_20170110_230814/b/HK11/trustzone_images/core/securemsm/sse/qsee/SecureUILib/lib/build/sampleapp/scorpion/IADAANAA/secure_ui_lib.lib(SecureUILib.o)
 .ARM.attributes
                0x000004f1       0x37 /local/mnt/workspace/CRMBuilds/TZ.BF.4.0.3.c1-00005-M8996AAAAANAZT-1_20170110_230814/b/HK11/trustzone_images/core/securemsm/sse/qsee/SecureUILib/lib/build/sampleapp/scorpion/IADAANAA/secure_ui_lib.lib(01_startTouch.o)
 .ARM.attributes
                0x00000528       0x37 /local/mnt/workspace/CRMBuilds/TZ.BF.4.0.3.c1-00005-M8996AAAAANAZT-1_20170110_230814/b/HK11/trustzone_images/core/securemsm/sse/qsee/SecureUILib/lib/build/sampleapp/scorpion/IADAANAA/secure_ui_lib.lib(02_processTouch.o)
 .ARM.attributes
                0x0000055f       0x37 /local/mnt/workspace/CRMBuilds/TZ.BF.4.0.3.c1-00005-M8996AAAAANAZT-1_20170110_230814/b/HK11/trustzone_images/core/securemsm/sse/qsee/SecureUILib/lib/build/sampleapp/scorpion/IADAANAA/secure_ui_lib.lib(03_stopTouch.o)
 .ARM.attributes
                0x00000596       0x37 /local/mnt/workspace/CRMBuilds/TZ.BF.4.0.3.c1-00005-M8996AAAAANAZT-1_20170110_230814/b/HK11/trustzone_images/core/securemsm/trustzone/qsapps/libs/applib/common_applib/build/sampleapp/scorpion/IADAANAA/tzapp_entrylib.lib(common_applib.o)
 .ARM.attributes
                0x000005cd       0x37 /local/mnt/workspace/CRMBuilds/TZ.BF.4.0.3.c1-00005-M8996AAAAANAZT-1_20170110_230814/b/HK11/trustzone_images/core/securemsm/trustzone/qsapps/libs/applib/proxy/build/sampleapp/scorpion/IADAANAA/tzlib_proxy.lib(prxy_services.o)
 .ARM.attributes
                0x00000604       0x37 /local/mnt/workspace/CRMBuilds/TZ.BF.4.0.3.c1-00005-M8996AAAAANAZT-1_20170110_230814/b/HK11/trustzone_images/core/securemsm/trustzone/qsapps/libs/applib/proxy/build/sampleapp/scorpion/IADAANAA/tzlib_proxy.lib(prxy_qsee_shim.o)
 .ARM.attributes
                0x0000063b       0x37 /local/mnt/workspace/CRMBuilds/TZ.BF.4.0.3.c1-00005-M8996AAAAANAZT-1_20170110_230814/b/HK11/trustzone_images/core/securemsm/trustzone/qsapps/libs/applib/proxy/build/sampleapp/scorpion/IADAANAA/tzlib_proxy.lib(prxy_ufaes.o)
 .ARM.attributes
                0x00000672       0x37 /local/mnt/workspace/CRMBuilds/TZ.BF.4.0.3.c1-00005-M8996AAAAANAZT-1_20170110_230814/b/HK11/trustzone_images/core/securemsm/trustzone/qsapps/libs/applib/proxy/build/sampleapp/scorpion/IADAANAA/tzlib_proxy.lib(prxy_ufdes.o)
 .ARM.attributes
                0x000006a9       0x37 /local/mnt/workspace/CRMBuilds/TZ.BF.4.0.3.c1-00005-M8996AAAAANAZT-1_20170110_230814/b/HK11/trustzone_images/core/securemsm/trustzone/qsapps/libs/applib/proxy/build/sampleapp/scorpion/IADAANAA/tzlib_proxy.lib(prxy_ufsha.o)
 .ARM.attributes
                0x000006e0       0x37 /local/mnt/workspace/CRMBuilds/TZ.BF.4.0.3.c1-00005-M8996AAAAANAZT-1_20170110_230814/b/HK11/trustzone_images/core/securemsm/trustzone/qsapps/libs/applib/proxy/build/sampleapp/scorpion/IADAANAA/tzlib_proxy.lib(prxy_secmath.o)
 .ARM.attributes
                0x00000717       0x37 /local/mnt/workspace/CRMBuilds/TZ.BF.4.0.3.c1-00005-M8996AAAAANAZT-1_20170110_230814/b/HK11/trustzone_images/core/securemsm/trustzone/qsapps/libs/applib/proxy/build/sampleapp/scorpion/IADAANAA/tzlib_proxy.lib(prxy_secrsa.o)
 .ARM.attributes
                0x0000074e       0x37 /local/mnt/workspace/CRMBuilds/TZ.BF.4.0.3.c1-00005-M8996AAAAANAZT-1_20170110_230814/b/HK11/trustzone_images/core/securemsm/trustzone/qsapps/libs/applib/proxy/build/sampleapp/scorpion/IADAANAA/tzlib_proxy.lib(prxy_ecc.o)
 .ARM.attributes
                0x00000785       0x37 /local/mnt/workspace/CRMBuilds/TZ.BF.4.0.3.c1-00005-M8996AAAAANAZT-1_20170110_230814/b/HK11/trustzone_images/core/securemsm/trustzone/qsapps/libs/applib/qsee/build/sampleapp/scorpion/IADAANAA/tzapp_entrylib.lib(mink_shared_code.o)
 .ARM.attributes
                0x000007bc       0x37 /local/mnt/workspace/CRMBuilds/TZ.BF.4.0.3.c1-00005-M8996AAAAANAZT-1_20170110_230814/b/HK11/trustzone_images/core/securemsm/trustzone/qsapps/libs/applib/qsee/build/sampleapp/scorpion/IADAANAA/tzapp_entrylib.lib(qsee_env.o)
 .ARM.attributes
                0x000007f3       0x37 /local/mnt/workspace/CRMBuilds/TZ.BF.4.0.3.c1-00005-M8996AAAAANAZT-1_20170110_230814/b/HK11/trustzone_images/core/securemsm/trustzone/qsapps/libs/applib/qsee/build/sampleapp/scorpion/IADAANAA/tzapp_entrylib.lib(qsee_core_shim.o)
 .ARM.attributes
                0x0000082a       0x37 /local/mnt/workspace/CRMBuilds/TZ.BF.4.0.3.c1-00005-M8996AAAAANAZT-1_20170110_230814/b/HK11/trustzone_images/core/securemsm/trustzone/qsapps/libs/applib/qsee/build/sampleapp/scorpion/IADAANAA/tzapp_entrylib.lib(qsee_deviceid.o)
 .ARM.attributes
                0x00000861       0x37 /local/mnt/workspace/CRMBuilds/TZ.BF.4.0.3.c1-00005-M8996AAAAANAZT-1_20170110_230814/b/HK11/trustzone_images/core/securemsm/trustzone/qsapps/libs/applib/qsee/build/sampleapp/scorpion/IADAANAA/tzapp_entrylib.lib(qsee_prng.o)
 .ARM.attributes
                0x00000898       0x37 /local/mnt/workspace/CRMBuilds/TZ.BF.4.0.3.c1-00005-M8996AAAAANAZT-1_20170110_230814/b/HK11/trustzone_images/core/securemsm/trustzone/qsapps/libs/applib/qsee/build/sampleapp/scorpion/IADAANAA/tzapp_entrylib.lib(qsee_secdisp.o)
 .ARM.attributes
                0x000008cf       0x37 /local/mnt/workspace/CRMBuilds/TZ.BF.4.0.3.c1-00005-M8996AAAAANAZT-1_20170110_230814/b/HK11/trustzone_images/core/securemsm/trustzone/qsapps/libs/applib/qsee/build/sampleapp/scorpion/IADAANAA/tzapp_entrylib.lib(qsee_nsmem.o)
 .ARM.attributes
                0x00000906       0x37 /local/mnt/workspace/CRMBuilds/TZ.BF.4.0.3.c1-00005-M8996AAAAANAZT-1_20170110_230814/b/HK11/trustzone_images/core/securemsm/trustzone/qsapps/libs/applib/qsee/build/sampleapp/scorpion/IADAANAA/tzapp_entrylib.lib(qsee_cmac.o)
 .ARM.attributes
                0x0000093d       0x37 /local/mnt/workspace/CRMBuilds/TZ.BF.4.0.3.c1-00005-M8996AAAAANAZT-1_20170110_230814/b/HK11/trustzone_images/core/securemsm/trustzone/qsapps/libs/applib/qsee/build/sampleapp/scorpion/IADAANAA/tzapp_entrylib.lib(qsee_crypto_shim.o)
 .ARM.attributes
                0x00000974       0x37 /local/mnt/workspace/CRMBuilds/TZ.BF.4.0.3.c1-00005-M8996AAAAANAZT-1_20170110_230814/b/HK11/trustzone_images/core/securemsm/trustzone/qsapps/libs/applib/qsee/build/sampleapp/scorpion/IADAANAA/tzapp_entrylib.lib(qsee_timer_shim.o)
 .ARM.attributes
                0x000009ab       0x37 /local/mnt/workspace/CRMBuilds/TZ.BF.4.0.3.c1-00005-M8996AAAAANAZT-1_20170110_230814/b/HK11/trustzone_images/core/securemsm/trustzone/qsapps/libs/applib/qsee/build/sampleapp/scorpion/IADAANAA/tzapp_entrylib.lib(qsee_comstr.o)
 .ARM.attributes
                0x000009e2       0x37 /local/mnt/workspace/CRMBuilds/TZ.BF.4.0.3.c1-00005-M8996AAAAANAZT-1_20170110_230814/b/HK11/trustzone_images/core/securemsm/trustzone/qsapps/libs/applib/qsee/build/sampleapp/scorpion/IADAANAA/tzapp_entrylib.lib(stor.o)
 .ARM.attributes
                0x00000a19       0x37 /local/mnt/workspace/CRMBuilds/TZ.BF.4.0.3.c1-00005-M8996AAAAANAZT-1_20170110_230814/b/HK11/trustzone_images/core/securemsm/trustzone/qsapps/libs/applib/qsee/build/sampleapp/scorpion/IADAANAA/tzapp_entrylib.lib(stor_gpt.o)
 .ARM.attributes
                0x00000a50       0x37 /local/mnt/workspace/CRMBuilds/TZ.BF.4.0.3.c1-00005-M8996AAAAANAZT-1_20170110_230814/b/HK11/trustzone_images/core/securemsm/trustzone/qsapps/libs/applib/qsee/build/sampleapp/scorpion/IADAANAA/tzapp_entrylib.lib(stor_rpmbw.o)
 .ARM.attributes
                0x00000a87       0x37 /local/mnt/workspace/CRMBuilds/TZ.BF.4.0.3.c1-00005-M8996AAAAANAZT-1_20170110_230814/b/HK11/trustzone_images/core/securemsm/trustzone/qsapps/libs/applib/qsee/build/sampleapp/scorpion/IADAANAA/tzapp_entrylib.lib(qsee_counter_shim.o)
 .ARM.attributes
                0x00000abe       0x37 /local/mnt/workspace/CRMBuilds/TZ.BF.4.0.3.c1-00005-M8996AAAAANAZT-1_20170110_230814/b/HK11/trustzone_images/core/securemsm/trustzone/qsapps/libs/applib/qsee/build/sampleapp/scorpion/IADAANAA/tzapp_entrylib.lib(qsee_cipher.o)
 .ARM.attributes
                0x00000af5       0x37 /local/mnt/workspace/CRMBuilds/TZ.BF.4.0.3.c1-00005-M8996AAAAANAZT-1_20170110_230814/b/HK11/trustzone_images/core/securemsm/trustzone/qsapps/libs/applib/qsee/build/sampleapp/scorpion/IADAANAA/tzapp_entrylib.lib(qsee_hash.o)
 .ARM.attributes
                0x00000b2c       0x37 /local/mnt/workspace/CRMBuilds/TZ.BF.4.0.3.c1-00005-M8996AAAAANAZT-1_20170110_230814/b/HK11/trustzone_images/core/securemsm/trustzone/qsapps/libs/applib/qsee/build/sampleapp/scorpion/IADAANAA/tzapp_entrylib.lib(qsee_hmac.o)
 .ARM.attributes
                0x00000b63       0x37 /local/mnt/workspace/CRMBuilds/TZ.BF.4.0.3.c1-00005-M8996AAAAANAZT-1_20170110_230814/b/HK11/trustzone_images/core/securemsm/trustzone/qsapps/libs/applib/qsee/build/sampleapp/scorpion/IADAANAA/tzapp_entrylib.lib(qsee_i2c.o)
 .ARM.attributes
                0x00000b9a       0x37 /local/mnt/workspace/CRMBuilds/TZ.BF.4.0.3.c1-00005-M8996AAAAANAZT-1_20170110_230814/b/HK11/trustzone_images/core/securemsm/trustzone/qsapps/libs/applib/qsee/build/sampleapp/scorpion/IADAANAA/tzapp_entrylib.lib(qsee_spi.o)
 .ARM.attributes
                0x00000bd1       0x37 /local/mnt/workspace/CRMBuilds/TZ.BF.4.0.3.c1-00005-M8996AAAAANAZT-1_20170110_230814/b/HK11/trustzone_images/core/securemsm/trustzone/qsapps/libs/applib/qsee/build/sampleapp/scorpion/IADAANAA/tzapp_entrylib.lib(qsee_bulletin_board_shim.o)
 .ARM.attributes
                0x00000c08       0x37 /local/mnt/workspace/CRMBuilds/TZ.BF.4.0.3.c1-00005-M8996AAAAANAZT-1_20170110_230814/b/HK11/trustzone_images/core/securemsm/trustzone/qsapps/libs/applib/qsee/build/sampleapp/scorpion/IADAANAA/tzapp_entrylib.lib(qsee_tlmm.o)
 .ARM.attributes
                0x00000c3f       0x37 /local/mnt/workspace/CRMBuilds/TZ.BF.4.0.3.c1-00005-M8996AAAAANAZT-1_20170110_230814/b/HK11/trustzone_images/core/securemsm/trustzone/qsapps/libs/applib/qsee/build/sampleapp/scorpion/IADAANAA/tzapp_entrylib.lib(qsee_sync.o)
 .ARM.attributes
                0x00000c76       0x37 /local/mnt/workspace/CRMBuilds/TZ.BF.4.0.3.c1-00005-M8996AAAAANAZT-1_20170110_230814/b/HK11/trustzone_images/core/securemsm/trustzone/qsapps/libs/applib/qsee/build/sampleapp/scorpion/IADAANAA/tzapp_entrylib.lib(qsee_dcache.o)
 .ARM.attributes
                0x00000cad       0x37 /local/mnt/workspace/CRMBuilds/TZ.BF.4.0.3.c1-00005-M8996AAAAANAZT-1_20170110_230814/b/HK11/trustzone_images/core/securemsm/trustzone/qsapps/libs/applib/qsee/build/sampleapp/scorpion/IADAANAA/tzapp_entrylib.lib(qsee_shared_buffer.o)
 .ARM.attributes
                0x00000ce4       0x37 /local/mnt/workspace/CRMBuilds/TZ.BF.4.0.3.c1-00005-M8996AAAAANAZT-1_20170110_230814/b/HK11/trustzone_images/core/securemsm/trustzone/qsapps/libs/applib/qsee/build/sampleapp/scorpion/IADAANAA/tzapp_entrylib.lib(qsee_oem_buffer.o)
 .ARM.attributes
                0x00000d1b       0x37 /local/mnt/workspace/CRMBuilds/TZ.BF.4.0.3.c1-00005-M8996AAAAANAZT-1_20170110_230814/b/HK11/trustzone_images/core/securemsm/trustzone/qsapps/libs/applib/qsee/build/sampleapp/scorpion/IADAANAA/tzapp_entrylib.lib(qsee_intmask.o)
 .ARM.attributes
                0x00000d52       0x37 /local/mnt/workspace/CRMBuilds/TZ.BF.4.0.3.c1-00005-M8996AAAAANAZT-1_20170110_230814/b/HK11/trustzone_images/core/securemsm/trustzone/qsapps/libs/applib/qsee/build/sampleapp/scorpion/IADAANAA/tzapp_entrylib.lib(qsee_trans_ns_addr.o)
 .ARM.attributes
                0x00000d89       0x37 /local/mnt/workspace/CRMBuilds/TZ.BF.4.0.3.c1-00005-M8996AAAAANAZT-1_20170110_230814/b/HK11/trustzone_images/core/securemsm/trustzone/qsapps/libs/applib/qsee/build/sampleapp/scorpion/IADAANAA/tzapp_entrylib.lib(qsee_appmessage.o)
 .ARM.attributes
                0x00000dc0       0x37 /local/mnt/workspace/CRMBuilds/TZ.BF.4.0.3.c1-00005-M8996AAAAANAZT-1_20170110_230814/b/HK11/trustzone_images/core/securemsm/trustzone/qsapps/libs/applib/qsee/build/sampleapp/scorpion/IADAANAA/tzapp_entrylib.lib(sfs_api.o)
 .ARM.attributes
                0x00000df7       0x37 /local/mnt/workspace/CRMBuilds/TZ.BF.4.0.3.c1-00005-M8996AAAAANAZT-1_20170110_230814/b/HK11/trustzone_images/core/securemsm/trustzone/qsapps/libs/applib/qsee/build/sampleapp/scorpion/IADAANAA/tzapp_entrylib.lib(tzapp_lib_main.o)
 .ARM.attributes
                0x00000e2e       0x12 /local/mnt/workspace/CRMBuilds/TZ.BF.4.0.3.c1-00005-M8996AAAAANAZT-1_20170110_230814/b/HK11/trustzone_images/core/securemsm/trustzone/qsapps/libs/applib/qsee/build/sampleapp/scorpion/IADAANAA/tzapp_entrylib.lib(kthread_shared.o)
 .ARM.attributes
                0x00000e40       0x37 /local/mnt/workspace/CRMBuilds/TZ.BF.4.0.3.c1-00005-M8996AAAAANAZT-1_20170110_230814/b/HK11/trustzone_images/core/securemsm/trustzone/qsapps/libs/biometric/build/sampleapp/scorpion/IADAANAA/biometric_lib.lib(biometric.o)
 .ARM.attributes
                0x00000e77       0x37 /local/mnt/workspace/CRMBuilds/TZ.BF.4.0.3.c1-00005-M8996AAAAANAZT-1_20170110_230814/b/HK11/trustzone_images/core/securemsm/trustzone/qsapps/libs/biometric/build/sampleapp/scorpion/IADAANAA/biometric_lib.lib(biometric_serializer.o)
 .ARM.attributes
                0x00000eae       0x37 /local/mnt/workspace/CRMBuilds/TZ.BF.4.0.3.c1-00005-M8996AAAAANAZT-1_20170110_230814/b/HK11/trustzone_images/core/securemsm/trustzone/qsee/mink/libstd/build/sampleapp/scorpion/IADAANAA/libstd.lib(strnlen.o)
 .ARM.attributes
                0x00000ee5       0x37 /local/mnt/workspace/CRMBuilds/TZ.BF.4.0.3.c1-00005-M8996AAAAANAZT-1_20170110_230814/b/HK11/trustzone_images/core/securemsm/trustzone/qsee/mink/libstd/build/sampleapp/scorpion/IADAANAA/libstd.lib(memcmp.o)
 .ARM.attributes
                0x00000f1c       0x37 /local/mnt/workspace/CRMBuilds/TZ.BF.4.0.3.c1-00005-M8996AAAAANAZT-1_20170110_230814/b/HK11/trustzone_images/core/securemsm/trustzone/qsee/mink/libstd/build/sampleapp/scorpion/IADAANAA/libstd.lib(strlen.o)
 .ARM.attributes
                0x00000f53       0x37 /local/mnt/workspace/CRMBuilds/TZ.BF.4.0.3.c1-00005-M8996AAAAANAZT-1_20170110_230814/b/HK11/trustzone_images/core/securemsm/trustzone/qsee/mink/libstd/build/sampleapp/scorpion/IADAANAA/libstd.lib(strcmp.o)
 .ARM.attributes
                0x00000f8a       0x37 /local/mnt/workspace/CRMBuilds/TZ.BF.4.0.3.c1-00005-M8996AAAAANAZT-1_20170110_230814/b/HK11/trustzone_images/core/securemsm/trustzone/qsee/mink/libstd/build/sampleapp/scorpion/IADAANAA/libstd.lib(strncmp.o)
 .ARM.attributes
                0x00000fc1       0x37 /local/mnt/workspace/CRMBuilds/TZ.BF.4.0.3.c1-00005-M8996AAAAANAZT-1_20170110_230814/b/HK11/trustzone_images/core/securemsm/trustzone/qsee/mink/libstd/build/sampleapp/scorpion/IADAANAA/libstd.lib(printf.o)
 .ARM.attributes
                0x00000ff8       0x37 /local/mnt/workspace/CRMBuilds/TZ.BF.4.0.3.c1-00005-M8996AAAAANAZT-1_20170110_230814/b/HK11/trustzone_images/core/securemsm/trustzone/qsee/mink/libstd/build/sampleapp/scorpion/IADAANAA/libstd.lib(memchr.o)
 .ARM.attributes
                0x0000102f       0x2b /afs/localcell/cm/gv2.6/sysname/pkg.@sys/qct/software/llvm/release/arm/3.5.2.4/lib/clang/3.5.2/lib/linux/libclang_rt.builtins-arm.a(aeabi_dcmp.S.o)
 .ARM.attributes
                0x0000105a       0x2b /afs/localcell/cm/gv2.6/sysname/pkg.@sys/qct/software/llvm/release/arm/3.5.2.4/lib/clang/3.5.2/lib/linux/libclang_rt.builtins-arm.a(aeabi_memcpy.S.o)
 .ARM.attributes
                0x00001085       0x2b /afs/localcell/cm/gv2.6/sysname/pkg.@sys/qct/software/llvm/release/arm/3.5.2.4/lib/clang/3.5.2/lib/linux/libclang_rt.builtins-arm.a(aeabi_memmove.S.o)
 .ARM.attributes
                0x000010b0       0x2b /afs/localcell/cm/gv2.6/sysname/pkg.@sys/qct/software/llvm/release/arm/3.5.2.4/lib/clang/3.5.2/lib/linux/libclang_rt.builtins-arm.a(aeabi_memset.S.o)
 .ARM.attributes
                0x000010db       0x2b /afs/localcell/cm/gv2.6/sysname/pkg.@sys/qct/software/llvm/release/arm/3.5.2.4/lib/clang/3.5.2/lib/linux/libclang_rt.builtins-arm.a(aeabi_uldivmod.S.o)
 .ARM.attributes
                0x00001106       0x41 /afs/localcell/cm/gv2.6/sysname/pkg.@sys/qct/software/llvm/release/arm/3.5.2.4/lib/clang/3.5.2/lib/linux/libclang_rt.builtins-arm.a(adddf3.c.o)
 .ARM.attributes
                0x00001147       0x41 /afs/localcell/cm/gv2.6/sysname/pkg.@sys/qct/software/llvm/release/arm/3.5.2.4/lib/clang/3.5.2/lib/linux/libclang_rt.builtins-arm.a(comparedf2.c.o)
 .ARM.attributes
                0x00001188       0x41 /afs/localcell/cm/gv2.6/sysname/pkg.@sys/qct/software/llvm/release/arm/3.5.2.4/lib/clang/3.5.2/lib/linux/libclang_rt.builtins-arm.a(divsf3.c.o)
 .ARM.attributes
                0x000011c9       0x41 /afs/localcell/cm/gv2.6/sysname/pkg.@sys/qct/software/llvm/release/arm/3.5.2.4/lib/clang/3.5.2/lib/linux/libclang_rt.builtins-arm.a(extendsfdf2.c.o)
 .ARM.attributes
                0x0000120a       0x41 /afs/localcell/cm/gv2.6/sysname/pkg.@sys/qct/software/llvm/release/arm/3.5.2.4/lib/clang/3.5.2/lib/linux/libclang_rt.builtins-arm.a(fixdfsi.c.o)
 .ARM.attributes
                0x0000124b       0x41 /afs/localcell/cm/gv2.6/sysname/pkg.@sys/qct/software/llvm/release/arm/3.5.2.4/lib/clang/3.5.2/lib/linux/libclang_rt.builtins-arm.a(floatundisf.c.o)
 .ARM.attributes
                0x0000128c       0x41 /afs/localcell/cm/gv2.6/sysname/pkg.@sys/qct/software/llvm/release/arm/3.5.2.4/lib/clang/3.5.2/lib/linux/libclang_rt.builtins-arm.a(floatunsisf.c.o)
 .ARM.attributes
                0x000012cd       0x41 /afs/localcell/cm/gv2.6/sysname/pkg.@sys/qct/software/llvm/release/arm/3.5.2.4/lib/clang/3.5.2/lib/linux/libclang_rt.builtins-arm.a(muldf3.c.o)
 .ARM.attributes
                0x0000130e       0x41 /afs/localcell/cm/gv2.6/sysname/pkg.@sys/qct/software/llvm/release/arm/3.5.2.4/lib/clang/3.5.2/lib/linux/libclang_rt.builtins-arm.a(mulsf3.c.o)
 .ARM.attributes
                0x0000134f       0x41 /afs/localcell/cm/gv2.6/sysname/pkg.@sys/qct/software/llvm/release/arm/3.5.2.4/lib/clang/3.5.2/lib/linux/libclang_rt.builtins-arm.a(truncdfsf2.c.o)
 .ARM.attributes
                0x00001390       0x41 /afs/localcell/cm/gv2.6/sysname/pkg.@sys/qct/software/llvm/release/arm/3.5.2.4/lib/clang/3.5.2/lib/linux/libclang_rt.builtins-arm.a(udivmoddi4.c.o)
 .ARM.attributes
                0x000013d1       0x41 /afs/localcell/cm/gv2.6/sysname/pkg.@sys/qct/software/llvm/release/arm/3.5.2.4/lib/clang/3.5.2/lib/linux/libclang_rt.builtins-arm.a(udivsi3.c.o)
 .ARM.attributes
                0x00001412       0x41 /afs/localcell/cm/gv2.6/sysname/pkg.@sys/qct/software/llvm/release/arm/3.5.2.4/lib/clang/3.5.2/lib/linux/libclang_rt.builtins-arm.a(umoddi3.c.o)
 .ARM.attributes
                0x00001453       0x41 /afs/localcell/cm/gv2.6/sysname/pkg.@sys/qct/software/llvm/release/arm/3.5.2.4/lib/clang/3.5.2/lib/linux/libclang_rt.builtins-arm.a(umodsi3.c.o)
 .ARM.attributes
                0x00001494       0x37 /local/mnt/workspace/CRMBuilds/TZ.BF.4.0.3.c1-00005-M8996AAAAANAZT-1_20170110_230814/b/HK11/trustzone_images/core/securemsm/sse/qsee/SecureTouch/drTs/lib/build/sampleapp/scorpion/IADAANAA/touch_lib.lib(01_open.o)
 .ARM.attributes
                0x000014cb       0x37 /local/mnt/workspace/CRMBuilds/TZ.BF.4.0.3.c1-00005-M8996AAAAANAZT-1_20170110_230814/b/HK11/trustzone_images/core/securemsm/sse/qsee/SecureTouch/drTs/lib/build/sampleapp/scorpion/IADAANAA/touch_lib.lib(02_close.o)
 .ARM.attributes
                0x00001502       0x37 /local/mnt/workspace/CRMBuilds/TZ.BF.4.0.3.c1-00005-M8996AAAAANAZT-1_20170110_230814/b/HK11/trustzone_images/core/securemsm/sse/qsee/SecureTouch/drTs/lib/build/sampleapp/scorpion/IADAANAA/touch_lib.lib(03_getData.o)
 .ARM.attributes
                0x00001539       0x37 /local/mnt/workspace/CRMBuilds/TZ.BF.4.0.3.c1-00005-M8996AAAAANAZT-1_20170110_230814/b/HK11/trustzone_images/core/securemsm/trustzone/qsapps/libs/applib/common_applib/build/sampleapp/scorpion/IADAANAA/tzapp_entrylib.lib(gpPersistObjCommon.o)
 .ARM.attributes
                0x00001570       0x37 /local/mnt/workspace/CRMBuilds/TZ.BF.4.0.3.c1-00005-M8996AAAAANAZT-1_20170110_230814/b/HK11/trustzone_images/core/securemsm/trustzone/qsapps/libs/applib/common_applib/build/sampleapp/scorpion/IADAANAA/tzapp_entrylib.lib(gpPersistentObjects.o)
 .ARM.attributes
                0x000015a7       0x37 /local/mnt/workspace/CRMBuilds/TZ.BF.4.0.3.c1-00005-M8996AAAAANAZT-1_20170110_230814/b/HK11/trustzone_images/core/securemsm/trustzone/qsapps/libs/applib/common_applib/build/sampleapp/scorpion/IADAANAA/tzapp_entrylib.lib(gpPersistObjData.o)
 .ARM.attributes
                0x000015de       0x37 /local/mnt/workspace/CRMBuilds/TZ.BF.4.0.3.c1-00005-M8996AAAAANAZT-1_20170110_230814/b/HK11/trustzone_images/core/securemsm/trustzone/qsapps/libs/applib/common_applib/build/sampleapp/scorpion/IADAANAA/tzapp_entrylib.lib(gpPersistObjHandler.o)
 .ARM.attributes
                0x00001615       0x37 /local/mnt/workspace/CRMBuilds/TZ.BF.4.0.3.c1-00005-M8996AAAAANAZT-1_20170110_230814/b/HK11/trustzone_images/core/securemsm/trustzone/qsapps/libs/applib/common_applib/build/sampleapp/scorpion/IADAANAA/tzapp_entrylib.lib(gpPersistObjIndex.o)
 .ARM.attributes
                0x0000164c       0x37 /local/mnt/workspace/CRMBuilds/TZ.BF.4.0.3.c1-00005-M8996AAAAANAZT-1_20170110_230814/b/HK11/trustzone_images/core/securemsm/trustzone/qsapps/libs/applib/common_applib/build/sampleapp/scorpion/IADAANAA/tzapp_entrylib.lib(gpPersistObjVersion.o)
 .ARM.attributes
                0x00001683       0x37 /local/mnt/workspace/CRMBuilds/TZ.BF.4.0.3.c1-00005-M8996AAAAANAZT-1_20170110_230814/b/HK11/trustzone_images/core/securemsm/trustzone/qsapps/libs/applib/common_applib/build/sampleapp/scorpion/IADAANAA/tzapp_entrylib.lib(gpPersistObjCrypto.o)
 .ARM.attributes
                0x000016ba       0x37 /local/mnt/workspace/CRMBuilds/TZ.BF.4.0.3.c1-00005-M8996AAAAANAZT-1_20170110_230814/b/HK11/trustzone_images/core/securemsm/trustzone/qsapps/libs/applib/common_applib/build/sampleapp/scorpion/IADAANAA/tzapp_entrylib.lib(gpPersistObjFileIO.o)
 .ARM.attributes
                0x000016f1       0x37 /local/mnt/workspace/CRMBuilds/TZ.BF.4.0.3.c1-00005-M8996AAAAANAZT-1_20170110_230814/b/HK11/trustzone_images/core/securemsm/trustzone/qsapps/libs/applib/common_applib/build/sampleapp/scorpion/IADAANAA/tzapp_entrylib.lib(gpFileService.o)
 .ARM.attributes
                0x00001728       0x37 /local/mnt/workspace/CRMBuilds/TZ.BF.4.0.3.c1-00005-M8996AAAAANAZT-1_20170110_230814/b/HK11/trustzone_images/core/securemsm/trustzone/qsapps/libs/applib/qsee/build/sampleapp/scorpion/IADAANAA/tzapp_entrylib.lib(qsee_cfg_prop_shim.o)
 .ARM.attributes
                0x0000175f       0x37 /local/mnt/workspace/CRMBuilds/TZ.BF.4.0.3.c1-00005-M8996AAAAANAZT-1_20170110_230814/b/HK11/trustzone_images/core/securemsm/trustzone/qsapps/libs/applib/qsee/build/sampleapp/scorpion/IADAANAA/tzapp_entrylib.lib(gpPersistObjPanic.o)
 .ARM.attributes
                0x00001796       0x37 /local/mnt/workspace/CRMBuilds/TZ.BF.4.0.3.c1-00005-M8996AAAAANAZT-1_20170110_230814/b/HK11/trustzone_images/core/securemsm/trustzone/qsee/mink/libstd/build/sampleapp/scorpion/IADAANAA/libstd.lib(strlcat.o)
 .ARM.attributes
                0x000017cd       0x37 /local/mnt/workspace/CRMBuilds/TZ.BF.4.0.3.c1-00005-M8996AAAAANAZT-1_20170110_230814/b/HK11/trustzone_images/core/securemsm/trustzone/qsee/mink/libstd/build/sampleapp/scorpion/IADAANAA/libstd.lib(memset.o)
 .ARM.attributes
                0x00001804       0x37 /local/mnt/workspace/CRMBuilds/TZ.BF.4.0.3.c1-00005-M8996AAAAANAZT-1_20170110_230814/b/HK11/trustzone_images/core/securemsm/trustzone/qsee/mink/libstd/build/sampleapp/scorpion/IADAANAA/libstd.lib(memcpy.o)
 .ARM.attributes
                0x0000183b       0x37 /local/mnt/workspace/CRMBuilds/TZ.BF.4.0.3.c1-00005-M8996AAAAANAZT-1_20170110_230814/b/HK11/trustzone_images/core/securemsm/trustzone/qsee/mink/libstd/build/sampleapp/scorpion/IADAANAA/libstd.lib(memmove.o)
 .ARM.attributes
                0x00001872       0x37 /local/mnt/workspace/CRMBuilds/TZ.BF.4.0.3.c1-00005-M8996AAAAANAZT-1_20170110_230814/b/HK11/trustzone_images/core/securemsm/sse/SecureTouch/controller/build/sampleapp/scorpion/IADAANAA/drts_controller_msm8996.lib(atmel_mxt_ts.o)
 .ARM.attributes
                0x000018a9       0x37 /local/mnt/workspace/CRMBuilds/TZ.BF.4.0.3.c1-00005-M8996AAAAANAZT-1_20170110_230814/b/HK11/trustzone_images/core/securemsm/sse/SecureTouch/controller/build/sampleapp/scorpion/IADAANAA/drts_controller_msm8996.lib(synaptics_ts.o)
 .ARM.attributes
                0x000018e0       0x37 /local/mnt/workspace/CRMBuilds/TZ.BF.4.0.3.c1-00005-M8996AAAAANAZT-1_20170110_230814/b/HK11/trustzone_images/core/securemsm/sse/log/build/sampleapp/scorpion/IADAANAA/sselog.lib(sselog.o)
 .ARM.attributes
                0x00001917       0x37 /local/mnt/workspace/CRMBuilds/TZ.BF.4.0.3.c1-00005-M8996AAAAANAZT-1_20170110_230814/b/HK11/trustzone_images/core/securemsm/sse/qsee/SecureTouch/drTs/controller/build/sampleapp/scorpion/IADAANAA/touch_controller_i2c_msm8996.lib(atmel_mxt_ts_i2c.o)
 .ARM.attributes
                0x0000194e       0x37 /local/mnt/workspace/CRMBuilds/TZ.BF.4.0.3.c1-00005-M8996AAAAANAZT-1_20170110_230814/b/HK11/trustzone_images/core/securemsm/sse/qsee/SecureTouch/drTs/controller/build/sampleapp/scorpion/IADAANAA/touch_controller_i2c_msm8996.lib(synaptics_ts_i2c.o)

.comment        0x00000000       0x23
 .comment       0x00000000       0x23 /local/mnt/workspace/CRMBuilds/TZ.BF.4.0.3.c1-00005-M8996AAAAANAZT-1_20170110_230814/b/HK11/trustzone_images/core/securemsm/trustzone/qsapps/sampleapp/build/sampleapp/scorpion/IADAANAA/app_main.o
                                 0x24 (size before relaxing)
 .comment       0x00000000       0x24 /local/mnt/workspace/CRMBuilds/TZ.BF.4.0.3.c1-00005-M8996AAAAANAZT-1_20170110_230814/b/HK11/trustzone_images/core/securemsm/trustzone/qsapps/sampleapp/build/sampleapp/scorpion/IADAANAA/app_smplserv_test.o
 .comment       0x00000000       0x24 /local/mnt/workspace/CRMBuilds/TZ.BF.4.0.3.c1-00005-M8996AAAAANAZT-1_20170110_230814/b/HK11/trustzone_images/core/securemsm/trustzone/qsapps/sampleapp/build/sampleapp/scorpion/IADAANAA/app_smplcert_test.o
 .comment       0x00000000       0x24 /local/mnt/workspace/CRMBuilds/TZ.BF.4.0.3.c1-00005-M8996AAAAANAZT-1_20170110_230814/b/HK11/trustzone_images/core/securemsm/trustzone/qsapps/sampleapp/build/sampleapp/scorpion/IADAANAA/app_crypto.o
 .comment       0x00000000       0x24 /local/mnt/workspace/CRMBuilds/TZ.BF.4.0.3.c1-00005-M8996AAAAANAZT-1_20170110_230814/b/HK11/trustzone_images/core/securemsm/trustzone/qsapps/sampleapp/build/sampleapp/scorpion/IADAANAA/app_sfs.o
 .comment       0x00000000       0x24 /local/mnt/workspace/CRMBuilds/TZ.BF.4.0.3.c1-00005-M8996AAAAANAZT-1_20170110_230814/b/HK11/trustzone_images/core/securemsm/trustzone/qsapps/sampleapp/build/sampleapp/scorpion/IADAANAA/app_rsa.o
 .comment       0x00000000       0x24 /local/mnt/workspace/CRMBuilds/TZ.BF.4.0.3.c1-00005-M8996AAAAANAZT-1_20170110_230814/b/HK11/trustzone_images/core/securemsm/trustzone/qsapps/sampleapp/build/sampleapp/scorpion/IADAANAA/qsee_api_tests.o
 .comment       0x00000000       0x24 /local/mnt/workspace/CRMBuilds/TZ.BF.4.0.3.c1-00005-M8996AAAAANAZT-1_20170110_230814/b/HK11/trustzone_images/core/securemsm/trustzone/qsapps/sampleapp/build/sampleapp/scorpion/IADAANAA/app_cmnlib.o
 .comment       0x00000000       0x24 /local/mnt/workspace/CRMBuilds/TZ.BF.4.0.3.c1-00005-M8996AAAAANAZT-1_20170110_230814/b/HK11/trustzone_images/core/securemsm/trustzone/qsapps/sampleapp/build/sampleapp/scorpion/IADAANAA/app_message_passing.o
 .comment       0x00000000       0x24 /local/mnt/workspace/CRMBuilds/TZ.BF.4.0.3.c1-00005-M8996AAAAANAZT-1_20170110_230814/b/HK11/trustzone_images/core/securemsm/trustzone/qsapps/sampleapp/build/sampleapp/scorpion/IADAANAA/app_fuses.o
 .comment       0x00000000       0x24 /local/mnt/workspace/CRMBuilds/TZ.BF.4.0.3.c1-00005-M8996AAAAANAZT-1_20170110_230814/b/HK11/trustzone_images/core/securemsm/trustzone/qsapps/sampleapp/build/sampleapp/scorpion/IADAANAA/app_stor.o
 .comment       0x00000000       0x24 /local/mnt/workspace/CRMBuilds/TZ.BF.4.0.3.c1-00005-M8996AAAAANAZT-1_20170110_230814/b/HK11/trustzone_images/core/securemsm/trustzone/qsapps/sampleapp/build/sampleapp/scorpion/IADAANAA/app_content_protection.o
 .comment       0x00000000       0x24 /local/mnt/workspace/CRMBuilds/TZ.BF.4.0.3.c1-00005-M8996AAAAANAZT-1_20170110_230814/b/HK11/trustzone_images/core/securemsm/trustzone/qsapps/sampleapp/build/sampleapp/scorpion/IADAANAA/app_secure_ui.o
 .comment       0x00000000       0x24 /local/mnt/workspace/CRMBuilds/TZ.BF.4.0.3.c1-00005-M8996AAAAANAZT-1_20170110_230814/b/HK11/trustzone_images/core/securemsm/trustzone/qsapps/sampleapp/build/sampleapp/scorpion/IADAANAA/app_bio_lib.o
 .comment       0x00000000       0x24 /local/mnt/workspace/CRMBuilds/TZ.BF.4.0.3.c1-00005-M8996AAAAANAZT-1_20170110_230814/b/HK11/trustzone_images/core/securemsm/trustzone/qsapps/sampleapp/build/sampleapp/scorpion/IADAANAA/app_bulletin_board.o
 .comment       0x00000000       0x24 /local/mnt/workspace/CRMBuilds/TZ.BF.4.0.3.c1-00005-M8996AAAAANAZT-1_20170110_230814/b/HK11/trustzone_images/core/securemsm/trustzone/qsapps/sampleapp/build/sampleapp/scorpion/IADAANAA/metadata.o
 .comment       0x00000000       0x24 /local/mnt/workspace/CRMBuilds/TZ.BF.4.0.3.c1-00005-M8996AAAAANAZT-1_20170110_230814/b/HK11/trustzone_images/core/kernel/libstd/build/sampleapp/scorpion/IADAANAA/libstd.lib(memscpy.o)
 .comment       0x00000000       0x24 /local/mnt/workspace/CRMBuilds/TZ.BF.4.0.3.c1-00005-M8996AAAAANAZT-1_20170110_230814/b/HK11/trustzone_images/core/kernel/libstd/build/sampleapp/scorpion/IADAANAA/libstd.lib(strlcpy.o)
 .comment       0x00000000       0x24 /local/mnt/workspace/CRMBuilds/TZ.BF.4.0.3.c1-00005-M8996AAAAANAZT-1_20170110_230814/b/HK11/trustzone_images/core/kernel/libstd/build/sampleapp/scorpion/IADAANAA/libstd.lib(secure_memset.o)
 .comment       0x00000000       0x24 /local/mnt/workspace/CRMBuilds/TZ.BF.4.0.3.c1-00005-M8996AAAAANAZT-1_20170110_230814/b/HK11/trustzone_images/core/kernel/libstd/build/sampleapp/scorpion/IADAANAA/libstd.lib(timesafe_memcmp.o)
 .comment       0x00000000       0x24 /local/mnt/workspace/CRMBuilds/TZ.BF.4.0.3.c1-00005-M8996AAAAANAZT-1_20170110_230814/b/HK11/trustzone_images/core/kernel/libstd/build/sampleapp/scorpion/IADAANAA/libstd.lib(timesafe_strncmp.o)
 .comment       0x00000000       0x24 /local/mnt/workspace/CRMBuilds/TZ.BF.4.0.3.c1-00005-M8996AAAAANAZT-1_20170110_230814/b/HK11/trustzone_images/core/securemsm/sse/qsee/SecureUI/build/sampleapp/scorpion/IADAANAA/secure_ui.lib(SecureUI.o)
 .comment       0x00000000       0x24 /local/mnt/workspace/CRMBuilds/TZ.BF.4.0.3.c1-00005-M8996AAAAANAZT-1_20170110_230814/b/HK11/trustzone_images/core/securemsm/sse/qsee/SecureUILib/lib/build/sampleapp/scorpion/IADAANAA/secure_ui_lib.lib(SecureUILib.o)
 .comment       0x00000000       0x24 /local/mnt/workspace/CRMBuilds/TZ.BF.4.0.3.c1-00005-M8996AAAAANAZT-1_20170110_230814/b/HK11/trustzone_images/core/securemsm/sse/qsee/SecureUILib/lib/build/sampleapp/scorpion/IADAANAA/secure_ui_lib.lib(01_startTouch.o)
 .comment       0x00000000       0x24 /local/mnt/workspace/CRMBuilds/TZ.BF.4.0.3.c1-00005-M8996AAAAANAZT-1_20170110_230814/b/HK11/trustzone_images/core/securemsm/sse/qsee/SecureUILib/lib/build/sampleapp/scorpion/IADAANAA/secure_ui_lib.lib(02_processTouch.o)
 .comment       0x00000000       0x24 /local/mnt/workspace/CRMBuilds/TZ.BF.4.0.3.c1-00005-M8996AAAAANAZT-1_20170110_230814/b/HK11/trustzone_images/core/securemsm/sse/qsee/SecureUILib/lib/build/sampleapp/scorpion/IADAANAA/secure_ui_lib.lib(03_stopTouch.o)
 .comment       0x00000000       0x24 /local/mnt/workspace/CRMBuilds/TZ.BF.4.0.3.c1-00005-M8996AAAAANAZT-1_20170110_230814/b/HK11/trustzone_images/core/securemsm/trustzone/qsapps/libs/applib/common_applib/build/sampleapp/scorpion/IADAANAA/tzapp_entrylib.lib(common_applib.o)
 .comment       0x00000000       0x24 /local/mnt/workspace/CRMBuilds/TZ.BF.4.0.3.c1-00005-M8996AAAAANAZT-1_20170110_230814/b/HK11/trustzone_images/core/securemsm/trustzone/qsapps/libs/applib/proxy/build/sampleapp/scorpion/IADAANAA/tzlib_proxy.lib(prxy_services.o)
 .comment       0x00000000       0x24 /local/mnt/workspace/CRMBuilds/TZ.BF.4.0.3.c1-00005-M8996AAAAANAZT-1_20170110_230814/b/HK11/trustzone_images/core/securemsm/trustzone/qsapps/libs/applib/proxy/build/sampleapp/scorpion/IADAANAA/tzlib_proxy.lib(prxy_qsee_shim.o)
 .comment       0x00000000       0x24 /local/mnt/workspace/CRMBuilds/TZ.BF.4.0.3.c1-00005-M8996AAAAANAZT-1_20170110_230814/b/HK11/trustzone_images/core/securemsm/trustzone/qsapps/libs/applib/proxy/build/sampleapp/scorpion/IADAANAA/tzlib_proxy.lib(prxy_ufaes.o)
 .comment       0x00000000       0x24 /local/mnt/workspace/CRMBuilds/TZ.BF.4.0.3.c1-00005-M8996AAAAANAZT-1_20170110_230814/b/HK11/trustzone_images/core/securemsm/trustzone/qsapps/libs/applib/proxy/build/sampleapp/scorpion/IADAANAA/tzlib_proxy.lib(prxy_ufdes.o)
 .comment       0x00000000       0x24 /local/mnt/workspace/CRMBuilds/TZ.BF.4.0.3.c1-00005-M8996AAAAANAZT-1_20170110_230814/b/HK11/trustzone_images/core/securemsm/trustzone/qsapps/libs/applib/proxy/build/sampleapp/scorpion/IADAANAA/tzlib_proxy.lib(prxy_ufsha.o)
 .comment       0x00000000       0x24 /local/mnt/workspace/CRMBuilds/TZ.BF.4.0.3.c1-00005-M8996AAAAANAZT-1_20170110_230814/b/HK11/trustzone_images/core/securemsm/trustzone/qsapps/libs/applib/proxy/build/sampleapp/scorpion/IADAANAA/tzlib_proxy.lib(prxy_secmath.o)
 .comment       0x00000000       0x24 /local/mnt/workspace/CRMBuilds/TZ.BF.4.0.3.c1-00005-M8996AAAAANAZT-1_20170110_230814/b/HK11/trustzone_images/core/securemsm/trustzone/qsapps/libs/applib/proxy/build/sampleapp/scorpion/IADAANAA/tzlib_proxy.lib(prxy_secrsa.o)
 .comment       0x00000000       0x24 /local/mnt/workspace/CRMBuilds/TZ.BF.4.0.3.c1-00005-M8996AAAAANAZT-1_20170110_230814/b/HK11/trustzone_images/core/securemsm/trustzone/qsapps/libs/applib/proxy/build/sampleapp/scorpion/IADAANAA/tzlib_proxy.lib(prxy_ecc.o)
 .comment       0x00000000       0x24 /local/mnt/workspace/CRMBuilds/TZ.BF.4.0.3.c1-00005-M8996AAAAANAZT-1_20170110_230814/b/HK11/trustzone_images/core/securemsm/trustzone/qsapps/libs/applib/qsee/build/sampleapp/scorpion/IADAANAA/tzapp_entrylib.lib(mink_shared_code.o)
 .comment       0x00000000       0x24 /local/mnt/workspace/CRMBuilds/TZ.BF.4.0.3.c1-00005-M8996AAAAANAZT-1_20170110_230814/b/HK11/trustzone_images/core/securemsm/trustzone/qsapps/libs/applib/qsee/build/sampleapp/scorpion/IADAANAA/tzapp_entrylib.lib(qsee_env.o)
 .comment       0x00000000       0x24 /local/mnt/workspace/CRMBuilds/TZ.BF.4.0.3.c1-00005-M8996AAAAANAZT-1_20170110_230814/b/HK11/trustzone_images/core/securemsm/trustzone/qsapps/libs/applib/qsee/build/sampleapp/scorpion/IADAANAA/tzapp_entrylib.lib(qsee_core_shim.o)
 .comment       0x00000000       0x24 /local/mnt/workspace/CRMBuilds/TZ.BF.4.0.3.c1-00005-M8996AAAAANAZT-1_20170110_230814/b/HK11/trustzone_images/core/securemsm/trustzone/qsapps/libs/applib/qsee/build/sampleapp/scorpion/IADAANAA/tzapp_entrylib.lib(qsee_deviceid.o)
 .comment       0x00000000       0x24 /local/mnt/workspace/CRMBuilds/TZ.BF.4.0.3.c1-00005-M8996AAAAANAZT-1_20170110_230814/b/HK11/trustzone_images/core/securemsm/trustzone/qsapps/libs/applib/qsee/build/sampleapp/scorpion/IADAANAA/tzapp_entrylib.lib(qsee_prng.o)
 .comment       0x00000000       0x24 /local/mnt/workspace/CRMBuilds/TZ.BF.4.0.3.c1-00005-M8996AAAAANAZT-1_20170110_230814/b/HK11/trustzone_images/core/securemsm/trustzone/qsapps/libs/applib/qsee/build/sampleapp/scorpion/IADAANAA/tzapp_entrylib.lib(qsee_secdisp.o)
 .comment       0x00000000       0x24 /local/mnt/workspace/CRMBuilds/TZ.BF.4.0.3.c1-00005-M8996AAAAANAZT-1_20170110_230814/b/HK11/trustzone_images/core/securemsm/trustzone/qsapps/libs/applib/qsee/build/sampleapp/scorpion/IADAANAA/tzapp_entrylib.lib(qsee_nsmem.o)
 .comment       0x00000000       0x24 /local/mnt/workspace/CRMBuilds/TZ.BF.4.0.3.c1-00005-M8996AAAAANAZT-1_20170110_230814/b/HK11/trustzone_images/core/securemsm/trustzone/qsapps/libs/applib/qsee/build/sampleapp/scorpion/IADAANAA/tzapp_entrylib.lib(qsee_cmac.o)
 .comment       0x00000000       0x24 /local/mnt/workspace/CRMBuilds/TZ.BF.4.0.3.c1-00005-M8996AAAAANAZT-1_20170110_230814/b/HK11/trustzone_images/core/securemsm/trustzone/qsapps/libs/applib/qsee/build/sampleapp/scorpion/IADAANAA/tzapp_entrylib.lib(qsee_crypto_shim.o)
 .comment       0x00000000       0x24 /local/mnt/workspace/CRMBuilds/TZ.BF.4.0.3.c1-00005-M8996AAAAANAZT-1_20170110_230814/b/HK11/trustzone_images/core/securemsm/trustzone/qsapps/libs/applib/qsee/build/sampleapp/scorpion/IADAANAA/tzapp_entrylib.lib(qsee_timer_shim.o)
 .comment       0x00000000       0x24 /local/mnt/workspace/CRMBuilds/TZ.BF.4.0.3.c1-00005-M8996AAAAANAZT-1_20170110_230814/b/HK11/trustzone_images/core/securemsm/trustzone/qsapps/libs/applib/qsee/build/sampleapp/scorpion/IADAANAA/tzapp_entrylib.lib(qsee_comstr.o)
 .comment       0x00000000       0x24 /local/mnt/workspace/CRMBuilds/TZ.BF.4.0.3.c1-00005-M8996AAAAANAZT-1_20170110_230814/b/HK11/trustzone_images/core/securemsm/trustzone/qsapps/libs/applib/qsee/build/sampleapp/scorpion/IADAANAA/tzapp_entrylib.lib(stor.o)
 .comment       0x00000000       0x24 /local/mnt/workspace/CRMBuilds/TZ.BF.4.0.3.c1-00005-M8996AAAAANAZT-1_20170110_230814/b/HK11/trustzone_images/core/securemsm/trustzone/qsapps/libs/applib/qsee/build/sampleapp/scorpion/IADAANAA/tzapp_entrylib.lib(stor_gpt.o)
 .comment       0x00000000       0x24 /local/mnt/workspace/CRMBuilds/TZ.BF.4.0.3.c1-00005-M8996AAAAANAZT-1_20170110_230814/b/HK11/trustzone_images/core/securemsm/trustzone/qsapps/libs/applib/qsee/build/sampleapp/scorpion/IADAANAA/tzapp_entrylib.lib(stor_rpmbw.o)
 .comment       0x00000000       0x24 /local/mnt/workspace/CRMBuilds/TZ.BF.4.0.3.c1-00005-M8996AAAAANAZT-1_20170110_230814/b/HK11/trustzone_images/core/securemsm/trustzone/qsapps/libs/applib/qsee/build/sampleapp/scorpion/IADAANAA/tzapp_entrylib.lib(qsee_counter_shim.o)
 .comment       0x00000000       0x24 /local/mnt/workspace/CRMBuilds/TZ.BF.4.0.3.c1-00005-M8996AAAAANAZT-1_20170110_230814/b/HK11/trustzone_images/core/securemsm/trustzone/qsapps/libs/applib/qsee/build/sampleapp/scorpion/IADAANAA/tzapp_entrylib.lib(qsee_cipher.o)
 .comment       0x00000000       0x24 /local/mnt/workspace/CRMBuilds/TZ.BF.4.0.3.c1-00005-M8996AAAAANAZT-1_20170110_230814/b/HK11/trustzone_images/core/securemsm/trustzone/qsapps/libs/applib/qsee/build/sampleapp/scorpion/IADAANAA/tzapp_entrylib.lib(qsee_hash.o)
 .comment       0x00000000       0x24 /local/mnt/workspace/CRMBuilds/TZ.BF.4.0.3.c1-00005-M8996AAAAANAZT-1_20170110_230814/b/HK11/trustzone_images/core/securemsm/trustzone/qsapps/libs/applib/qsee/build/sampleapp/scorpion/IADAANAA/tzapp_entrylib.lib(qsee_hmac.o)
 .comment       0x00000000       0x24 /local/mnt/workspace/CRMBuilds/TZ.BF.4.0.3.c1-00005-M8996AAAAANAZT-1_20170110_230814/b/HK11/trustzone_images/core/securemsm/trustzone/qsapps/libs/applib/qsee/build/sampleapp/scorpion/IADAANAA/tzapp_entrylib.lib(qsee_i2c.o)
 .comment       0x00000000       0x24 /local/mnt/workspace/CRMBuilds/TZ.BF.4.0.3.c1-00005-M8996AAAAANAZT-1_20170110_230814/b/HK11/trustzone_images/core/securemsm/trustzone/qsapps/libs/applib/qsee/build/sampleapp/scorpion/IADAANAA/tzapp_entrylib.lib(qsee_spi.o)
 .comment       0x00000000       0x24 /local/mnt/workspace/CRMBuilds/TZ.BF.4.0.3.c1-00005-M8996AAAAANAZT-1_20170110_230814/b/HK11/trustzone_images/core/securemsm/trustzone/qsapps/libs/applib/qsee/build/sampleapp/scorpion/IADAANAA/tzapp_entrylib.lib(qsee_bulletin_board_shim.o)
 .comment       0x00000000       0x24 /local/mnt/workspace/CRMBuilds/TZ.BF.4.0.3.c1-00005-M8996AAAAANAZT-1_20170110_230814/b/HK11/trustzone_images/core/securemsm/trustzone/qsapps/libs/applib/qsee/build/sampleapp/scorpion/IADAANAA/tzapp_entrylib.lib(qsee_tlmm.o)
 .comment       0x00000000       0x24 /local/mnt/workspace/CRMBuilds/TZ.BF.4.0.3.c1-00005-M8996AAAAANAZT-1_20170110_230814/b/HK11/trustzone_images/core/securemsm/trustzone/qsapps/libs/applib/qsee/build/sampleapp/scorpion/IADAANAA/tzapp_entrylib.lib(qsee_sync.o)
 .comment       0x00000000       0x24 /local/mnt/workspace/CRMBuilds/TZ.BF.4.0.3.c1-00005-M8996AAAAANAZT-1_20170110_230814/b/HK11/trustzone_images/core/securemsm/trustzone/qsapps/libs/applib/qsee/build/sampleapp/scorpion/IADAANAA/tzapp_entrylib.lib(qsee_dcache.o)
 .comment       0x00000000       0x24 /local/mnt/workspace/CRMBuilds/TZ.BF.4.0.3.c1-00005-M8996AAAAANAZT-1_20170110_230814/b/HK11/trustzone_images/core/securemsm/trustzone/qsapps/libs/applib/qsee/build/sampleapp/scorpion/IADAANAA/tzapp_entrylib.lib(qsee_shared_buffer.o)
 .comment       0x00000000       0x24 /local/mnt/workspace/CRMBuilds/TZ.BF.4.0.3.c1-00005-M8996AAAAANAZT-1_20170110_230814/b/HK11/trustzone_images/core/securemsm/trustzone/qsapps/libs/applib/qsee/build/sampleapp/scorpion/IADAANAA/tzapp_entrylib.lib(qsee_oem_buffer.o)
 .comment       0x00000000       0x24 /local/mnt/workspace/CRMBuilds/TZ.BF.4.0.3.c1-00005-M8996AAAAANAZT-1_20170110_230814/b/HK11/trustzone_images/core/securemsm/trustzone/qsapps/libs/applib/qsee/build/sampleapp/scorpion/IADAANAA/tzapp_entrylib.lib(qsee_intmask.o)
 .comment       0x00000000       0x24 /local/mnt/workspace/CRMBuilds/TZ.BF.4.0.3.c1-00005-M8996AAAAANAZT-1_20170110_230814/b/HK11/trustzone_images/core/securemsm/trustzone/qsapps/libs/applib/qsee/build/sampleapp/scorpion/IADAANAA/tzapp_entrylib.lib(qsee_trans_ns_addr.o)
 .comment       0x00000000       0x24 /local/mnt/workspace/CRMBuilds/TZ.BF.4.0.3.c1-00005-M8996AAAAANAZT-1_20170110_230814/b/HK11/trustzone_images/core/securemsm/trustzone/qsapps/libs/applib/qsee/build/sampleapp/scorpion/IADAANAA/tzapp_entrylib.lib(qsee_appmessage.o)
 .comment       0x00000000       0x24 /local/mnt/workspace/CRMBuilds/TZ.BF.4.0.3.c1-00005-M8996AAAAANAZT-1_20170110_230814/b/HK11/trustzone_images/core/securemsm/trustzone/qsapps/libs/applib/qsee/build/sampleapp/scorpion/IADAANAA/tzapp_entrylib.lib(sfs_api.o)
 .comment       0x00000000       0x24 /local/mnt/workspace/CRMBuilds/TZ.BF.4.0.3.c1-00005-M8996AAAAANAZT-1_20170110_230814/b/HK11/trustzone_images/core/securemsm/trustzone/qsapps/libs/applib/qsee/build/sampleapp/scorpion/IADAANAA/tzapp_entrylib.lib(tzapp_lib_main.o)
 .comment       0x00000000       0x24 /local/mnt/workspace/CRMBuilds/TZ.BF.4.0.3.c1-00005-M8996AAAAANAZT-1_20170110_230814/b/HK11/trustzone_images/core/securemsm/trustzone/qsapps/libs/biometric/build/sampleapp/scorpion/IADAANAA/biometric_lib.lib(biometric.o)
 .comment       0x00000000       0x24 /local/mnt/workspace/CRMBuilds/TZ.BF.4.0.3.c1-00005-M8996AAAAANAZT-1_20170110_230814/b/HK11/trustzone_images/core/securemsm/trustzone/qsapps/libs/biometric/build/sampleapp/scorpion/IADAANAA/biometric_lib.lib(biometric_serializer.o)
 .comment       0x00000000       0x24 /local/mnt/workspace/CRMBuilds/TZ.BF.4.0.3.c1-00005-M8996AAAAANAZT-1_20170110_230814/b/HK11/trustzone_images/core/securemsm/trustzone/qsee/mink/libstd/build/sampleapp/scorpion/IADAANAA/libstd.lib(strnlen.o)
 .comment       0x00000000       0x24 /local/mnt/workspace/CRMBuilds/TZ.BF.4.0.3.c1-00005-M8996AAAAANAZT-1_20170110_230814/b/HK11/trustzone_images/core/securemsm/trustzone/qsee/mink/libstd/build/sampleapp/scorpion/IADAANAA/libstd.lib(memcmp.o)
 .comment       0x00000000       0x24 /local/mnt/workspace/CRMBuilds/TZ.BF.4.0.3.c1-00005-M8996AAAAANAZT-1_20170110_230814/b/HK11/trustzone_images/core/securemsm/trustzone/qsee/mink/libstd/build/sampleapp/scorpion/IADAANAA/libstd.lib(strlen.o)
 .comment       0x00000000       0x24 /local/mnt/workspace/CRMBuilds/TZ.BF.4.0.3.c1-00005-M8996AAAAANAZT-1_20170110_230814/b/HK11/trustzone_images/core/securemsm/trustzone/qsee/mink/libstd/build/sampleapp/scorpion/IADAANAA/libstd.lib(strcmp.o)
 .comment       0x00000000       0x24 /local/mnt/workspace/CRMBuilds/TZ.BF.4.0.3.c1-00005-M8996AAAAANAZT-1_20170110_230814/b/HK11/trustzone_images/core/securemsm/trustzone/qsee/mink/libstd/build/sampleapp/scorpion/IADAANAA/libstd.lib(strncmp.o)
 .comment       0x00000000       0x24 /local/mnt/workspace/CRMBuilds/TZ.BF.4.0.3.c1-00005-M8996AAAAANAZT-1_20170110_230814/b/HK11/trustzone_images/core/securemsm/trustzone/qsee/mink/libstd/build/sampleapp/scorpion/IADAANAA/libstd.lib(printf.o)
 .comment       0x00000000       0x24 /local/mnt/workspace/CRMBuilds/TZ.BF.4.0.3.c1-00005-M8996AAAAANAZT-1_20170110_230814/b/HK11/trustzone_images/core/securemsm/trustzone/qsee/mink/libstd/build/sampleapp/scorpion/IADAANAA/libstd.lib(memchr.o)
 .comment       0x00000000       0x24 /afs/localcell/cm/gv2.6/sysname/pkg.@sys/qct/software/llvm/release/arm/3.5.2.4/lib/clang/3.5.2/lib/linux/libclang_rt.builtins-arm.a(adddf3.c.o)
 .comment       0x00000000       0x24 /afs/localcell/cm/gv2.6/sysname/pkg.@sys/qct/software/llvm/release/arm/3.5.2.4/lib/clang/3.5.2/lib/linux/libclang_rt.builtins-arm.a(comparedf2.c.o)
 .comment       0x00000000       0x24 /afs/localcell/cm/gv2.6/sysname/pkg.@sys/qct/software/llvm/release/arm/3.5.2.4/lib/clang/3.5.2/lib/linux/libclang_rt.builtins-arm.a(divsf3.c.o)
 .comment       0x00000000       0x24 /afs/localcell/cm/gv2.6/sysname/pkg.@sys/qct/software/llvm/release/arm/3.5.2.4/lib/clang/3.5.2/lib/linux/libclang_rt.builtins-arm.a(extendsfdf2.c.o)
 .comment       0x00000000       0x24 /afs/localcell/cm/gv2.6/sysname/pkg.@sys/qct/software/llvm/release/arm/3.5.2.4/lib/clang/3.5.2/lib/linux/libclang_rt.builtins-arm.a(fixdfsi.c.o)
 .comment       0x00000000       0x24 /afs/localcell/cm/gv2.6/sysname/pkg.@sys/qct/software/llvm/release/arm/3.5.2.4/lib/clang/3.5.2/lib/linux/libclang_rt.builtins-arm.a(floatundisf.c.o)
 .comment       0x00000000       0x24 /afs/localcell/cm/gv2.6/sysname/pkg.@sys/qct/software/llvm/release/arm/3.5.2.4/lib/clang/3.5.2/lib/linux/libclang_rt.builtins-arm.a(floatunsisf.c.o)
 .comment       0x00000000       0x24 /afs/localcell/cm/gv2.6/sysname/pkg.@sys/qct/software/llvm/release/arm/3.5.2.4/lib/clang/3.5.2/lib/linux/libclang_rt.builtins-arm.a(muldf3.c.o)
 .comment       0x00000000       0x24 /afs/localcell/cm/gv2.6/sysname/pkg.@sys/qct/software/llvm/release/arm/3.5.2.4/lib/clang/3.5.2/lib/linux/libclang_rt.builtins-arm.a(mulsf3.c.o)
 .comment       0x00000000       0x24 /afs/localcell/cm/gv2.6/sysname/pkg.@sys/qct/software/llvm/release/arm/3.5.2.4/lib/clang/3.5.2/lib/linux/libclang_rt.builtins-arm.a(truncdfsf2.c.o)
 .comment       0x00000000       0x24 /afs/localcell/cm/gv2.6/sysname/pkg.@sys/qct/software/llvm/release/arm/3.5.2.4/lib/clang/3.5.2/lib/linux/libclang_rt.builtins-arm.a(udivmoddi4.c.o)
 .comment       0x00000000       0x24 /afs/localcell/cm/gv2.6/sysname/pkg.@sys/qct/software/llvm/release/arm/3.5.2.4/lib/clang/3.5.2/lib/linux/libclang_rt.builtins-arm.a(udivsi3.c.o)
 .comment       0x00000000       0x24 /afs/localcell/cm/gv2.6/sysname/pkg.@sys/qct/software/llvm/release/arm/3.5.2.4/lib/clang/3.5.2/lib/linux/libclang_rt.builtins-arm.a(umoddi3.c.o)
 .comment       0x00000000       0x24 /afs/localcell/cm/gv2.6/sysname/pkg.@sys/qct/software/llvm/release/arm/3.5.2.4/lib/clang/3.5.2/lib/linux/libclang_rt.builtins-arm.a(umodsi3.c.o)
 .comment       0x00000000       0x24 /local/mnt/workspace/CRMBuilds/TZ.BF.4.0.3.c1-00005-M8996AAAAANAZT-1_20170110_230814/b/HK11/trustzone_images/core/securemsm/sse/qsee/SecureTouch/drTs/lib/build/sampleapp/scorpion/IADAANAA/touch_lib.lib(01_open.o)
 .comment       0x00000000       0x24 /local/mnt/workspace/CRMBuilds/TZ.BF.4.0.3.c1-00005-M8996AAAAANAZT-1_20170110_230814/b/HK11/trustzone_images/core/securemsm/sse/qsee/SecureTouch/drTs/lib/build/sampleapp/scorpion/IADAANAA/touch_lib.lib(02_close.o)
 .comment       0x00000000       0x24 /local/mnt/workspace/CRMBuilds/TZ.BF.4.0.3.c1-00005-M8996AAAAANAZT-1_20170110_230814/b/HK11/trustzone_images/core/securemsm/sse/qsee/SecureTouch/drTs/lib/build/sampleapp/scorpion/IADAANAA/touch_lib.lib(03_getData.o)
 .comment       0x00000000       0x24 /local/mnt/workspace/CRMBuilds/TZ.BF.4.0.3.c1-00005-M8996AAAAANAZT-1_20170110_230814/b/HK11/trustzone_images/core/securemsm/trustzone/qsapps/libs/applib/common_applib/build/sampleapp/scorpion/IADAANAA/tzapp_entrylib.lib(gpPersistObjCommon.o)
 .comment       0x00000000       0x24 /local/mnt/workspace/CRMBuilds/TZ.BF.4.0.3.c1-00005-M8996AAAAANAZT-1_20170110_230814/b/HK11/trustzone_images/core/securemsm/trustzone/qsapps/libs/applib/common_applib/build/sampleapp/scorpion/IADAANAA/tzapp_entrylib.lib(gpPersistentObjects.o)
 .comment       0x00000000       0x24 /local/mnt/workspace/CRMBuilds/TZ.BF.4.0.3.c1-00005-M8996AAAAANAZT-1_20170110_230814/b/HK11/trustzone_images/core/securemsm/trustzone/qsapps/libs/applib/common_applib/build/sampleapp/scorpion/IADAANAA/tzapp_entrylib.lib(gpPersistObjData.o)
 .comment       0x00000000       0x24 /local/mnt/workspace/CRMBuilds/TZ.BF.4.0.3.c1-00005-M8996AAAAANAZT-1_20170110_230814/b/HK11/trustzone_images/core/securemsm/trustzone/qsapps/libs/applib/common_applib/build/sampleapp/scorpion/IADAANAA/tzapp_entrylib.lib(gpPersistObjHandler.o)
 .comment       0x00000000       0x24 /local/mnt/workspace/CRMBuilds/TZ.BF.4.0.3.c1-00005-M8996AAAAANAZT-1_20170110_230814/b/HK11/trustzone_images/core/securemsm/trustzone/qsapps/libs/applib/common_applib/build/sampleapp/scorpion/IADAANAA/tzapp_entrylib.lib(gpPersistObjIndex.o)
 .comment       0x00000000       0x24 /local/mnt/workspace/CRMBuilds/TZ.BF.4.0.3.c1-00005-M8996AAAAANAZT-1_20170110_230814/b/HK11/trustzone_images/core/securemsm/trustzone/qsapps/libs/applib/common_applib/build/sampleapp/scorpion/IADAANAA/tzapp_entrylib.lib(gpPersistObjVersion.o)
 .comment       0x00000000       0x24 /local/mnt/workspace/CRMBuilds/TZ.BF.4.0.3.c1-00005-M8996AAAAANAZT-1_20170110_230814/b/HK11/trustzone_images/core/securemsm/trustzone/qsapps/libs/applib/common_applib/build/sampleapp/scorpion/IADAANAA/tzapp_entrylib.lib(gpPersistObjCrypto.o)
 .comment       0x00000000       0x24 /local/mnt/workspace/CRMBuilds/TZ.BF.4.0.3.c1-00005-M8996AAAAANAZT-1_20170110_230814/b/HK11/trustzone_images/core/securemsm/trustzone/qsapps/libs/applib/common_applib/build/sampleapp/scorpion/IADAANAA/tzapp_entrylib.lib(gpPersistObjFileIO.o)
 .comment       0x00000000       0x24 /local/mnt/workspace/CRMBuilds/TZ.BF.4.0.3.c1-00005-M8996AAAAANAZT-1_20170110_230814/b/HK11/trustzone_images/core/securemsm/trustzone/qsapps/libs/applib/common_applib/build/sampleapp/scorpion/IADAANAA/tzapp_entrylib.lib(gpFileService.o)
 .comment       0x00000000       0x24 /local/mnt/workspace/CRMBuilds/TZ.BF.4.0.3.c1-00005-M8996AAAAANAZT-1_20170110_230814/b/HK11/trustzone_images/core/securemsm/trustzone/qsapps/libs/applib/qsee/build/sampleapp/scorpion/IADAANAA/tzapp_entrylib.lib(qsee_cfg_prop_shim.o)
 .comment       0x00000000       0x24 /local/mnt/workspace/CRMBuilds/TZ.BF.4.0.3.c1-00005-M8996AAAAANAZT-1_20170110_230814/b/HK11/trustzone_images/core/securemsm/trustzone/qsapps/libs/applib/qsee/build/sampleapp/scorpion/IADAANAA/tzapp_entrylib.lib(gpPersistObjPanic.o)
 .comment       0x00000000       0x24 /local/mnt/workspace/CRMBuilds/TZ.BF.4.0.3.c1-00005-M8996AAAAANAZT-1_20170110_230814/b/HK11/trustzone_images/core/securemsm/trustzone/qsee/mink/libstd/build/sampleapp/scorpion/IADAANAA/libstd.lib(strlcat.o)
 .comment       0x00000000       0x24 /local/mnt/workspace/CRMBuilds/TZ.BF.4.0.3.c1-00005-M8996AAAAANAZT-1_20170110_230814/b/HK11/trustzone_images/core/securemsm/trustzone/qsee/mink/libstd/build/sampleapp/scorpion/IADAANAA/libstd.lib(memset.o)
 .comment       0x00000000       0x24 /local/mnt/workspace/CRMBuilds/TZ.BF.4.0.3.c1-00005-M8996AAAAANAZT-1_20170110_230814/b/HK11/trustzone_images/core/securemsm/trustzone/qsee/mink/libstd/build/sampleapp/scorpion/IADAANAA/libstd.lib(memcpy.o)
 .comment       0x00000000       0x24 /local/mnt/workspace/CRMBuilds/TZ.BF.4.0.3.c1-00005-M8996AAAAANAZT-1_20170110_230814/b/HK11/trustzone_images/core/securemsm/trustzone/qsee/mink/libstd/build/sampleapp/scorpion/IADAANAA/libstd.lib(memmove.o)
 .comment       0x00000000       0x24 /local/mnt/workspace/CRMBuilds/TZ.BF.4.0.3.c1-00005-M8996AAAAANAZT-1_20170110_230814/b/HK11/trustzone_images/core/securemsm/sse/SecureTouch/controller/build/sampleapp/scorpion/IADAANAA/drts_controller_msm8996.lib(atmel_mxt_ts.o)
 .comment       0x00000000       0x24 /local/mnt/workspace/CRMBuilds/TZ.BF.4.0.3.c1-00005-M8996AAAAANAZT-1_20170110_230814/b/HK11/trustzone_images/core/securemsm/sse/SecureTouch/controller/build/sampleapp/scorpion/IADAANAA/drts_controller_msm8996.lib(synaptics_ts.o)
 .comment       0x00000000       0x24 /local/mnt/workspace/CRMBuilds/TZ.BF.4.0.3.c1-00005-M8996AAAAANAZT-1_20170110_230814/b/HK11/trustzone_images/core/securemsm/sse/log/build/sampleapp/scorpion/IADAANAA/sselog.lib(sselog.o)
 .comment       0x00000000       0x24 /local/mnt/workspace/CRMBuilds/TZ.BF.4.0.3.c1-00005-M8996AAAAANAZT-1_20170110_230814/b/HK11/trustzone_images/core/securemsm/sse/qsee/SecureTouch/drTs/controller/build/sampleapp/scorpion/IADAANAA/touch_controller_i2c_msm8996.lib(atmel_mxt_ts_i2c.o)
 .comment       0x00000000       0x24 /local/mnt/workspace/CRMBuilds/TZ.BF.4.0.3.c1-00005-M8996AAAAANAZT-1_20170110_230814/b/HK11/trustzone_images/core/securemsm/sse/qsee/SecureTouch/drTs/controller/build/sampleapp/scorpion/IADAANAA/touch_controller_i2c_msm8996.lib(synaptics_ts_i2c.o)

.debug_info     0x00000000    0x3754c
 .debug_info    0x00000000      0x54f /local/mnt/workspace/CRMBuilds/TZ.BF.4.0.3.c1-00005-M8996AAAAANAZT-1_20170110_230814/b/HK11/trustzone_images/core/securemsm/trustzone/qsapps/sampleapp/build/sampleapp/scorpion/IADAANAA/app_main.o
 .debug_info    0x0000054f      0x412 /local/mnt/workspace/CRMBuilds/TZ.BF.4.0.3.c1-00005-M8996AAAAANAZT-1_20170110_230814/b/HK11/trustzone_images/core/securemsm/trustzone/qsapps/sampleapp/build/sampleapp/scorpion/IADAANAA/app_smplserv_test.o
 .debug_info    0x00000961      0x2d9 /local/mnt/workspace/CRMBuilds/TZ.BF.4.0.3.c1-00005-M8996AAAAANAZT-1_20170110_230814/b/HK11/trustzone_images/core/securemsm/trustzone/qsapps/sampleapp/build/sampleapp/scorpion/IADAANAA/app_smplcert_test.o
 .debug_info    0x00000c3a     0x4af2 /local/mnt/workspace/CRMBuilds/TZ.BF.4.0.3.c1-00005-M8996AAAAANAZT-1_20170110_230814/b/HK11/trustzone_images/core/securemsm/trustzone/qsapps/sampleapp/build/sampleapp/scorpion/IADAANAA/app_crypto.o
 .debug_info    0x0000572c      0xb45 /local/mnt/workspace/CRMBuilds/TZ.BF.4.0.3.c1-00005-M8996AAAAANAZT-1_20170110_230814/b/HK11/trustzone_images/core/securemsm/trustzone/qsapps/sampleapp/build/sampleapp/scorpion/IADAANAA/app_sfs.o
 .debug_info    0x00006271     0x1143 /local/mnt/workspace/CRMBuilds/TZ.BF.4.0.3.c1-00005-M8996AAAAANAZT-1_20170110_230814/b/HK11/trustzone_images/core/securemsm/trustzone/qsapps/sampleapp/build/sampleapp/scorpion/IADAANAA/app_rsa.o
 .debug_info    0x000073b4      0xa44 /local/mnt/workspace/CRMBuilds/TZ.BF.4.0.3.c1-00005-M8996AAAAANAZT-1_20170110_230814/b/HK11/trustzone_images/core/securemsm/trustzone/qsapps/sampleapp/build/sampleapp/scorpion/IADAANAA/qsee_api_tests.o
 .debug_info    0x00007df8      0x88e /local/mnt/workspace/CRMBuilds/TZ.BF.4.0.3.c1-00005-M8996AAAAANAZT-1_20170110_230814/b/HK11/trustzone_images/core/securemsm/trustzone/qsapps/sampleapp/build/sampleapp/scorpion/IADAANAA/app_cmnlib.o
 .debug_info    0x00008686      0x109 /local/mnt/workspace/CRMBuilds/TZ.BF.4.0.3.c1-00005-M8996AAAAANAZT-1_20170110_230814/b/HK11/trustzone_images/core/securemsm/trustzone/qsapps/sampleapp/build/sampleapp/scorpion/IADAANAA/app_message_passing.o
 .debug_info    0x0000878f       0xcd /local/mnt/workspace/CRMBuilds/TZ.BF.4.0.3.c1-00005-M8996AAAAANAZT-1_20170110_230814/b/HK11/trustzone_images/core/securemsm/trustzone/qsapps/sampleapp/build/sampleapp/scorpion/IADAANAA/app_fuses.o
 .debug_info    0x0000885c      0xa7a /local/mnt/workspace/CRMBuilds/TZ.BF.4.0.3.c1-00005-M8996AAAAANAZT-1_20170110_230814/b/HK11/trustzone_images/core/securemsm/trustzone/qsapps/sampleapp/build/sampleapp/scorpion/IADAANAA/app_stor.o
 .debug_info    0x000092d6      0x2c8 /local/mnt/workspace/CRMBuilds/TZ.BF.4.0.3.c1-00005-M8996AAAAANAZT-1_20170110_230814/b/HK11/trustzone_images/core/securemsm/trustzone/qsapps/sampleapp/build/sampleapp/scorpion/IADAANAA/app_content_protection.o
 .debug_info    0x0000959e      0x5c3 /local/mnt/workspace/CRMBuilds/TZ.BF.4.0.3.c1-00005-M8996AAAAANAZT-1_20170110_230814/b/HK11/trustzone_images/core/securemsm/trustzone/qsapps/sampleapp/build/sampleapp/scorpion/IADAANAA/app_secure_ui.o
 .debug_info    0x00009b61      0x65f /local/mnt/workspace/CRMBuilds/TZ.BF.4.0.3.c1-00005-M8996AAAAANAZT-1_20170110_230814/b/HK11/trustzone_images/core/securemsm/trustzone/qsapps/sampleapp/build/sampleapp/scorpion/IADAANAA/app_bio_lib.o
 .debug_info    0x0000a1c0      0x7b0 /local/mnt/workspace/CRMBuilds/TZ.BF.4.0.3.c1-00005-M8996AAAAANAZT-1_20170110_230814/b/HK11/trustzone_images/core/securemsm/trustzone/qsapps/sampleapp/build/sampleapp/scorpion/IADAANAA/app_bulletin_board.o
 .debug_info    0x0000a970       0xa5 /local/mnt/workspace/CRMBuilds/TZ.BF.4.0.3.c1-00005-M8996AAAAANAZT-1_20170110_230814/b/HK11/trustzone_images/core/securemsm/trustzone/qsapps/sampleapp/build/sampleapp/scorpion/IADAANAA/metadata.o
 .debug_info    0x0000aa15       0xa2 /local/mnt/workspace/CRMBuilds/TZ.BF.4.0.3.c1-00005-M8996AAAAANAZT-1_20170110_230814/b/HK11/trustzone_images/core/kernel/libstd/build/sampleapp/scorpion/IADAANAA/libstd.lib(memscpy.o)
 .debug_info    0x0000aab7       0xbe /local/mnt/workspace/CRMBuilds/TZ.BF.4.0.3.c1-00005-M8996AAAAANAZT-1_20170110_230814/b/HK11/trustzone_images/core/kernel/libstd/build/sampleapp/scorpion/IADAANAA/libstd.lib(strlcpy.o)
 .debug_info    0x0000ab75       0xb8 /local/mnt/workspace/CRMBuilds/TZ.BF.4.0.3.c1-00005-M8996AAAAANAZT-1_20170110_230814/b/HK11/trustzone_images/core/kernel/libstd/build/sampleapp/scorpion/IADAANAA/libstd.lib(secure_memset.o)
 .debug_info    0x0000ac2d       0xcd /local/mnt/workspace/CRMBuilds/TZ.BF.4.0.3.c1-00005-M8996AAAAANAZT-1_20170110_230814/b/HK11/trustzone_images/core/kernel/libstd/build/sampleapp/scorpion/IADAANAA/libstd.lib(timesafe_memcmp.o)
 .debug_info    0x0000acfa      0x101 /local/mnt/workspace/CRMBuilds/TZ.BF.4.0.3.c1-00005-M8996AAAAANAZT-1_20170110_230814/b/HK11/trustzone_images/core/kernel/libstd/build/sampleapp/scorpion/IADAANAA/libstd.lib(timesafe_strncmp.o)
 .debug_info    0x0000adfb     0x1a0d /local/mnt/workspace/CRMBuilds/TZ.BF.4.0.3.c1-00005-M8996AAAAANAZT-1_20170110_230814/b/HK11/trustzone_images/core/securemsm/sse/qsee/SecureUI/build/sampleapp/scorpion/IADAANAA/secure_ui.lib(SecureUI.o)
 .debug_info    0x0000c808      0x96c /local/mnt/workspace/CRMBuilds/TZ.BF.4.0.3.c1-00005-M8996AAAAANAZT-1_20170110_230814/b/HK11/trustzone_images/core/securemsm/sse/qsee/SecureUILib/lib/build/sampleapp/scorpion/IADAANAA/secure_ui_lib.lib(SecureUILib.o)
 .debug_info    0x0000d174      0x347 /local/mnt/workspace/CRMBuilds/TZ.BF.4.0.3.c1-00005-M8996AAAAANAZT-1_20170110_230814/b/HK11/trustzone_images/core/securemsm/sse/qsee/SecureUILib/lib/build/sampleapp/scorpion/IADAANAA/secure_ui_lib.lib(01_startTouch.o)
 .debug_info    0x0000d4bb      0x421 /local/mnt/workspace/CRMBuilds/TZ.BF.4.0.3.c1-00005-M8996AAAAANAZT-1_20170110_230814/b/HK11/trustzone_images/core/securemsm/sse/qsee/SecureUILib/lib/build/sampleapp/scorpion/IADAANAA/secure_ui_lib.lib(02_processTouch.o)
 .debug_info    0x0000d8dc      0x38a /local/mnt/workspace/CRMBuilds/TZ.BF.4.0.3.c1-00005-M8996AAAAANAZT-1_20170110_230814/b/HK11/trustzone_images/core/securemsm/sse/qsee/SecureUILib/lib/build/sampleapp/scorpion/IADAANAA/secure_ui_lib.lib(03_stopTouch.o)
 .debug_info    0x0000dc66     0x1424 /local/mnt/workspace/CRMBuilds/TZ.BF.4.0.3.c1-00005-M8996AAAAANAZT-1_20170110_230814/b/HK11/trustzone_images/core/securemsm/trustzone/qsapps/libs/applib/common_applib/build/sampleapp/scorpion/IADAANAA/tzapp_entrylib.lib(common_applib.o)
 .debug_info    0x0000f08a     0x2c8f /local/mnt/workspace/CRMBuilds/TZ.BF.4.0.3.c1-00005-M8996AAAAANAZT-1_20170110_230814/b/HK11/trustzone_images/core/securemsm/trustzone/qsapps/libs/applib/proxy/build/sampleapp/scorpion/IADAANAA/tzlib_proxy.lib(prxy_services.o)
 .debug_info    0x00011d19     0x173b /local/mnt/workspace/CRMBuilds/TZ.BF.4.0.3.c1-00005-M8996AAAAANAZT-1_20170110_230814/b/HK11/trustzone_images/core/securemsm/trustzone/qsapps/libs/applib/proxy/build/sampleapp/scorpion/IADAANAA/tzlib_proxy.lib(prxy_qsee_shim.o)
 .debug_info    0x00013454     0x26c6 /local/mnt/workspace/CRMBuilds/TZ.BF.4.0.3.c1-00005-M8996AAAAANAZT-1_20170110_230814/b/HK11/trustzone_images/core/securemsm/trustzone/qsapps/libs/applib/proxy/build/sampleapp/scorpion/IADAANAA/tzlib_proxy.lib(prxy_ufaes.o)
 .debug_info    0x00015b1a     0x2553 /local/mnt/workspace/CRMBuilds/TZ.BF.4.0.3.c1-00005-M8996AAAAANAZT-1_20170110_230814/b/HK11/trustzone_images/core/securemsm/trustzone/qsapps/libs/applib/proxy/build/sampleapp/scorpion/IADAANAA/tzlib_proxy.lib(prxy_ufdes.o)
 .debug_info    0x0001806d     0x258b /local/mnt/workspace/CRMBuilds/TZ.BF.4.0.3.c1-00005-M8996AAAAANAZT-1_20170110_230814/b/HK11/trustzone_images/core/securemsm/trustzone/qsapps/libs/applib/proxy/build/sampleapp/scorpion/IADAANAA/tzlib_proxy.lib(prxy_ufsha.o)
 .debug_info    0x0001a5f8     0x24d9 /local/mnt/workspace/CRMBuilds/TZ.BF.4.0.3.c1-00005-M8996AAAAANAZT-1_20170110_230814/b/HK11/trustzone_images/core/securemsm/trustzone/qsapps/libs/applib/proxy/build/sampleapp/scorpion/IADAANAA/tzlib_proxy.lib(prxy_secmath.o)
 .debug_info    0x0001cad1     0x2832 /local/mnt/workspace/CRMBuilds/TZ.BF.4.0.3.c1-00005-M8996AAAAANAZT-1_20170110_230814/b/HK11/trustzone_images/core/securemsm/trustzone/qsapps/libs/applib/proxy/build/sampleapp/scorpion/IADAANAA/tzlib_proxy.lib(prxy_secrsa.o)
 .debug_info    0x0001f303     0x29aa /local/mnt/workspace/CRMBuilds/TZ.BF.4.0.3.c1-00005-M8996AAAAANAZT-1_20170110_230814/b/HK11/trustzone_images/core/securemsm/trustzone/qsapps/libs/applib/proxy/build/sampleapp/scorpion/IADAANAA/tzlib_proxy.lib(prxy_ecc.o)
 .debug_info    0x00021cad      0x581 /local/mnt/workspace/CRMBuilds/TZ.BF.4.0.3.c1-00005-M8996AAAAANAZT-1_20170110_230814/b/HK11/trustzone_images/core/securemsm/trustzone/qsapps/libs/applib/qsee/build/sampleapp/scorpion/IADAANAA/tzapp_entrylib.lib(mink_shared_code.o)
 .debug_info    0x0002222e      0x627 /local/mnt/workspace/CRMBuilds/TZ.BF.4.0.3.c1-00005-M8996AAAAANAZT-1_20170110_230814/b/HK11/trustzone_images/core/securemsm/trustzone/qsapps/libs/applib/qsee/build/sampleapp/scorpion/IADAANAA/tzapp_entrylib.lib(qsee_env.o)
 .debug_info    0x00022855      0x6d8 /local/mnt/workspace/CRMBuilds/TZ.BF.4.0.3.c1-00005-M8996AAAAANAZT-1_20170110_230814/b/HK11/trustzone_images/core/securemsm/trustzone/qsapps/libs/applib/qsee/build/sampleapp/scorpion/IADAANAA/tzapp_entrylib.lib(qsee_core_shim.o)
 .debug_info    0x00022f2d      0x443 /local/mnt/workspace/CRMBuilds/TZ.BF.4.0.3.c1-00005-M8996AAAAANAZT-1_20170110_230814/b/HK11/trustzone_images/core/securemsm/trustzone/qsapps/libs/applib/qsee/build/sampleapp/scorpion/IADAANAA/tzapp_entrylib.lib(qsee_deviceid.o)
 .debug_info    0x00023370      0x2c4 /local/mnt/workspace/CRMBuilds/TZ.BF.4.0.3.c1-00005-M8996AAAAANAZT-1_20170110_230814/b/HK11/trustzone_images/core/securemsm/trustzone/qsapps/libs/applib/qsee/build/sampleapp/scorpion/IADAANAA/tzapp_entrylib.lib(qsee_prng.o)
 .debug_info    0x00023634      0x362 /local/mnt/workspace/CRMBuilds/TZ.BF.4.0.3.c1-00005-M8996AAAAANAZT-1_20170110_230814/b/HK11/trustzone_images/core/securemsm/trustzone/qsapps/libs/applib/qsee/build/sampleapp/scorpion/IADAANAA/tzapp_entrylib.lib(qsee_secdisp.o)
 .debug_info    0x00023996      0x5e7 /local/mnt/workspace/CRMBuilds/TZ.BF.4.0.3.c1-00005-M8996AAAAANAZT-1_20170110_230814/b/HK11/trustzone_images/core/securemsm/trustzone/qsapps/libs/applib/qsee/build/sampleapp/scorpion/IADAANAA/tzapp_entrylib.lib(qsee_nsmem.o)
 .debug_info    0x00023f7d      0x3fc /local/mnt/workspace/CRMBuilds/TZ.BF.4.0.3.c1-00005-M8996AAAAANAZT-1_20170110_230814/b/HK11/trustzone_images/core/securemsm/trustzone/qsapps/libs/applib/qsee/build/sampleapp/scorpion/IADAANAA/tzapp_entrylib.lib(qsee_cmac.o)
 .debug_info    0x00024379       0xc9 /local/mnt/workspace/CRMBuilds/TZ.BF.4.0.3.c1-00005-M8996AAAAANAZT-1_20170110_230814/b/HK11/trustzone_images/core/securemsm/trustzone/qsapps/libs/applib/qsee/build/sampleapp/scorpion/IADAANAA/tzapp_entrylib.lib(qsee_crypto_shim.o)
 .debug_info    0x00024442       0x68 /local/mnt/workspace/CRMBuilds/TZ.BF.4.0.3.c1-00005-M8996AAAAANAZT-1_20170110_230814/b/HK11/trustzone_images/core/securemsm/trustzone/qsapps/libs/applib/qsee/build/sampleapp/scorpion/IADAANAA/tzapp_entrylib.lib(qsee_timer_shim.o)
 .debug_info    0x000244aa      0x47c /local/mnt/workspace/CRMBuilds/TZ.BF.4.0.3.c1-00005-M8996AAAAANAZT-1_20170110_230814/b/HK11/trustzone_images/core/securemsm/trustzone/qsapps/libs/applib/qsee/build/sampleapp/scorpion/IADAANAA/tzapp_entrylib.lib(qsee_comstr.o)
 .debug_info    0x00024926      0x5a3 /local/mnt/workspace/CRMBuilds/TZ.BF.4.0.3.c1-00005-M8996AAAAANAZT-1_20170110_230814/b/HK11/trustzone_images/core/securemsm/trustzone/qsapps/libs/applib/qsee/build/sampleapp/scorpion/IADAANAA/tzapp_entrylib.lib(stor.o)
 .debug_info    0x00024ec9      0xdeb /local/mnt/workspace/CRMBuilds/TZ.BF.4.0.3.c1-00005-M8996AAAAANAZT-1_20170110_230814/b/HK11/trustzone_images/core/securemsm/trustzone/qsapps/libs/applib/qsee/build/sampleapp/scorpion/IADAANAA/tzapp_entrylib.lib(stor_gpt.o)
 .debug_info    0x00025cb4      0x4a2 /local/mnt/workspace/CRMBuilds/TZ.BF.4.0.3.c1-00005-M8996AAAAANAZT-1_20170110_230814/b/HK11/trustzone_images/core/securemsm/trustzone/qsapps/libs/applib/qsee/build/sampleapp/scorpion/IADAANAA/tzapp_entrylib.lib(stor_rpmbw.o)
 .debug_info    0x00026156      0x1a1 /local/mnt/workspace/CRMBuilds/TZ.BF.4.0.3.c1-00005-M8996AAAAANAZT-1_20170110_230814/b/HK11/trustzone_images/core/securemsm/trustzone/qsapps/libs/applib/qsee/build/sampleapp/scorpion/IADAANAA/tzapp_entrylib.lib(qsee_counter_shim.o)
 .debug_info    0x000262f7      0xc62 /local/mnt/workspace/CRMBuilds/TZ.BF.4.0.3.c1-00005-M8996AAAAANAZT-1_20170110_230814/b/HK11/trustzone_images/core/securemsm/trustzone/qsapps/libs/applib/qsee/build/sampleapp/scorpion/IADAANAA/tzapp_entrylib.lib(qsee_cipher.o)
 .debug_info    0x00026f59      0xddc /local/mnt/workspace/CRMBuilds/TZ.BF.4.0.3.c1-00005-M8996AAAAANAZT-1_20170110_230814/b/HK11/trustzone_images/core/securemsm/trustzone/qsapps/libs/applib/qsee/build/sampleapp/scorpion/IADAANAA/tzapp_entrylib.lib(qsee_hash.o)
 .debug_info    0x00027d35      0x81a /local/mnt/workspace/CRMBuilds/TZ.BF.4.0.3.c1-00005-M8996AAAAANAZT-1_20170110_230814/b/HK11/trustzone_images/core/securemsm/trustzone/qsapps/libs/applib/qsee/build/sampleapp/scorpion/IADAANAA/tzapp_entrylib.lib(qsee_hmac.o)
 .debug_info    0x0002854f      0xcd0 /local/mnt/workspace/CRMBuilds/TZ.BF.4.0.3.c1-00005-M8996AAAAANAZT-1_20170110_230814/b/HK11/trustzone_images/core/securemsm/trustzone/qsapps/libs/applib/qsee/build/sampleapp/scorpion/IADAANAA/tzapp_entrylib.lib(qsee_i2c.o)
 .debug_info    0x0002921f      0xc16 /local/mnt/workspace/CRMBuilds/TZ.BF.4.0.3.c1-00005-M8996AAAAANAZT-1_20170110_230814/b/HK11/trustzone_images/core/securemsm/trustzone/qsapps/libs/applib/qsee/build/sampleapp/scorpion/IADAANAA/tzapp_entrylib.lib(qsee_spi.o)
 .debug_info    0x00029e35      0x16a /local/mnt/workspace/CRMBuilds/TZ.BF.4.0.3.c1-00005-M8996AAAAANAZT-1_20170110_230814/b/HK11/trustzone_images/core/securemsm/trustzone/qsapps/libs/applib/qsee/build/sampleapp/scorpion/IADAANAA/tzapp_entrylib.lib(qsee_bulletin_board_shim.o)
 .debug_info    0x00029f9f      0xa37 /local/mnt/workspace/CRMBuilds/TZ.BF.4.0.3.c1-00005-M8996AAAAANAZT-1_20170110_230814/b/HK11/trustzone_images/core/securemsm/trustzone/qsapps/libs/applib/qsee/build/sampleapp/scorpion/IADAANAA/tzapp_entrylib.lib(qsee_tlmm.o)
 .debug_info    0x0002a9d6      0x2a1 /local/mnt/workspace/CRMBuilds/TZ.BF.4.0.3.c1-00005-M8996AAAAANAZT-1_20170110_230814/b/HK11/trustzone_images/core/securemsm/trustzone/qsapps/libs/applib/qsee/build/sampleapp/scorpion/IADAANAA/tzapp_entrylib.lib(qsee_sync.o)
 .debug_info    0x0002ac77      0x3ee /local/mnt/workspace/CRMBuilds/TZ.BF.4.0.3.c1-00005-M8996AAAAANAZT-1_20170110_230814/b/HK11/trustzone_images/core/securemsm/trustzone/qsapps/libs/applib/qsee/build/sampleapp/scorpion/IADAANAA/tzapp_entrylib.lib(qsee_dcache.o)
 .debug_info    0x0002b065      0x3c8 /local/mnt/workspace/CRMBuilds/TZ.BF.4.0.3.c1-00005-M8996AAAAANAZT-1_20170110_230814/b/HK11/trustzone_images/core/securemsm/trustzone/qsapps/libs/applib/qsee/build/sampleapp/scorpion/IADAANAA/tzapp_entrylib.lib(qsee_shared_buffer.o)
 .debug_info    0x0002b42d      0x4e9 /local/mnt/workspace/CRMBuilds/TZ.BF.4.0.3.c1-00005-M8996AAAAANAZT-1_20170110_230814/b/HK11/trustzone_images/core/securemsm/trustzone/qsapps/libs/applib/qsee/build/sampleapp/scorpion/IADAANAA/tzapp_entrylib.lib(qsee_oem_buffer.o)
 .debug_info    0x0002b916      0x4df /local/mnt/workspace/CRMBuilds/TZ.BF.4.0.3.c1-00005-M8996AAAAANAZT-1_20170110_230814/b/HK11/trustzone_images/core/securemsm/trustzone/qsapps/libs/applib/qsee/build/sampleapp/scorpion/IADAANAA/tzapp_entrylib.lib(qsee_intmask.o)
 .debug_info    0x0002bdf5      0x3af /local/mnt/workspace/CRMBuilds/TZ.BF.4.0.3.c1-00005-M8996AAAAANAZT-1_20170110_230814/b/HK11/trustzone_images/core/securemsm/trustzone/qsapps/libs/applib/qsee/build/sampleapp/scorpion/IADAANAA/tzapp_entrylib.lib(qsee_trans_ns_addr.o)
 .debug_info    0x0002c1a4      0x53f /local/mnt/workspace/CRMBuilds/TZ.BF.4.0.3.c1-00005-M8996AAAAANAZT-1_20170110_230814/b/HK11/trustzone_images/core/securemsm/trustzone/qsapps/libs/applib/qsee/build/sampleapp/scorpion/IADAANAA/tzapp_entrylib.lib(qsee_appmessage.o)
 .debug_info    0x0002c6e3      0xa05 /local/mnt/workspace/CRMBuilds/TZ.BF.4.0.3.c1-00005-M8996AAAAANAZT-1_20170110_230814/b/HK11/trustzone_images/core/securemsm/trustzone/qsapps/libs/applib/qsee/build/sampleapp/scorpion/IADAANAA/tzapp_entrylib.lib(sfs_api.o)
 .debug_info    0x0002d0e8      0x39f /local/mnt/workspace/CRMBuilds/TZ.BF.4.0.3.c1-00005-M8996AAAAANAZT-1_20170110_230814/b/HK11/trustzone_images/core/securemsm/trustzone/qsapps/libs/applib/qsee/build/sampleapp/scorpion/IADAANAA/tzapp_entrylib.lib(tzapp_lib_main.o)
 .debug_info    0x0002d487      0x8cf /local/mnt/workspace/CRMBuilds/TZ.BF.4.0.3.c1-00005-M8996AAAAANAZT-1_20170110_230814/b/HK11/trustzone_images/core/securemsm/trustzone/qsapps/libs/biometric/build/sampleapp/scorpion/IADAANAA/biometric_lib.lib(biometric.o)
 .debug_info    0x0002dd56      0x896 /local/mnt/workspace/CRMBuilds/TZ.BF.4.0.3.c1-00005-M8996AAAAANAZT-1_20170110_230814/b/HK11/trustzone_images/core/securemsm/trustzone/qsapps/libs/biometric/build/sampleapp/scorpion/IADAANAA/biometric_lib.lib(biometric_serializer.o)
 .debug_info    0x0002e5ec       0x8b /local/mnt/workspace/CRMBuilds/TZ.BF.4.0.3.c1-00005-M8996AAAAANAZT-1_20170110_230814/b/HK11/trustzone_images/core/securemsm/trustzone/qsee/mink/libstd/build/sampleapp/scorpion/IADAANAA/libstd.lib(strnlen.o)
 .debug_info    0x0002e677       0xbb /local/mnt/workspace/CRMBuilds/TZ.BF.4.0.3.c1-00005-M8996AAAAANAZT-1_20170110_230814/b/HK11/trustzone_images/core/securemsm/trustzone/qsee/mink/libstd/build/sampleapp/scorpion/IADAANAA/libstd.lib(memcmp.o)
 .debug_info    0x0002e732       0x96 /local/mnt/workspace/CRMBuilds/TZ.BF.4.0.3.c1-00005-M8996AAAAANAZT-1_20170110_230814/b/HK11/trustzone_images/core/securemsm/trustzone/qsee/mink/libstd/build/sampleapp/scorpion/IADAANAA/libstd.lib(strlen.o)
 .debug_info    0x0002e7c8       0x73 /local/mnt/workspace/CRMBuilds/TZ.BF.4.0.3.c1-00005-M8996AAAAANAZT-1_20170110_230814/b/HK11/trustzone_images/core/securemsm/trustzone/qsee/mink/libstd/build/sampleapp/scorpion/IADAANAA/libstd.lib(strcmp.o)
 .debug_info    0x0002e83b       0xc6 /local/mnt/workspace/CRMBuilds/TZ.BF.4.0.3.c1-00005-M8996AAAAANAZT-1_20170110_230814/b/HK11/trustzone_images/core/securemsm/trustzone/qsee/mink/libstd/build/sampleapp/scorpion/IADAANAA/libstd.lib(strncmp.o)
 .debug_info    0x0002e901      0xac4 /local/mnt/workspace/CRMBuilds/TZ.BF.4.0.3.c1-00005-M8996AAAAANAZT-1_20170110_230814/b/HK11/trustzone_images/core/securemsm/trustzone/qsee/mink/libstd/build/sampleapp/scorpion/IADAANAA/libstd.lib(printf.o)
 .debug_info    0x0002f3c5       0xeb /local/mnt/workspace/CRMBuilds/TZ.BF.4.0.3.c1-00005-M8996AAAAANAZT-1_20170110_230814/b/HK11/trustzone_images/core/securemsm/trustzone/qsee/mink/libstd/build/sampleapp/scorpion/IADAANAA/libstd.lib(memchr.o)
 .debug_info    0x0002f4b0      0x12e /local/mnt/workspace/CRMBuilds/TZ.BF.4.0.3.c1-00005-M8996AAAAANAZT-1_20170110_230814/b/HK11/trustzone_images/core/securemsm/sse/qsee/SecureTouch/drTs/lib/build/sampleapp/scorpion/IADAANAA/touch_lib.lib(01_open.o)
 .debug_info    0x0002f5de       0x95 /local/mnt/workspace/CRMBuilds/TZ.BF.4.0.3.c1-00005-M8996AAAAANAZT-1_20170110_230814/b/HK11/trustzone_images/core/securemsm/sse/qsee/SecureTouch/drTs/lib/build/sampleapp/scorpion/IADAANAA/touch_lib.lib(02_close.o)
 .debug_info    0x0002f673      0x1d6 /local/mnt/workspace/CRMBuilds/TZ.BF.4.0.3.c1-00005-M8996AAAAANAZT-1_20170110_230814/b/HK11/trustzone_images/core/securemsm/sse/qsee/SecureTouch/drTs/lib/build/sampleapp/scorpion/IADAANAA/touch_lib.lib(03_getData.o)
 .debug_info    0x0002f849      0x60d /local/mnt/workspace/CRMBuilds/TZ.BF.4.0.3.c1-00005-M8996AAAAANAZT-1_20170110_230814/b/HK11/trustzone_images/core/securemsm/trustzone/qsapps/libs/applib/common_applib/build/sampleapp/scorpion/IADAANAA/tzapp_entrylib.lib(gpPersistObjCommon.o)
 .debug_info    0x0002fe56      0x83e /local/mnt/workspace/CRMBuilds/TZ.BF.4.0.3.c1-00005-M8996AAAAANAZT-1_20170110_230814/b/HK11/trustzone_images/core/securemsm/trustzone/qsapps/libs/applib/common_applib/build/sampleapp/scorpion/IADAANAA/tzapp_entrylib.lib(gpPersistentObjects.o)
 .debug_info    0x00030694     0x1461 /local/mnt/workspace/CRMBuilds/TZ.BF.4.0.3.c1-00005-M8996AAAAANAZT-1_20170110_230814/b/HK11/trustzone_images/core/securemsm/trustzone/qsapps/libs/applib/common_applib/build/sampleapp/scorpion/IADAANAA/tzapp_entrylib.lib(gpPersistObjData.o)
 .debug_info    0x00031af5      0x696 /local/mnt/workspace/CRMBuilds/TZ.BF.4.0.3.c1-00005-M8996AAAAANAZT-1_20170110_230814/b/HK11/trustzone_images/core/securemsm/trustzone/qsapps/libs/applib/common_applib/build/sampleapp/scorpion/IADAANAA/tzapp_entrylib.lib(gpPersistObjHandler.o)
 .debug_info    0x0003218b      0xd67 /local/mnt/workspace/CRMBuilds/TZ.BF.4.0.3.c1-00005-M8996AAAAANAZT-1_20170110_230814/b/HK11/trustzone_images/core/securemsm/trustzone/qsapps/libs/applib/common_applib/build/sampleapp/scorpion/IADAANAA/tzapp_entrylib.lib(gpPersistObjIndex.o)
 .debug_info    0x00032ef2      0x9f1 /local/mnt/workspace/CRMBuilds/TZ.BF.4.0.3.c1-00005-M8996AAAAANAZT-1_20170110_230814/b/HK11/trustzone_images/core/securemsm/trustzone/qsapps/libs/applib/common_applib/build/sampleapp/scorpion/IADAANAA/tzapp_entrylib.lib(gpPersistObjVersion.o)
 .debug_info    0x000338e3      0x8ef /local/mnt/workspace/CRMBuilds/TZ.BF.4.0.3.c1-00005-M8996AAAAANAZT-1_20170110_230814/b/HK11/trustzone_images/core/securemsm/trustzone/qsapps/libs/applib/common_applib/build/sampleapp/scorpion/IADAANAA/tzapp_entrylib.lib(gpPersistObjCrypto.o)
 .debug_info    0x000341d2      0x48d /local/mnt/workspace/CRMBuilds/TZ.BF.4.0.3.c1-00005-M8996AAAAANAZT-1_20170110_230814/b/HK11/trustzone_images/core/securemsm/trustzone/qsapps/libs/applib/common_applib/build/sampleapp/scorpion/IADAANAA/tzapp_entrylib.lib(gpPersistObjFileIO.o)
 .debug_info    0x0003465f      0x506 /local/mnt/workspace/CRMBuilds/TZ.BF.4.0.3.c1-00005-M8996AAAAANAZT-1_20170110_230814/b/HK11/trustzone_images/core/securemsm/trustzone/qsapps/libs/applib/common_applib/build/sampleapp/scorpion/IADAANAA/tzapp_entrylib.lib(gpFileService.o)
 .debug_info    0x00034b65      0x166 /local/mnt/workspace/CRMBuilds/TZ.BF.4.0.3.c1-00005-M8996AAAAANAZT-1_20170110_230814/b/HK11/trustzone_images/core/securemsm/trustzone/qsapps/libs/applib/qsee/build/sampleapp/scorpion/IADAANAA/tzapp_entrylib.lib(qsee_cfg_prop_shim.o)
 .debug_info    0x00034ccb       0x8c /local/mnt/workspace/CRMBuilds/TZ.BF.4.0.3.c1-00005-M8996AAAAANAZT-1_20170110_230814/b/HK11/trustzone_images/core/securemsm/trustzone/qsapps/libs/applib/qsee/build/sampleapp/scorpion/IADAANAA/tzapp_entrylib.lib(gpPersistObjPanic.o)
 .debug_info    0x00034d57       0xcd /local/mnt/workspace/CRMBuilds/TZ.BF.4.0.3.c1-00005-M8996AAAAANAZT-1_20170110_230814/b/HK11/trustzone_images/core/securemsm/trustzone/qsee/mink/libstd/build/sampleapp/scorpion/IADAANAA/libstd.lib(strlcat.o)
 .debug_info    0x00034e24       0xad /local/mnt/workspace/CRMBuilds/TZ.BF.4.0.3.c1-00005-M8996AAAAANAZT-1_20170110_230814/b/HK11/trustzone_images/core/securemsm/trustzone/qsee/mink/libstd/build/sampleapp/scorpion/IADAANAA/libstd.lib(memset.o)
 .debug_info    0x00034ed1       0xed /local/mnt/workspace/CRMBuilds/TZ.BF.4.0.3.c1-00005-M8996AAAAANAZT-1_20170110_230814/b/HK11/trustzone_images/core/securemsm/trustzone/qsee/mink/libstd/build/sampleapp/scorpion/IADAANAA/libstd.lib(memcpy.o)
 .debug_info    0x00034fbe       0xbc /local/mnt/workspace/CRMBuilds/TZ.BF.4.0.3.c1-00005-M8996AAAAANAZT-1_20170110_230814/b/HK11/trustzone_images/core/securemsm/trustzone/qsee/mink/libstd/build/sampleapp/scorpion/IADAANAA/libstd.lib(memmove.o)
 .debug_info    0x0003507a      0xa3f /local/mnt/workspace/CRMBuilds/TZ.BF.4.0.3.c1-00005-M8996AAAAANAZT-1_20170110_230814/b/HK11/trustzone_images/core/securemsm/sse/SecureTouch/controller/build/sampleapp/scorpion/IADAANAA/drts_controller_msm8996.lib(atmel_mxt_ts.o)
 .debug_info    0x00035ab9      0xcb7 /local/mnt/workspace/CRMBuilds/TZ.BF.4.0.3.c1-00005-M8996AAAAANAZT-1_20170110_230814/b/HK11/trustzone_images/core/securemsm/sse/SecureTouch/controller/build/sampleapp/scorpion/IADAANAA/drts_controller_msm8996.lib(synaptics_ts.o)
 .debug_info    0x00036770       0xe3 /local/mnt/workspace/CRMBuilds/TZ.BF.4.0.3.c1-00005-M8996AAAAANAZT-1_20170110_230814/b/HK11/trustzone_images/core/securemsm/sse/log/build/sampleapp/scorpion/IADAANAA/sselog.lib(sselog.o)
 .debug_info    0x00036853      0x662 /local/mnt/workspace/CRMBuilds/TZ.BF.4.0.3.c1-00005-M8996AAAAANAZT-1_20170110_230814/b/HK11/trustzone_images/core/securemsm/sse/qsee/SecureTouch/drTs/controller/build/sampleapp/scorpion/IADAANAA/touch_controller_i2c_msm8996.lib(atmel_mxt_ts_i2c.o)
 .debug_info    0x00036eb5      0x697 /local/mnt/workspace/CRMBuilds/TZ.BF.4.0.3.c1-00005-M8996AAAAANAZT-1_20170110_230814/b/HK11/trustzone_images/core/securemsm/sse/qsee/SecureTouch/drTs/controller/build/sampleapp/scorpion/IADAANAA/touch_controller_i2c_msm8996.lib(synaptics_ts_i2c.o)

.debug_abbrev   0x00000000     0x7dc3
 .debug_abbrev  0x00000000      0x1a4 /local/mnt/workspace/CRMBuilds/TZ.BF.4.0.3.c1-00005-M8996AAAAANAZT-1_20170110_230814/b/HK11/trustzone_images/core/securemsm/trustzone/qsapps/sampleapp/build/sampleapp/scorpion/IADAANAA/app_main.o
 .debug_abbrev  0x000001a4      0x15b /local/mnt/workspace/CRMBuilds/TZ.BF.4.0.3.c1-00005-M8996AAAAANAZT-1_20170110_230814/b/HK11/trustzone_images/core/securemsm/trustzone/qsapps/sampleapp/build/sampleapp/scorpion/IADAANAA/app_smplserv_test.o
 .debug_abbrev  0x000002ff      0x12a /local/mnt/workspace/CRMBuilds/TZ.BF.4.0.3.c1-00005-M8996AAAAANAZT-1_20170110_230814/b/HK11/trustzone_images/core/securemsm/trustzone/qsapps/sampleapp/build/sampleapp/scorpion/IADAANAA/app_smplcert_test.o
 .debug_abbrev  0x00000429      0x1e1 /local/mnt/workspace/CRMBuilds/TZ.BF.4.0.3.c1-00005-M8996AAAAANAZT-1_20170110_230814/b/HK11/trustzone_images/core/securemsm/trustzone/qsapps/sampleapp/build/sampleapp/scorpion/IADAANAA/app_crypto.o
 .debug_abbrev  0x0000060a      0x1a2 /local/mnt/workspace/CRMBuilds/TZ.BF.4.0.3.c1-00005-M8996AAAAANAZT-1_20170110_230814/b/HK11/trustzone_images/core/securemsm/trustzone/qsapps/sampleapp/build/sampleapp/scorpion/IADAANAA/app_sfs.o
 .debug_abbrev  0x000007ac      0x1db /local/mnt/workspace/CRMBuilds/TZ.BF.4.0.3.c1-00005-M8996AAAAANAZT-1_20170110_230814/b/HK11/trustzone_images/core/securemsm/trustzone/qsapps/sampleapp/build/sampleapp/scorpion/IADAANAA/app_rsa.o
 .debug_abbrev  0x00000987      0x1f6 /local/mnt/workspace/CRMBuilds/TZ.BF.4.0.3.c1-00005-M8996AAAAANAZT-1_20170110_230814/b/HK11/trustzone_images/core/securemsm/trustzone/qsapps/sampleapp/build/sampleapp/scorpion/IADAANAA/qsee_api_tests.o
 .debug_abbrev  0x00000b7d      0x1ad /local/mnt/workspace/CRMBuilds/TZ.BF.4.0.3.c1-00005-M8996AAAAANAZT-1_20170110_230814/b/HK11/trustzone_images/core/securemsm/trustzone/qsapps/sampleapp/build/sampleapp/scorpion/IADAANAA/app_cmnlib.o
 .debug_abbrev  0x00000d2a       0xaf /local/mnt/workspace/CRMBuilds/TZ.BF.4.0.3.c1-00005-M8996AAAAANAZT-1_20170110_230814/b/HK11/trustzone_images/core/securemsm/trustzone/qsapps/sampleapp/build/sampleapp/scorpion/IADAANAA/app_message_passing.o
 .debug_abbrev  0x00000dd9       0x73 /local/mnt/workspace/CRMBuilds/TZ.BF.4.0.3.c1-00005-M8996AAAAANAZT-1_20170110_230814/b/HK11/trustzone_images/core/securemsm/trustzone/qsapps/sampleapp/build/sampleapp/scorpion/IADAANAA/app_fuses.o
 .debug_abbrev  0x00000e4c      0x212 /local/mnt/workspace/CRMBuilds/TZ.BF.4.0.3.c1-00005-M8996AAAAANAZT-1_20170110_230814/b/HK11/trustzone_images/core/securemsm/trustzone/qsapps/sampleapp/build/sampleapp/scorpion/IADAANAA/app_stor.o
 .debug_abbrev  0x0000105e       0xff /local/mnt/workspace/CRMBuilds/TZ.BF.4.0.3.c1-00005-M8996AAAAANAZT-1_20170110_230814/b/HK11/trustzone_images/core/securemsm/trustzone/qsapps/sampleapp/build/sampleapp/scorpion/IADAANAA/app_content_protection.o
 .debug_abbrev  0x0000115d      0x1de /local/mnt/workspace/CRMBuilds/TZ.BF.4.0.3.c1-00005-M8996AAAAANAZT-1_20170110_230814/b/HK11/trustzone_images/core/securemsm/trustzone/qsapps/sampleapp/build/sampleapp/scorpion/IADAANAA/app_secure_ui.o
 .debug_abbrev  0x0000133b      0x1a0 /local/mnt/workspace/CRMBuilds/TZ.BF.4.0.3.c1-00005-M8996AAAAANAZT-1_20170110_230814/b/HK11/trustzone_images/core/securemsm/trustzone/qsapps/sampleapp/build/sampleapp/scorpion/IADAANAA/app_bio_lib.o
 .debug_abbrev  0x000014db      0x1b3 /local/mnt/workspace/CRMBuilds/TZ.BF.4.0.3.c1-00005-M8996AAAAANAZT-1_20170110_230814/b/HK11/trustzone_images/core/securemsm/trustzone/qsapps/sampleapp/build/sampleapp/scorpion/IADAANAA/app_bulletin_board.o
 .debug_abbrev  0x0000168e       0x63 /local/mnt/workspace/CRMBuilds/TZ.BF.4.0.3.c1-00005-M8996AAAAANAZT-1_20170110_230814/b/HK11/trustzone_images/core/securemsm/trustzone/qsapps/sampleapp/build/sampleapp/scorpion/IADAANAA/metadata.o
 .debug_abbrev  0x000016f1       0x8a /local/mnt/workspace/CRMBuilds/TZ.BF.4.0.3.c1-00005-M8996AAAAANAZT-1_20170110_230814/b/HK11/trustzone_images/core/kernel/libstd/build/sampleapp/scorpion/IADAANAA/libstd.lib(memscpy.o)
 .debug_abbrev  0x0000177b       0x94 /local/mnt/workspace/CRMBuilds/TZ.BF.4.0.3.c1-00005-M8996AAAAANAZT-1_20170110_230814/b/HK11/trustzone_images/core/kernel/libstd/build/sampleapp/scorpion/IADAANAA/libstd.lib(strlcpy.o)
 .debug_abbrev  0x0000180f       0x83 /local/mnt/workspace/CRMBuilds/TZ.BF.4.0.3.c1-00005-M8996AAAAANAZT-1_20170110_230814/b/HK11/trustzone_images/core/kernel/libstd/build/sampleapp/scorpion/IADAANAA/libstd.lib(secure_memset.o)
 .debug_abbrev  0x00001892       0x83 /local/mnt/workspace/CRMBuilds/TZ.BF.4.0.3.c1-00005-M8996AAAAANAZT-1_20170110_230814/b/HK11/trustzone_images/core/kernel/libstd/build/sampleapp/scorpion/IADAANAA/libstd.lib(timesafe_memcmp.o)
 .debug_abbrev  0x00001915       0xad /local/mnt/workspace/CRMBuilds/TZ.BF.4.0.3.c1-00005-M8996AAAAANAZT-1_20170110_230814/b/HK11/trustzone_images/core/kernel/libstd/build/sampleapp/scorpion/IADAANAA/libstd.lib(timesafe_strncmp.o)
 .debug_abbrev  0x000019c2      0x274 /local/mnt/workspace/CRMBuilds/TZ.BF.4.0.3.c1-00005-M8996AAAAANAZT-1_20170110_230814/b/HK11/trustzone_images/core/securemsm/sse/qsee/SecureUI/build/sampleapp/scorpion/IADAANAA/secure_ui.lib(SecureUI.o)
 .debug_abbrev  0x00001c36      0x1e3 /local/mnt/workspace/CRMBuilds/TZ.BF.4.0.3.c1-00005-M8996AAAAANAZT-1_20170110_230814/b/HK11/trustzone_images/core/securemsm/sse/qsee/SecureUILib/lib/build/sampleapp/scorpion/IADAANAA/secure_ui_lib.lib(SecureUILib.o)
 .debug_abbrev  0x00001e19      0x130 /local/mnt/workspace/CRMBuilds/TZ.BF.4.0.3.c1-00005-M8996AAAAANAZT-1_20170110_230814/b/HK11/trustzone_images/core/securemsm/sse/qsee/SecureUILib/lib/build/sampleapp/scorpion/IADAANAA/secure_ui_lib.lib(01_startTouch.o)
 .debug_abbrev  0x00001f49      0x15e /local/mnt/workspace/CRMBuilds/TZ.BF.4.0.3.c1-00005-M8996AAAAANAZT-1_20170110_230814/b/HK11/trustzone_images/core/securemsm/sse/qsee/SecureUILib/lib/build/sampleapp/scorpion/IADAANAA/secure_ui_lib.lib(02_processTouch.o)
 .debug_abbrev  0x000020a7      0x130 /local/mnt/workspace/CRMBuilds/TZ.BF.4.0.3.c1-00005-M8996AAAAANAZT-1_20170110_230814/b/HK11/trustzone_images/core/securemsm/sse/qsee/SecureUILib/lib/build/sampleapp/scorpion/IADAANAA/secure_ui_lib.lib(03_stopTouch.o)
 .debug_abbrev  0x000021d7      0x303 /local/mnt/workspace/CRMBuilds/TZ.BF.4.0.3.c1-00005-M8996AAAAANAZT-1_20170110_230814/b/HK11/trustzone_images/core/securemsm/trustzone/qsapps/libs/applib/common_applib/build/sampleapp/scorpion/IADAANAA/tzapp_entrylib.lib(common_applib.o)
 .debug_abbrev  0x000024da      0x23b /local/mnt/workspace/CRMBuilds/TZ.BF.4.0.3.c1-00005-M8996AAAAANAZT-1_20170110_230814/b/HK11/trustzone_images/core/securemsm/trustzone/qsapps/libs/applib/proxy/build/sampleapp/scorpion/IADAANAA/tzlib_proxy.lib(prxy_services.o)
 .debug_abbrev  0x00002715      0x1a9 /local/mnt/workspace/CRMBuilds/TZ.BF.4.0.3.c1-00005-M8996AAAAANAZT-1_20170110_230814/b/HK11/trustzone_images/core/securemsm/trustzone/qsapps/libs/applib/proxy/build/sampleapp/scorpion/IADAANAA/tzlib_proxy.lib(prxy_qsee_shim.o)
 .debug_abbrev  0x000028be      0x19e /local/mnt/workspace/CRMBuilds/TZ.BF.4.0.3.c1-00005-M8996AAAAANAZT-1_20170110_230814/b/HK11/trustzone_images/core/securemsm/trustzone/qsapps/libs/applib/proxy/build/sampleapp/scorpion/IADAANAA/tzlib_proxy.lib(prxy_ufaes.o)
 .debug_abbrev  0x00002a5c      0x19e /local/mnt/workspace/CRMBuilds/TZ.BF.4.0.3.c1-00005-M8996AAAAANAZT-1_20170110_230814/b/HK11/trustzone_images/core/securemsm/trustzone/qsapps/libs/applib/proxy/build/sampleapp/scorpion/IADAANAA/tzlib_proxy.lib(prxy_ufdes.o)
 .debug_abbrev  0x00002bfa      0x19e /local/mnt/workspace/CRMBuilds/TZ.BF.4.0.3.c1-00005-M8996AAAAANAZT-1_20170110_230814/b/HK11/trustzone_images/core/securemsm/trustzone/qsapps/libs/applib/proxy/build/sampleapp/scorpion/IADAANAA/tzlib_proxy.lib(prxy_ufsha.o)
 .debug_abbrev  0x00002d98      0x191 /local/mnt/workspace/CRMBuilds/TZ.BF.4.0.3.c1-00005-M8996AAAAANAZT-1_20170110_230814/b/HK11/trustzone_images/core/securemsm/trustzone/qsapps/libs/applib/proxy/build/sampleapp/scorpion/IADAANAA/tzlib_proxy.lib(prxy_secmath.o)
 .debug_abbrev  0x00002f29      0x1b5 /local/mnt/workspace/CRMBuilds/TZ.BF.4.0.3.c1-00005-M8996AAAAANAZT-1_20170110_230814/b/HK11/trustzone_images/core/securemsm/trustzone/qsapps/libs/applib/proxy/build/sampleapp/scorpion/IADAANAA/tzlib_proxy.lib(prxy_secrsa.o)
 .debug_abbrev  0x000030de      0x1b5 /local/mnt/workspace/CRMBuilds/TZ.BF.4.0.3.c1-00005-M8996AAAAANAZT-1_20170110_230814/b/HK11/trustzone_images/core/securemsm/trustzone/qsapps/libs/applib/proxy/build/sampleapp/scorpion/IADAANAA/tzlib_proxy.lib(prxy_ecc.o)
 .debug_abbrev  0x00003293      0x181 /local/mnt/workspace/CRMBuilds/TZ.BF.4.0.3.c1-00005-M8996AAAAANAZT-1_20170110_230814/b/HK11/trustzone_images/core/securemsm/trustzone/qsapps/libs/applib/qsee/build/sampleapp/scorpion/IADAANAA/tzapp_entrylib.lib(mink_shared_code.o)
 .debug_abbrev  0x00003414      0x184 /local/mnt/workspace/CRMBuilds/TZ.BF.4.0.3.c1-00005-M8996AAAAANAZT-1_20170110_230814/b/HK11/trustzone_images/core/securemsm/trustzone/qsapps/libs/applib/qsee/build/sampleapp/scorpion/IADAANAA/tzapp_entrylib.lib(qsee_env.o)
 .debug_abbrev  0x00003598       0xf9 /local/mnt/workspace/CRMBuilds/TZ.BF.4.0.3.c1-00005-M8996AAAAANAZT-1_20170110_230814/b/HK11/trustzone_images/core/securemsm/trustzone/qsapps/libs/applib/qsee/build/sampleapp/scorpion/IADAANAA/tzapp_entrylib.lib(qsee_core_shim.o)
 .debug_abbrev  0x00003691      0x145 /local/mnt/workspace/CRMBuilds/TZ.BF.4.0.3.c1-00005-M8996AAAAANAZT-1_20170110_230814/b/HK11/trustzone_images/core/securemsm/trustzone/qsapps/libs/applib/qsee/build/sampleapp/scorpion/IADAANAA/tzapp_entrylib.lib(qsee_deviceid.o)
 .debug_abbrev  0x000037d6      0x126 /local/mnt/workspace/CRMBuilds/TZ.BF.4.0.3.c1-00005-M8996AAAAANAZT-1_20170110_230814/b/HK11/trustzone_images/core/securemsm/trustzone/qsapps/libs/applib/qsee/build/sampleapp/scorpion/IADAANAA/tzapp_entrylib.lib(qsee_prng.o)
 .debug_abbrev  0x000038fc      0x135 /local/mnt/workspace/CRMBuilds/TZ.BF.4.0.3.c1-00005-M8996AAAAANAZT-1_20170110_230814/b/HK11/trustzone_images/core/securemsm/trustzone/qsapps/libs/applib/qsee/build/sampleapp/scorpion/IADAANAA/tzapp_entrylib.lib(qsee_secdisp.o)
 .debug_abbrev  0x00003a31      0x15d /local/mnt/workspace/CRMBuilds/TZ.BF.4.0.3.c1-00005-M8996AAAAANAZT-1_20170110_230814/b/HK11/trustzone_images/core/securemsm/trustzone/qsapps/libs/applib/qsee/build/sampleapp/scorpion/IADAANAA/tzapp_entrylib.lib(qsee_nsmem.o)
 .debug_abbrev  0x00003b8e      0x159 /local/mnt/workspace/CRMBuilds/TZ.BF.4.0.3.c1-00005-M8996AAAAANAZT-1_20170110_230814/b/HK11/trustzone_images/core/securemsm/trustzone/qsapps/libs/applib/qsee/build/sampleapp/scorpion/IADAANAA/tzapp_entrylib.lib(qsee_cmac.o)
 .debug_abbrev  0x00003ce7       0x6d /local/mnt/workspace/CRMBuilds/TZ.BF.4.0.3.c1-00005-M8996AAAAANAZT-1_20170110_230814/b/HK11/trustzone_images/core/securemsm/trustzone/qsapps/libs/applib/qsee/build/sampleapp/scorpion/IADAANAA/tzapp_entrylib.lib(qsee_crypto_shim.o)
 .debug_abbrev  0x00003d54       0x52 /local/mnt/workspace/CRMBuilds/TZ.BF.4.0.3.c1-00005-M8996AAAAANAZT-1_20170110_230814/b/HK11/trustzone_images/core/securemsm/trustzone/qsapps/libs/applib/qsee/build/sampleapp/scorpion/IADAANAA/tzapp_entrylib.lib(qsee_timer_shim.o)
 .debug_abbrev  0x00003da6       0xfd /local/mnt/workspace/CRMBuilds/TZ.BF.4.0.3.c1-00005-M8996AAAAANAZT-1_20170110_230814/b/HK11/trustzone_images/core/securemsm/trustzone/qsapps/libs/applib/qsee/build/sampleapp/scorpion/IADAANAA/tzapp_entrylib.lib(qsee_comstr.o)
 .debug_abbrev  0x00003ea3      0x160 /local/mnt/workspace/CRMBuilds/TZ.BF.4.0.3.c1-00005-M8996AAAAANAZT-1_20170110_230814/b/HK11/trustzone_images/core/securemsm/trustzone/qsapps/libs/applib/qsee/build/sampleapp/scorpion/IADAANAA/tzapp_entrylib.lib(stor.o)
 .debug_abbrev  0x00004003      0x18e /local/mnt/workspace/CRMBuilds/TZ.BF.4.0.3.c1-00005-M8996AAAAANAZT-1_20170110_230814/b/HK11/trustzone_images/core/securemsm/trustzone/qsapps/libs/applib/qsee/build/sampleapp/scorpion/IADAANAA/tzapp_entrylib.lib(stor_gpt.o)
 .debug_abbrev  0x00004191       0xd3 /local/mnt/workspace/CRMBuilds/TZ.BF.4.0.3.c1-00005-M8996AAAAANAZT-1_20170110_230814/b/HK11/trustzone_images/core/securemsm/trustzone/qsapps/libs/applib/qsee/build/sampleapp/scorpion/IADAANAA/tzapp_entrylib.lib(stor_rpmbw.o)
 .debug_abbrev  0x00004264       0x74 /local/mnt/workspace/CRMBuilds/TZ.BF.4.0.3.c1-00005-M8996AAAAANAZT-1_20170110_230814/b/HK11/trustzone_images/core/securemsm/trustzone/qsapps/libs/applib/qsee/build/sampleapp/scorpion/IADAANAA/tzapp_entrylib.lib(qsee_counter_shim.o)
 .debug_abbrev  0x000042d8      0x1d3 /local/mnt/workspace/CRMBuilds/TZ.BF.4.0.3.c1-00005-M8996AAAAANAZT-1_20170110_230814/b/HK11/trustzone_images/core/securemsm/trustzone/qsapps/libs/applib/qsee/build/sampleapp/scorpion/IADAANAA/tzapp_entrylib.lib(qsee_cipher.o)
 .debug_abbrev  0x000044ab      0x1bc /local/mnt/workspace/CRMBuilds/TZ.BF.4.0.3.c1-00005-M8996AAAAANAZT-1_20170110_230814/b/HK11/trustzone_images/core/securemsm/trustzone/qsapps/libs/applib/qsee/build/sampleapp/scorpion/IADAANAA/tzapp_entrylib.lib(qsee_hash.o)
 .debug_abbrev  0x00004667      0x1a3 /local/mnt/workspace/CRMBuilds/TZ.BF.4.0.3.c1-00005-M8996AAAAANAZT-1_20170110_230814/b/HK11/trustzone_images/core/securemsm/trustzone/qsapps/libs/applib/qsee/build/sampleapp/scorpion/IADAANAA/tzapp_entrylib.lib(qsee_hmac.o)
 .debug_abbrev  0x0000480a      0x192 /local/mnt/workspace/CRMBuilds/TZ.BF.4.0.3.c1-00005-M8996AAAAANAZT-1_20170110_230814/b/HK11/trustzone_images/core/securemsm/trustzone/qsapps/libs/applib/qsee/build/sampleapp/scorpion/IADAANAA/tzapp_entrylib.lib(qsee_i2c.o)
 .debug_abbrev  0x0000499c      0x1fb /local/mnt/workspace/CRMBuilds/TZ.BF.4.0.3.c1-00005-M8996AAAAANAZT-1_20170110_230814/b/HK11/trustzone_images/core/securemsm/trustzone/qsapps/libs/applib/qsee/build/sampleapp/scorpion/IADAANAA/tzapp_entrylib.lib(qsee_spi.o)
 .debug_abbrev  0x00004b97       0xaf /local/mnt/workspace/CRMBuilds/TZ.BF.4.0.3.c1-00005-M8996AAAAANAZT-1_20170110_230814/b/HK11/trustzone_images/core/securemsm/trustzone/qsapps/libs/applib/qsee/build/sampleapp/scorpion/IADAANAA/tzapp_entrylib.lib(qsee_bulletin_board_shim.o)
 .debug_abbrev  0x00004c46      0x1af /local/mnt/workspace/CRMBuilds/TZ.BF.4.0.3.c1-00005-M8996AAAAANAZT-1_20170110_230814/b/HK11/trustzone_images/core/securemsm/trustzone/qsapps/libs/applib/qsee/build/sampleapp/scorpion/IADAANAA/tzapp_entrylib.lib(qsee_tlmm.o)
 .debug_abbrev  0x00004df5      0x135 /local/mnt/workspace/CRMBuilds/TZ.BF.4.0.3.c1-00005-M8996AAAAANAZT-1_20170110_230814/b/HK11/trustzone_images/core/securemsm/trustzone/qsapps/libs/applib/qsee/build/sampleapp/scorpion/IADAANAA/tzapp_entrylib.lib(qsee_sync.o)
 .debug_abbrev  0x00004f2a      0x123 /local/mnt/workspace/CRMBuilds/TZ.BF.4.0.3.c1-00005-M8996AAAAANAZT-1_20170110_230814/b/HK11/trustzone_images/core/securemsm/trustzone/qsapps/libs/applib/qsee/build/sampleapp/scorpion/IADAANAA/tzapp_entrylib.lib(qsee_dcache.o)
 .debug_abbrev  0x0000504d      0x145 /local/mnt/workspace/CRMBuilds/TZ.BF.4.0.3.c1-00005-M8996AAAAANAZT-1_20170110_230814/b/HK11/trustzone_images/core/securemsm/trustzone/qsapps/libs/applib/qsee/build/sampleapp/scorpion/IADAANAA/tzapp_entrylib.lib(qsee_shared_buffer.o)
 .debug_abbrev  0x00005192      0x15e /local/mnt/workspace/CRMBuilds/TZ.BF.4.0.3.c1-00005-M8996AAAAANAZT-1_20170110_230814/b/HK11/trustzone_images/core/securemsm/trustzone/qsapps/libs/applib/qsee/build/sampleapp/scorpion/IADAANAA/tzapp_entrylib.lib(qsee_oem_buffer.o)
 .debug_abbrev  0x000052f0      0x152 /local/mnt/workspace/CRMBuilds/TZ.BF.4.0.3.c1-00005-M8996AAAAANAZT-1_20170110_230814/b/HK11/trustzone_images/core/securemsm/trustzone/qsapps/libs/applib/qsee/build/sampleapp/scorpion/IADAANAA/tzapp_entrylib.lib(qsee_intmask.o)
 .debug_abbrev  0x00005442      0x164 /local/mnt/workspace/CRMBuilds/TZ.BF.4.0.3.c1-00005-M8996AAAAANAZT-1_20170110_230814/b/HK11/trustzone_images/core/securemsm/trustzone/qsapps/libs/applib/qsee/build/sampleapp/scorpion/IADAANAA/tzapp_entrylib.lib(qsee_trans_ns_addr.o)
 .debug_abbrev  0x000055a6      0x17a /local/mnt/workspace/CRMBuilds/TZ.BF.4.0.3.c1-00005-M8996AAAAANAZT-1_20170110_230814/b/HK11/trustzone_images/core/securemsm/trustzone/qsapps/libs/applib/qsee/build/sampleapp/scorpion/IADAANAA/tzapp_entrylib.lib(qsee_appmessage.o)
 .debug_abbrev  0x00005720      0x1ae /local/mnt/workspace/CRMBuilds/TZ.BF.4.0.3.c1-00005-M8996AAAAANAZT-1_20170110_230814/b/HK11/trustzone_images/core/securemsm/trustzone/qsapps/libs/applib/qsee/build/sampleapp/scorpion/IADAANAA/tzapp_entrylib.lib(sfs_api.o)
 .debug_abbrev  0x000058ce      0x11a /local/mnt/workspace/CRMBuilds/TZ.BF.4.0.3.c1-00005-M8996AAAAANAZT-1_20170110_230814/b/HK11/trustzone_images/core/securemsm/trustzone/qsapps/libs/applib/qsee/build/sampleapp/scorpion/IADAANAA/tzapp_entrylib.lib(tzapp_lib_main.o)
 .debug_abbrev  0x000059e8      0x1f3 /local/mnt/workspace/CRMBuilds/TZ.BF.4.0.3.c1-00005-M8996AAAAANAZT-1_20170110_230814/b/HK11/trustzone_images/core/securemsm/trustzone/qsapps/libs/biometric/build/sampleapp/scorpion/IADAANAA/biometric_lib.lib(biometric.o)
 .debug_abbrev  0x00005bdb      0x229 /local/mnt/workspace/CRMBuilds/TZ.BF.4.0.3.c1-00005-M8996AAAAANAZT-1_20170110_230814/b/HK11/trustzone_images/core/securemsm/trustzone/qsapps/libs/biometric/build/sampleapp/scorpion/IADAANAA/biometric_lib.lib(biometric_serializer.o)
 .debug_abbrev  0x00005e04       0x85 /local/mnt/workspace/CRMBuilds/TZ.BF.4.0.3.c1-00005-M8996AAAAANAZT-1_20170110_230814/b/HK11/trustzone_images/core/securemsm/trustzone/qsee/mink/libstd/build/sampleapp/scorpion/IADAANAA/libstd.lib(strnlen.o)
 .debug_abbrev  0x00005e89       0x7b /local/mnt/workspace/CRMBuilds/TZ.BF.4.0.3.c1-00005-M8996AAAAANAZT-1_20170110_230814/b/HK11/trustzone_images/core/securemsm/trustzone/qsee/mink/libstd/build/sampleapp/scorpion/IADAANAA/libstd.lib(memcmp.o)
 .debug_abbrev  0x00005f04       0x83 /local/mnt/workspace/CRMBuilds/TZ.BF.4.0.3.c1-00005-M8996AAAAANAZT-1_20170110_230814/b/HK11/trustzone_images/core/securemsm/trustzone/qsee/mink/libstd/build/sampleapp/scorpion/IADAANAA/libstd.lib(strlen.o)
 .debug_abbrev  0x00005f87       0x69 /local/mnt/workspace/CRMBuilds/TZ.BF.4.0.3.c1-00005-M8996AAAAANAZT-1_20170110_230814/b/HK11/trustzone_images/core/securemsm/trustzone/qsee/mink/libstd/build/sampleapp/scorpion/IADAANAA/libstd.lib(strcmp.o)
 .debug_abbrev  0x00005ff0       0x76 /local/mnt/workspace/CRMBuilds/TZ.BF.4.0.3.c1-00005-M8996AAAAANAZT-1_20170110_230814/b/HK11/trustzone_images/core/securemsm/trustzone/qsee/mink/libstd/build/sampleapp/scorpion/IADAANAA/libstd.lib(strncmp.o)
 .debug_abbrev  0x00006066      0x261 /local/mnt/workspace/CRMBuilds/TZ.BF.4.0.3.c1-00005-M8996AAAAANAZT-1_20170110_230814/b/HK11/trustzone_images/core/securemsm/trustzone/qsee/mink/libstd/build/sampleapp/scorpion/IADAANAA/libstd.lib(printf.o)
 .debug_abbrev  0x000062c7       0x8b /local/mnt/workspace/CRMBuilds/TZ.BF.4.0.3.c1-00005-M8996AAAAANAZT-1_20170110_230814/b/HK11/trustzone_images/core/securemsm/trustzone/qsee/mink/libstd/build/sampleapp/scorpion/IADAANAA/libstd.lib(memchr.o)
 .debug_abbrev  0x00006352       0xdd /local/mnt/workspace/CRMBuilds/TZ.BF.4.0.3.c1-00005-M8996AAAAANAZT-1_20170110_230814/b/HK11/trustzone_images/core/securemsm/sse/qsee/SecureTouch/drTs/lib/build/sampleapp/scorpion/IADAANAA/touch_lib.lib(01_open.o)
 .debug_abbrev  0x0000642f       0x8c /local/mnt/workspace/CRMBuilds/TZ.BF.4.0.3.c1-00005-M8996AAAAANAZT-1_20170110_230814/b/HK11/trustzone_images/core/securemsm/sse/qsee/SecureTouch/drTs/lib/build/sampleapp/scorpion/IADAANAA/touch_lib.lib(02_close.o)
 .debug_abbrev  0x000064bb       0xec /local/mnt/workspace/CRMBuilds/TZ.BF.4.0.3.c1-00005-M8996AAAAANAZT-1_20170110_230814/b/HK11/trustzone_images/core/securemsm/sse/qsee/SecureTouch/drTs/lib/build/sampleapp/scorpion/IADAANAA/touch_lib.lib(03_getData.o)
 .debug_abbrev  0x000065a7      0x182 /local/mnt/workspace/CRMBuilds/TZ.BF.4.0.3.c1-00005-M8996AAAAANAZT-1_20170110_230814/b/HK11/trustzone_images/core/securemsm/trustzone/qsapps/libs/applib/common_applib/build/sampleapp/scorpion/IADAANAA/tzapp_entrylib.lib(gpPersistObjCommon.o)
 .debug_abbrev  0x00006729      0x150 /local/mnt/workspace/CRMBuilds/TZ.BF.4.0.3.c1-00005-M8996AAAAANAZT-1_20170110_230814/b/HK11/trustzone_images/core/securemsm/trustzone/qsapps/libs/applib/common_applib/build/sampleapp/scorpion/IADAANAA/tzapp_entrylib.lib(gpPersistentObjects.o)
 .debug_abbrev  0x00006879      0x1eb /local/mnt/workspace/CRMBuilds/TZ.BF.4.0.3.c1-00005-M8996AAAAANAZT-1_20170110_230814/b/HK11/trustzone_images/core/securemsm/trustzone/qsapps/libs/applib/common_applib/build/sampleapp/scorpion/IADAANAA/tzapp_entrylib.lib(gpPersistObjData.o)
 .debug_abbrev  0x00006a64      0x18d /local/mnt/workspace/CRMBuilds/TZ.BF.4.0.3.c1-00005-M8996AAAAANAZT-1_20170110_230814/b/HK11/trustzone_images/core/securemsm/trustzone/qsapps/libs/applib/common_applib/build/sampleapp/scorpion/IADAANAA/tzapp_entrylib.lib(gpPersistObjHandler.o)
 .debug_abbrev  0x00006bf1      0x21c /local/mnt/workspace/CRMBuilds/TZ.BF.4.0.3.c1-00005-M8996AAAAANAZT-1_20170110_230814/b/HK11/trustzone_images/core/securemsm/trustzone/qsapps/libs/applib/common_applib/build/sampleapp/scorpion/IADAANAA/tzapp_entrylib.lib(gpPersistObjIndex.o)
 .debug_abbrev  0x00006e0d      0x21e /local/mnt/workspace/CRMBuilds/TZ.BF.4.0.3.c1-00005-M8996AAAAANAZT-1_20170110_230814/b/HK11/trustzone_images/core/securemsm/trustzone/qsapps/libs/applib/common_applib/build/sampleapp/scorpion/IADAANAA/tzapp_entrylib.lib(gpPersistObjVersion.o)
 .debug_abbrev  0x0000702b      0x1e5 /local/mnt/workspace/CRMBuilds/TZ.BF.4.0.3.c1-00005-M8996AAAAANAZT-1_20170110_230814/b/HK11/trustzone_images/core/securemsm/trustzone/qsapps/libs/applib/common_applib/build/sampleapp/scorpion/IADAANAA/tzapp_entrylib.lib(gpPersistObjCrypto.o)
 .debug_abbrev  0x00007210       0xdf /local/mnt/workspace/CRMBuilds/TZ.BF.4.0.3.c1-00005-M8996AAAAANAZT-1_20170110_230814/b/HK11/trustzone_images/core/securemsm/trustzone/qsapps/libs/applib/common_applib/build/sampleapp/scorpion/IADAANAA/tzapp_entrylib.lib(gpPersistObjFileIO.o)
 .debug_abbrev  0x000072ef      0x10b /local/mnt/workspace/CRMBuilds/TZ.BF.4.0.3.c1-00005-M8996AAAAANAZT-1_20170110_230814/b/HK11/trustzone_images/core/securemsm/trustzone/qsapps/libs/applib/common_applib/build/sampleapp/scorpion/IADAANAA/tzapp_entrylib.lib(gpFileService.o)
 .debug_abbrev  0x000073fa       0xc1 /local/mnt/workspace/CRMBuilds/TZ.BF.4.0.3.c1-00005-M8996AAAAANAZT-1_20170110_230814/b/HK11/trustzone_images/core/securemsm/trustzone/qsapps/libs/applib/qsee/build/sampleapp/scorpion/IADAANAA/tzapp_entrylib.lib(qsee_cfg_prop_shim.o)
 .debug_abbrev  0x000074bb       0x84 /local/mnt/workspace/CRMBuilds/TZ.BF.4.0.3.c1-00005-M8996AAAAANAZT-1_20170110_230814/b/HK11/trustzone_images/core/securemsm/trustzone/qsapps/libs/applib/qsee/build/sampleapp/scorpion/IADAANAA/tzapp_entrylib.lib(gpPersistObjPanic.o)
 .debug_abbrev  0x0000753f       0x94 /local/mnt/workspace/CRMBuilds/TZ.BF.4.0.3.c1-00005-M8996AAAAANAZT-1_20170110_230814/b/HK11/trustzone_images/core/securemsm/trustzone/qsee/mink/libstd/build/sampleapp/scorpion/IADAANAA/libstd.lib(strlcat.o)
 .debug_abbrev  0x000075d3       0x85 /local/mnt/workspace/CRMBuilds/TZ.BF.4.0.3.c1-00005-M8996AAAAANAZT-1_20170110_230814/b/HK11/trustzone_images/core/securemsm/trustzone/qsee/mink/libstd/build/sampleapp/scorpion/IADAANAA/libstd.lib(memset.o)
 .debug_abbrev  0x00007658       0x98 /local/mnt/workspace/CRMBuilds/TZ.BF.4.0.3.c1-00005-M8996AAAAANAZT-1_20170110_230814/b/HK11/trustzone_images/core/securemsm/trustzone/qsee/mink/libstd/build/sampleapp/scorpion/IADAANAA/libstd.lib(memcpy.o)
 .debug_abbrev  0x000076f0       0x82 /local/mnt/workspace/CRMBuilds/TZ.BF.4.0.3.c1-00005-M8996AAAAANAZT-1_20170110_230814/b/HK11/trustzone_images/core/securemsm/trustzone/qsee/mink/libstd/build/sampleapp/scorpion/IADAANAA/libstd.lib(memmove.o)
 .debug_abbrev  0x00007772      0x207 /local/mnt/workspace/CRMBuilds/TZ.BF.4.0.3.c1-00005-M8996AAAAANAZT-1_20170110_230814/b/HK11/trustzone_images/core/securemsm/sse/SecureTouch/controller/build/sampleapp/scorpion/IADAANAA/drts_controller_msm8996.lib(atmel_mxt_ts.o)
 .debug_abbrev  0x00007979      0x21c /local/mnt/workspace/CRMBuilds/TZ.BF.4.0.3.c1-00005-M8996AAAAANAZT-1_20170110_230814/b/HK11/trustzone_images/core/securemsm/sse/SecureTouch/controller/build/sampleapp/scorpion/IADAANAA/drts_controller_msm8996.lib(synaptics_ts.o)
 .debug_abbrev  0x00007b95       0xb6 /local/mnt/workspace/CRMBuilds/TZ.BF.4.0.3.c1-00005-M8996AAAAANAZT-1_20170110_230814/b/HK11/trustzone_images/core/securemsm/sse/log/build/sampleapp/scorpion/IADAANAA/sselog.lib(sselog.o)
 .debug_abbrev  0x00007c4b       0xbc /local/mnt/workspace/CRMBuilds/TZ.BF.4.0.3.c1-00005-M8996AAAAANAZT-1_20170110_230814/b/HK11/trustzone_images/core/securemsm/sse/qsee/SecureTouch/drTs/controller/build/sampleapp/scorpion/IADAANAA/touch_controller_i2c_msm8996.lib(atmel_mxt_ts_i2c.o)
 .debug_abbrev  0x00007d07       0xbc /local/mnt/workspace/CRMBuilds/TZ.BF.4.0.3.c1-00005-M8996AAAAANAZT-1_20170110_230814/b/HK11/trustzone_images/core/securemsm/sse/qsee/SecureTouch/drTs/controller/build/sampleapp/scorpion/IADAANAA/touch_controller_i2c_msm8996.lib(synaptics_ts_i2c.o)

.debug_line     0x00000000    0x1a56f
 .debug_line    0x00000000      0x596 /local/mnt/workspace/CRMBuilds/TZ.BF.4.0.3.c1-00005-M8996AAAAANAZT-1_20170110_230814/b/HK11/trustzone_images/core/securemsm/trustzone/qsapps/sampleapp/build/sampleapp/scorpion/IADAANAA/app_main.o
 .debug_line    0x00000596      0x32a /local/mnt/workspace/CRMBuilds/TZ.BF.4.0.3.c1-00005-M8996AAAAANAZT-1_20170110_230814/b/HK11/trustzone_images/core/securemsm/trustzone/qsapps/sampleapp/build/sampleapp/scorpion/IADAANAA/app_smplserv_test.o
 .debug_line    0x000008c0      0x2c8 /local/mnt/workspace/CRMBuilds/TZ.BF.4.0.3.c1-00005-M8996AAAAANAZT-1_20170110_230814/b/HK11/trustzone_images/core/securemsm/trustzone/qsapps/sampleapp/build/sampleapp/scorpion/IADAANAA/app_smplcert_test.o
 .debug_line    0x00000b88     0x1b49 /local/mnt/workspace/CRMBuilds/TZ.BF.4.0.3.c1-00005-M8996AAAAANAZT-1_20170110_230814/b/HK11/trustzone_images/core/securemsm/trustzone/qsapps/sampleapp/build/sampleapp/scorpion/IADAANAA/app_crypto.o
 .debug_line    0x000026d1      0xcf5 /local/mnt/workspace/CRMBuilds/TZ.BF.4.0.3.c1-00005-M8996AAAAANAZT-1_20170110_230814/b/HK11/trustzone_images/core/securemsm/trustzone/qsapps/sampleapp/build/sampleapp/scorpion/IADAANAA/app_sfs.o
 .debug_line    0x000033c6      0x538 /local/mnt/workspace/CRMBuilds/TZ.BF.4.0.3.c1-00005-M8996AAAAANAZT-1_20170110_230814/b/HK11/trustzone_images/core/securemsm/trustzone/qsapps/sampleapp/build/sampleapp/scorpion/IADAANAA/app_rsa.o
 .debug_line    0x000038fe      0x579 /local/mnt/workspace/CRMBuilds/TZ.BF.4.0.3.c1-00005-M8996AAAAANAZT-1_20170110_230814/b/HK11/trustzone_images/core/securemsm/trustzone/qsapps/sampleapp/build/sampleapp/scorpion/IADAANAA/qsee_api_tests.o
 .debug_line    0x00003e77      0x2f2 /local/mnt/workspace/CRMBuilds/TZ.BF.4.0.3.c1-00005-M8996AAAAANAZT-1_20170110_230814/b/HK11/trustzone_images/core/securemsm/trustzone/qsapps/sampleapp/build/sampleapp/scorpion/IADAANAA/app_cmnlib.o
 .debug_line    0x00004169      0x15f /local/mnt/workspace/CRMBuilds/TZ.BF.4.0.3.c1-00005-M8996AAAAANAZT-1_20170110_230814/b/HK11/trustzone_images/core/securemsm/trustzone/qsapps/sampleapp/build/sampleapp/scorpion/IADAANAA/app_message_passing.o
 .debug_line    0x000042c8      0x194 /local/mnt/workspace/CRMBuilds/TZ.BF.4.0.3.c1-00005-M8996AAAAANAZT-1_20170110_230814/b/HK11/trustzone_images/core/securemsm/trustzone/qsapps/sampleapp/build/sampleapp/scorpion/IADAANAA/app_fuses.o
 .debug_line    0x0000445c      0x66c /local/mnt/workspace/CRMBuilds/TZ.BF.4.0.3.c1-00005-M8996AAAAANAZT-1_20170110_230814/b/HK11/trustzone_images/core/securemsm/trustzone/qsapps/sampleapp/build/sampleapp/scorpion/IADAANAA/app_stor.o
 .debug_line    0x00004ac8      0x3cd /local/mnt/workspace/CRMBuilds/TZ.BF.4.0.3.c1-00005-M8996AAAAANAZT-1_20170110_230814/b/HK11/trustzone_images/core/securemsm/trustzone/qsapps/sampleapp/build/sampleapp/scorpion/IADAANAA/app_content_protection.o
 .debug_line    0x00004e95      0x5bb /local/mnt/workspace/CRMBuilds/TZ.BF.4.0.3.c1-00005-M8996AAAAANAZT-1_20170110_230814/b/HK11/trustzone_images/core/securemsm/trustzone/qsapps/sampleapp/build/sampleapp/scorpion/IADAANAA/app_secure_ui.o
 .debug_line    0x00005450      0x758 /local/mnt/workspace/CRMBuilds/TZ.BF.4.0.3.c1-00005-M8996AAAAANAZT-1_20170110_230814/b/HK11/trustzone_images/core/securemsm/trustzone/qsapps/sampleapp/build/sampleapp/scorpion/IADAANAA/app_bio_lib.o
 .debug_line    0x00005ba8      0x590 /local/mnt/workspace/CRMBuilds/TZ.BF.4.0.3.c1-00005-M8996AAAAANAZT-1_20170110_230814/b/HK11/trustzone_images/core/securemsm/trustzone/qsapps/sampleapp/build/sampleapp/scorpion/IADAANAA/app_bulletin_board.o
 .debug_line    0x00006138       0xe4 /local/mnt/workspace/CRMBuilds/TZ.BF.4.0.3.c1-00005-M8996AAAAANAZT-1_20170110_230814/b/HK11/trustzone_images/core/securemsm/trustzone/qsapps/sampleapp/build/sampleapp/scorpion/IADAANAA/metadata.o
 .debug_line    0x0000621c      0x10f /local/mnt/workspace/CRMBuilds/TZ.BF.4.0.3.c1-00005-M8996AAAAANAZT-1_20170110_230814/b/HK11/trustzone_images/core/kernel/libstd/build/sampleapp/scorpion/IADAANAA/libstd.lib(memscpy.o)
 .debug_line    0x0000632b      0x12a /local/mnt/workspace/CRMBuilds/TZ.BF.4.0.3.c1-00005-M8996AAAAANAZT-1_20170110_230814/b/HK11/trustzone_images/core/kernel/libstd/build/sampleapp/scorpion/IADAANAA/libstd.lib(strlcpy.o)
 .debug_line    0x00006455      0x116 /local/mnt/workspace/CRMBuilds/TZ.BF.4.0.3.c1-00005-M8996AAAAANAZT-1_20170110_230814/b/HK11/trustzone_images/core/kernel/libstd/build/sampleapp/scorpion/IADAANAA/libstd.lib(secure_memset.o)
 .debug_line    0x0000656b      0x11e /local/mnt/workspace/CRMBuilds/TZ.BF.4.0.3.c1-00005-M8996AAAAANAZT-1_20170110_230814/b/HK11/trustzone_images/core/kernel/libstd/build/sampleapp/scorpion/IADAANAA/libstd.lib(timesafe_memcmp.o)
 .debug_line    0x00006689      0x133 /local/mnt/workspace/CRMBuilds/TZ.BF.4.0.3.c1-00005-M8996AAAAANAZT-1_20170110_230814/b/HK11/trustzone_images/core/kernel/libstd/build/sampleapp/scorpion/IADAANAA/libstd.lib(timesafe_strncmp.o)
 .debug_line    0x000067bc      0xd74 /local/mnt/workspace/CRMBuilds/TZ.BF.4.0.3.c1-00005-M8996AAAAANAZT-1_20170110_230814/b/HK11/trustzone_images/core/securemsm/sse/qsee/SecureUI/build/sampleapp/scorpion/IADAANAA/secure_ui.lib(SecureUI.o)
 .debug_line    0x00007530      0x4b8 /local/mnt/workspace/CRMBuilds/TZ.BF.4.0.3.c1-00005-M8996AAAAANAZT-1_20170110_230814/b/HK11/trustzone_images/core/securemsm/sse/qsee/SecureUILib/lib/build/sampleapp/scorpion/IADAANAA/secure_ui_lib.lib(SecureUILib.o)
 .debug_line    0x000079e8      0x3d9 /local/mnt/workspace/CRMBuilds/TZ.BF.4.0.3.c1-00005-M8996AAAAANAZT-1_20170110_230814/b/HK11/trustzone_images/core/securemsm/sse/qsee/SecureUILib/lib/build/sampleapp/scorpion/IADAANAA/secure_ui_lib.lib(01_startTouch.o)
 .debug_line    0x00007dc1      0x4be /local/mnt/workspace/CRMBuilds/TZ.BF.4.0.3.c1-00005-M8996AAAAANAZT-1_20170110_230814/b/HK11/trustzone_images/core/securemsm/sse/qsee/SecureUILib/lib/build/sampleapp/scorpion/IADAANAA/secure_ui_lib.lib(02_processTouch.o)
 .debug_line    0x0000827f      0x3e9 /local/mnt/workspace/CRMBuilds/TZ.BF.4.0.3.c1-00005-M8996AAAAANAZT-1_20170110_230814/b/HK11/trustzone_images/core/securemsm/sse/qsee/SecureUILib/lib/build/sampleapp/scorpion/IADAANAA/secure_ui_lib.lib(03_stopTouch.o)
 .debug_line    0x00008668      0x7c6 /local/mnt/workspace/CRMBuilds/TZ.BF.4.0.3.c1-00005-M8996AAAAANAZT-1_20170110_230814/b/HK11/trustzone_images/core/securemsm/trustzone/qsapps/libs/applib/common_applib/build/sampleapp/scorpion/IADAANAA/tzapp_entrylib.lib(common_applib.o)
 .debug_line    0x00008e2e      0xc37 /local/mnt/workspace/CRMBuilds/TZ.BF.4.0.3.c1-00005-M8996AAAAANAZT-1_20170110_230814/b/HK11/trustzone_images/core/securemsm/trustzone/qsapps/libs/applib/proxy/build/sampleapp/scorpion/IADAANAA/tzlib_proxy.lib(prxy_services.o)
 .debug_line    0x00009a65      0x620 /local/mnt/workspace/CRMBuilds/TZ.BF.4.0.3.c1-00005-M8996AAAAANAZT-1_20170110_230814/b/HK11/trustzone_images/core/securemsm/trustzone/qsapps/libs/applib/proxy/build/sampleapp/scorpion/IADAANAA/tzlib_proxy.lib(prxy_qsee_shim.o)
 .debug_line    0x0000a085      0xa5e /local/mnt/workspace/CRMBuilds/TZ.BF.4.0.3.c1-00005-M8996AAAAANAZT-1_20170110_230814/b/HK11/trustzone_images/core/securemsm/trustzone/qsapps/libs/applib/proxy/build/sampleapp/scorpion/IADAANAA/tzlib_proxy.lib(prxy_ufaes.o)
 .debug_line    0x0000aae3      0x9fa /local/mnt/workspace/CRMBuilds/TZ.BF.4.0.3.c1-00005-M8996AAAAANAZT-1_20170110_230814/b/HK11/trustzone_images/core/securemsm/trustzone/qsapps/libs/applib/proxy/build/sampleapp/scorpion/IADAANAA/tzlib_proxy.lib(prxy_ufdes.o)
 .debug_line    0x0000b4dd      0xa0e /local/mnt/workspace/CRMBuilds/TZ.BF.4.0.3.c1-00005-M8996AAAAANAZT-1_20170110_230814/b/HK11/trustzone_images/core/securemsm/trustzone/qsapps/libs/applib/proxy/build/sampleapp/scorpion/IADAANAA/tzlib_proxy.lib(prxy_ufsha.o)
 .debug_line    0x0000beeb      0x9d4 /local/mnt/workspace/CRMBuilds/TZ.BF.4.0.3.c1-00005-M8996AAAAANAZT-1_20170110_230814/b/HK11/trustzone_images/core/securemsm/trustzone/qsapps/libs/applib/proxy/build/sampleapp/scorpion/IADAANAA/tzlib_proxy.lib(prxy_secmath.o)
 .debug_line    0x0000c8bf      0xa8f /local/mnt/workspace/CRMBuilds/TZ.BF.4.0.3.c1-00005-M8996AAAAANAZT-1_20170110_230814/b/HK11/trustzone_images/core/securemsm/trustzone/qsapps/libs/applib/proxy/build/sampleapp/scorpion/IADAANAA/tzlib_proxy.lib(prxy_secrsa.o)
 .debug_line    0x0000d34e      0xafc /local/mnt/workspace/CRMBuilds/TZ.BF.4.0.3.c1-00005-M8996AAAAANAZT-1_20170110_230814/b/HK11/trustzone_images/core/securemsm/trustzone/qsapps/libs/applib/proxy/build/sampleapp/scorpion/IADAANAA/tzlib_proxy.lib(prxy_ecc.o)
 .debug_line    0x0000de4a      0x36c /local/mnt/workspace/CRMBuilds/TZ.BF.4.0.3.c1-00005-M8996AAAAANAZT-1_20170110_230814/b/HK11/trustzone_images/core/securemsm/trustzone/qsapps/libs/applib/qsee/build/sampleapp/scorpion/IADAANAA/tzapp_entrylib.lib(mink_shared_code.o)
 .debug_line    0x0000e1b6      0x2f9 /local/mnt/workspace/CRMBuilds/TZ.BF.4.0.3.c1-00005-M8996AAAAANAZT-1_20170110_230814/b/HK11/trustzone_images/core/securemsm/trustzone/qsapps/libs/applib/qsee/build/sampleapp/scorpion/IADAANAA/tzapp_entrylib.lib(qsee_env.o)
 .debug_line    0x0000e4af      0x2dd /local/mnt/workspace/CRMBuilds/TZ.BF.4.0.3.c1-00005-M8996AAAAANAZT-1_20170110_230814/b/HK11/trustzone_images/core/securemsm/trustzone/qsapps/libs/applib/qsee/build/sampleapp/scorpion/IADAANAA/tzapp_entrylib.lib(qsee_core_shim.o)
 .debug_line    0x0000e78c      0x2cc /local/mnt/workspace/CRMBuilds/TZ.BF.4.0.3.c1-00005-M8996AAAAANAZT-1_20170110_230814/b/HK11/trustzone_images/core/securemsm/trustzone/qsapps/libs/applib/qsee/build/sampleapp/scorpion/IADAANAA/tzapp_entrylib.lib(qsee_deviceid.o)
 .debug_line    0x0000ea58      0x28b /local/mnt/workspace/CRMBuilds/TZ.BF.4.0.3.c1-00005-M8996AAAAANAZT-1_20170110_230814/b/HK11/trustzone_images/core/securemsm/trustzone/qsapps/libs/applib/qsee/build/sampleapp/scorpion/IADAANAA/tzapp_entrylib.lib(qsee_prng.o)
 .debug_line    0x0000ece3      0x2da /local/mnt/workspace/CRMBuilds/TZ.BF.4.0.3.c1-00005-M8996AAAAANAZT-1_20170110_230814/b/HK11/trustzone_images/core/securemsm/trustzone/qsapps/libs/applib/qsee/build/sampleapp/scorpion/IADAANAA/tzapp_entrylib.lib(qsee_secdisp.o)
 .debug_line    0x0000efbd      0x336 /local/mnt/workspace/CRMBuilds/TZ.BF.4.0.3.c1-00005-M8996AAAAANAZT-1_20170110_230814/b/HK11/trustzone_images/core/securemsm/trustzone/qsapps/libs/applib/qsee/build/sampleapp/scorpion/IADAANAA/tzapp_entrylib.lib(qsee_nsmem.o)
 .debug_line    0x0000f2f3      0x32f /local/mnt/workspace/CRMBuilds/TZ.BF.4.0.3.c1-00005-M8996AAAAANAZT-1_20170110_230814/b/HK11/trustzone_images/core/securemsm/trustzone/qsapps/libs/applib/qsee/build/sampleapp/scorpion/IADAANAA/tzapp_entrylib.lib(qsee_cmac.o)
 .debug_line    0x0000f622      0x13b /local/mnt/workspace/CRMBuilds/TZ.BF.4.0.3.c1-00005-M8996AAAAANAZT-1_20170110_230814/b/HK11/trustzone_images/core/securemsm/trustzone/qsapps/libs/applib/qsee/build/sampleapp/scorpion/IADAANAA/tzapp_entrylib.lib(qsee_crypto_shim.o)
 .debug_line    0x0000f75d       0xeb /local/mnt/workspace/CRMBuilds/TZ.BF.4.0.3.c1-00005-M8996AAAAANAZT-1_20170110_230814/b/HK11/trustzone_images/core/securemsm/trustzone/qsapps/libs/applib/qsee/build/sampleapp/scorpion/IADAANAA/tzapp_entrylib.lib(qsee_timer_shim.o)
 .debug_line    0x0000f848      0x2d5 /local/mnt/workspace/CRMBuilds/TZ.BF.4.0.3.c1-00005-M8996AAAAANAZT-1_20170110_230814/b/HK11/trustzone_images/core/securemsm/trustzone/qsapps/libs/applib/qsee/build/sampleapp/scorpion/IADAANAA/tzapp_entrylib.lib(qsee_comstr.o)
 .debug_line    0x0000fb1d      0x30d /local/mnt/workspace/CRMBuilds/TZ.BF.4.0.3.c1-00005-M8996AAAAANAZT-1_20170110_230814/b/HK11/trustzone_images/core/securemsm/trustzone/qsapps/libs/applib/qsee/build/sampleapp/scorpion/IADAANAA/tzapp_entrylib.lib(stor.o)
 .debug_line    0x0000fe2a      0x676 /local/mnt/workspace/CRMBuilds/TZ.BF.4.0.3.c1-00005-M8996AAAAANAZT-1_20170110_230814/b/HK11/trustzone_images/core/securemsm/trustzone/qsapps/libs/applib/qsee/build/sampleapp/scorpion/IADAANAA/tzapp_entrylib.lib(stor_gpt.o)
 .debug_line    0x000104a0      0x2a2 /local/mnt/workspace/CRMBuilds/TZ.BF.4.0.3.c1-00005-M8996AAAAANAZT-1_20170110_230814/b/HK11/trustzone_images/core/securemsm/trustzone/qsapps/libs/applib/qsee/build/sampleapp/scorpion/IADAANAA/tzapp_entrylib.lib(stor_rpmbw.o)
 .debug_line    0x00010742      0x156 /local/mnt/workspace/CRMBuilds/TZ.BF.4.0.3.c1-00005-M8996AAAAANAZT-1_20170110_230814/b/HK11/trustzone_images/core/securemsm/trustzone/qsapps/libs/applib/qsee/build/sampleapp/scorpion/IADAANAA/tzapp_entrylib.lib(qsee_counter_shim.o)
 .debug_line    0x00010898      0x5a4 /local/mnt/workspace/CRMBuilds/TZ.BF.4.0.3.c1-00005-M8996AAAAANAZT-1_20170110_230814/b/HK11/trustzone_images/core/securemsm/trustzone/qsapps/libs/applib/qsee/build/sampleapp/scorpion/IADAANAA/tzapp_entrylib.lib(qsee_cipher.o)
 .debug_line    0x00010e3c      0x566 /local/mnt/workspace/CRMBuilds/TZ.BF.4.0.3.c1-00005-M8996AAAAANAZT-1_20170110_230814/b/HK11/trustzone_images/core/securemsm/trustzone/qsapps/libs/applib/qsee/build/sampleapp/scorpion/IADAANAA/tzapp_entrylib.lib(qsee_hash.o)
 .debug_line    0x000113a2      0x42f /local/mnt/workspace/CRMBuilds/TZ.BF.4.0.3.c1-00005-M8996AAAAANAZT-1_20170110_230814/b/HK11/trustzone_images/core/securemsm/trustzone/qsapps/libs/applib/qsee/build/sampleapp/scorpion/IADAANAA/tzapp_entrylib.lib(qsee_hmac.o)
 .debug_line    0x000117d1      0x4c2 /local/mnt/workspace/CRMBuilds/TZ.BF.4.0.3.c1-00005-M8996AAAAANAZT-1_20170110_230814/b/HK11/trustzone_images/core/securemsm/trustzone/qsapps/libs/applib/qsee/build/sampleapp/scorpion/IADAANAA/tzapp_entrylib.lib(qsee_i2c.o)
 .debug_line    0x00011c93      0x519 /local/mnt/workspace/CRMBuilds/TZ.BF.4.0.3.c1-00005-M8996AAAAANAZT-1_20170110_230814/b/HK11/trustzone_images/core/securemsm/trustzone/qsapps/libs/applib/qsee/build/sampleapp/scorpion/IADAANAA/tzapp_entrylib.lib(qsee_spi.o)
 .debug_line    0x000121ac      0x20b /local/mnt/workspace/CRMBuilds/TZ.BF.4.0.3.c1-00005-M8996AAAAANAZT-1_20170110_230814/b/HK11/trustzone_images/core/securemsm/trustzone/qsapps/libs/applib/qsee/build/sampleapp/scorpion/IADAANAA/tzapp_entrylib.lib(qsee_bulletin_board_shim.o)
 .debug_line    0x000123b7      0x4fc /local/mnt/workspace/CRMBuilds/TZ.BF.4.0.3.c1-00005-M8996AAAAANAZT-1_20170110_230814/b/HK11/trustzone_images/core/securemsm/trustzone/qsapps/libs/applib/qsee/build/sampleapp/scorpion/IADAANAA/tzapp_entrylib.lib(qsee_tlmm.o)
 .debug_line    0x000128b3      0x29d /local/mnt/workspace/CRMBuilds/TZ.BF.4.0.3.c1-00005-M8996AAAAANAZT-1_20170110_230814/b/HK11/trustzone_images/core/securemsm/trustzone/qsapps/libs/applib/qsee/build/sampleapp/scorpion/IADAANAA/tzapp_entrylib.lib(qsee_sync.o)
 .debug_line    0x00012b50      0x2db /local/mnt/workspace/CRMBuilds/TZ.BF.4.0.3.c1-00005-M8996AAAAANAZT-1_20170110_230814/b/HK11/trustzone_images/core/securemsm/trustzone/qsapps/libs/applib/qsee/build/sampleapp/scorpion/IADAANAA/tzapp_entrylib.lib(qsee_dcache.o)
 .debug_line    0x00012e2b      0x2d4 /local/mnt/workspace/CRMBuilds/TZ.BF.4.0.3.c1-00005-M8996AAAAANAZT-1_20170110_230814/b/HK11/trustzone_images/core/securemsm/trustzone/qsapps/libs/applib/qsee/build/sampleapp/scorpion/IADAANAA/tzapp_entrylib.lib(qsee_shared_buffer.o)
 .debug_line    0x000130ff      0x326 /local/mnt/workspace/CRMBuilds/TZ.BF.4.0.3.c1-00005-M8996AAAAANAZT-1_20170110_230814/b/HK11/trustzone_images/core/securemsm/trustzone/qsapps/libs/applib/qsee/build/sampleapp/scorpion/IADAANAA/tzapp_entrylib.lib(qsee_oem_buffer.o)
 .debug_line    0x00013425      0x3a2 /local/mnt/workspace/CRMBuilds/TZ.BF.4.0.3.c1-00005-M8996AAAAANAZT-1_20170110_230814/b/HK11/trustzone_images/core/securemsm/trustzone/qsapps/libs/applib/qsee/build/sampleapp/scorpion/IADAANAA/tzapp_entrylib.lib(qsee_intmask.o)
 .debug_line    0x000137c7      0x36d /local/mnt/workspace/CRMBuilds/TZ.BF.4.0.3.c1-00005-M8996AAAAANAZT-1_20170110_230814/b/HK11/trustzone_images/core/securemsm/trustzone/qsapps/libs/applib/qsee/build/sampleapp/scorpion/IADAANAA/tzapp_entrylib.lib(qsee_trans_ns_addr.o)
 .debug_line    0x00013b34      0x310 /local/mnt/workspace/CRMBuilds/TZ.BF.4.0.3.c1-00005-M8996AAAAANAZT-1_20170110_230814/b/HK11/trustzone_images/core/securemsm/trustzone/qsapps/libs/applib/qsee/build/sampleapp/scorpion/IADAANAA/tzapp_entrylib.lib(qsee_appmessage.o)
 .debug_line    0x00013e44      0x4fa /local/mnt/workspace/CRMBuilds/TZ.BF.4.0.3.c1-00005-M8996AAAAANAZT-1_20170110_230814/b/HK11/trustzone_images/core/securemsm/trustzone/qsapps/libs/applib/qsee/build/sampleapp/scorpion/IADAANAA/tzapp_entrylib.lib(sfs_api.o)
 .debug_line    0x0001433e      0x218 /local/mnt/workspace/CRMBuilds/TZ.BF.4.0.3.c1-00005-M8996AAAAANAZT-1_20170110_230814/b/HK11/trustzone_images/core/securemsm/trustzone/qsapps/libs/applib/qsee/build/sampleapp/scorpion/IADAANAA/tzapp_entrylib.lib(tzapp_lib_main.o)
 .debug_line    0x00014556      0x3f2 /local/mnt/workspace/CRMBuilds/TZ.BF.4.0.3.c1-00005-M8996AAAAANAZT-1_20170110_230814/b/HK11/trustzone_images/core/securemsm/trustzone/qsapps/libs/biometric/build/sampleapp/scorpion/IADAANAA/biometric_lib.lib(biometric.o)
 .debug_line    0x00014948      0x3bb /local/mnt/workspace/CRMBuilds/TZ.BF.4.0.3.c1-00005-M8996AAAAANAZT-1_20170110_230814/b/HK11/trustzone_images/core/securemsm/trustzone/qsapps/libs/biometric/build/sampleapp/scorpion/IADAANAA/biometric_lib.lib(biometric_serializer.o)
 .debug_line    0x00014d03      0x12d /local/mnt/workspace/CRMBuilds/TZ.BF.4.0.3.c1-00005-M8996AAAAANAZT-1_20170110_230814/b/HK11/trustzone_images/core/securemsm/trustzone/qsee/mink/libstd/build/sampleapp/scorpion/IADAANAA/libstd.lib(strnlen.o)
 .debug_line    0x00014e30      0x13a /local/mnt/workspace/CRMBuilds/TZ.BF.4.0.3.c1-00005-M8996AAAAANAZT-1_20170110_230814/b/HK11/trustzone_images/core/securemsm/trustzone/qsee/mink/libstd/build/sampleapp/scorpion/IADAANAA/libstd.lib(memcmp.o)
 .debug_line    0x00014f6a      0x147 /local/mnt/workspace/CRMBuilds/TZ.BF.4.0.3.c1-00005-M8996AAAAANAZT-1_20170110_230814/b/HK11/trustzone_images/core/securemsm/trustzone/qsee/mink/libstd/build/sampleapp/scorpion/IADAANAA/libstd.lib(strlen.o)
 .debug_line    0x000150b1       0xdb /local/mnt/workspace/CRMBuilds/TZ.BF.4.0.3.c1-00005-M8996AAAAANAZT-1_20170110_230814/b/HK11/trustzone_images/core/securemsm/trustzone/qsee/mink/libstd/build/sampleapp/scorpion/IADAANAA/libstd.lib(strcmp.o)
 .debug_line    0x0001518c      0x144 /local/mnt/workspace/CRMBuilds/TZ.BF.4.0.3.c1-00005-M8996AAAAANAZT-1_20170110_230814/b/HK11/trustzone_images/core/securemsm/trustzone/qsee/mink/libstd/build/sampleapp/scorpion/IADAANAA/libstd.lib(strncmp.o)
 .debug_line    0x000152d0      0x559 /local/mnt/workspace/CRMBuilds/TZ.BF.4.0.3.c1-00005-M8996AAAAANAZT-1_20170110_230814/b/HK11/trustzone_images/core/securemsm/trustzone/qsee/mink/libstd/build/sampleapp/scorpion/IADAANAA/libstd.lib(printf.o)
 .debug_line    0x00015829      0x183 /local/mnt/workspace/CRMBuilds/TZ.BF.4.0.3.c1-00005-M8996AAAAANAZT-1_20170110_230814/b/HK11/trustzone_images/core/securemsm/trustzone/qsee/mink/libstd/build/sampleapp/scorpion/IADAANAA/libstd.lib(memchr.o)
 .debug_line    0x000159ac      0x1f8 /local/mnt/workspace/CRMBuilds/TZ.BF.4.0.3.c1-00005-M8996AAAAANAZT-1_20170110_230814/b/HK11/trustzone_images/core/securemsm/sse/qsee/SecureTouch/drTs/lib/build/sampleapp/scorpion/IADAANAA/touch_lib.lib(01_open.o)
 .debug_line    0x00015ba4      0x142 /local/mnt/workspace/CRMBuilds/TZ.BF.4.0.3.c1-00005-M8996AAAAANAZT-1_20170110_230814/b/HK11/trustzone_images/core/securemsm/sse/qsee/SecureTouch/drTs/lib/build/sampleapp/scorpion/IADAANAA/touch_lib.lib(02_close.o)
 .debug_line    0x00015ce6      0x219 /local/mnt/workspace/CRMBuilds/TZ.BF.4.0.3.c1-00005-M8996AAAAANAZT-1_20170110_230814/b/HK11/trustzone_images/core/securemsm/sse/qsee/SecureTouch/drTs/lib/build/sampleapp/scorpion/IADAANAA/touch_lib.lib(03_getData.o)
 .debug_line    0x00015eff      0x46c /local/mnt/workspace/CRMBuilds/TZ.BF.4.0.3.c1-00005-M8996AAAAANAZT-1_20170110_230814/b/HK11/trustzone_images/core/securemsm/trustzone/qsapps/libs/applib/common_applib/build/sampleapp/scorpion/IADAANAA/tzapp_entrylib.lib(gpPersistObjCommon.o)
 .debug_line    0x0001636b      0x504 /local/mnt/workspace/CRMBuilds/TZ.BF.4.0.3.c1-00005-M8996AAAAANAZT-1_20170110_230814/b/HK11/trustzone_images/core/securemsm/trustzone/qsapps/libs/applib/common_applib/build/sampleapp/scorpion/IADAANAA/tzapp_entrylib.lib(gpPersistentObjects.o)
 .debug_line    0x0001686f      0x9a9 /local/mnt/workspace/CRMBuilds/TZ.BF.4.0.3.c1-00005-M8996AAAAANAZT-1_20170110_230814/b/HK11/trustzone_images/core/securemsm/trustzone/qsapps/libs/applib/common_applib/build/sampleapp/scorpion/IADAANAA/tzapp_entrylib.lib(gpPersistObjData.o)
 .debug_line    0x00017218      0x452 /local/mnt/workspace/CRMBuilds/TZ.BF.4.0.3.c1-00005-M8996AAAAANAZT-1_20170110_230814/b/HK11/trustzone_images/core/securemsm/trustzone/qsapps/libs/applib/common_applib/build/sampleapp/scorpion/IADAANAA/tzapp_entrylib.lib(gpPersistObjHandler.o)
 .debug_line    0x0001766a      0x5e9 /local/mnt/workspace/CRMBuilds/TZ.BF.4.0.3.c1-00005-M8996AAAAANAZT-1_20170110_230814/b/HK11/trustzone_images/core/securemsm/trustzone/qsapps/libs/applib/common_applib/build/sampleapp/scorpion/IADAANAA/tzapp_entrylib.lib(gpPersistObjIndex.o)
 .debug_line    0x00017c53      0x5c4 /local/mnt/workspace/CRMBuilds/TZ.BF.4.0.3.c1-00005-M8996AAAAANAZT-1_20170110_230814/b/HK11/trustzone_images/core/securemsm/trustzone/qsapps/libs/applib/common_applib/build/sampleapp/scorpion/IADAANAA/tzapp_entrylib.lib(gpPersistObjVersion.o)
 .debug_line    0x00018217      0x4bd /local/mnt/workspace/CRMBuilds/TZ.BF.4.0.3.c1-00005-M8996AAAAANAZT-1_20170110_230814/b/HK11/trustzone_images/core/securemsm/trustzone/qsapps/libs/applib/common_applib/build/sampleapp/scorpion/IADAANAA/tzapp_entrylib.lib(gpPersistObjCrypto.o)
 .debug_line    0x000186d4      0x314 /local/mnt/workspace/CRMBuilds/TZ.BF.4.0.3.c1-00005-M8996AAAAANAZT-1_20170110_230814/b/HK11/trustzone_images/core/securemsm/trustzone/qsapps/libs/applib/common_applib/build/sampleapp/scorpion/IADAANAA/tzapp_entrylib.lib(gpPersistObjFileIO.o)
 .debug_line    0x000189e8      0x38e /local/mnt/workspace/CRMBuilds/TZ.BF.4.0.3.c1-00005-M8996AAAAANAZT-1_20170110_230814/b/HK11/trustzone_images/core/securemsm/trustzone/qsapps/libs/applib/common_applib/build/sampleapp/scorpion/IADAANAA/tzapp_entrylib.lib(gpFileService.o)
 .debug_line    0x00018d76      0x1d7 /local/mnt/workspace/CRMBuilds/TZ.BF.4.0.3.c1-00005-M8996AAAAANAZT-1_20170110_230814/b/HK11/trustzone_images/core/securemsm/trustzone/qsapps/libs/applib/qsee/build/sampleapp/scorpion/IADAANAA/tzapp_entrylib.lib(qsee_cfg_prop_shim.o)
 .debug_line    0x00018f4d      0x1cc /local/mnt/workspace/CRMBuilds/TZ.BF.4.0.3.c1-00005-M8996AAAAANAZT-1_20170110_230814/b/HK11/trustzone_images/core/securemsm/trustzone/qsapps/libs/applib/qsee/build/sampleapp/scorpion/IADAANAA/tzapp_entrylib.lib(gpPersistObjPanic.o)
 .debug_line    0x00019119      0x154 /local/mnt/workspace/CRMBuilds/TZ.BF.4.0.3.c1-00005-M8996AAAAANAZT-1_20170110_230814/b/HK11/trustzone_images/core/securemsm/trustzone/qsee/mink/libstd/build/sampleapp/scorpion/IADAANAA/libstd.lib(strlcat.o)
 .debug_line    0x0001926d      0x142 /local/mnt/workspace/CRMBuilds/TZ.BF.4.0.3.c1-00005-M8996AAAAANAZT-1_20170110_230814/b/HK11/trustzone_images/core/securemsm/trustzone/qsee/mink/libstd/build/sampleapp/scorpion/IADAANAA/libstd.lib(memset.o)
 .debug_line    0x000193af      0x251 /local/mnt/workspace/CRMBuilds/TZ.BF.4.0.3.c1-00005-M8996AAAAANAZT-1_20170110_230814/b/HK11/trustzone_images/core/securemsm/trustzone/qsee/mink/libstd/build/sampleapp/scorpion/IADAANAA/libstd.lib(memcpy.o)
 .debug_line    0x00019600      0x1a2 /local/mnt/workspace/CRMBuilds/TZ.BF.4.0.3.c1-00005-M8996AAAAANAZT-1_20170110_230814/b/HK11/trustzone_images/core/securemsm/trustzone/qsee/mink/libstd/build/sampleapp/scorpion/IADAANAA/libstd.lib(memmove.o)
 .debug_line    0x000197a2      0x371 /local/mnt/workspace/CRMBuilds/TZ.BF.4.0.3.c1-00005-M8996AAAAANAZT-1_20170110_230814/b/HK11/trustzone_images/core/securemsm/sse/SecureTouch/controller/build/sampleapp/scorpion/IADAANAA/drts_controller_msm8996.lib(atmel_mxt_ts.o)
 .debug_line    0x00019b13      0x3ec /local/mnt/workspace/CRMBuilds/TZ.BF.4.0.3.c1-00005-M8996AAAAANAZT-1_20170110_230814/b/HK11/trustzone_images/core/securemsm/sse/SecureTouch/controller/build/sampleapp/scorpion/IADAANAA/drts_controller_msm8996.lib(synaptics_ts.o)
 .debug_line    0x00019eff      0x125 /local/mnt/workspace/CRMBuilds/TZ.BF.4.0.3.c1-00005-M8996AAAAANAZT-1_20170110_230814/b/HK11/trustzone_images/core/securemsm/sse/log/build/sampleapp/scorpion/IADAANAA/sselog.lib(sselog.o)
 .debug_line    0x0001a024      0x2b1 /local/mnt/workspace/CRMBuilds/TZ.BF.4.0.3.c1-00005-M8996AAAAANAZT-1_20170110_230814/b/HK11/trustzone_images/core/securemsm/sse/qsee/SecureTouch/drTs/controller/build/sampleapp/scorpion/IADAANAA/touch_controller_i2c_msm8996.lib(atmel_mxt_ts_i2c.o)
 .debug_line    0x0001a2d5      0x29a /local/mnt/workspace/CRMBuilds/TZ.BF.4.0.3.c1-00005-M8996AAAAANAZT-1_20170110_230814/b/HK11/trustzone_images/core/securemsm/sse/qsee/SecureTouch/drTs/controller/build/sampleapp/scorpion/IADAANAA/touch_controller_i2c_msm8996.lib(synaptics_ts_i2c.o)

.debug_pubnames
                0x00000000     0x7833
 .debug_pubnames
                0x00000000       0xa1 /local/mnt/workspace/CRMBuilds/TZ.BF.4.0.3.c1-00005-M8996AAAAANAZT-1_20170110_230814/b/HK11/trustzone_images/core/securemsm/trustzone/qsapps/sampleapp/build/sampleapp/scorpion/IADAANAA/app_main.o
 .debug_pubnames
                0x000000a1       0x9c /local/mnt/workspace/CRMBuilds/TZ.BF.4.0.3.c1-00005-M8996AAAAANAZT-1_20170110_230814/b/HK11/trustzone_images/core/securemsm/trustzone/qsapps/sampleapp/build/sampleapp/scorpion/IADAANAA/app_smplserv_test.o
 .debug_pubnames
                0x0000013d       0x71 /local/mnt/workspace/CRMBuilds/TZ.BF.4.0.3.c1-00005-M8996AAAAANAZT-1_20170110_230814/b/HK11/trustzone_images/core/securemsm/trustzone/qsapps/sampleapp/build/sampleapp/scorpion/IADAANAA/app_smplcert_test.o
 .debug_pubnames
                0x000001ae     0x1790 /local/mnt/workspace/CRMBuilds/TZ.BF.4.0.3.c1-00005-M8996AAAAANAZT-1_20170110_230814/b/HK11/trustzone_images/core/securemsm/trustzone/qsapps/sampleapp/build/sampleapp/scorpion/IADAANAA/app_crypto.o
 .debug_pubnames
                0x0000193e      0x13c /local/mnt/workspace/CRMBuilds/TZ.BF.4.0.3.c1-00005-M8996AAAAANAZT-1_20170110_230814/b/HK11/trustzone_images/core/securemsm/trustzone/qsapps/sampleapp/build/sampleapp/scorpion/IADAANAA/app_sfs.o
 .debug_pubnames
                0x00001a7a      0x40e /local/mnt/workspace/CRMBuilds/TZ.BF.4.0.3.c1-00005-M8996AAAAANAZT-1_20170110_230814/b/HK11/trustzone_images/core/securemsm/trustzone/qsapps/sampleapp/build/sampleapp/scorpion/IADAANAA/app_rsa.o
 .debug_pubnames
                0x00001e88      0x27c /local/mnt/workspace/CRMBuilds/TZ.BF.4.0.3.c1-00005-M8996AAAAANAZT-1_20170110_230814/b/HK11/trustzone_images/core/securemsm/trustzone/qsapps/sampleapp/build/sampleapp/scorpion/IADAANAA/qsee_api_tests.o
 .debug_pubnames
                0x00002104       0xa6 /local/mnt/workspace/CRMBuilds/TZ.BF.4.0.3.c1-00005-M8996AAAAANAZT-1_20170110_230814/b/HK11/trustzone_images/core/securemsm/trustzone/qsapps/sampleapp/build/sampleapp/scorpion/IADAANAA/app_cmnlib.o
 .debug_pubnames
                0x000021aa       0x2f /local/mnt/workspace/CRMBuilds/TZ.BF.4.0.3.c1-00005-M8996AAAAANAZT-1_20170110_230814/b/HK11/trustzone_images/core/securemsm/trustzone/qsapps/sampleapp/build/sampleapp/scorpion/IADAANAA/app_message_passing.o
 .debug_pubnames
                0x000021d9       0x39 /local/mnt/workspace/CRMBuilds/TZ.BF.4.0.3.c1-00005-M8996AAAAANAZT-1_20170110_230814/b/HK11/trustzone_images/core/securemsm/trustzone/qsapps/sampleapp/build/sampleapp/scorpion/IADAANAA/app_fuses.o
 .debug_pubnames
                0x00002212      0x20f /local/mnt/workspace/CRMBuilds/TZ.BF.4.0.3.c1-00005-M8996AAAAANAZT-1_20170110_230814/b/HK11/trustzone_images/core/securemsm/trustzone/qsapps/sampleapp/build/sampleapp/scorpion/IADAANAA/app_stor.o
 .debug_pubnames
                0x00002421       0x51 /local/mnt/workspace/CRMBuilds/TZ.BF.4.0.3.c1-00005-M8996AAAAANAZT-1_20170110_230814/b/HK11/trustzone_images/core/securemsm/trustzone/qsapps/sampleapp/build/sampleapp/scorpion/IADAANAA/app_content_protection.o
 .debug_pubnames
                0x00002472      0x12d /local/mnt/workspace/CRMBuilds/TZ.BF.4.0.3.c1-00005-M8996AAAAANAZT-1_20170110_230814/b/HK11/trustzone_images/core/securemsm/trustzone/qsapps/sampleapp/build/sampleapp/scorpion/IADAANAA/app_secure_ui.o
 .debug_pubnames
                0x0000259f      0x35c /local/mnt/workspace/CRMBuilds/TZ.BF.4.0.3.c1-00005-M8996AAAAANAZT-1_20170110_230814/b/HK11/trustzone_images/core/securemsm/trustzone/qsapps/sampleapp/build/sampleapp/scorpion/IADAANAA/app_bio_lib.o
 .debug_pubnames
                0x000028fb      0x261 /local/mnt/workspace/CRMBuilds/TZ.BF.4.0.3.c1-00005-M8996AAAAANAZT-1_20170110_230814/b/HK11/trustzone_images/core/securemsm/trustzone/qsapps/sampleapp/build/sampleapp/scorpion/IADAANAA/app_bulletin_board.o
 .debug_pubnames
                0x00002b5c       0x5a /local/mnt/workspace/CRMBuilds/TZ.BF.4.0.3.c1-00005-M8996AAAAANAZT-1_20170110_230814/b/HK11/trustzone_images/core/securemsm/trustzone/qsapps/sampleapp/build/sampleapp/scorpion/IADAANAA/metadata.o
 .debug_pubnames
                0x00002bb6       0x1e /local/mnt/workspace/CRMBuilds/TZ.BF.4.0.3.c1-00005-M8996AAAAANAZT-1_20170110_230814/b/HK11/trustzone_images/core/kernel/libstd/build/sampleapp/scorpion/IADAANAA/libstd.lib(memscpy.o)
 .debug_pubnames
                0x00002bd4       0x1e /local/mnt/workspace/CRMBuilds/TZ.BF.4.0.3.c1-00005-M8996AAAAANAZT-1_20170110_230814/b/HK11/trustzone_images/core/kernel/libstd/build/sampleapp/scorpion/IADAANAA/libstd.lib(strlcpy.o)
 .debug_pubnames
                0x00002bf2       0x24 /local/mnt/workspace/CRMBuilds/TZ.BF.4.0.3.c1-00005-M8996AAAAANAZT-1_20170110_230814/b/HK11/trustzone_images/core/kernel/libstd/build/sampleapp/scorpion/IADAANAA/libstd.lib(secure_memset.o)
 .debug_pubnames
                0x00002c16       0x26 /local/mnt/workspace/CRMBuilds/TZ.BF.4.0.3.c1-00005-M8996AAAAANAZT-1_20170110_230814/b/HK11/trustzone_images/core/kernel/libstd/build/sampleapp/scorpion/IADAANAA/libstd.lib(timesafe_memcmp.o)
 .debug_pubnames
                0x00002c3c       0x27 /local/mnt/workspace/CRMBuilds/TZ.BF.4.0.3.c1-00005-M8996AAAAANAZT-1_20170110_230814/b/HK11/trustzone_images/core/kernel/libstd/build/sampleapp/scorpion/IADAANAA/libstd.lib(timesafe_strncmp.o)
 .debug_pubnames
                0x00002c63      0x3a3 /local/mnt/workspace/CRMBuilds/TZ.BF.4.0.3.c1-00005-M8996AAAAANAZT-1_20170110_230814/b/HK11/trustzone_images/core/securemsm/sse/qsee/SecureUI/build/sampleapp/scorpion/IADAANAA/secure_ui.lib(SecureUI.o)
 .debug_pubnames
                0x00003006       0xd4 /local/mnt/workspace/CRMBuilds/TZ.BF.4.0.3.c1-00005-M8996AAAAANAZT-1_20170110_230814/b/HK11/trustzone_images/core/securemsm/sse/qsee/SecureUILib/lib/build/sampleapp/scorpion/IADAANAA/secure_ui_lib.lib(SecureUILib.o)
 .debug_pubnames
                0x000030da       0x2b /local/mnt/workspace/CRMBuilds/TZ.BF.4.0.3.c1-00005-M8996AAAAANAZT-1_20170110_230814/b/HK11/trustzone_images/core/securemsm/sse/qsee/SecureUILib/lib/build/sampleapp/scorpion/IADAANAA/secure_ui_lib.lib(01_startTouch.o)
 .debug_pubnames
                0x00003105       0x2d /local/mnt/workspace/CRMBuilds/TZ.BF.4.0.3.c1-00005-M8996AAAAANAZT-1_20170110_230814/b/HK11/trustzone_images/core/securemsm/sse/qsee/SecureUILib/lib/build/sampleapp/scorpion/IADAANAA/secure_ui_lib.lib(02_processTouch.o)
 .debug_pubnames
                0x00003132       0x3d /local/mnt/workspace/CRMBuilds/TZ.BF.4.0.3.c1-00005-M8996AAAAANAZT-1_20170110_230814/b/HK11/trustzone_images/core/securemsm/sse/qsee/SecureUILib/lib/build/sampleapp/scorpion/IADAANAA/secure_ui_lib.lib(03_stopTouch.o)
 .debug_pubnames
                0x0000316f      0x4ee /local/mnt/workspace/CRMBuilds/TZ.BF.4.0.3.c1-00005-M8996AAAAANAZT-1_20170110_230814/b/HK11/trustzone_images/core/securemsm/trustzone/qsapps/libs/applib/common_applib/build/sampleapp/scorpion/IADAANAA/tzapp_entrylib.lib(common_applib.o)
 .debug_pubnames
                0x0000365d      0x1cd /local/mnt/workspace/CRMBuilds/TZ.BF.4.0.3.c1-00005-M8996AAAAANAZT-1_20170110_230814/b/HK11/trustzone_images/core/securemsm/trustzone/qsapps/libs/applib/proxy/build/sampleapp/scorpion/IADAANAA/tzlib_proxy.lib(prxy_services.o)
 .debug_pubnames
                0x0000382a      0x3e8 /local/mnt/workspace/CRMBuilds/TZ.BF.4.0.3.c1-00005-M8996AAAAANAZT-1_20170110_230814/b/HK11/trustzone_images/core/securemsm/trustzone/qsapps/libs/applib/proxy/build/sampleapp/scorpion/IADAANAA/tzlib_proxy.lib(prxy_qsee_shim.o)
 .debug_pubnames
                0x00003c12       0xf8 /local/mnt/workspace/CRMBuilds/TZ.BF.4.0.3.c1-00005-M8996AAAAANAZT-1_20170110_230814/b/HK11/trustzone_images/core/securemsm/trustzone/qsapps/libs/applib/proxy/build/sampleapp/scorpion/IADAANAA/tzlib_proxy.lib(prxy_ufaes.o)
 .debug_pubnames
                0x00003d0a       0x72 /local/mnt/workspace/CRMBuilds/TZ.BF.4.0.3.c1-00005-M8996AAAAANAZT-1_20170110_230814/b/HK11/trustzone_images/core/securemsm/trustzone/qsapps/libs/applib/proxy/build/sampleapp/scorpion/IADAANAA/tzlib_proxy.lib(prxy_ufdes.o)
 .debug_pubnames
                0x00003d7c       0x7f /local/mnt/workspace/CRMBuilds/TZ.BF.4.0.3.c1-00005-M8996AAAAANAZT-1_20170110_230814/b/HK11/trustzone_images/core/securemsm/trustzone/qsapps/libs/applib/proxy/build/sampleapp/scorpion/IADAANAA/tzlib_proxy.lib(prxy_ufsha.o)
 .debug_pubnames
                0x00003dfb       0x55 /local/mnt/workspace/CRMBuilds/TZ.BF.4.0.3.c1-00005-M8996AAAAANAZT-1_20170110_230814/b/HK11/trustzone_images/core/securemsm/trustzone/qsapps/libs/applib/proxy/build/sampleapp/scorpion/IADAANAA/tzlib_proxy.lib(prxy_secmath.o)
 .debug_pubnames
                0x00003e50       0xee /local/mnt/workspace/CRMBuilds/TZ.BF.4.0.3.c1-00005-M8996AAAAANAZT-1_20170110_230814/b/HK11/trustzone_images/core/securemsm/trustzone/qsapps/libs/applib/proxy/build/sampleapp/scorpion/IADAANAA/tzlib_proxy.lib(prxy_secrsa.o)
 .debug_pubnames
                0x00003f3e      0x1ef /local/mnt/workspace/CRMBuilds/TZ.BF.4.0.3.c1-00005-M8996AAAAANAZT-1_20170110_230814/b/HK11/trustzone_images/core/securemsm/trustzone/qsapps/libs/applib/proxy/build/sampleapp/scorpion/IADAANAA/tzlib_proxy.lib(prxy_ecc.o)
 .debug_pubnames
                0x0000412d       0x9c /local/mnt/workspace/CRMBuilds/TZ.BF.4.0.3.c1-00005-M8996AAAAANAZT-1_20170110_230814/b/HK11/trustzone_images/core/securemsm/trustzone/qsapps/libs/applib/qsee/build/sampleapp/scorpion/IADAANAA/tzapp_entrylib.lib(mink_shared_code.o)
 .debug_pubnames
                0x000041c9      0x1e5 /local/mnt/workspace/CRMBuilds/TZ.BF.4.0.3.c1-00005-M8996AAAAANAZT-1_20170110_230814/b/HK11/trustzone_images/core/securemsm/trustzone/qsapps/libs/applib/qsee/build/sampleapp/scorpion/IADAANAA/tzapp_entrylib.lib(qsee_env.o)
 .debug_pubnames
                0x000043ae      0x147 /local/mnt/workspace/CRMBuilds/TZ.BF.4.0.3.c1-00005-M8996AAAAANAZT-1_20170110_230814/b/HK11/trustzone_images/core/securemsm/trustzone/qsapps/libs/applib/qsee/build/sampleapp/scorpion/IADAANAA/tzapp_entrylib.lib(qsee_core_shim.o)
 .debug_pubnames
                0x000044f5       0xbd /local/mnt/workspace/CRMBuilds/TZ.BF.4.0.3.c1-00005-M8996AAAAANAZT-1_20170110_230814/b/HK11/trustzone_images/core/securemsm/trustzone/qsapps/libs/applib/qsee/build/sampleapp/scorpion/IADAANAA/tzapp_entrylib.lib(qsee_deviceid.o)
 .debug_pubnames
                0x000045b2       0x4b /local/mnt/workspace/CRMBuilds/TZ.BF.4.0.3.c1-00005-M8996AAAAANAZT-1_20170110_230814/b/HK11/trustzone_images/core/securemsm/trustzone/qsapps/libs/applib/qsee/build/sampleapp/scorpion/IADAANAA/tzapp_entrylib.lib(qsee_prng.o)
 .debug_pubnames
                0x000045fd       0xaa /local/mnt/workspace/CRMBuilds/TZ.BF.4.0.3.c1-00005-M8996AAAAANAZT-1_20170110_230814/b/HK11/trustzone_images/core/securemsm/trustzone/qsapps/libs/applib/qsee/build/sampleapp/scorpion/IADAANAA/tzapp_entrylib.lib(qsee_secdisp.o)
 .debug_pubnames
                0x000046a7       0xd6 /local/mnt/workspace/CRMBuilds/TZ.BF.4.0.3.c1-00005-M8996AAAAANAZT-1_20170110_230814/b/HK11/trustzone_images/core/securemsm/trustzone/qsapps/libs/applib/qsee/build/sampleapp/scorpion/IADAANAA/tzapp_entrylib.lib(qsee_nsmem.o)
 .debug_pubnames
                0x0000477d       0x7a /local/mnt/workspace/CRMBuilds/TZ.BF.4.0.3.c1-00005-M8996AAAAANAZT-1_20170110_230814/b/HK11/trustzone_images/core/securemsm/trustzone/qsapps/libs/applib/qsee/build/sampleapp/scorpion/IADAANAA/tzapp_entrylib.lib(qsee_cmac.o)
 .debug_pubnames
                0x000047f7       0x45 /local/mnt/workspace/CRMBuilds/TZ.BF.4.0.3.c1-00005-M8996AAAAANAZT-1_20170110_230814/b/HK11/trustzone_images/core/securemsm/trustzone/qsapps/libs/applib/qsee/build/sampleapp/scorpion/IADAANAA/tzapp_entrylib.lib(qsee_crypto_shim.o)
 .debug_pubnames
                0x0000483c       0x4b /local/mnt/workspace/CRMBuilds/TZ.BF.4.0.3.c1-00005-M8996AAAAANAZT-1_20170110_230814/b/HK11/trustzone_images/core/securemsm/trustzone/qsapps/libs/applib/qsee/build/sampleapp/scorpion/IADAANAA/tzapp_entrylib.lib(qsee_timer_shim.o)
 .debug_pubnames
                0x00004887       0xd2 /local/mnt/workspace/CRMBuilds/TZ.BF.4.0.3.c1-00005-M8996AAAAANAZT-1_20170110_230814/b/HK11/trustzone_images/core/securemsm/trustzone/qsapps/libs/applib/qsee/build/sampleapp/scorpion/IADAANAA/tzapp_entrylib.lib(qsee_comstr.o)
 .debug_pubnames
                0x00004959      0x145 /local/mnt/workspace/CRMBuilds/TZ.BF.4.0.3.c1-00005-M8996AAAAANAZT-1_20170110_230814/b/HK11/trustzone_images/core/securemsm/trustzone/qsapps/libs/applib/qsee/build/sampleapp/scorpion/IADAANAA/tzapp_entrylib.lib(stor.o)
 .debug_pubnames
                0x00004a9e      0x196 /local/mnt/workspace/CRMBuilds/TZ.BF.4.0.3.c1-00005-M8996AAAAANAZT-1_20170110_230814/b/HK11/trustzone_images/core/securemsm/trustzone/qsapps/libs/applib/qsee/build/sampleapp/scorpion/IADAANAA/tzapp_entrylib.lib(stor_gpt.o)
 .debug_pubnames
                0x00004c34      0x100 /local/mnt/workspace/CRMBuilds/TZ.BF.4.0.3.c1-00005-M8996AAAAANAZT-1_20170110_230814/b/HK11/trustzone_images/core/securemsm/trustzone/qsapps/libs/applib/qsee/build/sampleapp/scorpion/IADAANAA/tzapp_entrylib.lib(stor_rpmbw.o)
 .debug_pubnames
                0x00004d34       0xcb /local/mnt/workspace/CRMBuilds/TZ.BF.4.0.3.c1-00005-M8996AAAAANAZT-1_20170110_230814/b/HK11/trustzone_images/core/securemsm/trustzone/qsapps/libs/applib/qsee/build/sampleapp/scorpion/IADAANAA/tzapp_entrylib.lib(qsee_counter_shim.o)
 .debug_pubnames
                0x00004dff      0x233 /local/mnt/workspace/CRMBuilds/TZ.BF.4.0.3.c1-00005-M8996AAAAANAZT-1_20170110_230814/b/HK11/trustzone_images/core/securemsm/trustzone/qsapps/libs/applib/qsee/build/sampleapp/scorpion/IADAANAA/tzapp_entrylib.lib(qsee_cipher.o)
 .debug_pubnames
                0x00005032      0x1f7 /local/mnt/workspace/CRMBuilds/TZ.BF.4.0.3.c1-00005-M8996AAAAANAZT-1_20170110_230814/b/HK11/trustzone_images/core/securemsm/trustzone/qsapps/libs/applib/qsee/build/sampleapp/scorpion/IADAANAA/tzapp_entrylib.lib(qsee_hash.o)
 .debug_pubnames
                0x00005229      0x152 /local/mnt/workspace/CRMBuilds/TZ.BF.4.0.3.c1-00005-M8996AAAAANAZT-1_20170110_230814/b/HK11/trustzone_images/core/securemsm/trustzone/qsapps/libs/applib/qsee/build/sampleapp/scorpion/IADAANAA/tzapp_entrylib.lib(qsee_hmac.o)
 .debug_pubnames
                0x0000537b      0x15d /local/mnt/workspace/CRMBuilds/TZ.BF.4.0.3.c1-00005-M8996AAAAANAZT-1_20170110_230814/b/HK11/trustzone_images/core/securemsm/trustzone/qsapps/libs/applib/qsee/build/sampleapp/scorpion/IADAANAA/tzapp_entrylib.lib(qsee_i2c.o)
 .debug_pubnames
                0x000054d8      0x15e /local/mnt/workspace/CRMBuilds/TZ.BF.4.0.3.c1-00005-M8996AAAAANAZT-1_20170110_230814/b/HK11/trustzone_images/core/securemsm/trustzone/qsapps/libs/applib/qsee/build/sampleapp/scorpion/IADAANAA/tzapp_entrylib.lib(qsee_spi.o)
 .debug_pubnames
                0x00005636       0x4c /local/mnt/workspace/CRMBuilds/TZ.BF.4.0.3.c1-00005-M8996AAAAANAZT-1_20170110_230814/b/HK11/trustzone_images/core/securemsm/trustzone/qsapps/libs/applib/qsee/build/sampleapp/scorpion/IADAANAA/tzapp_entrylib.lib(qsee_bulletin_board_shim.o)
 .debug_pubnames
                0x00005682      0x1e0 /local/mnt/workspace/CRMBuilds/TZ.BF.4.0.3.c1-00005-M8996AAAAANAZT-1_20170110_230814/b/HK11/trustzone_images/core/securemsm/trustzone/qsapps/libs/applib/qsee/build/sampleapp/scorpion/IADAANAA/tzapp_entrylib.lib(qsee_tlmm.o)
 .debug_pubnames
                0x00005862       0x52 /local/mnt/workspace/CRMBuilds/TZ.BF.4.0.3.c1-00005-M8996AAAAANAZT-1_20170110_230814/b/HK11/trustzone_images/core/securemsm/trustzone/qsapps/libs/applib/qsee/build/sampleapp/scorpion/IADAANAA/tzapp_entrylib.lib(qsee_sync.o)
 .debug_pubnames
                0x000058b4       0xde /local/mnt/workspace/CRMBuilds/TZ.BF.4.0.3.c1-00005-M8996AAAAANAZT-1_20170110_230814/b/HK11/trustzone_images/core/securemsm/trustzone/qsapps/libs/applib/qsee/build/sampleapp/scorpion/IADAANAA/tzapp_entrylib.lib(qsee_dcache.o)
 .debug_pubnames
                0x00005992       0xb6 /local/mnt/workspace/CRMBuilds/TZ.BF.4.0.3.c1-00005-M8996AAAAANAZT-1_20170110_230814/b/HK11/trustzone_images/core/securemsm/trustzone/qsapps/libs/applib/qsee/build/sampleapp/scorpion/IADAANAA/tzapp_entrylib.lib(qsee_shared_buffer.o)
 .debug_pubnames
                0x00005a48       0xd4 /local/mnt/workspace/CRMBuilds/TZ.BF.4.0.3.c1-00005-M8996AAAAANAZT-1_20170110_230814/b/HK11/trustzone_images/core/securemsm/trustzone/qsapps/libs/applib/qsee/build/sampleapp/scorpion/IADAANAA/tzapp_entrylib.lib(qsee_oem_buffer.o)
 .debug_pubnames
                0x00005b1c       0xe1 /local/mnt/workspace/CRMBuilds/TZ.BF.4.0.3.c1-00005-M8996AAAAANAZT-1_20170110_230814/b/HK11/trustzone_images/core/securemsm/trustzone/qsapps/libs/applib/qsee/build/sampleapp/scorpion/IADAANAA/tzapp_entrylib.lib(qsee_intmask.o)
 .debug_pubnames
                0x00005bfd       0x77 /local/mnt/workspace/CRMBuilds/TZ.BF.4.0.3.c1-00005-M8996AAAAANAZT-1_20170110_230814/b/HK11/trustzone_images/core/securemsm/trustzone/qsapps/libs/applib/qsee/build/sampleapp/scorpion/IADAANAA/tzapp_entrylib.lib(qsee_trans_ns_addr.o)
 .debug_pubnames
                0x00005c74       0xe2 /local/mnt/workspace/CRMBuilds/TZ.BF.4.0.3.c1-00005-M8996AAAAANAZT-1_20170110_230814/b/HK11/trustzone_images/core/securemsm/trustzone/qsapps/libs/applib/qsee/build/sampleapp/scorpion/IADAANAA/tzapp_entrylib.lib(qsee_appmessage.o)
 .debug_pubnames
                0x00005d56      0x149 /local/mnt/workspace/CRMBuilds/TZ.BF.4.0.3.c1-00005-M8996AAAAANAZT-1_20170110_230814/b/HK11/trustzone_images/core/securemsm/trustzone/qsapps/libs/applib/qsee/build/sampleapp/scorpion/IADAANAA/tzapp_entrylib.lib(sfs_api.o)
 .debug_pubnames
                0x00005e9f       0xbf /local/mnt/workspace/CRMBuilds/TZ.BF.4.0.3.c1-00005-M8996AAAAANAZT-1_20170110_230814/b/HK11/trustzone_images/core/securemsm/trustzone/qsapps/libs/applib/qsee/build/sampleapp/scorpion/IADAANAA/tzapp_entrylib.lib(tzapp_lib_main.o)
 .debug_pubnames
                0x00005f5e      0x151 /local/mnt/workspace/CRMBuilds/TZ.BF.4.0.3.c1-00005-M8996AAAAANAZT-1_20170110_230814/b/HK11/trustzone_images/core/securemsm/trustzone/qsapps/libs/biometric/build/sampleapp/scorpion/IADAANAA/biometric_lib.lib(biometric.o)
 .debug_pubnames
                0x000060af      0x1f6 /local/mnt/workspace/CRMBuilds/TZ.BF.4.0.3.c1-00005-M8996AAAAANAZT-1_20170110_230814/b/HK11/trustzone_images/core/securemsm/trustzone/qsapps/libs/biometric/build/sampleapp/scorpion/IADAANAA/biometric_lib.lib(biometric_serializer.o)
 .debug_pubnames
                0x000062a5       0x1e /local/mnt/workspace/CRMBuilds/TZ.BF.4.0.3.c1-00005-M8996AAAAANAZT-1_20170110_230814/b/HK11/trustzone_images/core/securemsm/trustzone/qsee/mink/libstd/build/sampleapp/scorpion/IADAANAA/libstd.lib(strnlen.o)
 .debug_pubnames
                0x000062c3       0x1d /local/mnt/workspace/CRMBuilds/TZ.BF.4.0.3.c1-00005-M8996AAAAANAZT-1_20170110_230814/b/HK11/trustzone_images/core/securemsm/trustzone/qsee/mink/libstd/build/sampleapp/scorpion/IADAANAA/libstd.lib(memcmp.o)
 .debug_pubnames
                0x000062e0       0x1d /local/mnt/workspace/CRMBuilds/TZ.BF.4.0.3.c1-00005-M8996AAAAANAZT-1_20170110_230814/b/HK11/trustzone_images/core/securemsm/trustzone/qsee/mink/libstd/build/sampleapp/scorpion/IADAANAA/libstd.lib(strlen.o)
 .debug_pubnames
                0x000062fd       0x1d /local/mnt/workspace/CRMBuilds/TZ.BF.4.0.3.c1-00005-M8996AAAAANAZT-1_20170110_230814/b/HK11/trustzone_images/core/securemsm/trustzone/qsee/mink/libstd/build/sampleapp/scorpion/IADAANAA/libstd.lib(strcmp.o)
 .debug_pubnames
                0x0000631a       0x1e /local/mnt/workspace/CRMBuilds/TZ.BF.4.0.3.c1-00005-M8996AAAAANAZT-1_20170110_230814/b/HK11/trustzone_images/core/securemsm/trustzone/qsee/mink/libstd/build/sampleapp/scorpion/IADAANAA/libstd.lib(strncmp.o)
 .debug_pubnames
                0x00006338       0xcf /local/mnt/workspace/CRMBuilds/TZ.BF.4.0.3.c1-00005-M8996AAAAANAZT-1_20170110_230814/b/HK11/trustzone_images/core/securemsm/trustzone/qsee/mink/libstd/build/sampleapp/scorpion/IADAANAA/libstd.lib(printf.o)
 .debug_pubnames
                0x00006407       0x1d /local/mnt/workspace/CRMBuilds/TZ.BF.4.0.3.c1-00005-M8996AAAAANAZT-1_20170110_230814/b/HK11/trustzone_images/core/securemsm/trustzone/qsee/mink/libstd/build/sampleapp/scorpion/IADAANAA/libstd.lib(memchr.o)
 .debug_pubnames
                0x00006424       0x40 /local/mnt/workspace/CRMBuilds/TZ.BF.4.0.3.c1-00005-M8996AAAAANAZT-1_20170110_230814/b/HK11/trustzone_images/core/securemsm/sse/qsee/SecureTouch/drTs/lib/build/sampleapp/scorpion/IADAANAA/touch_lib.lib(01_open.o)
 .debug_pubnames
                0x00006464       0x21 /local/mnt/workspace/CRMBuilds/TZ.BF.4.0.3.c1-00005-M8996AAAAANAZT-1_20170110_230814/b/HK11/trustzone_images/core/securemsm/sse/qsee/SecureTouch/drTs/lib/build/sampleapp/scorpion/IADAANAA/touch_lib.lib(02_close.o)
 .debug_pubnames
                0x00006485       0x47 /local/mnt/workspace/CRMBuilds/TZ.BF.4.0.3.c1-00005-M8996AAAAANAZT-1_20170110_230814/b/HK11/trustzone_images/core/securemsm/sse/qsee/SecureTouch/drTs/lib/build/sampleapp/scorpion/IADAANAA/touch_lib.lib(03_getData.o)
 .debug_pubnames
                0x000064cc      0x113 /local/mnt/workspace/CRMBuilds/TZ.BF.4.0.3.c1-00005-M8996AAAAANAZT-1_20170110_230814/b/HK11/trustzone_images/core/securemsm/trustzone/qsapps/libs/applib/common_applib/build/sampleapp/scorpion/IADAANAA/tzapp_entrylib.lib(gpPersistObjCommon.o)
 .debug_pubnames
                0x000065df      0x1df /local/mnt/workspace/CRMBuilds/TZ.BF.4.0.3.c1-00005-M8996AAAAANAZT-1_20170110_230814/b/HK11/trustzone_images/core/securemsm/trustzone/qsapps/libs/applib/common_applib/build/sampleapp/scorpion/IADAANAA/tzapp_entrylib.lib(gpPersistentObjects.o)
 .debug_pubnames
                0x000067be      0x39d /local/mnt/workspace/CRMBuilds/TZ.BF.4.0.3.c1-00005-M8996AAAAANAZT-1_20170110_230814/b/HK11/trustzone_images/core/securemsm/trustzone/qsapps/libs/applib/common_applib/build/sampleapp/scorpion/IADAANAA/tzapp_entrylib.lib(gpPersistObjData.o)
 .debug_pubnames
                0x00006b5b      0x123 /local/mnt/workspace/CRMBuilds/TZ.BF.4.0.3.c1-00005-M8996AAAAANAZT-1_20170110_230814/b/HK11/trustzone_images/core/securemsm/trustzone/qsapps/libs/applib/common_applib/build/sampleapp/scorpion/IADAANAA/tzapp_entrylib.lib(gpPersistObjHandler.o)
 .debug_pubnames
                0x00006c7e      0x232 /local/mnt/workspace/CRMBuilds/TZ.BF.4.0.3.c1-00005-M8996AAAAANAZT-1_20170110_230814/b/HK11/trustzone_images/core/securemsm/trustzone/qsapps/libs/applib/common_applib/build/sampleapp/scorpion/IADAANAA/tzapp_entrylib.lib(gpPersistObjIndex.o)
 .debug_pubnames
                0x00006eb0      0x2b4 /local/mnt/workspace/CRMBuilds/TZ.BF.4.0.3.c1-00005-M8996AAAAANAZT-1_20170110_230814/b/HK11/trustzone_images/core/securemsm/trustzone/qsapps/libs/applib/common_applib/build/sampleapp/scorpion/IADAANAA/tzapp_entrylib.lib(gpPersistObjVersion.o)
 .debug_pubnames
                0x00007164      0x13b /local/mnt/workspace/CRMBuilds/TZ.BF.4.0.3.c1-00005-M8996AAAAANAZT-1_20170110_230814/b/HK11/trustzone_images/core/securemsm/trustzone/qsapps/libs/applib/common_applib/build/sampleapp/scorpion/IADAANAA/tzapp_entrylib.lib(gpPersistObjCrypto.o)
 .debug_pubnames
                0x0000729f       0xcc /local/mnt/workspace/CRMBuilds/TZ.BF.4.0.3.c1-00005-M8996AAAAANAZT-1_20170110_230814/b/HK11/trustzone_images/core/securemsm/trustzone/qsapps/libs/applib/common_applib/build/sampleapp/scorpion/IADAANAA/tzapp_entrylib.lib(gpPersistObjFileIO.o)
 .debug_pubnames
                0x0000736b       0x53 /local/mnt/workspace/CRMBuilds/TZ.BF.4.0.3.c1-00005-M8996AAAAANAZT-1_20170110_230814/b/HK11/trustzone_images/core/securemsm/trustzone/qsapps/libs/applib/common_applib/build/sampleapp/scorpion/IADAANAA/tzapp_entrylib.lib(gpFileService.o)
 .debug_pubnames
                0x000073be       0x2a /local/mnt/workspace/CRMBuilds/TZ.BF.4.0.3.c1-00005-M8996AAAAANAZT-1_20170110_230814/b/HK11/trustzone_images/core/securemsm/trustzone/qsapps/libs/applib/qsee/build/sampleapp/scorpion/IADAANAA/tzapp_entrylib.lib(qsee_cfg_prop_shim.o)
 .debug_pubnames
                0x000073e8       0x3e /local/mnt/workspace/CRMBuilds/TZ.BF.4.0.3.c1-00005-M8996AAAAANAZT-1_20170110_230814/b/HK11/trustzone_images/core/securemsm/trustzone/qsapps/libs/applib/qsee/build/sampleapp/scorpion/IADAANAA/tzapp_entrylib.lib(gpPersistObjPanic.o)
 .debug_pubnames
                0x00007426       0x1e /local/mnt/workspace/CRMBuilds/TZ.BF.4.0.3.c1-00005-M8996AAAAANAZT-1_20170110_230814/b/HK11/trustzone_images/core/securemsm/trustzone/qsee/mink/libstd/build/sampleapp/scorpion/IADAANAA/libstd.lib(strlcat.o)
 .debug_pubnames
                0x00007444       0x1d /local/mnt/workspace/CRMBuilds/TZ.BF.4.0.3.c1-00005-M8996AAAAANAZT-1_20170110_230814/b/HK11/trustzone_images/core/securemsm/trustzone/qsee/mink/libstd/build/sampleapp/scorpion/IADAANAA/libstd.lib(memset.o)
 .debug_pubnames
                0x00007461       0x1d /local/mnt/workspace/CRMBuilds/TZ.BF.4.0.3.c1-00005-M8996AAAAANAZT-1_20170110_230814/b/HK11/trustzone_images/core/securemsm/trustzone/qsee/mink/libstd/build/sampleapp/scorpion/IADAANAA/libstd.lib(memcpy.o)
 .debug_pubnames
                0x0000747e       0x1e /local/mnt/workspace/CRMBuilds/TZ.BF.4.0.3.c1-00005-M8996AAAAANAZT-1_20170110_230814/b/HK11/trustzone_images/core/securemsm/trustzone/qsee/mink/libstd/build/sampleapp/scorpion/IADAANAA/libstd.lib(memmove.o)
 .debug_pubnames
                0x0000749c      0x159 /local/mnt/workspace/CRMBuilds/TZ.BF.4.0.3.c1-00005-M8996AAAAANAZT-1_20170110_230814/b/HK11/trustzone_images/core/securemsm/sse/SecureTouch/controller/build/sampleapp/scorpion/IADAANAA/drts_controller_msm8996.lib(atmel_mxt_ts.o)
 .debug_pubnames
                0x000075f5       0xfa /local/mnt/workspace/CRMBuilds/TZ.BF.4.0.3.c1-00005-M8996AAAAANAZT-1_20170110_230814/b/HK11/trustzone_images/core/securemsm/sse/SecureTouch/controller/build/sampleapp/scorpion/IADAANAA/drts_controller_msm8996.lib(synaptics_ts.o)
 .debug_pubnames
                0x000076ef       0x1e /local/mnt/workspace/CRMBuilds/TZ.BF.4.0.3.c1-00005-M8996AAAAANAZT-1_20170110_230814/b/HK11/trustzone_images/core/securemsm/sse/log/build/sampleapp/scorpion/IADAANAA/sselog.lib(sselog.o)
 .debug_pubnames
                0x0000770d       0x80 /local/mnt/workspace/CRMBuilds/TZ.BF.4.0.3.c1-00005-M8996AAAAANAZT-1_20170110_230814/b/HK11/trustzone_images/core/securemsm/sse/qsee/SecureTouch/drTs/controller/build/sampleapp/scorpion/IADAANAA/touch_controller_i2c_msm8996.lib(atmel_mxt_ts_i2c.o)
 .debug_pubnames
                0x0000778d       0xa6 /local/mnt/workspace/CRMBuilds/TZ.BF.4.0.3.c1-00005-M8996AAAAANAZT-1_20170110_230814/b/HK11/trustzone_images/core/securemsm/sse/qsee/SecureTouch/drTs/controller/build/sampleapp/scorpion/IADAANAA/touch_controller_i2c_msm8996.lib(synaptics_ts_i2c.o)

.debug_pubtypes
                0x00000000     0xdb25
 .debug_pubtypes
                0x00000000      0x10c /local/mnt/workspace/CRMBuilds/TZ.BF.4.0.3.c1-00005-M8996AAAAANAZT-1_20170110_230814/b/HK11/trustzone_images/core/securemsm/trustzone/qsapps/sampleapp/build/sampleapp/scorpion/IADAANAA/app_main.o
 .debug_pubtypes
                0x0000010c       0xcc /local/mnt/workspace/CRMBuilds/TZ.BF.4.0.3.c1-00005-M8996AAAAANAZT-1_20170110_230814/b/HK11/trustzone_images/core/securemsm/trustzone/qsapps/sampleapp/build/sampleapp/scorpion/IADAANAA/app_smplserv_test.o
 .debug_pubtypes
                0x000001d8       0xcc /local/mnt/workspace/CRMBuilds/TZ.BF.4.0.3.c1-00005-M8996AAAAANAZT-1_20170110_230814/b/HK11/trustzone_images/core/securemsm/trustzone/qsapps/sampleapp/build/sampleapp/scorpion/IADAANAA/app_smplcert_test.o
 .debug_pubtypes
                0x000002a4      0x555 /local/mnt/workspace/CRMBuilds/TZ.BF.4.0.3.c1-00005-M8996AAAAANAZT-1_20170110_230814/b/HK11/trustzone_images/core/securemsm/trustzone/qsapps/sampleapp/build/sampleapp/scorpion/IADAANAA/app_crypto.o
 .debug_pubtypes
                0x000007f9       0xc5 /local/mnt/workspace/CRMBuilds/TZ.BF.4.0.3.c1-00005-M8996AAAAANAZT-1_20170110_230814/b/HK11/trustzone_images/core/securemsm/trustzone/qsapps/sampleapp/build/sampleapp/scorpion/IADAANAA/app_sfs.o
 .debug_pubtypes
                0x000008be      0x1bc /local/mnt/workspace/CRMBuilds/TZ.BF.4.0.3.c1-00005-M8996AAAAANAZT-1_20170110_230814/b/HK11/trustzone_images/core/securemsm/trustzone/qsapps/sampleapp/build/sampleapp/scorpion/IADAANAA/app_rsa.o
 .debug_pubtypes
                0x00000a7a      0x210 /local/mnt/workspace/CRMBuilds/TZ.BF.4.0.3.c1-00005-M8996AAAAANAZT-1_20170110_230814/b/HK11/trustzone_images/core/securemsm/trustzone/qsapps/sampleapp/build/sampleapp/scorpion/IADAANAA/qsee_api_tests.o
 .debug_pubtypes
                0x00000c8a      0x1de /local/mnt/workspace/CRMBuilds/TZ.BF.4.0.3.c1-00005-M8996AAAAANAZT-1_20170110_230814/b/HK11/trustzone_images/core/securemsm/trustzone/qsapps/sampleapp/build/sampleapp/scorpion/IADAANAA/app_cmnlib.o
 .debug_pubtypes
                0x00000e68       0x41 /local/mnt/workspace/CRMBuilds/TZ.BF.4.0.3.c1-00005-M8996AAAAANAZT-1_20170110_230814/b/HK11/trustzone_images/core/securemsm/trustzone/qsapps/sampleapp/build/sampleapp/scorpion/IADAANAA/app_message_passing.o
 .debug_pubtypes
                0x00000ea9       0x24 /local/mnt/workspace/CRMBuilds/TZ.BF.4.0.3.c1-00005-M8996AAAAANAZT-1_20170110_230814/b/HK11/trustzone_images/core/securemsm/trustzone/qsapps/sampleapp/build/sampleapp/scorpion/IADAANAA/app_fuses.o
 .debug_pubtypes
                0x00000ecd      0x124 /local/mnt/workspace/CRMBuilds/TZ.BF.4.0.3.c1-00005-M8996AAAAANAZT-1_20170110_230814/b/HK11/trustzone_images/core/securemsm/trustzone/qsapps/sampleapp/build/sampleapp/scorpion/IADAANAA/app_stor.o
 .debug_pubtypes
                0x00000ff1      0x103 /local/mnt/workspace/CRMBuilds/TZ.BF.4.0.3.c1-00005-M8996AAAAANAZT-1_20170110_230814/b/HK11/trustzone_images/core/securemsm/trustzone/qsapps/sampleapp/build/sampleapp/scorpion/IADAANAA/app_content_protection.o
 .debug_pubtypes
                0x000010f4      0x108 /local/mnt/workspace/CRMBuilds/TZ.BF.4.0.3.c1-00005-M8996AAAAANAZT-1_20170110_230814/b/HK11/trustzone_images/core/securemsm/trustzone/qsapps/sampleapp/build/sampleapp/scorpion/IADAANAA/app_secure_ui.o
 .debug_pubtypes
                0x000011fc      0x1b9 /local/mnt/workspace/CRMBuilds/TZ.BF.4.0.3.c1-00005-M8996AAAAANAZT-1_20170110_230814/b/HK11/trustzone_images/core/securemsm/trustzone/qsapps/sampleapp/build/sampleapp/scorpion/IADAANAA/app_bio_lib.o
 .debug_pubtypes
                0x000013b5      0x110 /local/mnt/workspace/CRMBuilds/TZ.BF.4.0.3.c1-00005-M8996AAAAANAZT-1_20170110_230814/b/HK11/trustzone_images/core/securemsm/trustzone/qsapps/sampleapp/build/sampleapp/scorpion/IADAANAA/app_bulletin_board.o
 .debug_pubtypes
                0x000014c5       0x2c /local/mnt/workspace/CRMBuilds/TZ.BF.4.0.3.c1-00005-M8996AAAAANAZT-1_20170110_230814/b/HK11/trustzone_images/core/securemsm/trustzone/qsapps/sampleapp/build/sampleapp/scorpion/IADAANAA/metadata.o
 .debug_pubtypes
                0x000014f1       0x2e /local/mnt/workspace/CRMBuilds/TZ.BF.4.0.3.c1-00005-M8996AAAAANAZT-1_20170110_230814/b/HK11/trustzone_images/core/kernel/libstd/build/sampleapp/scorpion/IADAANAA/libstd.lib(memscpy.o)
 .debug_pubtypes
                0x0000151f       0x37 /local/mnt/workspace/CRMBuilds/TZ.BF.4.0.3.c1-00005-M8996AAAAANAZT-1_20170110_230814/b/HK11/trustzone_images/core/kernel/libstd/build/sampleapp/scorpion/IADAANAA/libstd.lib(strlcpy.o)
 .debug_pubtypes
                0x00001556       0x54 /local/mnt/workspace/CRMBuilds/TZ.BF.4.0.3.c1-00005-M8996AAAAANAZT-1_20170110_230814/b/HK11/trustzone_images/core/kernel/libstd/build/sampleapp/scorpion/IADAANAA/libstd.lib(secure_memset.o)
 .debug_pubtypes
                0x000015aa       0x54 /local/mnt/workspace/CRMBuilds/TZ.BF.4.0.3.c1-00005-M8996AAAAANAZT-1_20170110_230814/b/HK11/trustzone_images/core/kernel/libstd/build/sampleapp/scorpion/IADAANAA/libstd.lib(timesafe_memcmp.o)
 .debug_pubtypes
                0x000015fe       0x5d /local/mnt/workspace/CRMBuilds/TZ.BF.4.0.3.c1-00005-M8996AAAAANAZT-1_20170110_230814/b/HK11/trustzone_images/core/kernel/libstd/build/sampleapp/scorpion/IADAANAA/libstd.lib(timesafe_strncmp.o)
 .debug_pubtypes
                0x0000165b      0x23f /local/mnt/workspace/CRMBuilds/TZ.BF.4.0.3.c1-00005-M8996AAAAANAZT-1_20170110_230814/b/HK11/trustzone_images/core/securemsm/sse/qsee/SecureUI/build/sampleapp/scorpion/IADAANAA/secure_ui.lib(SecureUI.o)
 .debug_pubtypes
                0x0000189a      0x297 /local/mnt/workspace/CRMBuilds/TZ.BF.4.0.3.c1-00005-M8996AAAAANAZT-1_20170110_230814/b/HK11/trustzone_images/core/securemsm/sse/qsee/SecureUILib/lib/build/sampleapp/scorpion/IADAANAA/secure_ui_lib.lib(SecureUILib.o)
 .debug_pubtypes
                0x00001b31      0x1b9 /local/mnt/workspace/CRMBuilds/TZ.BF.4.0.3.c1-00005-M8996AAAAANAZT-1_20170110_230814/b/HK11/trustzone_images/core/securemsm/sse/qsee/SecureUILib/lib/build/sampleapp/scorpion/IADAANAA/secure_ui_lib.lib(01_startTouch.o)
 .debug_pubtypes
                0x00001cea      0x1f2 /local/mnt/workspace/CRMBuilds/TZ.BF.4.0.3.c1-00005-M8996AAAAANAZT-1_20170110_230814/b/HK11/trustzone_images/core/securemsm/sse/qsee/SecureUILib/lib/build/sampleapp/scorpion/IADAANAA/secure_ui_lib.lib(02_processTouch.o)
 .debug_pubtypes
                0x00001edc      0x1c3 /local/mnt/workspace/CRMBuilds/TZ.BF.4.0.3.c1-00005-M8996AAAAANAZT-1_20170110_230814/b/HK11/trustzone_images/core/securemsm/sse/qsee/SecureUILib/lib/build/sampleapp/scorpion/IADAANAA/secure_ui_lib.lib(03_stopTouch.o)
 .debug_pubtypes
                0x0000209f      0x4a5 /local/mnt/workspace/CRMBuilds/TZ.BF.4.0.3.c1-00005-M8996AAAAANAZT-1_20170110_230814/b/HK11/trustzone_images/core/securemsm/trustzone/qsapps/libs/applib/common_applib/build/sampleapp/scorpion/IADAANAA/tzapp_entrylib.lib(common_applib.o)
 .debug_pubtypes
                0x00002544     0x10f1 /local/mnt/workspace/CRMBuilds/TZ.BF.4.0.3.c1-00005-M8996AAAAANAZT-1_20170110_230814/b/HK11/trustzone_images/core/securemsm/trustzone/qsapps/libs/applib/proxy/build/sampleapp/scorpion/IADAANAA/tzlib_proxy.lib(prxy_services.o)
 .debug_pubtypes
                0x00003635      0x3b4 /local/mnt/workspace/CRMBuilds/TZ.BF.4.0.3.c1-00005-M8996AAAAANAZT-1_20170110_230814/b/HK11/trustzone_images/core/securemsm/trustzone/qsapps/libs/applib/proxy/build/sampleapp/scorpion/IADAANAA/tzlib_proxy.lib(prxy_qsee_shim.o)
 .debug_pubtypes
                0x000039e9     0x10c1 /local/mnt/workspace/CRMBuilds/TZ.BF.4.0.3.c1-00005-M8996AAAAANAZT-1_20170110_230814/b/HK11/trustzone_images/core/securemsm/trustzone/qsapps/libs/applib/proxy/build/sampleapp/scorpion/IADAANAA/tzlib_proxy.lib(prxy_ufaes.o)
 .debug_pubtypes
                0x00004aaa     0x10c1 /local/mnt/workspace/CRMBuilds/TZ.BF.4.0.3.c1-00005-M8996AAAAANAZT-1_20170110_230814/b/HK11/trustzone_images/core/securemsm/trustzone/qsapps/libs/applib/proxy/build/sampleapp/scorpion/IADAANAA/tzlib_proxy.lib(prxy_ufdes.o)
 .debug_pubtypes
                0x00005b6b     0x10c1 /local/mnt/workspace/CRMBuilds/TZ.BF.4.0.3.c1-00005-M8996AAAAANAZT-1_20170110_230814/b/HK11/trustzone_images/core/securemsm/trustzone/qsapps/libs/applib/proxy/build/sampleapp/scorpion/IADAANAA/tzlib_proxy.lib(prxy_ufsha.o)
 .debug_pubtypes
                0x00006c2c     0x10c1 /local/mnt/workspace/CRMBuilds/TZ.BF.4.0.3.c1-00005-M8996AAAAANAZT-1_20170110_230814/b/HK11/trustzone_images/core/securemsm/trustzone/qsapps/libs/applib/proxy/build/sampleapp/scorpion/IADAANAA/tzlib_proxy.lib(prxy_secmath.o)
 .debug_pubtypes
                0x00007ced     0x10c1 /local/mnt/workspace/CRMBuilds/TZ.BF.4.0.3.c1-00005-M8996AAAAANAZT-1_20170110_230814/b/HK11/trustzone_images/core/securemsm/trustzone/qsapps/libs/applib/proxy/build/sampleapp/scorpion/IADAANAA/tzlib_proxy.lib(prxy_secrsa.o)
 .debug_pubtypes
                0x00008dae     0x10c1 /local/mnt/workspace/CRMBuilds/TZ.BF.4.0.3.c1-00005-M8996AAAAANAZT-1_20170110_230814/b/HK11/trustzone_images/core/securemsm/trustzone/qsapps/libs/applib/proxy/build/sampleapp/scorpion/IADAANAA/tzlib_proxy.lib(prxy_ecc.o)
 .debug_pubtypes
                0x00009e6f       0xf8 /local/mnt/workspace/CRMBuilds/TZ.BF.4.0.3.c1-00005-M8996AAAAANAZT-1_20170110_230814/b/HK11/trustzone_images/core/securemsm/trustzone/qsapps/libs/applib/qsee/build/sampleapp/scorpion/IADAANAA/tzapp_entrylib.lib(mink_shared_code.o)
 .debug_pubtypes
                0x00009f67       0xfc /local/mnt/workspace/CRMBuilds/TZ.BF.4.0.3.c1-00005-M8996AAAAANAZT-1_20170110_230814/b/HK11/trustzone_images/core/securemsm/trustzone/qsapps/libs/applib/qsee/build/sampleapp/scorpion/IADAANAA/tzapp_entrylib.lib(qsee_env.o)
 .debug_pubtypes
                0x0000a063      0x13f /local/mnt/workspace/CRMBuilds/TZ.BF.4.0.3.c1-00005-M8996AAAAANAZT-1_20170110_230814/b/HK11/trustzone_images/core/securemsm/trustzone/qsapps/libs/applib/qsee/build/sampleapp/scorpion/IADAANAA/tzapp_entrylib.lib(qsee_core_shim.o)
 .debug_pubtypes
                0x0000a1a2      0x109 /local/mnt/workspace/CRMBuilds/TZ.BF.4.0.3.c1-00005-M8996AAAAANAZT-1_20170110_230814/b/HK11/trustzone_images/core/securemsm/trustzone/qsapps/libs/applib/qsee/build/sampleapp/scorpion/IADAANAA/tzapp_entrylib.lib(qsee_deviceid.o)
 .debug_pubtypes
                0x0000a2ab       0xe1 /local/mnt/workspace/CRMBuilds/TZ.BF.4.0.3.c1-00005-M8996AAAAANAZT-1_20170110_230814/b/HK11/trustzone_images/core/securemsm/trustzone/qsapps/libs/applib/qsee/build/sampleapp/scorpion/IADAANAA/tzapp_entrylib.lib(qsee_prng.o)
 .debug_pubtypes
                0x0000a38c       0xcd /local/mnt/workspace/CRMBuilds/TZ.BF.4.0.3.c1-00005-M8996AAAAANAZT-1_20170110_230814/b/HK11/trustzone_images/core/securemsm/trustzone/qsapps/libs/applib/qsee/build/sampleapp/scorpion/IADAANAA/tzapp_entrylib.lib(qsee_secdisp.o)
 .debug_pubtypes
                0x0000a459       0xf5 /local/mnt/workspace/CRMBuilds/TZ.BF.4.0.3.c1-00005-M8996AAAAANAZT-1_20170110_230814/b/HK11/trustzone_images/core/securemsm/trustzone/qsapps/libs/applib/qsee/build/sampleapp/scorpion/IADAANAA/tzapp_entrylib.lib(qsee_nsmem.o)
 .debug_pubtypes
                0x0000a54e       0xf7 /local/mnt/workspace/CRMBuilds/TZ.BF.4.0.3.c1-00005-M8996AAAAANAZT-1_20170110_230814/b/HK11/trustzone_images/core/securemsm/trustzone/qsapps/libs/applib/qsee/build/sampleapp/scorpion/IADAANAA/tzapp_entrylib.lib(qsee_cmac.o)
 .debug_pubtypes
                0x0000a645       0x3a /local/mnt/workspace/CRMBuilds/TZ.BF.4.0.3.c1-00005-M8996AAAAANAZT-1_20170110_230814/b/HK11/trustzone_images/core/securemsm/trustzone/qsapps/libs/applib/qsee/build/sampleapp/scorpion/IADAANAA/tzapp_entrylib.lib(qsee_crypto_shim.o)
 .debug_pubtypes
                0x0000a67f       0x2d /local/mnt/workspace/CRMBuilds/TZ.BF.4.0.3.c1-00005-M8996AAAAANAZT-1_20170110_230814/b/HK11/trustzone_images/core/securemsm/trustzone/qsapps/libs/applib/qsee/build/sampleapp/scorpion/IADAANAA/tzapp_entrylib.lib(qsee_timer_shim.o)
 .debug_pubtypes
                0x0000a6ac       0x84 /local/mnt/workspace/CRMBuilds/TZ.BF.4.0.3.c1-00005-M8996AAAAANAZT-1_20170110_230814/b/HK11/trustzone_images/core/securemsm/trustzone/qsapps/libs/applib/qsee/build/sampleapp/scorpion/IADAANAA/tzapp_entrylib.lib(qsee_comstr.o)
 .debug_pubtypes
                0x0000a730      0x19f /local/mnt/workspace/CRMBuilds/TZ.BF.4.0.3.c1-00005-M8996AAAAANAZT-1_20170110_230814/b/HK11/trustzone_images/core/securemsm/trustzone/qsapps/libs/applib/qsee/build/sampleapp/scorpion/IADAANAA/tzapp_entrylib.lib(stor.o)
 .debug_pubtypes
                0x0000a8cf      0x32f /local/mnt/workspace/CRMBuilds/TZ.BF.4.0.3.c1-00005-M8996AAAAANAZT-1_20170110_230814/b/HK11/trustzone_images/core/securemsm/trustzone/qsapps/libs/applib/qsee/build/sampleapp/scorpion/IADAANAA/tzapp_entrylib.lib(stor_gpt.o)
 .debug_pubtypes
                0x0000abfe      0x193 /local/mnt/workspace/CRMBuilds/TZ.BF.4.0.3.c1-00005-M8996AAAAANAZT-1_20170110_230814/b/HK11/trustzone_images/core/securemsm/trustzone/qsapps/libs/applib/qsee/build/sampleapp/scorpion/IADAANAA/tzapp_entrylib.lib(stor_rpmbw.o)
 .debug_pubtypes
                0x0000ad91       0x73 /local/mnt/workspace/CRMBuilds/TZ.BF.4.0.3.c1-00005-M8996AAAAANAZT-1_20170110_230814/b/HK11/trustzone_images/core/securemsm/trustzone/qsapps/libs/applib/qsee/build/sampleapp/scorpion/IADAANAA/tzapp_entrylib.lib(qsee_counter_shim.o)
 .debug_pubtypes
                0x0000ae04      0x167 /local/mnt/workspace/CRMBuilds/TZ.BF.4.0.3.c1-00005-M8996AAAAANAZT-1_20170110_230814/b/HK11/trustzone_images/core/securemsm/trustzone/qsapps/libs/applib/qsee/build/sampleapp/scorpion/IADAANAA/tzapp_entrylib.lib(qsee_cipher.o)
 .debug_pubtypes
                0x0000af6b      0x18c /local/mnt/workspace/CRMBuilds/TZ.BF.4.0.3.c1-00005-M8996AAAAANAZT-1_20170110_230814/b/HK11/trustzone_images/core/securemsm/trustzone/qsapps/libs/applib/qsee/build/sampleapp/scorpion/IADAANAA/tzapp_entrylib.lib(qsee_hash.o)
 .debug_pubtypes
                0x0000b0f7      0x157 /local/mnt/workspace/CRMBuilds/TZ.BF.4.0.3.c1-00005-M8996AAAAANAZT-1_20170110_230814/b/HK11/trustzone_images/core/securemsm/trustzone/qsapps/libs/applib/qsee/build/sampleapp/scorpion/IADAANAA/tzapp_entrylib.lib(qsee_hmac.o)
 .debug_pubtypes
                0x0000b24e      0x23b /local/mnt/workspace/CRMBuilds/TZ.BF.4.0.3.c1-00005-M8996AAAAANAZT-1_20170110_230814/b/HK11/trustzone_images/core/securemsm/trustzone/qsapps/libs/applib/qsee/build/sampleapp/scorpion/IADAANAA/tzapp_entrylib.lib(qsee_i2c.o)
 .debug_pubtypes
                0x0000b489      0x1f6 /local/mnt/workspace/CRMBuilds/TZ.BF.4.0.3.c1-00005-M8996AAAAANAZT-1_20170110_230814/b/HK11/trustzone_images/core/securemsm/trustzone/qsapps/libs/applib/qsee/build/sampleapp/scorpion/IADAANAA/tzapp_entrylib.lib(qsee_spi.o)
 .debug_pubtypes
                0x0000b67f       0xbd /local/mnt/workspace/CRMBuilds/TZ.BF.4.0.3.c1-00005-M8996AAAAANAZT-1_20170110_230814/b/HK11/trustzone_images/core/securemsm/trustzone/qsapps/libs/applib/qsee/build/sampleapp/scorpion/IADAANAA/tzapp_entrylib.lib(qsee_bulletin_board_shim.o)
 .debug_pubtypes
                0x0000b73c      0x16f /local/mnt/workspace/CRMBuilds/TZ.BF.4.0.3.c1-00005-M8996AAAAANAZT-1_20170110_230814/b/HK11/trustzone_images/core/securemsm/trustzone/qsapps/libs/applib/qsee/build/sampleapp/scorpion/IADAANAA/tzapp_entrylib.lib(qsee_tlmm.o)
 .debug_pubtypes
                0x0000b8ab       0xc3 /local/mnt/workspace/CRMBuilds/TZ.BF.4.0.3.c1-00005-M8996AAAAANAZT-1_20170110_230814/b/HK11/trustzone_images/core/securemsm/trustzone/qsapps/libs/applib/qsee/build/sampleapp/scorpion/IADAANAA/tzapp_entrylib.lib(qsee_sync.o)
 .debug_pubtypes
                0x0000b96e       0xc3 /local/mnt/workspace/CRMBuilds/TZ.BF.4.0.3.c1-00005-M8996AAAAANAZT-1_20170110_230814/b/HK11/trustzone_images/core/securemsm/trustzone/qsapps/libs/applib/qsee/build/sampleapp/scorpion/IADAANAA/tzapp_entrylib.lib(qsee_dcache.o)
 .debug_pubtypes
                0x0000ba31       0xeb /local/mnt/workspace/CRMBuilds/TZ.BF.4.0.3.c1-00005-M8996AAAAANAZT-1_20170110_230814/b/HK11/trustzone_images/core/securemsm/trustzone/qsapps/libs/applib/qsee/build/sampleapp/scorpion/IADAANAA/tzapp_entrylib.lib(qsee_shared_buffer.o)
 .debug_pubtypes
                0x0000bb1c       0xeb /local/mnt/workspace/CRMBuilds/TZ.BF.4.0.3.c1-00005-M8996AAAAANAZT-1_20170110_230814/b/HK11/trustzone_images/core/securemsm/trustzone/qsapps/libs/applib/qsee/build/sampleapp/scorpion/IADAANAA/tzapp_entrylib.lib(qsee_oem_buffer.o)
 .debug_pubtypes
                0x0000bc07       0xd5 /local/mnt/workspace/CRMBuilds/TZ.BF.4.0.3.c1-00005-M8996AAAAANAZT-1_20170110_230814/b/HK11/trustzone_images/core/securemsm/trustzone/qsapps/libs/applib/qsee/build/sampleapp/scorpion/IADAANAA/tzapp_entrylib.lib(qsee_intmask.o)
 .debug_pubtypes
                0x0000bcdc      0x129 /local/mnt/workspace/CRMBuilds/TZ.BF.4.0.3.c1-00005-M8996AAAAANAZT-1_20170110_230814/b/HK11/trustzone_images/core/securemsm/trustzone/qsapps/libs/applib/qsee/build/sampleapp/scorpion/IADAANAA/tzapp_entrylib.lib(qsee_trans_ns_addr.o)
 .debug_pubtypes
                0x0000be05       0xea /local/mnt/workspace/CRMBuilds/TZ.BF.4.0.3.c1-00005-M8996AAAAANAZT-1_20170110_230814/b/HK11/trustzone_images/core/securemsm/trustzone/qsapps/libs/applib/qsee/build/sampleapp/scorpion/IADAANAA/tzapp_entrylib.lib(qsee_appmessage.o)
 .debug_pubtypes
                0x0000beef      0x118 /local/mnt/workspace/CRMBuilds/TZ.BF.4.0.3.c1-00005-M8996AAAAANAZT-1_20170110_230814/b/HK11/trustzone_images/core/securemsm/trustzone/qsapps/libs/applib/qsee/build/sampleapp/scorpion/IADAANAA/tzapp_entrylib.lib(sfs_api.o)
 .debug_pubtypes
                0x0000c007       0xeb /local/mnt/workspace/CRMBuilds/TZ.BF.4.0.3.c1-00005-M8996AAAAANAZT-1_20170110_230814/b/HK11/trustzone_images/core/securemsm/trustzone/qsapps/libs/applib/qsee/build/sampleapp/scorpion/IADAANAA/tzapp_entrylib.lib(tzapp_lib_main.o)
 .debug_pubtypes
                0x0000c0f2      0x216 /local/mnt/workspace/CRMBuilds/TZ.BF.4.0.3.c1-00005-M8996AAAAANAZT-1_20170110_230814/b/HK11/trustzone_images/core/securemsm/trustzone/qsapps/libs/biometric/build/sampleapp/scorpion/IADAANAA/biometric_lib.lib(biometric.o)
 .debug_pubtypes
                0x0000c308      0x1a9 /local/mnt/workspace/CRMBuilds/TZ.BF.4.0.3.c1-00005-M8996AAAAANAZT-1_20170110_230814/b/HK11/trustzone_images/core/securemsm/trustzone/qsapps/libs/biometric/build/sampleapp/scorpion/IADAANAA/biometric_lib.lib(biometric_serializer.o)
 .debug_pubtypes
                0x0000c4b1       0x37 /local/mnt/workspace/CRMBuilds/TZ.BF.4.0.3.c1-00005-M8996AAAAANAZT-1_20170110_230814/b/HK11/trustzone_images/core/securemsm/trustzone/qsee/mink/libstd/build/sampleapp/scorpion/IADAANAA/libstd.lib(strnlen.o)
 .debug_pubtypes
                0x0000c4e8       0x48 /local/mnt/workspace/CRMBuilds/TZ.BF.4.0.3.c1-00005-M8996AAAAANAZT-1_20170110_230814/b/HK11/trustzone_images/core/securemsm/trustzone/qsee/mink/libstd/build/sampleapp/scorpion/IADAANAA/libstd.lib(memcmp.o)
 .debug_pubtypes
                0x0000c530       0x37 /local/mnt/workspace/CRMBuilds/TZ.BF.4.0.3.c1-00005-M8996AAAAANAZT-1_20170110_230814/b/HK11/trustzone_images/core/securemsm/trustzone/qsee/mink/libstd/build/sampleapp/scorpion/IADAANAA/libstd.lib(strlen.o)
 .debug_pubtypes
                0x0000c567       0x23 /local/mnt/workspace/CRMBuilds/TZ.BF.4.0.3.c1-00005-M8996AAAAANAZT-1_20170110_230814/b/HK11/trustzone_images/core/securemsm/trustzone/qsee/mink/libstd/build/sampleapp/scorpion/IADAANAA/libstd.lib(strcmp.o)
 .debug_pubtypes
                0x0000c58a       0x51 /local/mnt/workspace/CRMBuilds/TZ.BF.4.0.3.c1-00005-M8996AAAAANAZT-1_20170110_230814/b/HK11/trustzone_images/core/securemsm/trustzone/qsee/mink/libstd/build/sampleapp/scorpion/IADAANAA/libstd.lib(strncmp.o)
 .debug_pubtypes
                0x0000c5db      0x13d /local/mnt/workspace/CRMBuilds/TZ.BF.4.0.3.c1-00005-M8996AAAAANAZT-1_20170110_230814/b/HK11/trustzone_images/core/securemsm/trustzone/qsee/mink/libstd/build/sampleapp/scorpion/IADAANAA/libstd.lib(printf.o)
 .debug_pubtypes
                0x0000c718       0x48 /local/mnt/workspace/CRMBuilds/TZ.BF.4.0.3.c1-00005-M8996AAAAANAZT-1_20170110_230814/b/HK11/trustzone_images/core/securemsm/trustzone/qsee/mink/libstd/build/sampleapp/scorpion/IADAANAA/libstd.lib(memchr.o)
 .debug_pubtypes
                0x0000c760       0x58 /local/mnt/workspace/CRMBuilds/TZ.BF.4.0.3.c1-00005-M8996AAAAANAZT-1_20170110_230814/b/HK11/trustzone_images/core/securemsm/sse/qsee/SecureTouch/drTs/lib/build/sampleapp/scorpion/IADAANAA/touch_lib.lib(01_open.o)
 .debug_pubtypes
                0x0000c7b8       0x4b /local/mnt/workspace/CRMBuilds/TZ.BF.4.0.3.c1-00005-M8996AAAAANAZT-1_20170110_230814/b/HK11/trustzone_images/core/securemsm/sse/qsee/SecureTouch/drTs/lib/build/sampleapp/scorpion/IADAANAA/touch_lib.lib(02_close.o)
 .debug_pubtypes
                0x0000c803       0x97 /local/mnt/workspace/CRMBuilds/TZ.BF.4.0.3.c1-00005-M8996AAAAANAZT-1_20170110_230814/b/HK11/trustzone_images/core/securemsm/sse/qsee/SecureTouch/drTs/lib/build/sampleapp/scorpion/IADAANAA/touch_lib.lib(03_getData.o)
 .debug_pubtypes
                0x0000c89a      0x11c /local/mnt/workspace/CRMBuilds/TZ.BF.4.0.3.c1-00005-M8996AAAAANAZT-1_20170110_230814/b/HK11/trustzone_images/core/securemsm/trustzone/qsapps/libs/applib/common_applib/build/sampleapp/scorpion/IADAANAA/tzapp_entrylib.lib(gpPersistObjCommon.o)
 .debug_pubtypes
                0x0000c9b6      0x158 /local/mnt/workspace/CRMBuilds/TZ.BF.4.0.3.c1-00005-M8996AAAAANAZT-1_20170110_230814/b/HK11/trustzone_images/core/securemsm/trustzone/qsapps/libs/applib/common_applib/build/sampleapp/scorpion/IADAANAA/tzapp_entrylib.lib(gpPersistentObjects.o)
 .debug_pubtypes
                0x0000cb0e      0x15b /local/mnt/workspace/CRMBuilds/TZ.BF.4.0.3.c1-00005-M8996AAAAANAZT-1_20170110_230814/b/HK11/trustzone_images/core/securemsm/trustzone/qsapps/libs/applib/common_applib/build/sampleapp/scorpion/IADAANAA/tzapp_entrylib.lib(gpPersistObjData.o)
 .debug_pubtypes
                0x0000cc69      0x119 /local/mnt/workspace/CRMBuilds/TZ.BF.4.0.3.c1-00005-M8996AAAAANAZT-1_20170110_230814/b/HK11/trustzone_images/core/securemsm/trustzone/qsapps/libs/applib/common_applib/build/sampleapp/scorpion/IADAANAA/tzapp_entrylib.lib(gpPersistObjHandler.o)
 .debug_pubtypes
                0x0000cd82      0x156 /local/mnt/workspace/CRMBuilds/TZ.BF.4.0.3.c1-00005-M8996AAAAANAZT-1_20170110_230814/b/HK11/trustzone_images/core/securemsm/trustzone/qsapps/libs/applib/common_applib/build/sampleapp/scorpion/IADAANAA/tzapp_entrylib.lib(gpPersistObjIndex.o)
 .debug_pubtypes
                0x0000ced8      0x13e /local/mnt/workspace/CRMBuilds/TZ.BF.4.0.3.c1-00005-M8996AAAAANAZT-1_20170110_230814/b/HK11/trustzone_images/core/securemsm/trustzone/qsapps/libs/applib/common_applib/build/sampleapp/scorpion/IADAANAA/tzapp_entrylib.lib(gpPersistObjVersion.o)
 .debug_pubtypes
                0x0000d016       0xcc /local/mnt/workspace/CRMBuilds/TZ.BF.4.0.3.c1-00005-M8996AAAAANAZT-1_20170110_230814/b/HK11/trustzone_images/core/securemsm/trustzone/qsapps/libs/applib/common_applib/build/sampleapp/scorpion/IADAANAA/tzapp_entrylib.lib(gpPersistObjCrypto.o)
 .debug_pubtypes
                0x0000d0e2       0xb8 /local/mnt/workspace/CRMBuilds/TZ.BF.4.0.3.c1-00005-M8996AAAAANAZT-1_20170110_230814/b/HK11/trustzone_images/core/securemsm/trustzone/qsapps/libs/applib/common_applib/build/sampleapp/scorpion/IADAANAA/tzapp_entrylib.lib(gpPersistObjFileIO.o)
 .debug_pubtypes
                0x0000d19a      0x233 /local/mnt/workspace/CRMBuilds/TZ.BF.4.0.3.c1-00005-M8996AAAAANAZT-1_20170110_230814/b/HK11/trustzone_images/core/securemsm/trustzone/qsapps/libs/applib/common_applib/build/sampleapp/scorpion/IADAANAA/tzapp_entrylib.lib(gpFileService.o)
 .debug_pubtypes
                0x0000d3cd       0x81 /local/mnt/workspace/CRMBuilds/TZ.BF.4.0.3.c1-00005-M8996AAAAANAZT-1_20170110_230814/b/HK11/trustzone_images/core/securemsm/trustzone/qsapps/libs/applib/qsee/build/sampleapp/scorpion/IADAANAA/tzapp_entrylib.lib(qsee_cfg_prop_shim.o)
 .debug_pubtypes
                0x0000d44e       0x3f /local/mnt/workspace/CRMBuilds/TZ.BF.4.0.3.c1-00005-M8996AAAAANAZT-1_20170110_230814/b/HK11/trustzone_images/core/securemsm/trustzone/qsapps/libs/applib/qsee/build/sampleapp/scorpion/IADAANAA/tzapp_entrylib.lib(gpPersistObjPanic.o)
 .debug_pubtypes
                0x0000d48d       0x37 /local/mnt/workspace/CRMBuilds/TZ.BF.4.0.3.c1-00005-M8996AAAAANAZT-1_20170110_230814/b/HK11/trustzone_images/core/securemsm/trustzone/qsee/mink/libstd/build/sampleapp/scorpion/IADAANAA/libstd.lib(strlcat.o)
 .debug_pubtypes
                0x0000d4c4       0x48 /local/mnt/workspace/CRMBuilds/TZ.BF.4.0.3.c1-00005-M8996AAAAANAZT-1_20170110_230814/b/HK11/trustzone_images/core/securemsm/trustzone/qsee/mink/libstd/build/sampleapp/scorpion/IADAANAA/libstd.lib(memset.o)
 .debug_pubtypes
                0x0000d50c       0x4d /local/mnt/workspace/CRMBuilds/TZ.BF.4.0.3.c1-00005-M8996AAAAANAZT-1_20170110_230814/b/HK11/trustzone_images/core/securemsm/trustzone/qsee/mink/libstd/build/sampleapp/scorpion/IADAANAA/libstd.lib(memcpy.o)
 .debug_pubtypes
                0x0000d559       0x37 /local/mnt/workspace/CRMBuilds/TZ.BF.4.0.3.c1-00005-M8996AAAAANAZT-1_20170110_230814/b/HK11/trustzone_images/core/securemsm/trustzone/qsee/mink/libstd/build/sampleapp/scorpion/IADAANAA/libstd.lib(memmove.o)
 .debug_pubtypes
                0x0000d590      0x138 /local/mnt/workspace/CRMBuilds/TZ.BF.4.0.3.c1-00005-M8996AAAAANAZT-1_20170110_230814/b/HK11/trustzone_images/core/securemsm/sse/SecureTouch/controller/build/sampleapp/scorpion/IADAANAA/drts_controller_msm8996.lib(atmel_mxt_ts.o)
 .debug_pubtypes
                0x0000d6c8      0x15d /local/mnt/workspace/CRMBuilds/TZ.BF.4.0.3.c1-00005-M8996AAAAANAZT-1_20170110_230814/b/HK11/trustzone_images/core/securemsm/sse/SecureTouch/controller/build/sampleapp/scorpion/IADAANAA/drts_controller_msm8996.lib(synaptics_ts.o)
 .debug_pubtypes
                0x0000d825       0x4a /local/mnt/workspace/CRMBuilds/TZ.BF.4.0.3.c1-00005-M8996AAAAANAZT-1_20170110_230814/b/HK11/trustzone_images/core/securemsm/sse/log/build/sampleapp/scorpion/IADAANAA/sselog.lib(sselog.o)
 .debug_pubtypes
                0x0000d86f      0x15b /local/mnt/workspace/CRMBuilds/TZ.BF.4.0.3.c1-00005-M8996AAAAANAZT-1_20170110_230814/b/HK11/trustzone_images/core/securemsm/sse/qsee/SecureTouch/drTs/controller/build/sampleapp/scorpion/IADAANAA/touch_controller_i2c_msm8996.lib(atmel_mxt_ts_i2c.o)
 .debug_pubtypes
                0x0000d9ca      0x15b /local/mnt/workspace/CRMBuilds/TZ.BF.4.0.3.c1-00005-M8996AAAAANAZT-1_20170110_230814/b/HK11/trustzone_images/core/securemsm/sse/qsee/SecureTouch/drTs/controller/build/sampleapp/scorpion/IADAANAA/touch_controller_i2c_msm8996.lib(synaptics_ts_i2c.o)

.debug_str      0x00000000    0x123cb
 .debug_str     0x00000000      0x5c0 /local/mnt/workspace/CRMBuilds/TZ.BF.4.0.3.c1-00005-M8996AAAAANAZT-1_20170110_230814/b/HK11/trustzone_images/core/securemsm/trustzone/qsapps/sampleapp/build/sampleapp/scorpion/IADAANAA/app_main.o
                                0x64a (size before relaxing)
 .debug_str     0x000005c0      0x1b2 /local/mnt/workspace/CRMBuilds/TZ.BF.4.0.3.c1-00005-M8996AAAAANAZT-1_20170110_230814/b/HK11/trustzone_images/core/securemsm/trustzone/qsapps/sampleapp/build/sampleapp/scorpion/IADAANAA/app_smplserv_test.o
                                0x2cf (size before relaxing)
 .debug_str     0x00000772       0xfe /local/mnt/workspace/CRMBuilds/TZ.BF.4.0.3.c1-00005-M8996AAAAANAZT-1_20170110_230814/b/HK11/trustzone_images/core/securemsm/trustzone/qsapps/sampleapp/build/sampleapp/scorpion/IADAANAA/app_smplcert_test.o
                                0x264 (size before relaxing)
 .debug_str     0x00000870     0x24f0 /local/mnt/workspace/CRMBuilds/TZ.BF.4.0.3.c1-00005-M8996AAAAANAZT-1_20170110_230814/b/HK11/trustzone_images/core/securemsm/trustzone/qsapps/sampleapp/build/sampleapp/scorpion/IADAANAA/app_crypto.o
                               0x2d9c (size before relaxing)
 .debug_str     0x00002d60      0x3bf /local/mnt/workspace/CRMBuilds/TZ.BF.4.0.3.c1-00005-M8996AAAAANAZT-1_20170110_230814/b/HK11/trustzone_images/core/securemsm/trustzone/qsapps/sampleapp/build/sampleapp/scorpion/IADAANAA/app_sfs.o
                                0xad7 (size before relaxing)
 .debug_str     0x0000311f      0x971 /local/mnt/workspace/CRMBuilds/TZ.BF.4.0.3.c1-00005-M8996AAAAANAZT-1_20170110_230814/b/HK11/trustzone_images/core/securemsm/trustzone/qsapps/sampleapp/build/sampleapp/scorpion/IADAANAA/app_rsa.o
                               0x10a3 (size before relaxing)
 .debug_str     0x00003a90      0x8f0 /local/mnt/workspace/CRMBuilds/TZ.BF.4.0.3.c1-00005-M8996AAAAANAZT-1_20170110_230814/b/HK11/trustzone_images/core/securemsm/trustzone/qsapps/sampleapp/build/sampleapp/scorpion/IADAANAA/qsee_api_tests.o
                                0xa82 (size before relaxing)
 .debug_str     0x00004380      0x330 /local/mnt/workspace/CRMBuilds/TZ.BF.4.0.3.c1-00005-M8996AAAAANAZT-1_20170110_230814/b/HK11/trustzone_images/core/securemsm/trustzone/qsapps/sampleapp/build/sampleapp/scorpion/IADAANAA/app_cmnlib.o
                                0xac1 (size before relaxing)
 .debug_str     0x000046b0      0x12b /local/mnt/workspace/CRMBuilds/TZ.BF.4.0.3.c1-00005-M8996AAAAANAZT-1_20170110_230814/b/HK11/trustzone_images/core/securemsm/trustzone/qsapps/sampleapp/build/sampleapp/scorpion/IADAANAA/app_message_passing.o
                                0x1fb (size before relaxing)
 .debug_str     0x000047db      0x1b2 /local/mnt/workspace/CRMBuilds/TZ.BF.4.0.3.c1-00005-M8996AAAAANAZT-1_20170110_230814/b/HK11/trustzone_images/core/securemsm/trustzone/qsapps/sampleapp/build/sampleapp/scorpion/IADAANAA/app_fuses.o
                                0x259 (size before relaxing)
 .debug_str     0x0000498d      0x45f /local/mnt/workspace/CRMBuilds/TZ.BF.4.0.3.c1-00005-M8996AAAAANAZT-1_20170110_230814/b/HK11/trustzone_images/core/securemsm/trustzone/qsapps/sampleapp/build/sampleapp/scorpion/IADAANAA/app_stor.o
                                0x58e (size before relaxing)
 .debug_str     0x00004dec      0x41a /local/mnt/workspace/CRMBuilds/TZ.BF.4.0.3.c1-00005-M8996AAAAANAZT-1_20170110_230814/b/HK11/trustzone_images/core/securemsm/trustzone/qsapps/sampleapp/build/sampleapp/scorpion/IADAANAA/app_content_protection.o
                                0x546 (size before relaxing)
 .debug_str     0x00005206      0x47c /local/mnt/workspace/CRMBuilds/TZ.BF.4.0.3.c1-00005-M8996AAAAANAZT-1_20170110_230814/b/HK11/trustzone_images/core/securemsm/trustzone/qsapps/sampleapp/build/sampleapp/scorpion/IADAANAA/app_secure_ui.o
                                0x5f6 (size before relaxing)
 .debug_str     0x00005682      0x590 /local/mnt/workspace/CRMBuilds/TZ.BF.4.0.3.c1-00005-M8996AAAAANAZT-1_20170110_230814/b/HK11/trustzone_images/core/securemsm/trustzone/qsapps/sampleapp/build/sampleapp/scorpion/IADAANAA/app_bio_lib.o
                                0x6fd (size before relaxing)
 .debug_str     0x00005c12      0x30d /local/mnt/workspace/CRMBuilds/TZ.BF.4.0.3.c1-00005-M8996AAAAANAZT-1_20170110_230814/b/HK11/trustzone_images/core/securemsm/trustzone/qsapps/sampleapp/build/sampleapp/scorpion/IADAANAA/app_bulletin_board.o
                                0xa5d (size before relaxing)
 .debug_str     0x00005f1f       0xfc /local/mnt/workspace/CRMBuilds/TZ.BF.4.0.3.c1-00005-M8996AAAAANAZT-1_20170110_230814/b/HK11/trustzone_images/core/securemsm/trustzone/qsapps/sampleapp/build/sampleapp/scorpion/IADAANAA/metadata.o
                                0x1b0 (size before relaxing)
 .debug_str     0x0000601b      0x11e /local/mnt/workspace/CRMBuilds/TZ.BF.4.0.3.c1-00005-M8996AAAAANAZT-1_20170110_230814/b/HK11/trustzone_images/core/kernel/libstd/build/sampleapp/scorpion/IADAANAA/libstd.lib(memscpy.o)
                                0x15d (size before relaxing)
 .debug_str     0x00006139       0x8d /local/mnt/workspace/CRMBuilds/TZ.BF.4.0.3.c1-00005-M8996AAAAANAZT-1_20170110_230814/b/HK11/trustzone_images/core/kernel/libstd/build/sampleapp/scorpion/IADAANAA/libstd.lib(strlcpy.o)
                                0x150 (size before relaxing)
 .debug_str     0x000061c6       0xa9 /local/mnt/workspace/CRMBuilds/TZ.BF.4.0.3.c1-00005-M8996AAAAANAZT-1_20170110_230814/b/HK11/trustzone_images/core/kernel/libstd/build/sampleapp/scorpion/IADAANAA/libstd.lib(secure_memset.o)
                                0x179 (size before relaxing)
 .debug_str     0x0000626f       0xae /local/mnt/workspace/CRMBuilds/TZ.BF.4.0.3.c1-00005-M8996AAAAANAZT-1_20170110_230814/b/HK11/trustzone_images/core/kernel/libstd/build/sampleapp/scorpion/IADAANAA/libstd.lib(timesafe_memcmp.o)
                                0x17a (size before relaxing)
 .debug_str     0x0000631d       0xa3 /local/mnt/workspace/CRMBuilds/TZ.BF.4.0.3.c1-00005-M8996AAAAANAZT-1_20170110_230814/b/HK11/trustzone_images/core/kernel/libstd/build/sampleapp/scorpion/IADAANAA/libstd.lib(timesafe_strncmp.o)
                                0x194 (size before relaxing)
 .debug_str     0x000063c0      0xc0c /local/mnt/workspace/CRMBuilds/TZ.BF.4.0.3.c1-00005-M8996AAAAANAZT-1_20170110_230814/b/HK11/trustzone_images/core/securemsm/sse/qsee/SecureUI/build/sampleapp/scorpion/IADAANAA/secure_ui.lib(SecureUI.o)
                               0x1115 (size before relaxing)
 .debug_str     0x00006fcc      0x358 /local/mnt/workspace/CRMBuilds/TZ.BF.4.0.3.c1-00005-M8996AAAAANAZT-1_20170110_230814/b/HK11/trustzone_images/core/securemsm/sse/qsee/SecureUILib/lib/build/sampleapp/scorpion/IADAANAA/secure_ui_lib.lib(SecureUILib.o)
                                0xbde (size before relaxing)
 .debug_str     0x00007324       0xcb /local/mnt/workspace/CRMBuilds/TZ.BF.4.0.3.c1-00005-M8996AAAAANAZT-1_20170110_230814/b/HK11/trustzone_images/core/securemsm/sse/qsee/SecureUILib/lib/build/sampleapp/scorpion/IADAANAA/secure_ui_lib.lib(01_startTouch.o)
                                0x48f (size before relaxing)
 .debug_str     0x000073ef       0xd9 /local/mnt/workspace/CRMBuilds/TZ.BF.4.0.3.c1-00005-M8996AAAAANAZT-1_20170110_230814/b/HK11/trustzone_images/core/securemsm/sse/qsee/SecureUILib/lib/build/sampleapp/scorpion/IADAANAA/secure_ui_lib.lib(02_processTouch.o)
                                0x4f9 (size before relaxing)
 .debug_str     0x000074c8       0xd0 /local/mnt/workspace/CRMBuilds/TZ.BF.4.0.3.c1-00005-M8996AAAAANAZT-1_20170110_230814/b/HK11/trustzone_images/core/securemsm/sse/qsee/SecureUILib/lib/build/sampleapp/scorpion/IADAANAA/secure_ui_lib.lib(03_stopTouch.o)
                                0x4a6 (size before relaxing)
 .debug_str     0x00007598      0xba3 /local/mnt/workspace/CRMBuilds/TZ.BF.4.0.3.c1-00005-M8996AAAAANAZT-1_20170110_230814/b/HK11/trustzone_images/core/securemsm/trustzone/qsapps/libs/applib/common_applib/build/sampleapp/scorpion/IADAANAA/tzapp_entrylib.lib(common_applib.o)
                                0xfb1 (size before relaxing)
 .debug_str     0x0000813b     0x1b2a /local/mnt/workspace/CRMBuilds/TZ.BF.4.0.3.c1-00005-M8996AAAAANAZT-1_20170110_230814/b/HK11/trustzone_images/core/securemsm/trustzone/qsapps/libs/applib/proxy/build/sampleapp/scorpion/IADAANAA/tzlib_proxy.lib(prxy_services.o)
                               0x2d35 (size before relaxing)
 .debug_str     0x00009c65      0x49e /local/mnt/workspace/CRMBuilds/TZ.BF.4.0.3.c1-00005-M8996AAAAANAZT-1_20170110_230814/b/HK11/trustzone_images/core/securemsm/trustzone/qsapps/libs/applib/proxy/build/sampleapp/scorpion/IADAANAA/tzlib_proxy.lib(prxy_qsee_shim.o)
                               0x15eb (size before relaxing)
 .debug_str     0x0000a103      0x178 /local/mnt/workspace/CRMBuilds/TZ.BF.4.0.3.c1-00005-M8996AAAAANAZT-1_20170110_230814/b/HK11/trustzone_images/core/securemsm/trustzone/qsapps/libs/applib/proxy/build/sampleapp/scorpion/IADAANAA/tzlib_proxy.lib(prxy_ufaes.o)
                               0x2bac (size before relaxing)
 .debug_str     0x0000a27b       0xab /local/mnt/workspace/CRMBuilds/TZ.BF.4.0.3.c1-00005-M8996AAAAANAZT-1_20170110_230814/b/HK11/trustzone_images/core/securemsm/trustzone/qsapps/libs/applib/proxy/build/sampleapp/scorpion/IADAANAA/tzlib_proxy.lib(prxy_ufdes.o)
                               0x2b2f (size before relaxing)
 .debug_str     0x0000a326      0x115 /local/mnt/workspace/CRMBuilds/TZ.BF.4.0.3.c1-00005-M8996AAAAANAZT-1_20170110_230814/b/HK11/trustzone_images/core/securemsm/trustzone/qsapps/libs/applib/proxy/build/sampleapp/scorpion/IADAANAA/tzlib_proxy.lib(prxy_ufsha.o)
                               0x2b39 (size before relaxing)
 .debug_str     0x0000a43b       0xad /local/mnt/workspace/CRMBuilds/TZ.BF.4.0.3.c1-00005-M8996AAAAANAZT-1_20170110_230814/b/HK11/trustzone_images/core/securemsm/trustzone/qsapps/libs/applib/proxy/build/sampleapp/scorpion/IADAANAA/tzlib_proxy.lib(prxy_secmath.o)
                               0x2af9 (size before relaxing)
 .debug_str     0x0000a4e8       0xac /local/mnt/workspace/CRMBuilds/TZ.BF.4.0.3.c1-00005-M8996AAAAANAZT-1_20170110_230814/b/HK11/trustzone_images/core/securemsm/trustzone/qsapps/libs/applib/proxy/build/sampleapp/scorpion/IADAANAA/tzlib_proxy.lib(prxy_secrsa.o)
                               0x2d16 (size before relaxing)
 .debug_str     0x0000a594       0xa9 /local/mnt/workspace/CRMBuilds/TZ.BF.4.0.3.c1-00005-M8996AAAAANAZT-1_20170110_230814/b/HK11/trustzone_images/core/securemsm/trustzone/qsapps/libs/applib/proxy/build/sampleapp/scorpion/IADAANAA/tzlib_proxy.lib(prxy_ecc.o)
                               0x2cb5 (size before relaxing)
 .debug_str     0x0000a63d      0x169 /local/mnt/workspace/CRMBuilds/TZ.BF.4.0.3.c1-00005-M8996AAAAANAZT-1_20170110_230814/b/HK11/trustzone_images/core/securemsm/trustzone/qsapps/libs/applib/qsee/build/sampleapp/scorpion/IADAANAA/tzapp_entrylib.lib(mink_shared_code.o)
                                0x2f1 (size before relaxing)
 .debug_str     0x0000a7a6      0x1f6 /local/mnt/workspace/CRMBuilds/TZ.BF.4.0.3.c1-00005-M8996AAAAANAZT-1_20170110_230814/b/HK11/trustzone_images/core/securemsm/trustzone/qsapps/libs/applib/qsee/build/sampleapp/scorpion/IADAANAA/tzapp_entrylib.lib(qsee_env.o)
                                0x3b5 (size before relaxing)
 .debug_str     0x0000a99c      0x651 /local/mnt/workspace/CRMBuilds/TZ.BF.4.0.3.c1-00005-M8996AAAAANAZT-1_20170110_230814/b/HK11/trustzone_images/core/securemsm/trustzone/qsapps/libs/applib/qsee/build/sampleapp/scorpion/IADAANAA/tzapp_entrylib.lib(qsee_core_shim.o)
                                0x87a (size before relaxing)
 .debug_str     0x0000afed      0x180 /local/mnt/workspace/CRMBuilds/TZ.BF.4.0.3.c1-00005-M8996AAAAANAZT-1_20170110_230814/b/HK11/trustzone_images/core/securemsm/trustzone/qsapps/libs/applib/qsee/build/sampleapp/scorpion/IADAANAA/tzapp_entrylib.lib(qsee_deviceid.o)
                                0x327 (size before relaxing)
 .debug_str     0x0000b16d       0xdf /local/mnt/workspace/CRMBuilds/TZ.BF.4.0.3.c1-00005-M8996AAAAANAZT-1_20170110_230814/b/HK11/trustzone_images/core/securemsm/trustzone/qsapps/libs/applib/qsee/build/sampleapp/scorpion/IADAANAA/tzapp_entrylib.lib(qsee_prng.o)
                                0x279 (size before relaxing)
 .debug_str     0x0000b24c      0x154 /local/mnt/workspace/CRMBuilds/TZ.BF.4.0.3.c1-00005-M8996AAAAANAZT-1_20170110_230814/b/HK11/trustzone_images/core/securemsm/trustzone/qsapps/libs/applib/qsee/build/sampleapp/scorpion/IADAANAA/tzapp_entrylib.lib(qsee_secdisp.o)
                                0x2b5 (size before relaxing)
 .debug_str     0x0000b3a0      0x184 /local/mnt/workspace/CRMBuilds/TZ.BF.4.0.3.c1-00005-M8996AAAAANAZT-1_20170110_230814/b/HK11/trustzone_images/core/securemsm/trustzone/qsapps/libs/applib/qsee/build/sampleapp/scorpion/IADAANAA/tzapp_entrylib.lib(qsee_nsmem.o)
                                0x330 (size before relaxing)
 .debug_str     0x0000b524      0x124 /local/mnt/workspace/CRMBuilds/TZ.BF.4.0.3.c1-00005-M8996AAAAANAZT-1_20170110_230814/b/HK11/trustzone_images/core/securemsm/trustzone/qsapps/libs/applib/qsee/build/sampleapp/scorpion/IADAANAA/tzapp_entrylib.lib(qsee_cmac.o)
                                0x328 (size before relaxing)
 .debug_str     0x0000b648       0xfa /local/mnt/workspace/CRMBuilds/TZ.BF.4.0.3.c1-00005-M8996AAAAANAZT-1_20170110_230814/b/HK11/trustzone_images/core/securemsm/trustzone/qsapps/libs/applib/qsee/build/sampleapp/scorpion/IADAANAA/tzapp_entrylib.lib(qsee_crypto_shim.o)
                                0x1bb (size before relaxing)
 .debug_str     0x0000b742       0xdc /local/mnt/workspace/CRMBuilds/TZ.BF.4.0.3.c1-00005-M8996AAAAANAZT-1_20170110_230814/b/HK11/trustzone_images/core/securemsm/trustzone/qsapps/libs/applib/qsee/build/sampleapp/scorpion/IADAANAA/tzapp_entrylib.lib(qsee_timer_shim.o)
                                0x187 (size before relaxing)
 .debug_str     0x0000b81e      0x1a1 /local/mnt/workspace/CRMBuilds/TZ.BF.4.0.3.c1-00005-M8996AAAAANAZT-1_20170110_230814/b/HK11/trustzone_images/core/securemsm/trustzone/qsapps/libs/applib/qsee/build/sampleapp/scorpion/IADAANAA/tzapp_entrylib.lib(qsee_comstr.o)
                                0x2b5 (size before relaxing)
 .debug_str     0x0000b9bf      0x29d /local/mnt/workspace/CRMBuilds/TZ.BF.4.0.3.c1-00005-M8996AAAAANAZT-1_20170110_230814/b/HK11/trustzone_images/core/securemsm/trustzone/qsapps/libs/applib/qsee/build/sampleapp/scorpion/IADAANAA/tzapp_entrylib.lib(stor.o)
                                0x5af (size before relaxing)
 .debug_str     0x0000bc5c      0x4ca /local/mnt/workspace/CRMBuilds/TZ.BF.4.0.3.c1-00005-M8996AAAAANAZT-1_20170110_230814/b/HK11/trustzone_images/core/securemsm/trustzone/qsapps/libs/applib/qsee/build/sampleapp/scorpion/IADAANAA/tzapp_entrylib.lib(stor_gpt.o)
                                0x870 (size before relaxing)
 .debug_str     0x0000c126      0x170 /local/mnt/workspace/CRMBuilds/TZ.BF.4.0.3.c1-00005-M8996AAAAANAZT-1_20170110_230814/b/HK11/trustzone_images/core/securemsm/trustzone/qsapps/libs/applib/qsee/build/sampleapp/scorpion/IADAANAA/tzapp_entrylib.lib(stor_rpmbw.o)
                                0x4ff (size before relaxing)
 .debug_str     0x0000c296      0x175 /local/mnt/workspace/CRMBuilds/TZ.BF.4.0.3.c1-00005-M8996AAAAANAZT-1_20170110_230814/b/HK11/trustzone_images/core/securemsm/trustzone/qsapps/libs/applib/qsee/build/sampleapp/scorpion/IADAANAA/tzapp_entrylib.lib(qsee_counter_shim.o)
                                0x25c (size before relaxing)
 .debug_str     0x0000c40b      0x366 /local/mnt/workspace/CRMBuilds/TZ.BF.4.0.3.c1-00005-M8996AAAAANAZT-1_20170110_230814/b/HK11/trustzone_images/core/securemsm/trustzone/qsapps/libs/applib/qsee/build/sampleapp/scorpion/IADAANAA/tzapp_entrylib.lib(qsee_cipher.o)
                                0x6f9 (size before relaxing)
 .debug_str     0x0000c771      0x254 /local/mnt/workspace/CRMBuilds/TZ.BF.4.0.3.c1-00005-M8996AAAAANAZT-1_20170110_230814/b/HK11/trustzone_images/core/securemsm/trustzone/qsapps/libs/applib/qsee/build/sampleapp/scorpion/IADAANAA/tzapp_entrylib.lib(qsee_hash.o)
                                0x633 (size before relaxing)
 .debug_str     0x0000c9c5      0x218 /local/mnt/workspace/CRMBuilds/TZ.BF.4.0.3.c1-00005-M8996AAAAANAZT-1_20170110_230814/b/HK11/trustzone_images/core/securemsm/trustzone/qsapps/libs/applib/qsee/build/sampleapp/scorpion/IADAANAA/tzapp_entrylib.lib(qsee_hmac.o)
                                0x4a6 (size before relaxing)
 .debug_str     0x0000cbdd      0x71f /local/mnt/workspace/CRMBuilds/TZ.BF.4.0.3.c1-00005-M8996AAAAANAZT-1_20170110_230814/b/HK11/trustzone_images/core/securemsm/trustzone/qsapps/libs/applib/qsee/build/sampleapp/scorpion/IADAANAA/tzapp_entrylib.lib(qsee_i2c.o)
                                0xa46 (size before relaxing)
 .debug_str     0x0000d2fc      0x385 /local/mnt/workspace/CRMBuilds/TZ.BF.4.0.3.c1-00005-M8996AAAAANAZT-1_20170110_230814/b/HK11/trustzone_images/core/securemsm/trustzone/qsapps/libs/applib/qsee/build/sampleapp/scorpion/IADAANAA/tzapp_entrylib.lib(qsee_spi.o)
                                0x80c (size before relaxing)
 .debug_str     0x0000d681       0xf2 /local/mnt/workspace/CRMBuilds/TZ.BF.4.0.3.c1-00005-M8996AAAAANAZT-1_20170110_230814/b/HK11/trustzone_images/core/securemsm/trustzone/qsapps/libs/applib/qsee/build/sampleapp/scorpion/IADAANAA/tzapp_entrylib.lib(qsee_bulletin_board_shim.o)
                                0x23b (size before relaxing)
 .debug_str     0x0000d773      0x355 /local/mnt/workspace/CRMBuilds/TZ.BF.4.0.3.c1-00005-M8996AAAAANAZT-1_20170110_230814/b/HK11/trustzone_images/core/securemsm/trustzone/qsapps/libs/applib/qsee/build/sampleapp/scorpion/IADAANAA/tzapp_entrylib.lib(qsee_tlmm.o)
                                0x67e (size before relaxing)
 .debug_str     0x0000dac8       0xd7 /local/mnt/workspace/CRMBuilds/TZ.BF.4.0.3.c1-00005-M8996AAAAANAZT-1_20170110_230814/b/HK11/trustzone_images/core/securemsm/trustzone/qsapps/libs/applib/qsee/build/sampleapp/scorpion/IADAANAA/tzapp_entrylib.lib(qsee_sync.o)
                                0x244 (size before relaxing)
 .debug_str     0x0000db9f      0x181 /local/mnt/workspace/CRMBuilds/TZ.BF.4.0.3.c1-00005-M8996AAAAANAZT-1_20170110_230814/b/HK11/trustzone_images/core/securemsm/trustzone/qsapps/libs/applib/qsee/build/sampleapp/scorpion/IADAANAA/tzapp_entrylib.lib(qsee_dcache.o)
                                0x2ec (size before relaxing)
 .debug_str     0x0000dd20      0x156 /local/mnt/workspace/CRMBuilds/TZ.BF.4.0.3.c1-00005-M8996AAAAANAZT-1_20170110_230814/b/HK11/trustzone_images/core/securemsm/trustzone/qsapps/libs/applib/qsee/build/sampleapp/scorpion/IADAANAA/tzapp_entrylib.lib(qsee_shared_buffer.o)
                                0x307 (size before relaxing)
 .debug_str     0x0000de76      0x155 /local/mnt/workspace/CRMBuilds/TZ.BF.4.0.3.c1-00005-M8996AAAAANAZT-1_20170110_230814/b/HK11/trustzone_images/core/securemsm/trustzone/qsapps/libs/applib/qsee/build/sampleapp/scorpion/IADAANAA/tzapp_entrylib.lib(qsee_oem_buffer.o)
                                0x31e (size before relaxing)
 .debug_str     0x0000dfcb      0x181 /local/mnt/workspace/CRMBuilds/TZ.BF.4.0.3.c1-00005-M8996AAAAANAZT-1_20170110_230814/b/HK11/trustzone_images/core/securemsm/trustzone/qsapps/libs/applib/qsee/build/sampleapp/scorpion/IADAANAA/tzapp_entrylib.lib(qsee_intmask.o)
                                0x33c (size before relaxing)
 .debug_str     0x0000e14c      0x141 /local/mnt/workspace/CRMBuilds/TZ.BF.4.0.3.c1-00005-M8996AAAAANAZT-1_20170110_230814/b/HK11/trustzone_images/core/securemsm/trustzone/qsapps/libs/applib/qsee/build/sampleapp/scorpion/IADAANAA/tzapp_entrylib.lib(qsee_trans_ns_addr.o)
                                0x354 (size before relaxing)
 .debug_str     0x0000e28d      0x2f8 /local/mnt/workspace/CRMBuilds/TZ.BF.4.0.3.c1-00005-M8996AAAAANAZT-1_20170110_230814/b/HK11/trustzone_images/core/securemsm/trustzone/qsapps/libs/applib/qsee/build/sampleapp/scorpion/IADAANAA/tzapp_entrylib.lib(qsee_appmessage.o)
                                0x491 (size before relaxing)
 .debug_str     0x0000e585      0x322 /local/mnt/workspace/CRMBuilds/TZ.BF.4.0.3.c1-00005-M8996AAAAANAZT-1_20170110_230814/b/HK11/trustzone_images/core/securemsm/trustzone/qsapps/libs/applib/qsee/build/sampleapp/scorpion/IADAANAA/tzapp_entrylib.lib(sfs_api.o)
                                0xb7d (size before relaxing)
 .debug_str     0x0000e8a7      0x306 /local/mnt/workspace/CRMBuilds/TZ.BF.4.0.3.c1-00005-M8996AAAAANAZT-1_20170110_230814/b/HK11/trustzone_images/core/securemsm/trustzone/qsapps/libs/applib/qsee/build/sampleapp/scorpion/IADAANAA/tzapp_entrylib.lib(tzapp_lib_main.o)
                                0x472 (size before relaxing)
 .debug_str     0x0000ebad      0x259 /local/mnt/workspace/CRMBuilds/TZ.BF.4.0.3.c1-00005-M8996AAAAANAZT-1_20170110_230814/b/HK11/trustzone_images/core/securemsm/trustzone/qsapps/libs/biometric/build/sampleapp/scorpion/IADAANAA/biometric_lib.lib(biometric.o)
                                0xbc5 (size before relaxing)
 .debug_str     0x0000ee06      0x467 /local/mnt/workspace/CRMBuilds/TZ.BF.4.0.3.c1-00005-M8996AAAAANAZT-1_20170110_230814/b/HK11/trustzone_images/core/securemsm/trustzone/qsapps/libs/biometric/build/sampleapp/scorpion/IADAANAA/biometric_lib.lib(biometric_serializer.o)
                                0x788 (size before relaxing)
 .debug_str     0x0000f26d       0xb2 /local/mnt/workspace/CRMBuilds/TZ.BF.4.0.3.c1-00005-M8996AAAAANAZT-1_20170110_230814/b/HK11/trustzone_images/core/securemsm/trustzone/qsee/mink/libstd/build/sampleapp/scorpion/IADAANAA/libstd.lib(strnlen.o)
                                0x163 (size before relaxing)
 .debug_str     0x0000f31f       0xa5 /local/mnt/workspace/CRMBuilds/TZ.BF.4.0.3.c1-00005-M8996AAAAANAZT-1_20170110_230814/b/HK11/trustzone_images/core/securemsm/trustzone/qsee/mink/libstd/build/sampleapp/scorpion/IADAANAA/libstd.lib(memcmp.o)
                                0x16c (size before relaxing)
 .debug_str     0x0000f3c4       0x9f /local/mnt/workspace/CRMBuilds/TZ.BF.4.0.3.c1-00005-M8996AAAAANAZT-1_20170110_230814/b/HK11/trustzone_images/core/securemsm/trustzone/qsee/mink/libstd/build/sampleapp/scorpion/IADAANAA/libstd.lib(strlen.o)
                                0x159 (size before relaxing)
 .debug_str     0x0000f463       0x9f /local/mnt/workspace/CRMBuilds/TZ.BF.4.0.3.c1-00005-M8996AAAAANAZT-1_20170110_230814/b/HK11/trustzone_images/core/securemsm/trustzone/qsee/mink/libstd/build/sampleapp/scorpion/IADAANAA/libstd.lib(strcmp.o)
                                0x147 (size before relaxing)
 .debug_str     0x0000f502       0xa3 /local/mnt/workspace/CRMBuilds/TZ.BF.4.0.3.c1-00005-M8996AAAAANAZT-1_20170110_230814/b/HK11/trustzone_images/core/securemsm/trustzone/qsee/mink/libstd/build/sampleapp/scorpion/IADAANAA/libstd.lib(strncmp.o)
                                0x173 (size before relaxing)
 .debug_str     0x0000f5a5      0x289 /local/mnt/workspace/CRMBuilds/TZ.BF.4.0.3.c1-00005-M8996AAAAANAZT-1_20170110_230814/b/HK11/trustzone_images/core/securemsm/trustzone/qsee/mink/libstd/build/sampleapp/scorpion/IADAANAA/libstd.lib(printf.o)
                                0x471 (size before relaxing)
 .debug_str     0x0000f82e       0xa6 /local/mnt/workspace/CRMBuilds/TZ.BF.4.0.3.c1-00005-M8996AAAAANAZT-1_20170110_230814/b/HK11/trustzone_images/core/securemsm/trustzone/qsee/mink/libstd/build/sampleapp/scorpion/IADAANAA/libstd.lib(memchr.o)
                                0x16e (size before relaxing)
 .debug_str     0x0000f8d4       0xd3 /local/mnt/workspace/CRMBuilds/TZ.BF.4.0.3.c1-00005-M8996AAAAANAZT-1_20170110_230814/b/HK11/trustzone_images/core/securemsm/sse/qsee/SecureTouch/drTs/lib/build/sampleapp/scorpion/IADAANAA/touch_lib.lib(01_open.o)
                                0x1d8 (size before relaxing)
 .debug_str     0x0000f9a7       0xb4 /local/mnt/workspace/CRMBuilds/TZ.BF.4.0.3.c1-00005-M8996AAAAANAZT-1_20170110_230814/b/HK11/trustzone_images/core/securemsm/sse/qsee/SecureTouch/drTs/lib/build/sampleapp/scorpion/IADAANAA/touch_lib.lib(02_close.o)
                                0x187 (size before relaxing)
 .debug_str     0x0000fa5b       0xd9 /local/mnt/workspace/CRMBuilds/TZ.BF.4.0.3.c1-00005-M8996AAAAANAZT-1_20170110_230814/b/HK11/trustzone_images/core/securemsm/sse/qsee/SecureTouch/drTs/lib/build/sampleapp/scorpion/IADAANAA/touch_lib.lib(03_getData.o)
                                0x218 (size before relaxing)
 .debug_str     0x0000fb34      0x2f7 /local/mnt/workspace/CRMBuilds/TZ.BF.4.0.3.c1-00005-M8996AAAAANAZT-1_20170110_230814/b/HK11/trustzone_images/core/securemsm/trustzone/qsapps/libs/applib/common_applib/build/sampleapp/scorpion/IADAANAA/tzapp_entrylib.lib(gpPersistObjCommon.o)
                                0x539 (size before relaxing)
 .debug_str     0x0000fe2b      0x298 /local/mnt/workspace/CRMBuilds/TZ.BF.4.0.3.c1-00005-M8996AAAAANAZT-1_20170110_230814/b/HK11/trustzone_images/core/securemsm/trustzone/qsapps/libs/applib/common_applib/build/sampleapp/scorpion/IADAANAA/tzapp_entrylib.lib(gpPersistentObjects.o)
                                0x5ea (size before relaxing)
 .debug_str     0x000100c3      0x424 /local/mnt/workspace/CRMBuilds/TZ.BF.4.0.3.c1-00005-M8996AAAAANAZT-1_20170110_230814/b/HK11/trustzone_images/core/securemsm/trustzone/qsapps/libs/applib/common_applib/build/sampleapp/scorpion/IADAANAA/tzapp_entrylib.lib(gpPersistObjData.o)
                                0x744 (size before relaxing)
 .debug_str     0x000104e7      0x206 /local/mnt/workspace/CRMBuilds/TZ.BF.4.0.3.c1-00005-M8996AAAAANAZT-1_20170110_230814/b/HK11/trustzone_images/core/securemsm/trustzone/qsapps/libs/applib/common_applib/build/sampleapp/scorpion/IADAANAA/tzapp_entrylib.lib(gpPersistObjHandler.o)
                                0x4b1 (size before relaxing)
 .debug_str     0x000106ed      0x2c3 /local/mnt/workspace/CRMBuilds/TZ.BF.4.0.3.c1-00005-M8996AAAAANAZT-1_20170110_230814/b/HK11/trustzone_images/core/securemsm/trustzone/qsapps/libs/applib/common_applib/build/sampleapp/scorpion/IADAANAA/tzapp_entrylib.lib(gpPersistObjIndex.o)
                                0x602 (size before relaxing)
 .debug_str     0x000109b0      0x34f /local/mnt/workspace/CRMBuilds/TZ.BF.4.0.3.c1-00005-M8996AAAAANAZT-1_20170110_230814/b/HK11/trustzone_images/core/securemsm/trustzone/qsapps/libs/applib/common_applib/build/sampleapp/scorpion/IADAANAA/tzapp_entrylib.lib(gpPersistObjVersion.o)
                                0x6e4 (size before relaxing)
 .debug_str     0x00010cff      0x1f9 /local/mnt/workspace/CRMBuilds/TZ.BF.4.0.3.c1-00005-M8996AAAAANAZT-1_20170110_230814/b/HK11/trustzone_images/core/securemsm/trustzone/qsapps/libs/applib/common_applib/build/sampleapp/scorpion/IADAANAA/tzapp_entrylib.lib(gpPersistObjCrypto.o)
                                0x63e (size before relaxing)
 .debug_str     0x00010ef8      0x15a /local/mnt/workspace/CRMBuilds/TZ.BF.4.0.3.c1-00005-M8996AAAAANAZT-1_20170110_230814/b/HK11/trustzone_images/core/securemsm/trustzone/qsapps/libs/applib/common_applib/build/sampleapp/scorpion/IADAANAA/tzapp_entrylib.lib(gpPersistObjFileIO.o)
                                0x2ff (size before relaxing)
 .debug_str     0x00011052      0x314 /local/mnt/workspace/CRMBuilds/TZ.BF.4.0.3.c1-00005-M8996AAAAANAZT-1_20170110_230814/b/HK11/trustzone_images/core/securemsm/trustzone/qsapps/libs/applib/common_applib/build/sampleapp/scorpion/IADAANAA/tzapp_entrylib.lib(gpFileService.o)
                                0x446 (size before relaxing)
 .debug_str     0x00011366      0x11c /local/mnt/workspace/CRMBuilds/TZ.BF.4.0.3.c1-00005-M8996AAAAANAZT-1_20170110_230814/b/HK11/trustzone_images/core/securemsm/trustzone/qsapps/libs/applib/qsee/build/sampleapp/scorpion/IADAANAA/tzapp_entrylib.lib(qsee_cfg_prop_shim.o)
                                0x2c7 (size before relaxing)
 .debug_str     0x00011482       0xdf /local/mnt/workspace/CRMBuilds/TZ.BF.4.0.3.c1-00005-M8996AAAAANAZT-1_20170110_230814/b/HK11/trustzone_images/core/securemsm/trustzone/qsapps/libs/applib/qsee/build/sampleapp/scorpion/IADAANAA/tzapp_entrylib.lib(gpPersistObjPanic.o)
                                0x19b (size before relaxing)
 .debug_str     0x00011561       0xa0 /local/mnt/workspace/CRMBuilds/TZ.BF.4.0.3.c1-00005-M8996AAAAANAZT-1_20170110_230814/b/HK11/trustzone_images/core/securemsm/trustzone/qsee/mink/libstd/build/sampleapp/scorpion/IADAANAA/libstd.lib(strlcat.o)
                                0x16c (size before relaxing)
 .debug_str     0x00011601       0xa4 /local/mnt/workspace/CRMBuilds/TZ.BF.4.0.3.c1-00005-M8996AAAAANAZT-1_20170110_230814/b/HK11/trustzone_images/core/securemsm/trustzone/qsee/mink/libstd/build/sampleapp/scorpion/IADAANAA/libstd.lib(memset.o)
                                0x16d (size before relaxing)
 .debug_str     0x000116a5       0xa6 /local/mnt/workspace/CRMBuilds/TZ.BF.4.0.3.c1-00005-M8996AAAAANAZT-1_20170110_230814/b/HK11/trustzone_images/core/securemsm/trustzone/qsee/mink/libstd/build/sampleapp/scorpion/IADAANAA/libstd.lib(memcpy.o)
                                0x178 (size before relaxing)
 .debug_str     0x0001174b       0xa8 /local/mnt/workspace/CRMBuilds/TZ.BF.4.0.3.c1-00005-M8996AAAAANAZT-1_20170110_230814/b/HK11/trustzone_images/core/securemsm/trustzone/qsee/mink/libstd/build/sampleapp/scorpion/IADAANAA/libstd.lib(memmove.o)
                                0x164 (size before relaxing)
 .debug_str     0x000117f3      0x342 /local/mnt/workspace/CRMBuilds/TZ.BF.4.0.3.c1-00005-M8996AAAAANAZT-1_20170110_230814/b/HK11/trustzone_images/core/securemsm/sse/SecureTouch/controller/build/sampleapp/scorpion/IADAANAA/drts_controller_msm8996.lib(atmel_mxt_ts.o)
                                0x575 (size before relaxing)
 .debug_str     0x00011b35      0x5d9 /local/mnt/workspace/CRMBuilds/TZ.BF.4.0.3.c1-00005-M8996AAAAANAZT-1_20170110_230814/b/HK11/trustzone_images/core/securemsm/sse/SecureTouch/controller/build/sampleapp/scorpion/IADAANAA/drts_controller_msm8996.lib(synaptics_ts.o)
                                0x799 (size before relaxing)
 .debug_str     0x0001210e       0x94 /local/mnt/workspace/CRMBuilds/TZ.BF.4.0.3.c1-00005-M8996AAAAANAZT-1_20170110_230814/b/HK11/trustzone_images/core/securemsm/sse/log/build/sampleapp/scorpion/IADAANAA/sselog.lib(sselog.o)
                                0x173 (size before relaxing)
 .debug_str     0x000121a2      0x117 /local/mnt/workspace/CRMBuilds/TZ.BF.4.0.3.c1-00005-M8996AAAAANAZT-1_20170110_230814/b/HK11/trustzone_images/core/securemsm/sse/qsee/SecureTouch/drTs/controller/build/sampleapp/scorpion/IADAANAA/touch_controller_i2c_msm8996.lib(atmel_mxt_ts_i2c.o)
                                0xcac (size before relaxing)
 .debug_str     0x000122b9      0x112 /local/mnt/workspace/CRMBuilds/TZ.BF.4.0.3.c1-00005-M8996AAAAANAZT-1_20170110_230814/b/HK11/trustzone_images/core/securemsm/sse/qsee/SecureTouch/drTs/controller/build/sampleapp/scorpion/IADAANAA/touch_controller_i2c_msm8996.lib(synaptics_ts_i2c.o)
                                0xcd8 (size before relaxing)

.debug_loc      0x00000000    0x1cc29
 .debug_loc     0x00000000      0x878 /local/mnt/workspace/CRMBuilds/TZ.BF.4.0.3.c1-00005-M8996AAAAANAZT-1_20170110_230814/b/HK11/trustzone_images/core/securemsm/trustzone/qsapps/sampleapp/build/sampleapp/scorpion/IADAANAA/app_main.o
 .debug_loc     0x00000878       0xe5 /local/mnt/workspace/CRMBuilds/TZ.BF.4.0.3.c1-00005-M8996AAAAANAZT-1_20170110_230814/b/HK11/trustzone_images/core/securemsm/trustzone/qsapps/sampleapp/build/sampleapp/scorpion/IADAANAA/app_smplserv_test.o
 .debug_loc     0x0000095d       0x32 /local/mnt/workspace/CRMBuilds/TZ.BF.4.0.3.c1-00005-M8996AAAAANAZT-1_20170110_230814/b/HK11/trustzone_images/core/securemsm/trustzone/qsapps/sampleapp/build/sampleapp/scorpion/IADAANAA/app_smplcert_test.o
 .debug_loc     0x0000098f     0x749d /local/mnt/workspace/CRMBuilds/TZ.BF.4.0.3.c1-00005-M8996AAAAANAZT-1_20170110_230814/b/HK11/trustzone_images/core/securemsm/trustzone/qsapps/sampleapp/build/sampleapp/scorpion/IADAANAA/app_crypto.o
 .debug_loc     0x00007e2c     0x206e /local/mnt/workspace/CRMBuilds/TZ.BF.4.0.3.c1-00005-M8996AAAAANAZT-1_20170110_230814/b/HK11/trustzone_images/core/securemsm/trustzone/qsapps/sampleapp/build/sampleapp/scorpion/IADAANAA/app_sfs.o
 .debug_loc     0x00009e9a      0x816 /local/mnt/workspace/CRMBuilds/TZ.BF.4.0.3.c1-00005-M8996AAAAANAZT-1_20170110_230814/b/HK11/trustzone_images/core/securemsm/trustzone/qsapps/sampleapp/build/sampleapp/scorpion/IADAANAA/app_rsa.o
 .debug_loc     0x0000a6b0      0x6c4 /local/mnt/workspace/CRMBuilds/TZ.BF.4.0.3.c1-00005-M8996AAAAANAZT-1_20170110_230814/b/HK11/trustzone_images/core/securemsm/trustzone/qsapps/sampleapp/build/sampleapp/scorpion/IADAANAA/qsee_api_tests.o
 .debug_loc     0x0000ad74      0x19e /local/mnt/workspace/CRMBuilds/TZ.BF.4.0.3.c1-00005-M8996AAAAANAZT-1_20170110_230814/b/HK11/trustzone_images/core/securemsm/trustzone/qsapps/sampleapp/build/sampleapp/scorpion/IADAANAA/app_cmnlib.o
 .debug_loc     0x0000af12       0xe7 /local/mnt/workspace/CRMBuilds/TZ.BF.4.0.3.c1-00005-M8996AAAAANAZT-1_20170110_230814/b/HK11/trustzone_images/core/securemsm/trustzone/qsapps/sampleapp/build/sampleapp/scorpion/IADAANAA/app_message_passing.o
 .debug_loc     0x0000aff9       0x49 /local/mnt/workspace/CRMBuilds/TZ.BF.4.0.3.c1-00005-M8996AAAAANAZT-1_20170110_230814/b/HK11/trustzone_images/core/securemsm/trustzone/qsapps/sampleapp/build/sampleapp/scorpion/IADAANAA/app_fuses.o
 .debug_loc     0x0000b042      0x9c2 /local/mnt/workspace/CRMBuilds/TZ.BF.4.0.3.c1-00005-M8996AAAAANAZT-1_20170110_230814/b/HK11/trustzone_images/core/securemsm/trustzone/qsapps/sampleapp/build/sampleapp/scorpion/IADAANAA/app_stor.o
 .debug_loc     0x0000ba04      0x5e3 /local/mnt/workspace/CRMBuilds/TZ.BF.4.0.3.c1-00005-M8996AAAAANAZT-1_20170110_230814/b/HK11/trustzone_images/core/securemsm/trustzone/qsapps/sampleapp/build/sampleapp/scorpion/IADAANAA/app_content_protection.o
 .debug_loc     0x0000bfe7      0x4d8 /local/mnt/workspace/CRMBuilds/TZ.BF.4.0.3.c1-00005-M8996AAAAANAZT-1_20170110_230814/b/HK11/trustzone_images/core/securemsm/trustzone/qsapps/sampleapp/build/sampleapp/scorpion/IADAANAA/app_secure_ui.o
 .debug_loc     0x0000c4bf      0x45c /local/mnt/workspace/CRMBuilds/TZ.BF.4.0.3.c1-00005-M8996AAAAANAZT-1_20170110_230814/b/HK11/trustzone_images/core/securemsm/trustzone/qsapps/sampleapp/build/sampleapp/scorpion/IADAANAA/app_bio_lib.o
 .debug_loc     0x0000c91b      0x252 /local/mnt/workspace/CRMBuilds/TZ.BF.4.0.3.c1-00005-M8996AAAAANAZT-1_20170110_230814/b/HK11/trustzone_images/core/securemsm/trustzone/qsapps/sampleapp/build/sampleapp/scorpion/IADAANAA/app_bulletin_board.o
 .debug_loc     0x0000cb6d        0x0 /local/mnt/workspace/CRMBuilds/TZ.BF.4.0.3.c1-00005-M8996AAAAANAZT-1_20170110_230814/b/HK11/trustzone_images/core/securemsm/trustzone/qsapps/sampleapp/build/sampleapp/scorpion/IADAANAA/metadata.o
 .debug_loc     0x0000cb6d       0x62 /local/mnt/workspace/CRMBuilds/TZ.BF.4.0.3.c1-00005-M8996AAAAANAZT-1_20170110_230814/b/HK11/trustzone_images/core/kernel/libstd/build/sampleapp/scorpion/IADAANAA/libstd.lib(memscpy.o)
 .debug_loc     0x0000cbcf       0x57 /local/mnt/workspace/CRMBuilds/TZ.BF.4.0.3.c1-00005-M8996AAAAANAZT-1_20170110_230814/b/HK11/trustzone_images/core/kernel/libstd/build/sampleapp/scorpion/IADAANAA/libstd.lib(strlcpy.o)
 .debug_loc     0x0000cc26       0x62 /local/mnt/workspace/CRMBuilds/TZ.BF.4.0.3.c1-00005-M8996AAAAANAZT-1_20170110_230814/b/HK11/trustzone_images/core/kernel/libstd/build/sampleapp/scorpion/IADAANAA/libstd.lib(secure_memset.o)
 .debug_loc     0x0000cc88       0x6a /local/mnt/workspace/CRMBuilds/TZ.BF.4.0.3.c1-00005-M8996AAAAANAZT-1_20170110_230814/b/HK11/trustzone_images/core/kernel/libstd/build/sampleapp/scorpion/IADAANAA/libstd.lib(timesafe_memcmp.o)
 .debug_loc     0x0000ccf2       0x6a /local/mnt/workspace/CRMBuilds/TZ.BF.4.0.3.c1-00005-M8996AAAAANAZT-1_20170110_230814/b/HK11/trustzone_images/core/kernel/libstd/build/sampleapp/scorpion/IADAANAA/libstd.lib(timesafe_strncmp.o)
 .debug_loc     0x0000cd5c     0x165a /local/mnt/workspace/CRMBuilds/TZ.BF.4.0.3.c1-00005-M8996AAAAANAZT-1_20170110_230814/b/HK11/trustzone_images/core/securemsm/sse/qsee/SecureUI/build/sampleapp/scorpion/IADAANAA/secure_ui.lib(SecureUI.o)
 .debug_loc     0x0000e3b6      0x1bf /local/mnt/workspace/CRMBuilds/TZ.BF.4.0.3.c1-00005-M8996AAAAANAZT-1_20170110_230814/b/HK11/trustzone_images/core/securemsm/sse/qsee/SecureUILib/lib/build/sampleapp/scorpion/IADAANAA/secure_ui_lib.lib(SecureUILib.o)
 .debug_loc     0x0000e575       0xfb /local/mnt/workspace/CRMBuilds/TZ.BF.4.0.3.c1-00005-M8996AAAAANAZT-1_20170110_230814/b/HK11/trustzone_images/core/securemsm/sse/qsee/SecureUILib/lib/build/sampleapp/scorpion/IADAANAA/secure_ui_lib.lib(01_startTouch.o)
 .debug_loc     0x0000e670      0x161 /local/mnt/workspace/CRMBuilds/TZ.BF.4.0.3.c1-00005-M8996AAAAANAZT-1_20170110_230814/b/HK11/trustzone_images/core/securemsm/sse/qsee/SecureUILib/lib/build/sampleapp/scorpion/IADAANAA/secure_ui_lib.lib(02_processTouch.o)
 .debug_loc     0x0000e7d1       0xbf /local/mnt/workspace/CRMBuilds/TZ.BF.4.0.3.c1-00005-M8996AAAAANAZT-1_20170110_230814/b/HK11/trustzone_images/core/securemsm/sse/qsee/SecureUILib/lib/build/sampleapp/scorpion/IADAANAA/secure_ui_lib.lib(03_stopTouch.o)
 .debug_loc     0x0000e890      0x6b4 /local/mnt/workspace/CRMBuilds/TZ.BF.4.0.3.c1-00005-M8996AAAAANAZT-1_20170110_230814/b/HK11/trustzone_images/core/securemsm/trustzone/qsapps/libs/applib/common_applib/build/sampleapp/scorpion/IADAANAA/tzapp_entrylib.lib(common_applib.o)
 .debug_loc     0x0000ef44      0x250 /local/mnt/workspace/CRMBuilds/TZ.BF.4.0.3.c1-00005-M8996AAAAANAZT-1_20170110_230814/b/HK11/trustzone_images/core/securemsm/trustzone/qsapps/libs/applib/proxy/build/sampleapp/scorpion/IADAANAA/tzlib_proxy.lib(prxy_services.o)
 .debug_loc     0x0000f194      0x376 /local/mnt/workspace/CRMBuilds/TZ.BF.4.0.3.c1-00005-M8996AAAAANAZT-1_20170110_230814/b/HK11/trustzone_images/core/securemsm/trustzone/qsapps/libs/applib/proxy/build/sampleapp/scorpion/IADAANAA/tzlib_proxy.lib(prxy_qsee_shim.o)
 .debug_loc     0x0000f50a       0xab /local/mnt/workspace/CRMBuilds/TZ.BF.4.0.3.c1-00005-M8996AAAAANAZT-1_20170110_230814/b/HK11/trustzone_images/core/securemsm/trustzone/qsapps/libs/applib/proxy/build/sampleapp/scorpion/IADAANAA/tzlib_proxy.lib(prxy_ufaes.o)
 .debug_loc     0x0000f5b5       0x4c /local/mnt/workspace/CRMBuilds/TZ.BF.4.0.3.c1-00005-M8996AAAAANAZT-1_20170110_230814/b/HK11/trustzone_images/core/securemsm/trustzone/qsapps/libs/applib/proxy/build/sampleapp/scorpion/IADAANAA/tzlib_proxy.lib(prxy_ufdes.o)
 .debug_loc     0x0000f601       0x5f /local/mnt/workspace/CRMBuilds/TZ.BF.4.0.3.c1-00005-M8996AAAAANAZT-1_20170110_230814/b/HK11/trustzone_images/core/securemsm/trustzone/qsapps/libs/applib/proxy/build/sampleapp/scorpion/IADAANAA/tzlib_proxy.lib(prxy_ufsha.o)
 .debug_loc     0x0000f660       0x26 /local/mnt/workspace/CRMBuilds/TZ.BF.4.0.3.c1-00005-M8996AAAAANAZT-1_20170110_230814/b/HK11/trustzone_images/core/securemsm/trustzone/qsapps/libs/applib/proxy/build/sampleapp/scorpion/IADAANAA/tzlib_proxy.lib(prxy_secmath.o)
 .debug_loc     0x0000f686       0xab /local/mnt/workspace/CRMBuilds/TZ.BF.4.0.3.c1-00005-M8996AAAAANAZT-1_20170110_230814/b/HK11/trustzone_images/core/securemsm/trustzone/qsapps/libs/applib/proxy/build/sampleapp/scorpion/IADAANAA/tzlib_proxy.lib(prxy_secrsa.o)
 .debug_loc     0x0000f731      0x130 /local/mnt/workspace/CRMBuilds/TZ.BF.4.0.3.c1-00005-M8996AAAAANAZT-1_20170110_230814/b/HK11/trustzone_images/core/securemsm/trustzone/qsapps/libs/applib/proxy/build/sampleapp/scorpion/IADAANAA/tzlib_proxy.lib(prxy_ecc.o)
 .debug_loc     0x0000f861      0x1ea /local/mnt/workspace/CRMBuilds/TZ.BF.4.0.3.c1-00005-M8996AAAAANAZT-1_20170110_230814/b/HK11/trustzone_images/core/securemsm/trustzone/qsapps/libs/applib/qsee/build/sampleapp/scorpion/IADAANAA/tzapp_entrylib.lib(mink_shared_code.o)
 .debug_loc     0x0000fa4b      0x1fd /local/mnt/workspace/CRMBuilds/TZ.BF.4.0.3.c1-00005-M8996AAAAANAZT-1_20170110_230814/b/HK11/trustzone_images/core/securemsm/trustzone/qsapps/libs/applib/qsee/build/sampleapp/scorpion/IADAANAA/tzapp_entrylib.lib(qsee_env.o)
 .debug_loc     0x0000fc48      0x3e0 /local/mnt/workspace/CRMBuilds/TZ.BF.4.0.3.c1-00005-M8996AAAAANAZT-1_20170110_230814/b/HK11/trustzone_images/core/securemsm/trustzone/qsapps/libs/applib/qsee/build/sampleapp/scorpion/IADAANAA/tzapp_entrylib.lib(qsee_core_shim.o)
 .debug_loc     0x00010028      0x170 /local/mnt/workspace/CRMBuilds/TZ.BF.4.0.3.c1-00005-M8996AAAAANAZT-1_20170110_230814/b/HK11/trustzone_images/core/securemsm/trustzone/qsapps/libs/applib/qsee/build/sampleapp/scorpion/IADAANAA/tzapp_entrylib.lib(qsee_deviceid.o)
 .debug_loc     0x00010198       0x7b /local/mnt/workspace/CRMBuilds/TZ.BF.4.0.3.c1-00005-M8996AAAAANAZT-1_20170110_230814/b/HK11/trustzone_images/core/securemsm/trustzone/qsapps/libs/applib/qsee/build/sampleapp/scorpion/IADAANAA/tzapp_entrylib.lib(qsee_prng.o)
 .debug_loc     0x00010213       0xc3 /local/mnt/workspace/CRMBuilds/TZ.BF.4.0.3.c1-00005-M8996AAAAANAZT-1_20170110_230814/b/HK11/trustzone_images/core/securemsm/trustzone/qsapps/libs/applib/qsee/build/sampleapp/scorpion/IADAANAA/tzapp_entrylib.lib(qsee_secdisp.o)
 .debug_loc     0x000102d6      0x1d1 /local/mnt/workspace/CRMBuilds/TZ.BF.4.0.3.c1-00005-M8996AAAAANAZT-1_20170110_230814/b/HK11/trustzone_images/core/securemsm/trustzone/qsapps/libs/applib/qsee/build/sampleapp/scorpion/IADAANAA/tzapp_entrylib.lib(qsee_nsmem.o)
 .debug_loc     0x000104a7      0x170 /local/mnt/workspace/CRMBuilds/TZ.BF.4.0.3.c1-00005-M8996AAAAANAZT-1_20170110_230814/b/HK11/trustzone_images/core/securemsm/trustzone/qsapps/libs/applib/qsee/build/sampleapp/scorpion/IADAANAA/tzapp_entrylib.lib(qsee_cmac.o)
 .debug_loc     0x00010617       0x96 /local/mnt/workspace/CRMBuilds/TZ.BF.4.0.3.c1-00005-M8996AAAAANAZT-1_20170110_230814/b/HK11/trustzone_images/core/securemsm/trustzone/qsapps/libs/applib/qsee/build/sampleapp/scorpion/IADAANAA/tzapp_entrylib.lib(qsee_crypto_shim.o)
 .debug_loc     0x000106ad        0x0 /local/mnt/workspace/CRMBuilds/TZ.BF.4.0.3.c1-00005-M8996AAAAANAZT-1_20170110_230814/b/HK11/trustzone_images/core/securemsm/trustzone/qsapps/libs/applib/qsee/build/sampleapp/scorpion/IADAANAA/tzapp_entrylib.lib(qsee_timer_shim.o)
 .debug_loc     0x000106ad      0x3b7 /local/mnt/workspace/CRMBuilds/TZ.BF.4.0.3.c1-00005-M8996AAAAANAZT-1_20170110_230814/b/HK11/trustzone_images/core/securemsm/trustzone/qsapps/libs/applib/qsee/build/sampleapp/scorpion/IADAANAA/tzapp_entrylib.lib(qsee_comstr.o)
 .debug_loc     0x00010a64      0x17d /local/mnt/workspace/CRMBuilds/TZ.BF.4.0.3.c1-00005-M8996AAAAANAZT-1_20170110_230814/b/HK11/trustzone_images/core/securemsm/trustzone/qsapps/libs/applib/qsee/build/sampleapp/scorpion/IADAANAA/tzapp_entrylib.lib(stor.o)
 .debug_loc     0x00010be1      0xc8b /local/mnt/workspace/CRMBuilds/TZ.BF.4.0.3.c1-00005-M8996AAAAANAZT-1_20170110_230814/b/HK11/trustzone_images/core/securemsm/trustzone/qsapps/libs/applib/qsee/build/sampleapp/scorpion/IADAANAA/tzapp_entrylib.lib(stor_gpt.o)
 .debug_loc     0x0001186c      0x2d0 /local/mnt/workspace/CRMBuilds/TZ.BF.4.0.3.c1-00005-M8996AAAAANAZT-1_20170110_230814/b/HK11/trustzone_images/core/securemsm/trustzone/qsapps/libs/applib/qsee/build/sampleapp/scorpion/IADAANAA/tzapp_entrylib.lib(stor_rpmbw.o)
 .debug_loc     0x00011b3c       0xf0 /local/mnt/workspace/CRMBuilds/TZ.BF.4.0.3.c1-00005-M8996AAAAANAZT-1_20170110_230814/b/HK11/trustzone_images/core/securemsm/trustzone/qsapps/libs/applib/qsee/build/sampleapp/scorpion/IADAANAA/tzapp_entrylib.lib(qsee_counter_shim.o)
 .debug_loc     0x00011c2c      0x6af /local/mnt/workspace/CRMBuilds/TZ.BF.4.0.3.c1-00005-M8996AAAAANAZT-1_20170110_230814/b/HK11/trustzone_images/core/securemsm/trustzone/qsapps/libs/applib/qsee/build/sampleapp/scorpion/IADAANAA/tzapp_entrylib.lib(qsee_cipher.o)
 .debug_loc     0x000122db      0x694 /local/mnt/workspace/CRMBuilds/TZ.BF.4.0.3.c1-00005-M8996AAAAANAZT-1_20170110_230814/b/HK11/trustzone_images/core/securemsm/trustzone/qsapps/libs/applib/qsee/build/sampleapp/scorpion/IADAANAA/tzapp_entrylib.lib(qsee_hash.o)
 .debug_loc     0x0001296f      0x386 /local/mnt/workspace/CRMBuilds/TZ.BF.4.0.3.c1-00005-M8996AAAAANAZT-1_20170110_230814/b/HK11/trustzone_images/core/securemsm/trustzone/qsapps/libs/applib/qsee/build/sampleapp/scorpion/IADAANAA/tzapp_entrylib.lib(qsee_hmac.o)
 .debug_loc     0x00012cf5      0x4db /local/mnt/workspace/CRMBuilds/TZ.BF.4.0.3.c1-00005-M8996AAAAANAZT-1_20170110_230814/b/HK11/trustzone_images/core/securemsm/trustzone/qsapps/libs/applib/qsee/build/sampleapp/scorpion/IADAANAA/tzapp_entrylib.lib(qsee_i2c.o)
 .debug_loc     0x000131d0      0x549 /local/mnt/workspace/CRMBuilds/TZ.BF.4.0.3.c1-00005-M8996AAAAANAZT-1_20170110_230814/b/HK11/trustzone_images/core/securemsm/trustzone/qsapps/libs/applib/qsee/build/sampleapp/scorpion/IADAANAA/tzapp_entrylib.lib(qsee_spi.o)
 .debug_loc     0x00013719       0x8f /local/mnt/workspace/CRMBuilds/TZ.BF.4.0.3.c1-00005-M8996AAAAANAZT-1_20170110_230814/b/HK11/trustzone_images/core/securemsm/trustzone/qsapps/libs/applib/qsee/build/sampleapp/scorpion/IADAANAA/tzapp_entrylib.lib(qsee_bulletin_board_shim.o)
 .debug_loc     0x000137a8      0x321 /local/mnt/workspace/CRMBuilds/TZ.BF.4.0.3.c1-00005-M8996AAAAANAZT-1_20170110_230814/b/HK11/trustzone_images/core/securemsm/trustzone/qsapps/libs/applib/qsee/build/sampleapp/scorpion/IADAANAA/tzapp_entrylib.lib(qsee_tlmm.o)
 .debug_loc     0x00013ac9       0x6b /local/mnt/workspace/CRMBuilds/TZ.BF.4.0.3.c1-00005-M8996AAAAANAZT-1_20170110_230814/b/HK11/trustzone_images/core/securemsm/trustzone/qsapps/libs/applib/qsee/build/sampleapp/scorpion/IADAANAA/tzapp_entrylib.lib(qsee_sync.o)
 .debug_loc     0x00013b34       0xf0 /local/mnt/workspace/CRMBuilds/TZ.BF.4.0.3.c1-00005-M8996AAAAANAZT-1_20170110_230814/b/HK11/trustzone_images/core/securemsm/trustzone/qsapps/libs/applib/qsee/build/sampleapp/scorpion/IADAANAA/tzapp_entrylib.lib(qsee_dcache.o)
 .debug_loc     0x00013c24       0xa8 /local/mnt/workspace/CRMBuilds/TZ.BF.4.0.3.c1-00005-M8996AAAAANAZT-1_20170110_230814/b/HK11/trustzone_images/core/securemsm/trustzone/qsapps/libs/applib/qsee/build/sampleapp/scorpion/IADAANAA/tzapp_entrylib.lib(qsee_shared_buffer.o)
 .debug_loc     0x00013ccc      0x1e1 /local/mnt/workspace/CRMBuilds/TZ.BF.4.0.3.c1-00005-M8996AAAAANAZT-1_20170110_230814/b/HK11/trustzone_images/core/securemsm/trustzone/qsapps/libs/applib/qsee/build/sampleapp/scorpion/IADAANAA/tzapp_entrylib.lib(qsee_oem_buffer.o)
 .debug_loc     0x00013ead      0x17a /local/mnt/workspace/CRMBuilds/TZ.BF.4.0.3.c1-00005-M8996AAAAANAZT-1_20170110_230814/b/HK11/trustzone_images/core/securemsm/trustzone/qsapps/libs/applib/qsee/build/sampleapp/scorpion/IADAANAA/tzapp_entrylib.lib(qsee_intmask.o)
 .debug_loc     0x00014027       0xa8 /local/mnt/workspace/CRMBuilds/TZ.BF.4.0.3.c1-00005-M8996AAAAANAZT-1_20170110_230814/b/HK11/trustzone_images/core/securemsm/trustzone/qsapps/libs/applib/qsee/build/sampleapp/scorpion/IADAANAA/tzapp_entrylib.lib(qsee_trans_ns_addr.o)
 .debug_loc     0x000140cf      0x2dc /local/mnt/workspace/CRMBuilds/TZ.BF.4.0.3.c1-00005-M8996AAAAANAZT-1_20170110_230814/b/HK11/trustzone_images/core/securemsm/trustzone/qsapps/libs/applib/qsee/build/sampleapp/scorpion/IADAANAA/tzapp_entrylib.lib(qsee_appmessage.o)
 .debug_loc     0x000143ab      0x57b /local/mnt/workspace/CRMBuilds/TZ.BF.4.0.3.c1-00005-M8996AAAAANAZT-1_20170110_230814/b/HK11/trustzone_images/core/securemsm/trustzone/qsapps/libs/applib/qsee/build/sampleapp/scorpion/IADAANAA/tzapp_entrylib.lib(sfs_api.o)
 .debug_loc     0x00014926       0xf0 /local/mnt/workspace/CRMBuilds/TZ.BF.4.0.3.c1-00005-M8996AAAAANAZT-1_20170110_230814/b/HK11/trustzone_images/core/securemsm/trustzone/qsapps/libs/applib/qsee/build/sampleapp/scorpion/IADAANAA/tzapp_entrylib.lib(tzapp_lib_main.o)
 .debug_loc     0x00014a16      0x3a1 /local/mnt/workspace/CRMBuilds/TZ.BF.4.0.3.c1-00005-M8996AAAAANAZT-1_20170110_230814/b/HK11/trustzone_images/core/securemsm/trustzone/qsapps/libs/biometric/build/sampleapp/scorpion/IADAANAA/biometric_lib.lib(biometric.o)
 .debug_loc     0x00014db7      0x5ae /local/mnt/workspace/CRMBuilds/TZ.BF.4.0.3.c1-00005-M8996AAAAANAZT-1_20170110_230814/b/HK11/trustzone_images/core/securemsm/trustzone/qsapps/libs/biometric/build/sampleapp/scorpion/IADAANAA/biometric_lib.lib(biometric_serializer.o)
 .debug_loc     0x00015365       0x1e /local/mnt/workspace/CRMBuilds/TZ.BF.4.0.3.c1-00005-M8996AAAAANAZT-1_20170110_230814/b/HK11/trustzone_images/core/securemsm/trustzone/qsee/mink/libstd/build/sampleapp/scorpion/IADAANAA/libstd.lib(strnlen.o)
 .debug_loc     0x00015383       0x80 /local/mnt/workspace/CRMBuilds/TZ.BF.4.0.3.c1-00005-M8996AAAAANAZT-1_20170110_230814/b/HK11/trustzone_images/core/securemsm/trustzone/qsee/mink/libstd/build/sampleapp/scorpion/IADAANAA/libstd.lib(memcmp.o)
 .debug_loc     0x00015403       0x47 /local/mnt/workspace/CRMBuilds/TZ.BF.4.0.3.c1-00005-M8996AAAAANAZT-1_20170110_230814/b/HK11/trustzone_images/core/securemsm/trustzone/qsee/mink/libstd/build/sampleapp/scorpion/IADAANAA/libstd.lib(strlen.o)
 .debug_loc     0x0001544a       0x13 /local/mnt/workspace/CRMBuilds/TZ.BF.4.0.3.c1-00005-M8996AAAAANAZT-1_20170110_230814/b/HK11/trustzone_images/core/securemsm/trustzone/qsee/mink/libstd/build/sampleapp/scorpion/IADAANAA/libstd.lib(strcmp.o)
 .debug_loc     0x0001545d       0x5f /local/mnt/workspace/CRMBuilds/TZ.BF.4.0.3.c1-00005-M8996AAAAANAZT-1_20170110_230814/b/HK11/trustzone_images/core/securemsm/trustzone/qsee/mink/libstd/build/sampleapp/scorpion/IADAANAA/libstd.lib(strncmp.o)
 .debug_loc     0x000154bc      0xa65 /local/mnt/workspace/CRMBuilds/TZ.BF.4.0.3.c1-00005-M8996AAAAANAZT-1_20170110_230814/b/HK11/trustzone_images/core/securemsm/trustzone/qsee/mink/libstd/build/sampleapp/scorpion/IADAANAA/libstd.lib(printf.o)
 .debug_loc     0x00015f21       0x9e /local/mnt/workspace/CRMBuilds/TZ.BF.4.0.3.c1-00005-M8996AAAAANAZT-1_20170110_230814/b/HK11/trustzone_images/core/securemsm/trustzone/qsee/mink/libstd/build/sampleapp/scorpion/IADAANAA/libstd.lib(memchr.o)
 .debug_loc     0x00015fbf       0xb8 /local/mnt/workspace/CRMBuilds/TZ.BF.4.0.3.c1-00005-M8996AAAAANAZT-1_20170110_230814/b/HK11/trustzone_images/core/securemsm/sse/qsee/SecureTouch/drTs/lib/build/sampleapp/scorpion/IADAANAA/touch_lib.lib(01_open.o)
 .debug_loc     0x00016077       0x71 /local/mnt/workspace/CRMBuilds/TZ.BF.4.0.3.c1-00005-M8996AAAAANAZT-1_20170110_230814/b/HK11/trustzone_images/core/securemsm/sse/qsee/SecureTouch/drTs/lib/build/sampleapp/scorpion/IADAANAA/touch_lib.lib(02_close.o)
 .debug_loc     0x000160e8      0x12f /local/mnt/workspace/CRMBuilds/TZ.BF.4.0.3.c1-00005-M8996AAAAANAZT-1_20170110_230814/b/HK11/trustzone_images/core/securemsm/sse/qsee/SecureTouch/drTs/lib/build/sampleapp/scorpion/IADAANAA/touch_lib.lib(03_getData.o)
 .debug_loc     0x00016217      0x423 /local/mnt/workspace/CRMBuilds/TZ.BF.4.0.3.c1-00005-M8996AAAAANAZT-1_20170110_230814/b/HK11/trustzone_images/core/securemsm/trustzone/qsapps/libs/applib/common_applib/build/sampleapp/scorpion/IADAANAA/tzapp_entrylib.lib(gpPersistObjCommon.o)
 .debug_loc     0x0001663a      0xa03 /local/mnt/workspace/CRMBuilds/TZ.BF.4.0.3.c1-00005-M8996AAAAANAZT-1_20170110_230814/b/HK11/trustzone_images/core/securemsm/trustzone/qsapps/libs/applib/common_applib/build/sampleapp/scorpion/IADAANAA/tzapp_entrylib.lib(gpPersistentObjects.o)
 .debug_loc     0x0001703d     0x1a86 /local/mnt/workspace/CRMBuilds/TZ.BF.4.0.3.c1-00005-M8996AAAAANAZT-1_20170110_230814/b/HK11/trustzone_images/core/securemsm/trustzone/qsapps/libs/applib/common_applib/build/sampleapp/scorpion/IADAANAA/tzapp_entrylib.lib(gpPersistObjData.o)
 .debug_loc     0x00018ac3      0x51f /local/mnt/workspace/CRMBuilds/TZ.BF.4.0.3.c1-00005-M8996AAAAANAZT-1_20170110_230814/b/HK11/trustzone_images/core/securemsm/trustzone/qsapps/libs/applib/common_applib/build/sampleapp/scorpion/IADAANAA/tzapp_entrylib.lib(gpPersistObjHandler.o)
 .debug_loc     0x00018fe2      0xc13 /local/mnt/workspace/CRMBuilds/TZ.BF.4.0.3.c1-00005-M8996AAAAANAZT-1_20170110_230814/b/HK11/trustzone_images/core/securemsm/trustzone/qsapps/libs/applib/common_applib/build/sampleapp/scorpion/IADAANAA/tzapp_entrylib.lib(gpPersistObjIndex.o)
 .debug_loc     0x00019bf5      0x90c /local/mnt/workspace/CRMBuilds/TZ.BF.4.0.3.c1-00005-M8996AAAAANAZT-1_20170110_230814/b/HK11/trustzone_images/core/securemsm/trustzone/qsapps/libs/applib/common_applib/build/sampleapp/scorpion/IADAANAA/tzapp_entrylib.lib(gpPersistObjVersion.o)
 .debug_loc     0x0001a501      0x92e /local/mnt/workspace/CRMBuilds/TZ.BF.4.0.3.c1-00005-M8996AAAAANAZT-1_20170110_230814/b/HK11/trustzone_images/core/securemsm/trustzone/qsapps/libs/applib/common_applib/build/sampleapp/scorpion/IADAANAA/tzapp_entrylib.lib(gpPersistObjCrypto.o)
 .debug_loc     0x0001ae2f      0x515 /local/mnt/workspace/CRMBuilds/TZ.BF.4.0.3.c1-00005-M8996AAAAANAZT-1_20170110_230814/b/HK11/trustzone_images/core/securemsm/trustzone/qsapps/libs/applib/common_applib/build/sampleapp/scorpion/IADAANAA/tzapp_entrylib.lib(gpPersistObjFileIO.o)
 .debug_loc     0x0001b344      0x3fb /local/mnt/workspace/CRMBuilds/TZ.BF.4.0.3.c1-00005-M8996AAAAANAZT-1_20170110_230814/b/HK11/trustzone_images/core/securemsm/trustzone/qsapps/libs/applib/common_applib/build/sampleapp/scorpion/IADAANAA/tzapp_entrylib.lib(gpFileService.o)
 .debug_loc     0x0001b73f       0x78 /local/mnt/workspace/CRMBuilds/TZ.BF.4.0.3.c1-00005-M8996AAAAANAZT-1_20170110_230814/b/HK11/trustzone_images/core/securemsm/trustzone/qsapps/libs/applib/qsee/build/sampleapp/scorpion/IADAANAA/tzapp_entrylib.lib(qsee_cfg_prop_shim.o)
 .debug_loc     0x0001b7b7       0x13 /local/mnt/workspace/CRMBuilds/TZ.BF.4.0.3.c1-00005-M8996AAAAANAZT-1_20170110_230814/b/HK11/trustzone_images/core/securemsm/trustzone/qsapps/libs/applib/qsee/build/sampleapp/scorpion/IADAANAA/tzapp_entrylib.lib(gpPersistObjPanic.o)
 .debug_loc     0x0001b7ca       0xa1 /local/mnt/workspace/CRMBuilds/TZ.BF.4.0.3.c1-00005-M8996AAAAANAZT-1_20170110_230814/b/HK11/trustzone_images/core/securemsm/trustzone/qsee/mink/libstd/build/sampleapp/scorpion/IADAANAA/libstd.lib(strlcat.o)
 .debug_loc     0x0001b86b       0x65 /local/mnt/workspace/CRMBuilds/TZ.BF.4.0.3.c1-00005-M8996AAAAANAZT-1_20170110_230814/b/HK11/trustzone_images/core/securemsm/trustzone/qsee/mink/libstd/build/sampleapp/scorpion/IADAANAA/libstd.lib(memset.o)
 .debug_loc     0x0001b8d0      0x311 /local/mnt/workspace/CRMBuilds/TZ.BF.4.0.3.c1-00005-M8996AAAAANAZT-1_20170110_230814/b/HK11/trustzone_images/core/securemsm/trustzone/qsee/mink/libstd/build/sampleapp/scorpion/IADAANAA/libstd.lib(memcpy.o)
 .debug_loc     0x0001bbe1       0xd8 /local/mnt/workspace/CRMBuilds/TZ.BF.4.0.3.c1-00005-M8996AAAAANAZT-1_20170110_230814/b/HK11/trustzone_images/core/securemsm/trustzone/qsee/mink/libstd/build/sampleapp/scorpion/IADAANAA/libstd.lib(memmove.o)
 .debug_loc     0x0001bcb9      0x5c0 /local/mnt/workspace/CRMBuilds/TZ.BF.4.0.3.c1-00005-M8996AAAAANAZT-1_20170110_230814/b/HK11/trustzone_images/core/securemsm/sse/SecureTouch/controller/build/sampleapp/scorpion/IADAANAA/drts_controller_msm8996.lib(atmel_mxt_ts.o)
 .debug_loc     0x0001c279      0x692 /local/mnt/workspace/CRMBuilds/TZ.BF.4.0.3.c1-00005-M8996AAAAANAZT-1_20170110_230814/b/HK11/trustzone_images/core/securemsm/sse/SecureTouch/controller/build/sampleapp/scorpion/IADAANAA/drts_controller_msm8996.lib(synaptics_ts.o)
 .debug_loc     0x0001c90b       0x8f /local/mnt/workspace/CRMBuilds/TZ.BF.4.0.3.c1-00005-M8996AAAAANAZT-1_20170110_230814/b/HK11/trustzone_images/core/securemsm/sse/log/build/sampleapp/scorpion/IADAANAA/sselog.lib(sselog.o)
 .debug_loc     0x0001c99a      0x16b /local/mnt/workspace/CRMBuilds/TZ.BF.4.0.3.c1-00005-M8996AAAAANAZT-1_20170110_230814/b/HK11/trustzone_images/core/securemsm/sse/qsee/SecureTouch/drTs/controller/build/sampleapp/scorpion/IADAANAA/touch_controller_i2c_msm8996.lib(atmel_mxt_ts_i2c.o)
 .debug_loc     0x0001cb05      0x124 /local/mnt/workspace/CRMBuilds/TZ.BF.4.0.3.c1-00005-M8996AAAAANAZT-1_20170110_230814/b/HK11/trustzone_images/core/securemsm/sse/qsee/SecureTouch/drTs/controller/build/sampleapp/scorpion/IADAANAA/touch_controller_i2c_msm8996.lib(synaptics_ts_i2c.o)

.debug_ranges   0x00000000     0x3420
 .debug_ranges  0x00000000       0x58 /local/mnt/workspace/CRMBuilds/TZ.BF.4.0.3.c1-00005-M8996AAAAANAZT-1_20170110_230814/b/HK11/trustzone_images/core/securemsm/trustzone/qsapps/sampleapp/build/sampleapp/scorpion/IADAANAA/app_main.o
 .debug_ranges  0x00000058       0x38 /local/mnt/workspace/CRMBuilds/TZ.BF.4.0.3.c1-00005-M8996AAAAANAZT-1_20170110_230814/b/HK11/trustzone_images/core/securemsm/trustzone/qsapps/sampleapp/build/sampleapp/scorpion/IADAANAA/app_smplserv_test.o
 .debug_ranges  0x00000090       0x30 /local/mnt/workspace/CRMBuilds/TZ.BF.4.0.3.c1-00005-M8996AAAAANAZT-1_20170110_230814/b/HK11/trustzone_images/core/securemsm/trustzone/qsapps/sampleapp/build/sampleapp/scorpion/IADAANAA/app_smplcert_test.o
 .debug_ranges  0x000000c0       0x58 /local/mnt/workspace/CRMBuilds/TZ.BF.4.0.3.c1-00005-M8996AAAAANAZT-1_20170110_230814/b/HK11/trustzone_images/core/securemsm/trustzone/qsapps/sampleapp/build/sampleapp/scorpion/IADAANAA/app_crypto.o
 .debug_ranges  0x00000118       0x78 /local/mnt/workspace/CRMBuilds/TZ.BF.4.0.3.c1-00005-M8996AAAAANAZT-1_20170110_230814/b/HK11/trustzone_images/core/securemsm/trustzone/qsapps/sampleapp/build/sampleapp/scorpion/IADAANAA/app_sfs.o
 .debug_ranges  0x00000190        0x0 /local/mnt/workspace/CRMBuilds/TZ.BF.4.0.3.c1-00005-M8996AAAAANAZT-1_20170110_230814/b/HK11/trustzone_images/core/securemsm/trustzone/qsapps/sampleapp/build/sampleapp/scorpion/IADAANAA/app_rsa.o
 .debug_ranges  0x00000190       0x30 /local/mnt/workspace/CRMBuilds/TZ.BF.4.0.3.c1-00005-M8996AAAAANAZT-1_20170110_230814/b/HK11/trustzone_images/core/securemsm/trustzone/qsapps/sampleapp/build/sampleapp/scorpion/IADAANAA/qsee_api_tests.o
 .debug_ranges  0x000001c0        0x0 /local/mnt/workspace/CRMBuilds/TZ.BF.4.0.3.c1-00005-M8996AAAAANAZT-1_20170110_230814/b/HK11/trustzone_images/core/securemsm/trustzone/qsapps/sampleapp/build/sampleapp/scorpion/IADAANAA/app_cmnlib.o
 .debug_ranges  0x000001c0        0x0 /local/mnt/workspace/CRMBuilds/TZ.BF.4.0.3.c1-00005-M8996AAAAANAZT-1_20170110_230814/b/HK11/trustzone_images/core/securemsm/trustzone/qsapps/sampleapp/build/sampleapp/scorpion/IADAANAA/app_message_passing.o
 .debug_ranges  0x000001c0        0x0 /local/mnt/workspace/CRMBuilds/TZ.BF.4.0.3.c1-00005-M8996AAAAANAZT-1_20170110_230814/b/HK11/trustzone_images/core/securemsm/trustzone/qsapps/sampleapp/build/sampleapp/scorpion/IADAANAA/app_fuses.o
 .debug_ranges  0x000001c0      0x338 /local/mnt/workspace/CRMBuilds/TZ.BF.4.0.3.c1-00005-M8996AAAAANAZT-1_20170110_230814/b/HK11/trustzone_images/core/securemsm/trustzone/qsapps/sampleapp/build/sampleapp/scorpion/IADAANAA/app_stor.o
 .debug_ranges  0x000004f8        0x0 /local/mnt/workspace/CRMBuilds/TZ.BF.4.0.3.c1-00005-M8996AAAAANAZT-1_20170110_230814/b/HK11/trustzone_images/core/securemsm/trustzone/qsapps/sampleapp/build/sampleapp/scorpion/IADAANAA/app_content_protection.o
 .debug_ranges  0x000004f8       0x68 /local/mnt/workspace/CRMBuilds/TZ.BF.4.0.3.c1-00005-M8996AAAAANAZT-1_20170110_230814/b/HK11/trustzone_images/core/securemsm/trustzone/qsapps/sampleapp/build/sampleapp/scorpion/IADAANAA/app_secure_ui.o
 .debug_ranges  0x00000560        0x0 /local/mnt/workspace/CRMBuilds/TZ.BF.4.0.3.c1-00005-M8996AAAAANAZT-1_20170110_230814/b/HK11/trustzone_images/core/securemsm/trustzone/qsapps/sampleapp/build/sampleapp/scorpion/IADAANAA/app_bio_lib.o
 .debug_ranges  0x00000560        0x0 /local/mnt/workspace/CRMBuilds/TZ.BF.4.0.3.c1-00005-M8996AAAAANAZT-1_20170110_230814/b/HK11/trustzone_images/core/securemsm/trustzone/qsapps/sampleapp/build/sampleapp/scorpion/IADAANAA/app_bulletin_board.o
 .debug_ranges  0x00000560        0x0 /local/mnt/workspace/CRMBuilds/TZ.BF.4.0.3.c1-00005-M8996AAAAANAZT-1_20170110_230814/b/HK11/trustzone_images/core/securemsm/trustzone/qsapps/sampleapp/build/sampleapp/scorpion/IADAANAA/metadata.o
 .debug_ranges  0x00000560        0x0 /local/mnt/workspace/CRMBuilds/TZ.BF.4.0.3.c1-00005-M8996AAAAANAZT-1_20170110_230814/b/HK11/trustzone_images/core/kernel/libstd/build/sampleapp/scorpion/IADAANAA/libstd.lib(memscpy.o)
 .debug_ranges  0x00000560        0x0 /local/mnt/workspace/CRMBuilds/TZ.BF.4.0.3.c1-00005-M8996AAAAANAZT-1_20170110_230814/b/HK11/trustzone_images/core/kernel/libstd/build/sampleapp/scorpion/IADAANAA/libstd.lib(strlcpy.o)
 .debug_ranges  0x00000560        0x0 /local/mnt/workspace/CRMBuilds/TZ.BF.4.0.3.c1-00005-M8996AAAAANAZT-1_20170110_230814/b/HK11/trustzone_images/core/kernel/libstd/build/sampleapp/scorpion/IADAANAA/libstd.lib(secure_memset.o)
 .debug_ranges  0x00000560        0x0 /local/mnt/workspace/CRMBuilds/TZ.BF.4.0.3.c1-00005-M8996AAAAANAZT-1_20170110_230814/b/HK11/trustzone_images/core/kernel/libstd/build/sampleapp/scorpion/IADAANAA/libstd.lib(timesafe_memcmp.o)
 .debug_ranges  0x00000560        0x0 /local/mnt/workspace/CRMBuilds/TZ.BF.4.0.3.c1-00005-M8996AAAAANAZT-1_20170110_230814/b/HK11/trustzone_images/core/kernel/libstd/build/sampleapp/scorpion/IADAANAA/libstd.lib(timesafe_strncmp.o)
 .debug_ranges  0x00000560      0xe30 /local/mnt/workspace/CRMBuilds/TZ.BF.4.0.3.c1-00005-M8996AAAAANAZT-1_20170110_230814/b/HK11/trustzone_images/core/securemsm/sse/qsee/SecureUI/build/sampleapp/scorpion/IADAANAA/secure_ui.lib(SecureUI.o)
 .debug_ranges  0x00001390        0x0 /local/mnt/workspace/CRMBuilds/TZ.BF.4.0.3.c1-00005-M8996AAAAANAZT-1_20170110_230814/b/HK11/trustzone_images/core/securemsm/sse/qsee/SecureUILib/lib/build/sampleapp/scorpion/IADAANAA/secure_ui_lib.lib(SecureUILib.o)
 .debug_ranges  0x00001390        0x0 /local/mnt/workspace/CRMBuilds/TZ.BF.4.0.3.c1-00005-M8996AAAAANAZT-1_20170110_230814/b/HK11/trustzone_images/core/securemsm/sse/qsee/SecureUILib/lib/build/sampleapp/scorpion/IADAANAA/secure_ui_lib.lib(01_startTouch.o)
 .debug_ranges  0x00001390       0x50 /local/mnt/workspace/CRMBuilds/TZ.BF.4.0.3.c1-00005-M8996AAAAANAZT-1_20170110_230814/b/HK11/trustzone_images/core/securemsm/sse/qsee/SecureUILib/lib/build/sampleapp/scorpion/IADAANAA/secure_ui_lib.lib(02_processTouch.o)
 .debug_ranges  0x000013e0        0x0 /local/mnt/workspace/CRMBuilds/TZ.BF.4.0.3.c1-00005-M8996AAAAANAZT-1_20170110_230814/b/HK11/trustzone_images/core/securemsm/sse/qsee/SecureUILib/lib/build/sampleapp/scorpion/IADAANAA/secure_ui_lib.lib(03_stopTouch.o)
 .debug_ranges  0x000013e0       0xf0 /local/mnt/workspace/CRMBuilds/TZ.BF.4.0.3.c1-00005-M8996AAAAANAZT-1_20170110_230814/b/HK11/trustzone_images/core/securemsm/trustzone/qsapps/libs/applib/common_applib/build/sampleapp/scorpion/IADAANAA/tzapp_entrylib.lib(common_applib.o)
 .debug_ranges  0x000014d0        0x0 /local/mnt/workspace/CRMBuilds/TZ.BF.4.0.3.c1-00005-M8996AAAAANAZT-1_20170110_230814/b/HK11/trustzone_images/core/securemsm/trustzone/qsapps/libs/applib/proxy/build/sampleapp/scorpion/IADAANAA/tzlib_proxy.lib(prxy_services.o)
 .debug_ranges  0x000014d0        0x0 /local/mnt/workspace/CRMBuilds/TZ.BF.4.0.3.c1-00005-M8996AAAAANAZT-1_20170110_230814/b/HK11/trustzone_images/core/securemsm/trustzone/qsapps/libs/applib/proxy/build/sampleapp/scorpion/IADAANAA/tzlib_proxy.lib(prxy_qsee_shim.o)
 .debug_ranges  0x000014d0        0x0 /local/mnt/workspace/CRMBuilds/TZ.BF.4.0.3.c1-00005-M8996AAAAANAZT-1_20170110_230814/b/HK11/trustzone_images/core/securemsm/trustzone/qsapps/libs/applib/proxy/build/sampleapp/scorpion/IADAANAA/tzlib_proxy.lib(prxy_ufaes.o)
 .debug_ranges  0x000014d0        0x0 /local/mnt/workspace/CRMBuilds/TZ.BF.4.0.3.c1-00005-M8996AAAAANAZT-1_20170110_230814/b/HK11/trustzone_images/core/securemsm/trustzone/qsapps/libs/applib/proxy/build/sampleapp/scorpion/IADAANAA/tzlib_proxy.lib(prxy_ufdes.o)
 .debug_ranges  0x000014d0        0x0 /local/mnt/workspace/CRMBuilds/TZ.BF.4.0.3.c1-00005-M8996AAAAANAZT-1_20170110_230814/b/HK11/trustzone_images/core/securemsm/trustzone/qsapps/libs/applib/proxy/build/sampleapp/scorpion/IADAANAA/tzlib_proxy.lib(prxy_ufsha.o)
 .debug_ranges  0x000014d0        0x0 /local/mnt/workspace/CRMBuilds/TZ.BF.4.0.3.c1-00005-M8996AAAAANAZT-1_20170110_230814/b/HK11/trustzone_images/core/securemsm/trustzone/qsapps/libs/applib/proxy/build/sampleapp/scorpion/IADAANAA/tzlib_proxy.lib(prxy_secmath.o)
 .debug_ranges  0x000014d0        0x0 /local/mnt/workspace/CRMBuilds/TZ.BF.4.0.3.c1-00005-M8996AAAAANAZT-1_20170110_230814/b/HK11/trustzone_images/core/securemsm/trustzone/qsapps/libs/applib/proxy/build/sampleapp/scorpion/IADAANAA/tzlib_proxy.lib(prxy_secrsa.o)
 .debug_ranges  0x000014d0        0x0 /local/mnt/workspace/CRMBuilds/TZ.BF.4.0.3.c1-00005-M8996AAAAANAZT-1_20170110_230814/b/HK11/trustzone_images/core/securemsm/trustzone/qsapps/libs/applib/proxy/build/sampleapp/scorpion/IADAANAA/tzlib_proxy.lib(prxy_ecc.o)
 .debug_ranges  0x000014d0       0x90 /local/mnt/workspace/CRMBuilds/TZ.BF.4.0.3.c1-00005-M8996AAAAANAZT-1_20170110_230814/b/HK11/trustzone_images/core/securemsm/trustzone/qsapps/libs/applib/qsee/build/sampleapp/scorpion/IADAANAA/tzapp_entrylib.lib(mink_shared_code.o)
 .debug_ranges  0x00001560       0x20 /local/mnt/workspace/CRMBuilds/TZ.BF.4.0.3.c1-00005-M8996AAAAANAZT-1_20170110_230814/b/HK11/trustzone_images/core/securemsm/trustzone/qsapps/libs/applib/qsee/build/sampleapp/scorpion/IADAANAA/tzapp_entrylib.lib(qsee_env.o)
 .debug_ranges  0x00001580        0x0 /local/mnt/workspace/CRMBuilds/TZ.BF.4.0.3.c1-00005-M8996AAAAANAZT-1_20170110_230814/b/HK11/trustzone_images/core/securemsm/trustzone/qsapps/libs/applib/qsee/build/sampleapp/scorpion/IADAANAA/tzapp_entrylib.lib(qsee_core_shim.o)
 .debug_ranges  0x00001580       0xc0 /local/mnt/workspace/CRMBuilds/TZ.BF.4.0.3.c1-00005-M8996AAAAANAZT-1_20170110_230814/b/HK11/trustzone_images/core/securemsm/trustzone/qsapps/libs/applib/qsee/build/sampleapp/scorpion/IADAANAA/tzapp_entrylib.lib(qsee_deviceid.o)
 .debug_ranges  0x00001640       0x30 /local/mnt/workspace/CRMBuilds/TZ.BF.4.0.3.c1-00005-M8996AAAAANAZT-1_20170110_230814/b/HK11/trustzone_images/core/securemsm/trustzone/qsapps/libs/applib/qsee/build/sampleapp/scorpion/IADAANAA/tzapp_entrylib.lib(qsee_prng.o)
 .debug_ranges  0x00001670       0x18 /local/mnt/workspace/CRMBuilds/TZ.BF.4.0.3.c1-00005-M8996AAAAANAZT-1_20170110_230814/b/HK11/trustzone_images/core/securemsm/trustzone/qsapps/libs/applib/qsee/build/sampleapp/scorpion/IADAANAA/tzapp_entrylib.lib(qsee_secdisp.o)
 .debug_ranges  0x00001688       0xc8 /local/mnt/workspace/CRMBuilds/TZ.BF.4.0.3.c1-00005-M8996AAAAANAZT-1_20170110_230814/b/HK11/trustzone_images/core/securemsm/trustzone/qsapps/libs/applib/qsee/build/sampleapp/scorpion/IADAANAA/tzapp_entrylib.lib(qsee_nsmem.o)
 .debug_ranges  0x00001750       0x18 /local/mnt/workspace/CRMBuilds/TZ.BF.4.0.3.c1-00005-M8996AAAAANAZT-1_20170110_230814/b/HK11/trustzone_images/core/securemsm/trustzone/qsapps/libs/applib/qsee/build/sampleapp/scorpion/IADAANAA/tzapp_entrylib.lib(qsee_cmac.o)
 .debug_ranges  0x00001768        0x0 /local/mnt/workspace/CRMBuilds/TZ.BF.4.0.3.c1-00005-M8996AAAAANAZT-1_20170110_230814/b/HK11/trustzone_images/core/securemsm/trustzone/qsapps/libs/applib/qsee/build/sampleapp/scorpion/IADAANAA/tzapp_entrylib.lib(qsee_crypto_shim.o)
 .debug_ranges  0x00001768        0x0 /local/mnt/workspace/CRMBuilds/TZ.BF.4.0.3.c1-00005-M8996AAAAANAZT-1_20170110_230814/b/HK11/trustzone_images/core/securemsm/trustzone/qsapps/libs/applib/qsee/build/sampleapp/scorpion/IADAANAA/tzapp_entrylib.lib(qsee_timer_shim.o)
 .debug_ranges  0x00001768        0x0 /local/mnt/workspace/CRMBuilds/TZ.BF.4.0.3.c1-00005-M8996AAAAANAZT-1_20170110_230814/b/HK11/trustzone_images/core/securemsm/trustzone/qsapps/libs/applib/qsee/build/sampleapp/scorpion/IADAANAA/tzapp_entrylib.lib(qsee_comstr.o)
 .debug_ranges  0x00001768       0x30 /local/mnt/workspace/CRMBuilds/TZ.BF.4.0.3.c1-00005-M8996AAAAANAZT-1_20170110_230814/b/HK11/trustzone_images/core/securemsm/trustzone/qsapps/libs/applib/qsee/build/sampleapp/scorpion/IADAANAA/tzapp_entrylib.lib(stor.o)
 .debug_ranges  0x00001798        0x0 /local/mnt/workspace/CRMBuilds/TZ.BF.4.0.3.c1-00005-M8996AAAAANAZT-1_20170110_230814/b/HK11/trustzone_images/core/securemsm/trustzone/qsapps/libs/applib/qsee/build/sampleapp/scorpion/IADAANAA/tzapp_entrylib.lib(stor_gpt.o)
 .debug_ranges  0x00001798        0x0 /local/mnt/workspace/CRMBuilds/TZ.BF.4.0.3.c1-00005-M8996AAAAANAZT-1_20170110_230814/b/HK11/trustzone_images/core/securemsm/trustzone/qsapps/libs/applib/qsee/build/sampleapp/scorpion/IADAANAA/tzapp_entrylib.lib(stor_rpmbw.o)
 .debug_ranges  0x00001798        0x0 /local/mnt/workspace/CRMBuilds/TZ.BF.4.0.3.c1-00005-M8996AAAAANAZT-1_20170110_230814/b/HK11/trustzone_images/core/securemsm/trustzone/qsapps/libs/applib/qsee/build/sampleapp/scorpion/IADAANAA/tzapp_entrylib.lib(qsee_counter_shim.o)
 .debug_ranges  0x00001798      0x238 /local/mnt/workspace/CRMBuilds/TZ.BF.4.0.3.c1-00005-M8996AAAAANAZT-1_20170110_230814/b/HK11/trustzone_images/core/securemsm/trustzone/qsapps/libs/applib/qsee/build/sampleapp/scorpion/IADAANAA/tzapp_entrylib.lib(qsee_cipher.o)
 .debug_ranges  0x000019d0      0x130 /local/mnt/workspace/CRMBuilds/TZ.BF.4.0.3.c1-00005-M8996AAAAANAZT-1_20170110_230814/b/HK11/trustzone_images/core/securemsm/trustzone/qsapps/libs/applib/qsee/build/sampleapp/scorpion/IADAANAA/tzapp_entrylib.lib(qsee_hash.o)
 .debug_ranges  0x00001b00       0xa8 /local/mnt/workspace/CRMBuilds/TZ.BF.4.0.3.c1-00005-M8996AAAAANAZT-1_20170110_230814/b/HK11/trustzone_images/core/securemsm/trustzone/qsapps/libs/applib/qsee/build/sampleapp/scorpion/IADAANAA/tzapp_entrylib.lib(qsee_hmac.o)
 .debug_ranges  0x00001ba8      0x188 /local/mnt/workspace/CRMBuilds/TZ.BF.4.0.3.c1-00005-M8996AAAAANAZT-1_20170110_230814/b/HK11/trustzone_images/core/securemsm/trustzone/qsapps/libs/applib/qsee/build/sampleapp/scorpion/IADAANAA/tzapp_entrylib.lib(qsee_i2c.o)
 .debug_ranges  0x00001d30       0x98 /local/mnt/workspace/CRMBuilds/TZ.BF.4.0.3.c1-00005-M8996AAAAANAZT-1_20170110_230814/b/HK11/trustzone_images/core/securemsm/trustzone/qsapps/libs/applib/qsee/build/sampleapp/scorpion/IADAANAA/tzapp_entrylib.lib(qsee_spi.o)
 .debug_ranges  0x00001dc8        0x0 /local/mnt/workspace/CRMBuilds/TZ.BF.4.0.3.c1-00005-M8996AAAAANAZT-1_20170110_230814/b/HK11/trustzone_images/core/securemsm/trustzone/qsapps/libs/applib/qsee/build/sampleapp/scorpion/IADAANAA/tzapp_entrylib.lib(qsee_bulletin_board_shim.o)
 .debug_ranges  0x00001dc8      0x218 /local/mnt/workspace/CRMBuilds/TZ.BF.4.0.3.c1-00005-M8996AAAAANAZT-1_20170110_230814/b/HK11/trustzone_images/core/securemsm/trustzone/qsapps/libs/applib/qsee/build/sampleapp/scorpion/IADAANAA/tzapp_entrylib.lib(qsee_tlmm.o)
 .debug_ranges  0x00001fe0       0x18 /local/mnt/workspace/CRMBuilds/TZ.BF.4.0.3.c1-00005-M8996AAAAANAZT-1_20170110_230814/b/HK11/trustzone_images/core/securemsm/trustzone/qsapps/libs/applib/qsee/build/sampleapp/scorpion/IADAANAA/tzapp_entrylib.lib(qsee_sync.o)
 .debug_ranges  0x00001ff8        0x0 /local/mnt/workspace/CRMBuilds/TZ.BF.4.0.3.c1-00005-M8996AAAAANAZT-1_20170110_230814/b/HK11/trustzone_images/core/securemsm/trustzone/qsapps/libs/applib/qsee/build/sampleapp/scorpion/IADAANAA/tzapp_entrylib.lib(qsee_dcache.o)
 .debug_ranges  0x00001ff8       0x90 /local/mnt/workspace/CRMBuilds/TZ.BF.4.0.3.c1-00005-M8996AAAAANAZT-1_20170110_230814/b/HK11/trustzone_images/core/securemsm/trustzone/qsapps/libs/applib/qsee/build/sampleapp/scorpion/IADAANAA/tzapp_entrylib.lib(qsee_shared_buffer.o)
 .debug_ranges  0x00002088       0x40 /local/mnt/workspace/CRMBuilds/TZ.BF.4.0.3.c1-00005-M8996AAAAANAZT-1_20170110_230814/b/HK11/trustzone_images/core/securemsm/trustzone/qsapps/libs/applib/qsee/build/sampleapp/scorpion/IADAANAA/tzapp_entrylib.lib(qsee_oem_buffer.o)
 .debug_ranges  0x000020c8       0x18 /local/mnt/workspace/CRMBuilds/TZ.BF.4.0.3.c1-00005-M8996AAAAANAZT-1_20170110_230814/b/HK11/trustzone_images/core/securemsm/trustzone/qsapps/libs/applib/qsee/build/sampleapp/scorpion/IADAANAA/tzapp_entrylib.lib(qsee_intmask.o)
 .debug_ranges  0x000020e0       0x30 /local/mnt/workspace/CRMBuilds/TZ.BF.4.0.3.c1-00005-M8996AAAAANAZT-1_20170110_230814/b/HK11/trustzone_images/core/securemsm/trustzone/qsapps/libs/applib/qsee/build/sampleapp/scorpion/IADAANAA/tzapp_entrylib.lib(qsee_trans_ns_addr.o)
 .debug_ranges  0x00002110       0xc8 /local/mnt/workspace/CRMBuilds/TZ.BF.4.0.3.c1-00005-M8996AAAAANAZT-1_20170110_230814/b/HK11/trustzone_images/core/securemsm/trustzone/qsapps/libs/applib/qsee/build/sampleapp/scorpion/IADAANAA/tzapp_entrylib.lib(qsee_appmessage.o)
 .debug_ranges  0x000021d8        0x0 /local/mnt/workspace/CRMBuilds/TZ.BF.4.0.3.c1-00005-M8996AAAAANAZT-1_20170110_230814/b/HK11/trustzone_images/core/securemsm/trustzone/qsapps/libs/applib/qsee/build/sampleapp/scorpion/IADAANAA/tzapp_entrylib.lib(sfs_api.o)
 .debug_ranges  0x000021d8        0x0 /local/mnt/workspace/CRMBuilds/TZ.BF.4.0.3.c1-00005-M8996AAAAANAZT-1_20170110_230814/b/HK11/trustzone_images/core/securemsm/trustzone/qsapps/libs/applib/qsee/build/sampleapp/scorpion/IADAANAA/tzapp_entrylib.lib(tzapp_lib_main.o)
 .debug_ranges  0x000021d8      0x118 /local/mnt/workspace/CRMBuilds/TZ.BF.4.0.3.c1-00005-M8996AAAAANAZT-1_20170110_230814/b/HK11/trustzone_images/core/securemsm/trustzone/qsapps/libs/biometric/build/sampleapp/scorpion/IADAANAA/biometric_lib.lib(biometric.o)
 .debug_ranges  0x000022f0      0x310 /local/mnt/workspace/CRMBuilds/TZ.BF.4.0.3.c1-00005-M8996AAAAANAZT-1_20170110_230814/b/HK11/trustzone_images/core/securemsm/trustzone/qsapps/libs/biometric/build/sampleapp/scorpion/IADAANAA/biometric_lib.lib(biometric_serializer.o)
 .debug_ranges  0x00002600        0x0 /local/mnt/workspace/CRMBuilds/TZ.BF.4.0.3.c1-00005-M8996AAAAANAZT-1_20170110_230814/b/HK11/trustzone_images/core/securemsm/trustzone/qsee/mink/libstd/build/sampleapp/scorpion/IADAANAA/libstd.lib(strnlen.o)
 .debug_ranges  0x00002600        0x0 /local/mnt/workspace/CRMBuilds/TZ.BF.4.0.3.c1-00005-M8996AAAAANAZT-1_20170110_230814/b/HK11/trustzone_images/core/securemsm/trustzone/qsee/mink/libstd/build/sampleapp/scorpion/IADAANAA/libstd.lib(memcmp.o)
 .debug_ranges  0x00002600        0x0 /local/mnt/workspace/CRMBuilds/TZ.BF.4.0.3.c1-00005-M8996AAAAANAZT-1_20170110_230814/b/HK11/trustzone_images/core/securemsm/trustzone/qsee/mink/libstd/build/sampleapp/scorpion/IADAANAA/libstd.lib(strlen.o)
 .debug_ranges  0x00002600        0x0 /local/mnt/workspace/CRMBuilds/TZ.BF.4.0.3.c1-00005-M8996AAAAANAZT-1_20170110_230814/b/HK11/trustzone_images/core/securemsm/trustzone/qsee/mink/libstd/build/sampleapp/scorpion/IADAANAA/libstd.lib(strcmp.o)
 .debug_ranges  0x00002600        0x0 /local/mnt/workspace/CRMBuilds/TZ.BF.4.0.3.c1-00005-M8996AAAAANAZT-1_20170110_230814/b/HK11/trustzone_images/core/securemsm/trustzone/qsee/mink/libstd/build/sampleapp/scorpion/IADAANAA/libstd.lib(strncmp.o)
 .debug_ranges  0x00002600      0x158 /local/mnt/workspace/CRMBuilds/TZ.BF.4.0.3.c1-00005-M8996AAAAANAZT-1_20170110_230814/b/HK11/trustzone_images/core/securemsm/trustzone/qsee/mink/libstd/build/sampleapp/scorpion/IADAANAA/libstd.lib(printf.o)
 .debug_ranges  0x00002758        0x0 /local/mnt/workspace/CRMBuilds/TZ.BF.4.0.3.c1-00005-M8996AAAAANAZT-1_20170110_230814/b/HK11/trustzone_images/core/securemsm/trustzone/qsee/mink/libstd/build/sampleapp/scorpion/IADAANAA/libstd.lib(memchr.o)
 .debug_ranges  0x00002758        0x0 /local/mnt/workspace/CRMBuilds/TZ.BF.4.0.3.c1-00005-M8996AAAAANAZT-1_20170110_230814/b/HK11/trustzone_images/core/securemsm/sse/qsee/SecureTouch/drTs/lib/build/sampleapp/scorpion/IADAANAA/touch_lib.lib(01_open.o)
 .debug_ranges  0x00002758        0x0 /local/mnt/workspace/CRMBuilds/TZ.BF.4.0.3.c1-00005-M8996AAAAANAZT-1_20170110_230814/b/HK11/trustzone_images/core/securemsm/sse/qsee/SecureTouch/drTs/lib/build/sampleapp/scorpion/IADAANAA/touch_lib.lib(02_close.o)
 .debug_ranges  0x00002758        0x0 /local/mnt/workspace/CRMBuilds/TZ.BF.4.0.3.c1-00005-M8996AAAAANAZT-1_20170110_230814/b/HK11/trustzone_images/core/securemsm/sse/qsee/SecureTouch/drTs/lib/build/sampleapp/scorpion/IADAANAA/touch_lib.lib(03_getData.o)
 .debug_ranges  0x00002758        0x0 /local/mnt/workspace/CRMBuilds/TZ.BF.4.0.3.c1-00005-M8996AAAAANAZT-1_20170110_230814/b/HK11/trustzone_images/core/securemsm/trustzone/qsapps/libs/applib/common_applib/build/sampleapp/scorpion/IADAANAA/tzapp_entrylib.lib(gpPersistObjCommon.o)
 .debug_ranges  0x00002758        0x0 /local/mnt/workspace/CRMBuilds/TZ.BF.4.0.3.c1-00005-M8996AAAAANAZT-1_20170110_230814/b/HK11/trustzone_images/core/securemsm/trustzone/qsapps/libs/applib/common_applib/build/sampleapp/scorpion/IADAANAA/tzapp_entrylib.lib(gpPersistentObjects.o)
 .debug_ranges  0x00002758      0x378 /local/mnt/workspace/CRMBuilds/TZ.BF.4.0.3.c1-00005-M8996AAAAANAZT-1_20170110_230814/b/HK11/trustzone_images/core/securemsm/trustzone/qsapps/libs/applib/common_applib/build/sampleapp/scorpion/IADAANAA/tzapp_entrylib.lib(gpPersistObjData.o)
 .debug_ranges  0x00002ad0       0x48 /local/mnt/workspace/CRMBuilds/TZ.BF.4.0.3.c1-00005-M8996AAAAANAZT-1_20170110_230814/b/HK11/trustzone_images/core/securemsm/trustzone/qsapps/libs/applib/common_applib/build/sampleapp/scorpion/IADAANAA/tzapp_entrylib.lib(gpPersistObjHandler.o)
 .debug_ranges  0x00002b18      0x200 /local/mnt/workspace/CRMBuilds/TZ.BF.4.0.3.c1-00005-M8996AAAAANAZT-1_20170110_230814/b/HK11/trustzone_images/core/securemsm/trustzone/qsapps/libs/applib/common_applib/build/sampleapp/scorpion/IADAANAA/tzapp_entrylib.lib(gpPersistObjIndex.o)
 .debug_ranges  0x00002d18      0x2f0 /local/mnt/workspace/CRMBuilds/TZ.BF.4.0.3.c1-00005-M8996AAAAANAZT-1_20170110_230814/b/HK11/trustzone_images/core/securemsm/trustzone/qsapps/libs/applib/common_applib/build/sampleapp/scorpion/IADAANAA/tzapp_entrylib.lib(gpPersistObjVersion.o)
 .debug_ranges  0x00003008       0x90 /local/mnt/workspace/CRMBuilds/TZ.BF.4.0.3.c1-00005-M8996AAAAANAZT-1_20170110_230814/b/HK11/trustzone_images/core/securemsm/trustzone/qsapps/libs/applib/common_applib/build/sampleapp/scorpion/IADAANAA/tzapp_entrylib.lib(gpPersistObjCrypto.o)
 .debug_ranges  0x00003098        0x0 /local/mnt/workspace/CRMBuilds/TZ.BF.4.0.3.c1-00005-M8996AAAAANAZT-1_20170110_230814/b/HK11/trustzone_images/core/securemsm/trustzone/qsapps/libs/applib/common_applib/build/sampleapp/scorpion/IADAANAA/tzapp_entrylib.lib(gpPersistObjFileIO.o)
 .debug_ranges  0x00003098        0x0 /local/mnt/workspace/CRMBuilds/TZ.BF.4.0.3.c1-00005-M8996AAAAANAZT-1_20170110_230814/b/HK11/trustzone_images/core/securemsm/trustzone/qsapps/libs/applib/common_applib/build/sampleapp/scorpion/IADAANAA/tzapp_entrylib.lib(gpFileService.o)
 .debug_ranges  0x00003098        0x0 /local/mnt/workspace/CRMBuilds/TZ.BF.4.0.3.c1-00005-M8996AAAAANAZT-1_20170110_230814/b/HK11/trustzone_images/core/securemsm/trustzone/qsapps/libs/applib/qsee/build/sampleapp/scorpion/IADAANAA/tzapp_entrylib.lib(qsee_cfg_prop_shim.o)
 .debug_ranges  0x00003098        0x0 /local/mnt/workspace/CRMBuilds/TZ.BF.4.0.3.c1-00005-M8996AAAAANAZT-1_20170110_230814/b/HK11/trustzone_images/core/securemsm/trustzone/qsapps/libs/applib/qsee/build/sampleapp/scorpion/IADAANAA/tzapp_entrylib.lib(gpPersistObjPanic.o)
 .debug_ranges  0x00003098        0x0 /local/mnt/workspace/CRMBuilds/TZ.BF.4.0.3.c1-00005-M8996AAAAANAZT-1_20170110_230814/b/HK11/trustzone_images/core/securemsm/trustzone/qsee/mink/libstd/build/sampleapp/scorpion/IADAANAA/libstd.lib(strlcat.o)
 .debug_ranges  0x00003098        0x0 /local/mnt/workspace/CRMBuilds/TZ.BF.4.0.3.c1-00005-M8996AAAAANAZT-1_20170110_230814/b/HK11/trustzone_images/core/securemsm/trustzone/qsee/mink/libstd/build/sampleapp/scorpion/IADAANAA/libstd.lib(memset.o)
 .debug_ranges  0x00003098        0x0 /local/mnt/workspace/CRMBuilds/TZ.BF.4.0.3.c1-00005-M8996AAAAANAZT-1_20170110_230814/b/HK11/trustzone_images/core/securemsm/trustzone/qsee/mink/libstd/build/sampleapp/scorpion/IADAANAA/libstd.lib(memcpy.o)
 .debug_ranges  0x00003098        0x0 /local/mnt/workspace/CRMBuilds/TZ.BF.4.0.3.c1-00005-M8996AAAAANAZT-1_20170110_230814/b/HK11/trustzone_images/core/securemsm/trustzone/qsee/mink/libstd/build/sampleapp/scorpion/IADAANAA/libstd.lib(memmove.o)
 .debug_ranges  0x00003098      0x158 /local/mnt/workspace/CRMBuilds/TZ.BF.4.0.3.c1-00005-M8996AAAAANAZT-1_20170110_230814/b/HK11/trustzone_images/core/securemsm/sse/SecureTouch/controller/build/sampleapp/scorpion/IADAANAA/drts_controller_msm8996.lib(atmel_mxt_ts.o)
 .debug_ranges  0x000031f0      0x230 /local/mnt/workspace/CRMBuilds/TZ.BF.4.0.3.c1-00005-M8996AAAAANAZT-1_20170110_230814/b/HK11/trustzone_images/core/securemsm/sse/SecureTouch/controller/build/sampleapp/scorpion/IADAANAA/drts_controller_msm8996.lib(synaptics_ts.o)
 .debug_ranges  0x00003420        0x0 /local/mnt/workspace/CRMBuilds/TZ.BF.4.0.3.c1-00005-M8996AAAAANAZT-1_20170110_230814/b/HK11/trustzone_images/core/securemsm/sse/log/build/sampleapp/scorpion/IADAANAA/sselog.lib(sselog.o)
 .debug_ranges  0x00003420        0x0 /local/mnt/workspace/CRMBuilds/TZ.BF.4.0.3.c1-00005-M8996AAAAANAZT-1_20170110_230814/b/HK11/trustzone_images/core/securemsm/sse/qsee/SecureTouch/drTs/controller/build/sampleapp/scorpion/IADAANAA/touch_controller_i2c_msm8996.lib(atmel_mxt_ts_i2c.o)
 .debug_ranges  0x00003420        0x0 /local/mnt/workspace/CRMBuilds/TZ.BF.4.0.3.c1-00005-M8996AAAAANAZT-1_20170110_230814/b/HK11/trustzone_images/core/securemsm/sse/qsee/SecureTouch/drTs/controller/build/sampleapp/scorpion/IADAANAA/touch_controller_i2c_msm8996.lib(synaptics_ts_i2c.o)

.debug_frame    0x00000000     0x58a0
 .debug_frame   0x00000000       0x74 /local/mnt/workspace/CRMBuilds/TZ.BF.4.0.3.c1-00005-M8996AAAAANAZT-1_20170110_230814/b/HK11/trustzone_images/core/securemsm/trustzone/qsapps/sampleapp/build/sampleapp/scorpion/IADAANAA/app_main.o
 .debug_frame   0x00000074       0x50 /local/mnt/workspace/CRMBuilds/TZ.BF.4.0.3.c1-00005-M8996AAAAANAZT-1_20170110_230814/b/HK11/trustzone_images/core/securemsm/trustzone/qsapps/sampleapp/build/sampleapp/scorpion/IADAANAA/app_smplserv_test.o
 .debug_frame   0x000000c4       0x34 /local/mnt/workspace/CRMBuilds/TZ.BF.4.0.3.c1-00005-M8996AAAAANAZT-1_20170110_230814/b/HK11/trustzone_images/core/securemsm/trustzone/qsapps/sampleapp/build/sampleapp/scorpion/IADAANAA/app_smplcert_test.o
 .debug_frame   0x000000f8      0x9e4 /local/mnt/workspace/CRMBuilds/TZ.BF.4.0.3.c1-00005-M8996AAAAANAZT-1_20170110_230814/b/HK11/trustzone_images/core/securemsm/trustzone/qsapps/sampleapp/build/sampleapp/scorpion/IADAANAA/app_crypto.o
 .debug_frame   0x00000adc      0x1f4 /local/mnt/workspace/CRMBuilds/TZ.BF.4.0.3.c1-00005-M8996AAAAANAZT-1_20170110_230814/b/HK11/trustzone_images/core/securemsm/trustzone/qsapps/sampleapp/build/sampleapp/scorpion/IADAANAA/app_sfs.o
 .debug_frame   0x00000cd0      0x164 /local/mnt/workspace/CRMBuilds/TZ.BF.4.0.3.c1-00005-M8996AAAAANAZT-1_20170110_230814/b/HK11/trustzone_images/core/securemsm/trustzone/qsapps/sampleapp/build/sampleapp/scorpion/IADAANAA/app_rsa.o
 .debug_frame   0x00000e34      0x22c /local/mnt/workspace/CRMBuilds/TZ.BF.4.0.3.c1-00005-M8996AAAAANAZT-1_20170110_230814/b/HK11/trustzone_images/core/securemsm/trustzone/qsapps/sampleapp/build/sampleapp/scorpion/IADAANAA/qsee_api_tests.o
 .debug_frame   0x00001060       0x74 /local/mnt/workspace/CRMBuilds/TZ.BF.4.0.3.c1-00005-M8996AAAAANAZT-1_20170110_230814/b/HK11/trustzone_images/core/securemsm/trustzone/qsapps/sampleapp/build/sampleapp/scorpion/IADAANAA/app_cmnlib.o
 .debug_frame   0x000010d4       0x38 /local/mnt/workspace/CRMBuilds/TZ.BF.4.0.3.c1-00005-M8996AAAAANAZT-1_20170110_230814/b/HK11/trustzone_images/core/securemsm/trustzone/qsapps/sampleapp/build/sampleapp/scorpion/IADAANAA/app_message_passing.o
 .debug_frame   0x0000110c       0x4c /local/mnt/workspace/CRMBuilds/TZ.BF.4.0.3.c1-00005-M8996AAAAANAZT-1_20170110_230814/b/HK11/trustzone_images/core/securemsm/trustzone/qsapps/sampleapp/build/sampleapp/scorpion/IADAANAA/app_fuses.o
 .debug_frame   0x00001158      0x1f8 /local/mnt/workspace/CRMBuilds/TZ.BF.4.0.3.c1-00005-M8996AAAAANAZT-1_20170110_230814/b/HK11/trustzone_images/core/securemsm/trustzone/qsapps/sampleapp/build/sampleapp/scorpion/IADAANAA/app_stor.o
 .debug_frame   0x00001350       0x64 /local/mnt/workspace/CRMBuilds/TZ.BF.4.0.3.c1-00005-M8996AAAAANAZT-1_20170110_230814/b/HK11/trustzone_images/core/securemsm/trustzone/qsapps/sampleapp/build/sampleapp/scorpion/IADAANAA/app_content_protection.o
 .debug_frame   0x000013b4      0x130 /local/mnt/workspace/CRMBuilds/TZ.BF.4.0.3.c1-00005-M8996AAAAANAZT-1_20170110_230814/b/HK11/trustzone_images/core/securemsm/trustzone/qsapps/sampleapp/build/sampleapp/scorpion/IADAANAA/app_secure_ui.o
 .debug_frame   0x000014e4      0x2c0 /local/mnt/workspace/CRMBuilds/TZ.BF.4.0.3.c1-00005-M8996AAAAANAZT-1_20170110_230814/b/HK11/trustzone_images/core/securemsm/trustzone/qsapps/sampleapp/build/sampleapp/scorpion/IADAANAA/app_bio_lib.o
 .debug_frame   0x000017a4      0x2b0 /local/mnt/workspace/CRMBuilds/TZ.BF.4.0.3.c1-00005-M8996AAAAANAZT-1_20170110_230814/b/HK11/trustzone_images/core/securemsm/trustzone/qsapps/sampleapp/build/sampleapp/scorpion/IADAANAA/app_bulletin_board.o
 .debug_frame   0x00001a54       0x30 /local/mnt/workspace/CRMBuilds/TZ.BF.4.0.3.c1-00005-M8996AAAAANAZT-1_20170110_230814/b/HK11/trustzone_images/core/kernel/libstd/build/sampleapp/scorpion/IADAANAA/libstd.lib(memscpy.o)
 .debug_frame   0x00001a84       0x20 /local/mnt/workspace/CRMBuilds/TZ.BF.4.0.3.c1-00005-M8996AAAAANAZT-1_20170110_230814/b/HK11/trustzone_images/core/kernel/libstd/build/sampleapp/scorpion/IADAANAA/libstd.lib(strlcpy.o)
 .debug_frame   0x00001aa4       0x30 /local/mnt/workspace/CRMBuilds/TZ.BF.4.0.3.c1-00005-M8996AAAAANAZT-1_20170110_230814/b/HK11/trustzone_images/core/kernel/libstd/build/sampleapp/scorpion/IADAANAA/libstd.lib(secure_memset.o)
 .debug_frame   0x00001ad4       0x28 /local/mnt/workspace/CRMBuilds/TZ.BF.4.0.3.c1-00005-M8996AAAAANAZT-1_20170110_230814/b/HK11/trustzone_images/core/kernel/libstd/build/sampleapp/scorpion/IADAANAA/libstd.lib(timesafe_memcmp.o)
 .debug_frame   0x00001afc       0x30 /local/mnt/workspace/CRMBuilds/TZ.BF.4.0.3.c1-00005-M8996AAAAANAZT-1_20170110_230814/b/HK11/trustzone_images/core/kernel/libstd/build/sampleapp/scorpion/IADAANAA/libstd.lib(timesafe_strncmp.o)
 .debug_frame   0x00001b2c      0x2c4 /local/mnt/workspace/CRMBuilds/TZ.BF.4.0.3.c1-00005-M8996AAAAANAZT-1_20170110_230814/b/HK11/trustzone_images/core/securemsm/sse/qsee/SecureUI/build/sampleapp/scorpion/IADAANAA/secure_ui.lib(SecureUI.o)
 .debug_frame   0x00001df0       0x74 /local/mnt/workspace/CRMBuilds/TZ.BF.4.0.3.c1-00005-M8996AAAAANAZT-1_20170110_230814/b/HK11/trustzone_images/core/securemsm/sse/qsee/SecureUILib/lib/build/sampleapp/scorpion/IADAANAA/secure_ui_lib.lib(SecureUILib.o)
 .debug_frame   0x00001e64       0x38 /local/mnt/workspace/CRMBuilds/TZ.BF.4.0.3.c1-00005-M8996AAAAANAZT-1_20170110_230814/b/HK11/trustzone_images/core/securemsm/sse/qsee/SecureUILib/lib/build/sampleapp/scorpion/IADAANAA/secure_ui_lib.lib(01_startTouch.o)
 .debug_frame   0x00001e9c       0x3c /local/mnt/workspace/CRMBuilds/TZ.BF.4.0.3.c1-00005-M8996AAAAANAZT-1_20170110_230814/b/HK11/trustzone_images/core/securemsm/sse/qsee/SecureUILib/lib/build/sampleapp/scorpion/IADAANAA/secure_ui_lib.lib(02_processTouch.o)
 .debug_frame   0x00001ed8       0x54 /local/mnt/workspace/CRMBuilds/TZ.BF.4.0.3.c1-00005-M8996AAAAANAZT-1_20170110_230814/b/HK11/trustzone_images/core/securemsm/sse/qsee/SecureUILib/lib/build/sampleapp/scorpion/IADAANAA/secure_ui_lib.lib(03_stopTouch.o)
 .debug_frame   0x00001f2c      0x37c /local/mnt/workspace/CRMBuilds/TZ.BF.4.0.3.c1-00005-M8996AAAAANAZT-1_20170110_230814/b/HK11/trustzone_images/core/securemsm/trustzone/qsapps/libs/applib/common_applib/build/sampleapp/scorpion/IADAANAA/tzapp_entrylib.lib(common_applib.o)
 .debug_frame   0x000022a8      0x268 /local/mnt/workspace/CRMBuilds/TZ.BF.4.0.3.c1-00005-M8996AAAAANAZT-1_20170110_230814/b/HK11/trustzone_images/core/securemsm/trustzone/qsapps/libs/applib/proxy/build/sampleapp/scorpion/IADAANAA/tzlib_proxy.lib(prxy_services.o)
 .debug_frame   0x00002510      0x340 /local/mnt/workspace/CRMBuilds/TZ.BF.4.0.3.c1-00005-M8996AAAAANAZT-1_20170110_230814/b/HK11/trustzone_images/core/securemsm/trustzone/qsapps/libs/applib/proxy/build/sampleapp/scorpion/IADAANAA/tzlib_proxy.lib(prxy_qsee_shim.o)
 .debug_frame   0x00002850       0xa0 /local/mnt/workspace/CRMBuilds/TZ.BF.4.0.3.c1-00005-M8996AAAAANAZT-1_20170110_230814/b/HK11/trustzone_images/core/securemsm/trustzone/qsapps/libs/applib/proxy/build/sampleapp/scorpion/IADAANAA/tzlib_proxy.lib(prxy_ufaes.o)
 .debug_frame   0x000028f0       0x50 /local/mnt/workspace/CRMBuilds/TZ.BF.4.0.3.c1-00005-M8996AAAAANAZT-1_20170110_230814/b/HK11/trustzone_images/core/securemsm/trustzone/qsapps/libs/applib/proxy/build/sampleapp/scorpion/IADAANAA/tzlib_proxy.lib(prxy_ufdes.o)
 .debug_frame   0x00002940       0x60 /local/mnt/workspace/CRMBuilds/TZ.BF.4.0.3.c1-00005-M8996AAAAANAZT-1_20170110_230814/b/HK11/trustzone_images/core/securemsm/trustzone/qsapps/libs/applib/proxy/build/sampleapp/scorpion/IADAANAA/tzlib_proxy.lib(prxy_ufsha.o)
 .debug_frame   0x000029a0       0x30 /local/mnt/workspace/CRMBuilds/TZ.BF.4.0.3.c1-00005-M8996AAAAANAZT-1_20170110_230814/b/HK11/trustzone_images/core/securemsm/trustzone/qsapps/libs/applib/proxy/build/sampleapp/scorpion/IADAANAA/tzlib_proxy.lib(prxy_secmath.o)
 .debug_frame   0x000029d0       0xb0 /local/mnt/workspace/CRMBuilds/TZ.BF.4.0.3.c1-00005-M8996AAAAANAZT-1_20170110_230814/b/HK11/trustzone_images/core/securemsm/trustzone/qsapps/libs/applib/proxy/build/sampleapp/scorpion/IADAANAA/tzlib_proxy.lib(prxy_secrsa.o)
 .debug_frame   0x00002a80      0x120 /local/mnt/workspace/CRMBuilds/TZ.BF.4.0.3.c1-00005-M8996AAAAANAZT-1_20170110_230814/b/HK11/trustzone_images/core/securemsm/trustzone/qsapps/libs/applib/proxy/build/sampleapp/scorpion/IADAANAA/tzlib_proxy.lib(prxy_ecc.o)
 .debug_frame   0x00002ba0       0xa4 /local/mnt/workspace/CRMBuilds/TZ.BF.4.0.3.c1-00005-M8996AAAAANAZT-1_20170110_230814/b/HK11/trustzone_images/core/securemsm/trustzone/qsapps/libs/applib/qsee/build/sampleapp/scorpion/IADAANAA/tzapp_entrylib.lib(mink_shared_code.o)
 .debug_frame   0x00002c44       0xac /local/mnt/workspace/CRMBuilds/TZ.BF.4.0.3.c1-00005-M8996AAAAANAZT-1_20170110_230814/b/HK11/trustzone_images/core/securemsm/trustzone/qsapps/libs/applib/qsee/build/sampleapp/scorpion/IADAANAA/tzapp_entrylib.lib(qsee_env.o)
 .debug_frame   0x00002cf0      0x168 /local/mnt/workspace/CRMBuilds/TZ.BF.4.0.3.c1-00005-M8996AAAAANAZT-1_20170110_230814/b/HK11/trustzone_images/core/securemsm/trustzone/qsapps/libs/applib/qsee/build/sampleapp/scorpion/IADAANAA/tzapp_entrylib.lib(qsee_core_shim.o)
 .debug_frame   0x00002e58       0x74 /local/mnt/workspace/CRMBuilds/TZ.BF.4.0.3.c1-00005-M8996AAAAANAZT-1_20170110_230814/b/HK11/trustzone_images/core/securemsm/trustzone/qsapps/libs/applib/qsee/build/sampleapp/scorpion/IADAANAA/tzapp_entrylib.lib(qsee_deviceid.o)
 .debug_frame   0x00002ecc       0x34 /local/mnt/workspace/CRMBuilds/TZ.BF.4.0.3.c1-00005-M8996AAAAANAZT-1_20170110_230814/b/HK11/trustzone_images/core/securemsm/trustzone/qsapps/libs/applib/qsee/build/sampleapp/scorpion/IADAANAA/tzapp_entrylib.lib(qsee_prng.o)
 .debug_frame   0x00002f00       0x50 /local/mnt/workspace/CRMBuilds/TZ.BF.4.0.3.c1-00005-M8996AAAAANAZT-1_20170110_230814/b/HK11/trustzone_images/core/securemsm/trustzone/qsapps/libs/applib/qsee/build/sampleapp/scorpion/IADAANAA/tzapp_entrylib.lib(qsee_secdisp.o)
 .debug_frame   0x00002f50       0x9c /local/mnt/workspace/CRMBuilds/TZ.BF.4.0.3.c1-00005-M8996AAAAANAZT-1_20170110_230814/b/HK11/trustzone_images/core/securemsm/trustzone/qsapps/libs/applib/qsee/build/sampleapp/scorpion/IADAANAA/tzapp_entrylib.lib(qsee_nsmem.o)
 .debug_frame   0x00002fec       0x38 /local/mnt/workspace/CRMBuilds/TZ.BF.4.0.3.c1-00005-M8996AAAAANAZT-1_20170110_230814/b/HK11/trustzone_images/core/securemsm/trustzone/qsapps/libs/applib/qsee/build/sampleapp/scorpion/IADAANAA/tzapp_entrylib.lib(qsee_cmac.o)
 .debug_frame   0x00003024       0x48 /local/mnt/workspace/CRMBuilds/TZ.BF.4.0.3.c1-00005-M8996AAAAANAZT-1_20170110_230814/b/HK11/trustzone_images/core/securemsm/trustzone/qsapps/libs/applib/qsee/build/sampleapp/scorpion/IADAANAA/tzapp_entrylib.lib(qsee_crypto_shim.o)
 .debug_frame   0x0000306c       0x64 /local/mnt/workspace/CRMBuilds/TZ.BF.4.0.3.c1-00005-M8996AAAAANAZT-1_20170110_230814/b/HK11/trustzone_images/core/securemsm/trustzone/qsapps/libs/applib/qsee/build/sampleapp/scorpion/IADAANAA/tzapp_entrylib.lib(qsee_timer_shim.o)
 .debug_frame   0x000030d0      0x11c /local/mnt/workspace/CRMBuilds/TZ.BF.4.0.3.c1-00005-M8996AAAAANAZT-1_20170110_230814/b/HK11/trustzone_images/core/securemsm/trustzone/qsapps/libs/applib/qsee/build/sampleapp/scorpion/IADAANAA/tzapp_entrylib.lib(qsee_comstr.o)
 .debug_frame   0x000031ec       0xd0 /local/mnt/workspace/CRMBuilds/TZ.BF.4.0.3.c1-00005-M8996AAAAANAZT-1_20170110_230814/b/HK11/trustzone_images/core/securemsm/trustzone/qsapps/libs/applib/qsee/build/sampleapp/scorpion/IADAANAA/tzapp_entrylib.lib(stor.o)
 .debug_frame   0x000032bc      0x22c /local/mnt/workspace/CRMBuilds/TZ.BF.4.0.3.c1-00005-M8996AAAAANAZT-1_20170110_230814/b/HK11/trustzone_images/core/securemsm/trustzone/qsapps/libs/applib/qsee/build/sampleapp/scorpion/IADAANAA/tzapp_entrylib.lib(stor_gpt.o)
 .debug_frame   0x000034e8      0x128 /local/mnt/workspace/CRMBuilds/TZ.BF.4.0.3.c1-00005-M8996AAAAANAZT-1_20170110_230814/b/HK11/trustzone_images/core/securemsm/trustzone/qsapps/libs/applib/qsee/build/sampleapp/scorpion/IADAANAA/tzapp_entrylib.lib(stor_rpmbw.o)
 .debug_frame   0x00003610       0xd8 /local/mnt/workspace/CRMBuilds/TZ.BF.4.0.3.c1-00005-M8996AAAAANAZT-1_20170110_230814/b/HK11/trustzone_images/core/securemsm/trustzone/qsapps/libs/applib/qsee/build/sampleapp/scorpion/IADAANAA/tzapp_entrylib.lib(qsee_counter_shim.o)
 .debug_frame   0x000036e8      0x12c /local/mnt/workspace/CRMBuilds/TZ.BF.4.0.3.c1-00005-M8996AAAAANAZT-1_20170110_230814/b/HK11/trustzone_images/core/securemsm/trustzone/qsapps/libs/applib/qsee/build/sampleapp/scorpion/IADAANAA/tzapp_entrylib.lib(qsee_cipher.o)
 .debug_frame   0x00003814      0x168 /local/mnt/workspace/CRMBuilds/TZ.BF.4.0.3.c1-00005-M8996AAAAANAZT-1_20170110_230814/b/HK11/trustzone_images/core/securemsm/trustzone/qsapps/libs/applib/qsee/build/sampleapp/scorpion/IADAANAA/tzapp_entrylib.lib(qsee_hash.o)
 .debug_frame   0x0000397c      0x110 /local/mnt/workspace/CRMBuilds/TZ.BF.4.0.3.c1-00005-M8996AAAAANAZT-1_20170110_230814/b/HK11/trustzone_images/core/securemsm/trustzone/qsapps/libs/applib/qsee/build/sampleapp/scorpion/IADAANAA/tzapp_entrylib.lib(qsee_hmac.o)
 .debug_frame   0x00003a8c       0xc4 /local/mnt/workspace/CRMBuilds/TZ.BF.4.0.3.c1-00005-M8996AAAAANAZT-1_20170110_230814/b/HK11/trustzone_images/core/securemsm/trustzone/qsapps/libs/applib/qsee/build/sampleapp/scorpion/IADAANAA/tzapp_entrylib.lib(qsee_i2c.o)
 .debug_frame   0x00003b50       0xe8 /local/mnt/workspace/CRMBuilds/TZ.BF.4.0.3.c1-00005-M8996AAAAANAZT-1_20170110_230814/b/HK11/trustzone_images/core/securemsm/trustzone/qsapps/libs/applib/qsee/build/sampleapp/scorpion/IADAANAA/tzapp_entrylib.lib(qsee_spi.o)
 .debug_frame   0x00003c38       0x48 /local/mnt/workspace/CRMBuilds/TZ.BF.4.0.3.c1-00005-M8996AAAAANAZT-1_20170110_230814/b/HK11/trustzone_images/core/securemsm/trustzone/qsapps/libs/applib/qsee/build/sampleapp/scorpion/IADAANAA/tzapp_entrylib.lib(qsee_bulletin_board_shim.o)
 .debug_frame   0x00003c80      0x104 /local/mnt/workspace/CRMBuilds/TZ.BF.4.0.3.c1-00005-M8996AAAAANAZT-1_20170110_230814/b/HK11/trustzone_images/core/securemsm/trustzone/qsapps/libs/applib/qsee/build/sampleapp/scorpion/IADAANAA/tzapp_entrylib.lib(qsee_tlmm.o)
 .debug_frame   0x00003d84       0x30 /local/mnt/workspace/CRMBuilds/TZ.BF.4.0.3.c1-00005-M8996AAAAANAZT-1_20170110_230814/b/HK11/trustzone_images/core/securemsm/trustzone/qsapps/libs/applib/qsee/build/sampleapp/scorpion/IADAANAA/tzapp_entrylib.lib(qsee_sync.o)
 .debug_frame   0x00003db4       0x7c /local/mnt/workspace/CRMBuilds/TZ.BF.4.0.3.c1-00005-M8996AAAAANAZT-1_20170110_230814/b/HK11/trustzone_images/core/securemsm/trustzone/qsapps/libs/applib/qsee/build/sampleapp/scorpion/IADAANAA/tzapp_entrylib.lib(qsee_dcache.o)
 .debug_frame   0x00003e30       0x54 /local/mnt/workspace/CRMBuilds/TZ.BF.4.0.3.c1-00005-M8996AAAAANAZT-1_20170110_230814/b/HK11/trustzone_images/core/securemsm/trustzone/qsapps/libs/applib/qsee/build/sampleapp/scorpion/IADAANAA/tzapp_entrylib.lib(qsee_shared_buffer.o)
 .debug_frame   0x00003e84       0x88 /local/mnt/workspace/CRMBuilds/TZ.BF.4.0.3.c1-00005-M8996AAAAANAZT-1_20170110_230814/b/HK11/trustzone_images/core/securemsm/trustzone/qsapps/libs/applib/qsee/build/sampleapp/scorpion/IADAANAA/tzapp_entrylib.lib(qsee_oem_buffer.o)
 .debug_frame   0x00003f0c       0x70 /local/mnt/workspace/CRMBuilds/TZ.BF.4.0.3.c1-00005-M8996AAAAANAZT-1_20170110_230814/b/HK11/trustzone_images/core/securemsm/trustzone/qsapps/libs/applib/qsee/build/sampleapp/scorpion/IADAANAA/tzapp_entrylib.lib(qsee_intmask.o)
 .debug_frame   0x00003f7c       0x34 /local/mnt/workspace/CRMBuilds/TZ.BF.4.0.3.c1-00005-M8996AAAAANAZT-1_20170110_230814/b/HK11/trustzone_images/core/securemsm/trustzone/qsapps/libs/applib/qsee/build/sampleapp/scorpion/IADAANAA/tzapp_entrylib.lib(qsee_trans_ns_addr.o)
 .debug_frame   0x00003fb0       0x74 /local/mnt/workspace/CRMBuilds/TZ.BF.4.0.3.c1-00005-M8996AAAAANAZT-1_20170110_230814/b/HK11/trustzone_images/core/securemsm/trustzone/qsapps/libs/applib/qsee/build/sampleapp/scorpion/IADAANAA/tzapp_entrylib.lib(qsee_appmessage.o)
 .debug_frame   0x00004024      0x1a0 /local/mnt/workspace/CRMBuilds/TZ.BF.4.0.3.c1-00005-M8996AAAAANAZT-1_20170110_230814/b/HK11/trustzone_images/core/securemsm/trustzone/qsapps/libs/applib/qsee/build/sampleapp/scorpion/IADAANAA/tzapp_entrylib.lib(sfs_api.o)
 .debug_frame   0x000041c4       0xc8 /local/mnt/workspace/CRMBuilds/TZ.BF.4.0.3.c1-00005-M8996AAAAANAZT-1_20170110_230814/b/HK11/trustzone_images/core/securemsm/trustzone/qsapps/libs/applib/qsee/build/sampleapp/scorpion/IADAANAA/tzapp_entrylib.lib(tzapp_lib_main.o)
 .debug_frame   0x0000428c       0xc4 /local/mnt/workspace/CRMBuilds/TZ.BF.4.0.3.c1-00005-M8996AAAAANAZT-1_20170110_230814/b/HK11/trustzone_images/core/securemsm/trustzone/qsapps/libs/biometric/build/sampleapp/scorpion/IADAANAA/biometric_lib.lib(biometric.o)
 .debug_frame   0x00004350       0xf8 /local/mnt/workspace/CRMBuilds/TZ.BF.4.0.3.c1-00005-M8996AAAAANAZT-1_20170110_230814/b/HK11/trustzone_images/core/securemsm/trustzone/qsapps/libs/biometric/build/sampleapp/scorpion/IADAANAA/biometric_lib.lib(biometric_serializer.o)
 .debug_frame   0x00004448       0x20 /local/mnt/workspace/CRMBuilds/TZ.BF.4.0.3.c1-00005-M8996AAAAANAZT-1_20170110_230814/b/HK11/trustzone_images/core/securemsm/trustzone/qsee/mink/libstd/build/sampleapp/scorpion/IADAANAA/libstd.lib(strnlen.o)
 .debug_frame   0x00004468       0x20 /local/mnt/workspace/CRMBuilds/TZ.BF.4.0.3.c1-00005-M8996AAAAANAZT-1_20170110_230814/b/HK11/trustzone_images/core/securemsm/trustzone/qsee/mink/libstd/build/sampleapp/scorpion/IADAANAA/libstd.lib(memcmp.o)
 .debug_frame   0x00004488       0x20 /local/mnt/workspace/CRMBuilds/TZ.BF.4.0.3.c1-00005-M8996AAAAANAZT-1_20170110_230814/b/HK11/trustzone_images/core/securemsm/trustzone/qsee/mink/libstd/build/sampleapp/scorpion/IADAANAA/libstd.lib(strlen.o)
 .debug_frame   0x000044a8       0x20 /local/mnt/workspace/CRMBuilds/TZ.BF.4.0.3.c1-00005-M8996AAAAANAZT-1_20170110_230814/b/HK11/trustzone_images/core/securemsm/trustzone/qsee/mink/libstd/build/sampleapp/scorpion/IADAANAA/libstd.lib(strcmp.o)
 .debug_frame   0x000044c8       0x28 /local/mnt/workspace/CRMBuilds/TZ.BF.4.0.3.c1-00005-M8996AAAAANAZT-1_20170110_230814/b/HK11/trustzone_images/core/securemsm/trustzone/qsee/mink/libstd/build/sampleapp/scorpion/IADAANAA/libstd.lib(strncmp.o)
 .debug_frame   0x000044f0      0x164 /local/mnt/workspace/CRMBuilds/TZ.BF.4.0.3.c1-00005-M8996AAAAANAZT-1_20170110_230814/b/HK11/trustzone_images/core/securemsm/trustzone/qsee/mink/libstd/build/sampleapp/scorpion/IADAANAA/libstd.lib(printf.o)
 .debug_frame   0x00004654       0x28 /local/mnt/workspace/CRMBuilds/TZ.BF.4.0.3.c1-00005-M8996AAAAANAZT-1_20170110_230814/b/HK11/trustzone_images/core/securemsm/trustzone/qsee/mink/libstd/build/sampleapp/scorpion/IADAANAA/libstd.lib(memchr.o)
 .debug_frame   0x0000467c       0x34 /local/mnt/workspace/CRMBuilds/TZ.BF.4.0.3.c1-00005-M8996AAAAANAZT-1_20170110_230814/b/HK11/trustzone_images/core/securemsm/sse/qsee/SecureTouch/drTs/lib/build/sampleapp/scorpion/IADAANAA/touch_lib.lib(01_open.o)
 .debug_frame   0x000046b0       0x30 /local/mnt/workspace/CRMBuilds/TZ.BF.4.0.3.c1-00005-M8996AAAAANAZT-1_20170110_230814/b/HK11/trustzone_images/core/securemsm/sse/qsee/SecureTouch/drTs/lib/build/sampleapp/scorpion/IADAANAA/touch_lib.lib(02_close.o)
 .debug_frame   0x000046e0       0x54 /local/mnt/workspace/CRMBuilds/TZ.BF.4.0.3.c1-00005-M8996AAAAANAZT-1_20170110_230814/b/HK11/trustzone_images/core/securemsm/sse/qsee/SecureTouch/drTs/lib/build/sampleapp/scorpion/IADAANAA/touch_lib.lib(03_getData.o)
 .debug_frame   0x00004734      0x134 /local/mnt/workspace/CRMBuilds/TZ.BF.4.0.3.c1-00005-M8996AAAAANAZT-1_20170110_230814/b/HK11/trustzone_images/core/securemsm/trustzone/qsapps/libs/applib/common_applib/build/sampleapp/scorpion/IADAANAA/tzapp_entrylib.lib(gpPersistObjCommon.o)
 .debug_frame   0x00004868      0x1ec /local/mnt/workspace/CRMBuilds/TZ.BF.4.0.3.c1-00005-M8996AAAAANAZT-1_20170110_230814/b/HK11/trustzone_images/core/securemsm/trustzone/qsapps/libs/applib/common_applib/build/sampleapp/scorpion/IADAANAA/tzapp_entrylib.lib(gpPersistentObjects.o)
 .debug_frame   0x00004a54      0x2c0 /local/mnt/workspace/CRMBuilds/TZ.BF.4.0.3.c1-00005-M8996AAAAANAZT-1_20170110_230814/b/HK11/trustzone_images/core/securemsm/trustzone/qsapps/libs/applib/common_applib/build/sampleapp/scorpion/IADAANAA/tzapp_entrylib.lib(gpPersistObjData.o)
 .debug_frame   0x00004d14      0x110 /local/mnt/workspace/CRMBuilds/TZ.BF.4.0.3.c1-00005-M8996AAAAANAZT-1_20170110_230814/b/HK11/trustzone_images/core/securemsm/trustzone/qsapps/libs/applib/common_applib/build/sampleapp/scorpion/IADAANAA/tzapp_entrylib.lib(gpPersistObjHandler.o)
 .debug_frame   0x00004e24      0x1dc /local/mnt/workspace/CRMBuilds/TZ.BF.4.0.3.c1-00005-M8996AAAAANAZT-1_20170110_230814/b/HK11/trustzone_images/core/securemsm/trustzone/qsapps/libs/applib/common_applib/build/sampleapp/scorpion/IADAANAA/tzapp_entrylib.lib(gpPersistObjIndex.o)
 .debug_frame   0x00005000      0x168 /local/mnt/workspace/CRMBuilds/TZ.BF.4.0.3.c1-00005-M8996AAAAANAZT-1_20170110_230814/b/HK11/trustzone_images/core/securemsm/trustzone/qsapps/libs/applib/common_applib/build/sampleapp/scorpion/IADAANAA/tzapp_entrylib.lib(gpPersistObjVersion.o)
 .debug_frame   0x00005168      0x11c /local/mnt/workspace/CRMBuilds/TZ.BF.4.0.3.c1-00005-M8996AAAAANAZT-1_20170110_230814/b/HK11/trustzone_images/core/securemsm/trustzone/qsapps/libs/applib/common_applib/build/sampleapp/scorpion/IADAANAA/tzapp_entrylib.lib(gpPersistObjCrypto.o)
 .debug_frame   0x00005284      0x11c /local/mnt/workspace/CRMBuilds/TZ.BF.4.0.3.c1-00005-M8996AAAAANAZT-1_20170110_230814/b/HK11/trustzone_images/core/securemsm/trustzone/qsapps/libs/applib/common_applib/build/sampleapp/scorpion/IADAANAA/tzapp_entrylib.lib(gpPersistObjFileIO.o)
 .debug_frame   0x000053a0       0xb8 /local/mnt/workspace/CRMBuilds/TZ.BF.4.0.3.c1-00005-M8996AAAAANAZT-1_20170110_230814/b/HK11/trustzone_images/core/securemsm/trustzone/qsapps/libs/applib/common_applib/build/sampleapp/scorpion/IADAANAA/tzapp_entrylib.lib(gpFileService.o)
 .debug_frame   0x00005458       0x2c /local/mnt/workspace/CRMBuilds/TZ.BF.4.0.3.c1-00005-M8996AAAAANAZT-1_20170110_230814/b/HK11/trustzone_images/core/securemsm/trustzone/qsapps/libs/applib/qsee/build/sampleapp/scorpion/IADAANAA/tzapp_entrylib.lib(qsee_cfg_prop_shim.o)
 .debug_frame   0x00005484       0x30 /local/mnt/workspace/CRMBuilds/TZ.BF.4.0.3.c1-00005-M8996AAAAANAZT-1_20170110_230814/b/HK11/trustzone_images/core/securemsm/trustzone/qsapps/libs/applib/qsee/build/sampleapp/scorpion/IADAANAA/tzapp_entrylib.lib(gpPersistObjPanic.o)
 .debug_frame   0x000054b4       0x30 /local/mnt/workspace/CRMBuilds/TZ.BF.4.0.3.c1-00005-M8996AAAAANAZT-1_20170110_230814/b/HK11/trustzone_images/core/securemsm/trustzone/qsee/mink/libstd/build/sampleapp/scorpion/IADAANAA/libstd.lib(strlcat.o)
 .debug_frame   0x000054e4       0x20 /local/mnt/workspace/CRMBuilds/TZ.BF.4.0.3.c1-00005-M8996AAAAANAZT-1_20170110_230814/b/HK11/trustzone_images/core/securemsm/trustzone/qsee/mink/libstd/build/sampleapp/scorpion/IADAANAA/libstd.lib(memset.o)
 .debug_frame   0x00005504       0x34 /local/mnt/workspace/CRMBuilds/TZ.BF.4.0.3.c1-00005-M8996AAAAANAZT-1_20170110_230814/b/HK11/trustzone_images/core/securemsm/trustzone/qsee/mink/libstd/build/sampleapp/scorpion/IADAANAA/libstd.lib(memcpy.o)
 .debug_frame   0x00005538       0x34 /local/mnt/workspace/CRMBuilds/TZ.BF.4.0.3.c1-00005-M8996AAAAANAZT-1_20170110_230814/b/HK11/trustzone_images/core/securemsm/trustzone/qsee/mink/libstd/build/sampleapp/scorpion/IADAANAA/libstd.lib(memmove.o)
 .debug_frame   0x0000556c      0x104 /local/mnt/workspace/CRMBuilds/TZ.BF.4.0.3.c1-00005-M8996AAAAANAZT-1_20170110_230814/b/HK11/trustzone_images/core/securemsm/sse/SecureTouch/controller/build/sampleapp/scorpion/IADAANAA/drts_controller_msm8996.lib(atmel_mxt_ts.o)
 .debug_frame   0x00005670       0xd4 /local/mnt/workspace/CRMBuilds/TZ.BF.4.0.3.c1-00005-M8996AAAAANAZT-1_20170110_230814/b/HK11/trustzone_images/core/securemsm/sse/SecureTouch/controller/build/sampleapp/scorpion/IADAANAA/drts_controller_msm8996.lib(synaptics_ts.o)
 .debug_frame   0x00005744       0x3c /local/mnt/workspace/CRMBuilds/TZ.BF.4.0.3.c1-00005-M8996AAAAANAZT-1_20170110_230814/b/HK11/trustzone_images/core/securemsm/sse/log/build/sampleapp/scorpion/IADAANAA/sselog.lib(sselog.o)
 .debug_frame   0x00005780       0x84 /local/mnt/workspace/CRMBuilds/TZ.BF.4.0.3.c1-00005-M8996AAAAANAZT-1_20170110_230814/b/HK11/trustzone_images/core/securemsm/sse/qsee/SecureTouch/drTs/controller/build/sampleapp/scorpion/IADAANAA/touch_controller_i2c_msm8996.lib(atmel_mxt_ts_i2c.o)
 .debug_frame   0x00005804       0x9c /local/mnt/workspace/CRMBuilds/TZ.BF.4.0.3.c1-00005-M8996AAAAANAZT-1_20170110_230814/b/HK11/trustzone_images/core/securemsm/sse/qsee/SecureTouch/drTs/controller/build/sampleapp/scorpion/IADAANAA/touch_controller_i2c_msm8996.lib(synaptics_ts_i2c.o)
